ARM GAS  C:\Users\a85495\AppData\Local\Temp\ccr0TJ7y.s 			page 1


   1              		.cpu cortex-m0
   2              		.fpu softvfp
   3              		.eabi_attribute 20, 1
   4              		.eabi_attribute 21, 1
   5              		.eabi_attribute 23, 3
   6              		.eabi_attribute 24, 1
   7              		.eabi_attribute 25, 1
   8              		.eabi_attribute 26, 1
   9              		.eabi_attribute 30, 1
  10              		.eabi_attribute 34, 0
  11              		.eabi_attribute 18, 4
  12              		.code	16
  13              		.file	"main.c"
  14              		.text
  15              	.Ltext0:
  16              		.cfi_sections	.debug_frame
  17              		.section	.text.read_battery_Handler,"ax",%progbits
  18              		.align	2
  19              		.global	read_battery_Handler
  20              		.code	16
  21              		.thumb_func
  22              		.type	read_battery_Handler, %function
  23              	read_battery_Handler:
  24              	.LFB34:
  25              		.file 1 "main.c"
   1:main.c        **** /* ========================================
   2:main.c        ****  *
   3:main.c        ****  * Copyright ARROW ELECTRONICS, 2017
   4:main.c        ****  * All Rights Reserved
   5:main.c        ****  * UNPUBLISHED, LICENSED SOFTWARE.
   6:main.c        ****  *
   7:main.c        ****  * CONFIDENTIAL AND PROPRIETARY INFORMATION
   8:main.c        ****  * WHICH IS THE PROPERTY OF your company.
   9:main.c        ****  *
  10:main.c        ****  * ========================================
  11:main.c        **** */
  12:main.c        **** 
  13:main.c        **** /* ========================================
  14:main.c        ****  *
  15:main.c        ****  * This code will read the neccessary information from Battery Babysitter
  16:main.c        ****  * And display the necessary information on a 3 LEDs: Green, Yellow, Red
  17:main.c        ****  *
  18:main.c        ****  * ========================================
  19:main.c        **** */
  20:main.c        **** #include "project.h"
  21:main.c        **** #include <batteryMonitor.h>
  22:main.c        **** #include <sev_seg.h>
  23:main.c        **** #include <mySerial.h>
  24:main.c        **** 
  25:main.c        **** //if in debug mode,
  26:main.c        **** //we will never enter hibernate mode
  27:main.c        **** //all that we will be doing is outputing the battery monitor
  28:main.c        **** //values through the UART line
  29:main.c        **** #define _DEBUG 0
  30:main.c        **** 
  31:main.c        **** //if in setup_GPOUT mode,
  32:main.c        **** //the battery monitor will be configured to output
ARM GAS  C:\Users\a85495\AppData\Local\Temp\ccr0TJ7y.s 			page 2


  33:main.c        **** //an active low or active high signal when the
  34:main.c        **** //battery monitor detects that the battery level are low or dangerously low
  35:main.c        **** #define setup_GPOUT 1
  36:main.c        **** 
  37:main.c        **** // Set BATTERY_CAPACITY to the design capacity of your battery.
  38:main.c        **** const unsigned int BATTERY_CAPACITY = 2000; // e.g. 2000mAh battery
  39:main.c        **** const uint8_t SOCI_SET = 15; // Interrupt set threshold at 20%
  40:main.c        **** const uint8_t SOCI_CLR = 20; // Interrupt clear threshold at 25%
  41:main.c        **** const uint8_t SOCF_SET = 5;  // Final threshold set at 5%
  42:main.c        **** const uint8_t SOCF_CLR = 10; // Final threshold clear at 10%
  43:main.c        **** 
  44:main.c        **** #if _DEBUG
  45:main.c        **** void getBatteryStats();
  46:main.c        **** #endif
  47:main.c        **** 
  48:main.c        **** //=============================================================//
  49:main.c        **** //=============Interrupt handler Prototype=====================//
  50:main.c        **** //=============================================================//
  51:main.c        **** 
  52:main.c        **** CY_ISR(read_battery_Handler);
  53:main.c        **** CY_ISR(battery_critical_low_Handler);
  54:main.c        **** 
  55:main.c        **** //=============================================================//
  56:main.c        **** //========Battery Monitor Setup Function Prototype=============//
  57:main.c        **** //=============================================================//
  58:main.c        **** 
  59:main.c        **** void setupBQ27441(void);
  60:main.c        **** 
  61:main.c        **** //=============================================================//
  62:main.c        **** //============LED Toggler Functions Prototype==================//
  63:main.c        **** //=============================================================//
  64:main.c        **** 
  65:main.c        **** void toggleBoardLED   (int numberOfTimes, int delayBetweenBlinks);
  66:main.c        **** void toggleRedLED     (int numberOfTimes, int delayBetweenBlinks);
  67:main.c        **** void toggleYellowLED  (int numberOfTimes, int delayBetweenBlinks);
  68:main.c        **** void toggleGreenLED   (int numberOfTimes, int delayBetweenBlinks);
  69:main.c        **** void toggleSequenceLED(int numberOfTimes, int delayBetweenSequenceToggle);
  70:main.c        **** 
  71:main.c        **** //=============================================================//
  72:main.c        **** //==============Interrupt Handler function=====================//
  73:main.c        **** //=============================================================//
  74:main.c        **** 
  75:main.c        **** CY_ISR(read_battery_Handler){
  26              		.loc 1 75 0
  27              		.cfi_startproc
  28 0000 08B5     		push	{r3, lr}
  29              		.cfi_def_cfa_offset 8
  30              		.cfi_offset 3, -8
  31              		.cfi_offset 14, -4
  76:main.c        ****     
  77:main.c        ****     BOARD_LED_Write(~BOARD_LED_Read());    //TOGGLE THE BOARD LED TO SHOW that we are in an interru
  32              		.loc 1 77 0
  33 0002 FFF7FEFF 		bl	BOARD_LED_Read
  34              	.LVL0:
  35 0006 C043     		mvn	r0, r0
  36 0008 C0B2     		uxtb	r0, r0
  37 000a FFF7FEFF 		bl	BOARD_LED_Write
ARM GAS  C:\Users\a85495\AppData\Local\Temp\ccr0TJ7y.s 			page 3


  38              	.LVL1:
  78:main.c        ****     unsigned int percentage = lipo_soc();  // Read state-of-charge (%)
  39              		.loc 1 78 0
  40 000e FFF7FEFF 		bl	lipo_soc
  41              	.LVL2:
  79:main.c        ****    
  80:main.c        ****     if(percentage >= 25){  //if the state of charge of the battery is greater than 40 percent
  42              		.loc 1 80 0
  43 0012 1828     		cmp	r0, #24
  44 0014 09D9     		bls	.L2
  81:main.c        ****         RED_LED_Write(0);  //Keep the green lights on
  45              		.loc 1 81 0
  46 0016 0020     		mov	r0, #0
  47              	.LVL3:
  48 0018 FFF7FEFF 		bl	RED_LED_Write
  49              	.LVL4:
  82:main.c        ****         YELLOW_LED_Write(0); 
  50              		.loc 1 82 0
  51 001c 0020     		mov	r0, #0
  52 001e FFF7FEFF 		bl	YELLOW_LED_Write
  53              	.LVL5:
  83:main.c        ****         GREEN_LED_Write(1);
  54              		.loc 1 83 0
  55 0022 0120     		mov	r0, #1
  56 0024 FFF7FEFF 		bl	GREEN_LED_Write
  57              	.LVL6:
  58 0028 14E0     		b	.L3
  59              	.LVL7:
  60              	.L2:
  84:main.c        ****     }
  85:main.c        ****     else if(percentage >= 15){ //else if the state of charge of the battery is greater than 15 perc
  61              		.loc 1 85 0
  62 002a 0E28     		cmp	r0, #14
  63 002c 09D9     		bls	.L4
  86:main.c        ****         RED_LED_Write(0);      //Keep the Yellow light on
  64              		.loc 1 86 0
  65 002e 0020     		mov	r0, #0
  66              	.LVL8:
  67 0030 FFF7FEFF 		bl	RED_LED_Write
  68              	.LVL9:
  87:main.c        ****         YELLOW_LED_Write(1);
  69              		.loc 1 87 0
  70 0034 0120     		mov	r0, #1
  71 0036 FFF7FEFF 		bl	YELLOW_LED_Write
  72              	.LVL10:
  88:main.c        ****         GREEN_LED_Write(0);
  73              		.loc 1 88 0
  74 003a 0020     		mov	r0, #0
  75 003c FFF7FEFF 		bl	GREEN_LED_Write
  76              	.LVL11:
  77 0040 08E0     		b	.L3
  78              	.LVL12:
  79              	.L4:
  89:main.c        ****     }
  90:main.c        ****     else{
  91:main.c        ****         RED_LED_Write(1);    //else, which means that State of Charge is less than 15 percent
  80              		.loc 1 91 0
ARM GAS  C:\Users\a85495\AppData\Local\Temp\ccr0TJ7y.s 			page 4


  81 0042 0120     		mov	r0, #1
  82              	.LVL13:
  83 0044 FFF7FEFF 		bl	RED_LED_Write
  84              	.LVL14:
  92:main.c        ****         YELLOW_LED_Write(0); //Keep the red light on to notify the user to charge the base station 
  85              		.loc 1 92 0
  86 0048 0020     		mov	r0, #0
  87 004a FFF7FEFF 		bl	YELLOW_LED_Write
  88              	.LVL15:
  93:main.c        ****         GREEN_LED_Write(0);
  89              		.loc 1 93 0
  90 004e 0020     		mov	r0, #0
  91 0050 FFF7FEFF 		bl	GREEN_LED_Write
  92              	.LVL16:
  93              	.L3:
  94:main.c        ****     }
  95:main.c        ****     CyDelay(10000);
  94              		.loc 1 95 0
  95 0054 0748     		ldr	r0, .L5
  96 0056 FFF7FEFF 		bl	CyDelay
  97              	.LVL17:
  96:main.c        ****     
  97:main.c        ****     RED_LED_Write(0);   //inialize all of the LEDs turned off
  98              		.loc 1 97 0
  99 005a 0020     		mov	r0, #0
 100 005c FFF7FEFF 		bl	RED_LED_Write
 101              	.LVL18:
  98:main.c        ****     YELLOW_LED_Write(0); 
 102              		.loc 1 98 0
 103 0060 0020     		mov	r0, #0
 104 0062 FFF7FEFF 		bl	YELLOW_LED_Write
 105              	.LVL19:
  99:main.c        ****     GREEN_LED_Write(0);
 106              		.loc 1 99 0
 107 0066 0020     		mov	r0, #0
 108 0068 FFF7FEFF 		bl	GREEN_LED_Write
 109              	.LVL20:
 100:main.c        ****     
 101:main.c        ****     butt_pin_ClearInterrupt(); //Clear the interrupt so that we are not going to be stuck in the in
 110              		.loc 1 101 0
 111 006c FFF7FEFF 		bl	butt_pin_ClearInterrupt
 112              	.LVL21:
 102:main.c        **** } 
 113              		.loc 1 102 0
 114              		@ sp needed
 115 0070 08BD     		pop	{r3, pc}
 116              	.L6:
 117 0072 C046     		.align	2
 118              	.L5:
 119 0074 10270000 		.word	10000
 120              		.cfi_endproc
 121              	.LFE34:
 122              		.size	read_battery_Handler, .-read_battery_Handler
 123              		.section	.text.battery_critical_low_Handler,"ax",%progbits
 124              		.align	2
 125              		.global	battery_critical_low_Handler
 126              		.code	16
ARM GAS  C:\Users\a85495\AppData\Local\Temp\ccr0TJ7y.s 			page 5


 127              		.thumb_func
 128              		.type	battery_critical_low_Handler, %function
 129              	battery_critical_low_Handler:
 130              	.LFB35:
 103:main.c        **** 
 104:main.c        **** CY_ISR(battery_critical_low_Handler){
 131              		.loc 1 104 0
 132              		.cfi_startproc
 133 0000 08B5     		push	{r3, lr}
 134              		.cfi_def_cfa_offset 8
 135              		.cfi_offset 3, -8
 136              		.cfi_offset 14, -4
 105:main.c        ****     // Check which of the flags triggered the interrupt
 106:main.c        ****     if (lipo_socfFlag()) {
 137              		.loc 1 106 0
 138 0002 FFF7FEFF 		bl	lipo_socfFlag
 139              	.LVL22:
 140 0006 0028     		cmp	r0, #0
 141 0008 0BD0     		beq	.L8
 107:main.c        ****         #if _DEBUG
 108:main.c        ****             serial_println("<!-- WARNING: Battery Dangerously low -->");
 109:main.c        ****         #else
 110:main.c        ****             RED_LED_Write(1);    
 142              		.loc 1 110 0
 143 000a 0120     		mov	r0, #1
 144 000c FFF7FEFF 		bl	RED_LED_Write
 145              	.LVL23:
 111:main.c        ****             YELLOW_LED_Write(0); 
 146              		.loc 1 111 0
 147 0010 0020     		mov	r0, #0
 148 0012 FFF7FEFF 		bl	YELLOW_LED_Write
 149              	.LVL24:
 112:main.c        ****             GREEN_LED_Write(0);
 150              		.loc 1 112 0
 151 0016 0020     		mov	r0, #0
 152 0018 FFF7FEFF 		bl	GREEN_LED_Write
 153              	.LVL25:
 113:main.c        ****             read_battery_Disable();
 154              		.loc 1 113 0
 155 001c FFF7FEFF 		bl	read_battery_Disable
 156              	.LVL26:
 157 0020 0CE0     		b	.L9
 158              	.L8:
 114:main.c        ****         #endif
 115:main.c        ****     }
 116:main.c        ****     else if (lipo_socFlag()){
 159              		.loc 1 116 0
 160 0022 FFF7FEFF 		bl	lipo_socFlag
 161              	.LVL27:
 162 0026 0028     		cmp	r0, #0
 163 0028 08D0     		beq	.L9
 117:main.c        ****         #if _DEBUG
 118:main.c        ****             serial_println("<!-- WARNING: Battery Low -->");
 119:main.c        ****         #else
 120:main.c        ****             RED_LED_Write(0);    
 164              		.loc 1 120 0
 165 002a 0020     		mov	r0, #0
ARM GAS  C:\Users\a85495\AppData\Local\Temp\ccr0TJ7y.s 			page 6


 166 002c FFF7FEFF 		bl	RED_LED_Write
 167              	.LVL28:
 121:main.c        ****             YELLOW_LED_Write(1); 
 168              		.loc 1 121 0
 169 0030 0120     		mov	r0, #1
 170 0032 FFF7FEFF 		bl	YELLOW_LED_Write
 171              	.LVL29:
 122:main.c        ****             GREEN_LED_Write(0);
 172              		.loc 1 122 0
 173 0036 0020     		mov	r0, #0
 174 0038 FFF7FEFF 		bl	GREEN_LED_Write
 175              	.LVL30:
 176              	.L9:
 123:main.c        ****         #endif
 124:main.c        ****     }
 125:main.c        ****     
 126:main.c        ****     
 127:main.c        ****     GPOUT_ClearInterrupt();
 177              		.loc 1 127 0
 178 003c FFF7FEFF 		bl	GPOUT_ClearInterrupt
 179              	.LVL31:
 128:main.c        **** }
 180              		.loc 1 128 0
 181              		@ sp needed
 182 0040 08BD     		pop	{r3, pc}
 183              		.cfi_endproc
 184              	.LFE35:
 185              		.size	battery_critical_low_Handler, .-battery_critical_low_Handler
 186 0042 C046     		.section	.text.toggleBoardLED,"ax",%progbits
 187              		.align	2
 188              		.global	toggleBoardLED
 189              		.code	16
 190              		.thumb_func
 191              		.type	toggleBoardLED, %function
 192              	toggleBoardLED:
 193              	.LFB38:
 129:main.c        **** 
 130:main.c        **** //=============================================================//
 131:main.c        **** //=======================Main Function=========================//
 132:main.c        **** //=============================================================//
 133:main.c        **** 
 134:main.c        **** int main(void)
 135:main.c        **** {
 136:main.c        ****     CyGlobalIntEnable;                          /* Enable global interrupts. */    
 137:main.c        ****     setupBQ27441();                             //Initializes battery monitor
 138:main.c        ****     read_battery_StartEx(read_battery_Handler); //Sets up the interrupt Handler
 139:main.c        ****     lipo_gpout_StartEx(battery_critical_low_Handler);
 140:main.c        ****     
 141:main.c        ****     RED_LED_Write(0);   //inialize all of the LEDs turned off
 142:main.c        ****     YELLOW_LED_Write(0); 
 143:main.c        ****     GREEN_LED_Write(0);
 144:main.c        ****     
 145:main.c        ****     #if _DEBUG         
 146:main.c        ****         serial_Start(); //If the user wishes to debug, then initialize serial communication
 147:main.c        ****     #else
 148:main.c        ****         //if there was a reset, check if it was caused by a hibernate wakeup
 149:main.c        ****         if(CySysPmGetResetReason() == CY_PM_RESET_REASON_WAKEUP_HIB){
ARM GAS  C:\Users\a85495\AppData\Local\Temp\ccr0TJ7y.s 			page 7


 150:main.c        ****             CySysPmUnfreezeIo(); //if so, unfreeze the GPIO PINS
 151:main.c        ****         }
 152:main.c        ****     #endif
 153:main.c        ****     
 154:main.c        ****     for(;;)
 155:main.c        ****     {
 156:main.c        ****         #if _DEBUG  //if the _DEBUG MACRO value is 1
 157:main.c        ****             getBatteryStats(); //then the user is debuging so allow data to be sent through the UAR
 158:main.c        ****         #else
 159:main.c        ****             //if debug is off then allow for hibernate sleep to occur
 160:main.c        ****             CySysPmFreezeIo(); //allows us to retain their state upon wake up
 161:main.c        ****             //Pulls 150 nA
 162:main.c        ****             CySysPmHibernate(); //Puts the device in Hibernate state
 163:main.c        ****                                 //This turns off all of the clocks but retains logical state
 164:main.c        ****                                 //used for long period of inactivity 
 165:main.c        ****                                 //where the device is not needed for for critical tasks and periodi
 166:main.c        ****                                 //wake ups are not required
 167:main.c        ****                                 //Any exist resets the microcontroller
 168:main.c        ****         #endif
 169:main.c        ****     }
 170:main.c        **** }
 171:main.c        **** 
 172:main.c        **** //=============================================================//
 173:main.c        **** //========Battery Monitor Initialization Function==============//
 174:main.c        **** //=============================================================//
 175:main.c        **** 
 176:main.c        **** void setupBQ27441(void)
 177:main.c        **** {
 178:main.c        ****     #if _DEBUG  
 179:main.c        ****         // Use lipo.begin() to initialize the BQ27441-G1A and confirm that it's
 180:main.c        ****         // connected and communicating.
 181:main.c        ****         serial_println(" Lipo monitor communication being initialized.");
 182:main.c        ****         if (!lipo_begin()) // begin() will return true if communication is successful
 183:main.c        ****         {
 184:main.c        **** 	        // If communication fails, print an error message and loop forever.
 185:main.c        ****             serial_println(" Error: Unable to communicate with BQ27441.");
 186:main.c        ****             serial_println("  Check wiring and try again.");
 187:main.c        ****             serial_println("  (Battery must be plugged into Battery Babysitter!)");
 188:main.c        ****             while (1) ;
 189:main.c        ****         }
 190:main.c        ****         serial_println(" Connected to BQ27441!");
 191:main.c        ****   
 192:main.c        ****         // Uset lipo.setCapacity(BATTERY_CAPACITY) to set the design capacity
 193:main.c        ****         // of your battery.
 194:main.c        ****         serial_println(" Setting Lipo monitor capacity.");
 195:main.c        ****         lipo_setCapacity(BATTERY_CAPACITY);
 196:main.c        ****         serial_println(" Lipo monitor capacity set.");
 197:main.c        ****     #else
 198:main.c        ****         if(!lipo_begin()){  //if the battery monitor does not properly initialize
 199:main.c        ****            while(1){        //Toggle the RED led on indefinetly
 200:main.c        ****                 toggleRedLED(3, 500);
 201:main.c        ****                 CyDelay(2000);
 202:main.c        ****             }
 203:main.c        ****         }
 204:main.c        ****         toggleYellowLED(3, 1000); //else if all connections goes well, toggle the yellow LED 3 time
 205:main.c        ****         CyDelay(1000);            //wait for about 2 seconds to settle down the user after the Yell
 206:main.c        ****         
ARM GAS  C:\Users\a85495\AppData\Local\Temp\ccr0TJ7y.s 			page 8


 207:main.c        ****         lipo_setCapacity(BATTERY_CAPACITY); //set the capacity of the Lipo battery to the specified
 208:main.c        ****         toggleGreenLED(3,1000);             //if the lipo capacity was set correctly and didn't get
 209:main.c        ****                                             //toggle the green LED 3 times with a seond interval to
 210:main.c        ****                                             //Battery Monitor is responsive and fully setup
 211:main.c        ****     #endif
 212:main.c        ****     
 213:main.c        ****     #ifdef setup_GPOUT
 214:main.c        ****         // In this example, we'll manually enter and exit config mode. By controlling
 215:main.c        ****         // config mode manually, you can set the chip up faster -- completing all of
 216:main.c        ****         // the set up in a single config mode sweep.
 217:main.c        ****         lipo_enterConfig(); // To configure the values below, you must be in config mode
 218:main.c        ****         lipo_setCapacity(BATTERY_CAPACITY); // Set the battery capacity
 219:main.c        ****         lipo_setGPOUTPolarity(0); // Set GPOUT to active-high
 220:main.c        ****         lipo_setGPOUTFunction(BAT_LOW); // Set GPOUT to BAT_LOW mode
 221:main.c        ****         lipo_setSOC1Thresholds(SOCI_SET, SOCI_CLR); // Set SOCI set and clear thresholds
 222:main.c        ****         lipo_setSOCFThresholds(SOCF_SET, SOCF_CLR); // Set SOCF set and clear thresholds
 223:main.c        ****         lipo_exitConfig();
 224:main.c        ****     #endif
 225:main.c        **** }
 226:main.c        **** 
 227:main.c        **** //=============================================================//
 228:main.c        **** //==============Battery Monitor Debug Function=================//
 229:main.c        **** //=============================================================//
 230:main.c        **** //=============Only ran if _DEBUG MACRO is a 1=================//
 231:main.c        **** 
 232:main.c        **** #if _DEBUG  //if debug is true then define the function if not it would not compile
 233:main.c        ****     void getBatteryStats()
 234:main.c        ****     {
 235:main.c        **** 
 236:main.c        ****         // Read battery stats from the BQ27441-G1A
 237:main.c        ****         unsigned int soc = lipo_soc();  // Read state-of-charge (%)
 238:main.c        ****         unsigned int volts = lipo_voltage(); // Read battery voltage (mV)
 239:main.c        **** 
 240:main.c        ****         set_lipo_current_arg(AVG);
 241:main.c        ****         int current = lipo_current(/*AVG*/); // Read average current (mA)
 242:main.c        **** 
 243:main.c        ****         set_lipo_capacity_arg(FULL_F);
 244:main.c        ****         unsigned int fullCapacity = lipo_capacity(/*FULL*/); // Read full capacity (mAh)
 245:main.c        **** 
 246:main.c        ****         set_lipo_capacity_arg(REMAIN);
 247:main.c        ****         unsigned int capacity = lipo_capacity(/*REMAIN*/); // Read remaining capacity (mAh)
 248:main.c        **** 
 249:main.c        ****         int power = lipo_power(); // Read average power draw (mW)
 250:main.c        ****         int health = lipo_soh(); // Read state-of-health (%)
 251:main.c        **** 
 252:main.c        **** 
 253:main.c        ****         serial_print("SOC(%) = "); 
 254:main.c        ****         serial_printInt(soc);
 255:main.c        ****         serial_print(" | Volt(mV) = "); 
 256:main.c        ****         serial_printInt(volts);
 257:main.c        ****         serial_print(" | Current(mA) = "); 
 258:main.c        ****         serial_printInt(current);
 259:main.c        **** 
 260:main.c        ****         serial_print(" | Remaining(mAh) = "); 
 261:main.c        ****         serial_printInt(capacity);
 262:main.c        ****         serial_print(" / full(mAh) = "); 
 263:main.c        ****         serial_printInt(fullCapacity);
ARM GAS  C:\Users\a85495\AppData\Local\Temp\ccr0TJ7y.s 			page 9


 264:main.c        ****   
 265:main.c        ****         serial_print(" | Power(mW) = "); 
 266:main.c        ****         serial_printInt(power);
 267:main.c        ****         serial_print(" | Health = "); 
 268:main.c        ****         serial_printIntln(health);
 269:main.c        ****     }
 270:main.c        **** #endif
 271:main.c        **** 
 272:main.c        **** //=============================================================//
 273:main.c        **** //=======Function to help with board signallings===============//
 274:main.c        **** //=============================================================//
 275:main.c        **** 
 276:main.c        **** void toggleBoardLED(int numberOfTimes, int delayBetweenBlinks){
 194              		.loc 1 276 0
 195              		.cfi_startproc
 196              	.LVL32:
 197 0000 70B5     		push	{r4, r5, r6, lr}
 198              		.cfi_def_cfa_offset 16
 199              		.cfi_offset 4, -16
 200              		.cfi_offset 5, -12
 201              		.cfi_offset 6, -8
 202              		.cfi_offset 14, -4
 203 0002 061C     		mov	r6, r0
 204 0004 0C1C     		mov	r4, r1
 205              	.LVL33:
 277:main.c        ****     int i = 0;
 278:main.c        ****     for(i = 0; i<= numberOfTimes; i++){
 206              		.loc 1 278 0
 207 0006 0025     		mov	r5, #0
 208 0008 13E0     		b	.L11
 209              	.LVL34:
 210              	.L12:
 279:main.c        ****         BOARD_LED_Write(~BOARD_LED_Read());
 211              		.loc 1 279 0 discriminator 3
 212 000a FFF7FEFF 		bl	BOARD_LED_Read
 213              	.LVL35:
 214 000e C043     		mvn	r0, r0
 215 0010 C0B2     		uxtb	r0, r0
 216 0012 FFF7FEFF 		bl	BOARD_LED_Write
 217              	.LVL36:
 280:main.c        ****         CyDelay(500);
 218              		.loc 1 280 0 discriminator 3
 219 0016 FA20     		mov	r0, #250
 220 0018 4000     		lsl	r0, r0, #1
 221 001a FFF7FEFF 		bl	CyDelay
 222              	.LVL37:
 281:main.c        ****         BOARD_LED_Write(~BOARD_LED_Read());
 223              		.loc 1 281 0 discriminator 3
 224 001e FFF7FEFF 		bl	BOARD_LED_Read
 225              	.LVL38:
 226 0022 C043     		mvn	r0, r0
 227 0024 C0B2     		uxtb	r0, r0
 228 0026 FFF7FEFF 		bl	BOARD_LED_Write
 229              	.LVL39:
 282:main.c        ****         CyDelay(delayBetweenBlinks);
 230              		.loc 1 282 0 discriminator 3
 231 002a 201C     		mov	r0, r4
ARM GAS  C:\Users\a85495\AppData\Local\Temp\ccr0TJ7y.s 			page 10


 232 002c FFF7FEFF 		bl	CyDelay
 233              	.LVL40:
 278:main.c        ****         BOARD_LED_Write(~BOARD_LED_Read());
 234              		.loc 1 278 0 discriminator 3
 235 0030 0135     		add	r5, r5, #1
 236              	.LVL41:
 237              	.L11:
 278:main.c        ****         BOARD_LED_Write(~BOARD_LED_Read());
 238              		.loc 1 278 0 is_stmt 0 discriminator 1
 239 0032 B542     		cmp	r5, r6
 240 0034 E9DD     		ble	.L12
 283:main.c        ****     }
 284:main.c        **** }
 241              		.loc 1 284 0 is_stmt 1
 242              		@ sp needed
 243              	.LVL42:
 244              	.LVL43:
 245              	.LVL44:
 246 0036 70BD     		pop	{r4, r5, r6, pc}
 247              		.cfi_endproc
 248              	.LFE38:
 249              		.size	toggleBoardLED, .-toggleBoardLED
 250              		.section	.text.toggleRedLED,"ax",%progbits
 251              		.align	2
 252              		.global	toggleRedLED
 253              		.code	16
 254              		.thumb_func
 255              		.type	toggleRedLED, %function
 256              	toggleRedLED:
 257              	.LFB39:
 285:main.c        **** 
 286:main.c        **** void toggleRedLED(int numberOfTimes, int delayBetweenBlinks){
 258              		.loc 1 286 0
 259              		.cfi_startproc
 260              	.LVL45:
 261 0000 70B5     		push	{r4, r5, r6, lr}
 262              		.cfi_def_cfa_offset 16
 263              		.cfi_offset 4, -16
 264              		.cfi_offset 5, -12
 265              		.cfi_offset 6, -8
 266              		.cfi_offset 14, -4
 267 0002 061C     		mov	r6, r0
 268 0004 0C1C     		mov	r4, r1
 269              	.LVL46:
 287:main.c        ****     int i = 0;
 288:main.c        ****     RED_LED_Write(0);
 270              		.loc 1 288 0
 271 0006 0020     		mov	r0, #0
 272              	.LVL47:
 273 0008 FFF7FEFF 		bl	RED_LED_Write
 274              	.LVL48:
 289:main.c        ****     
 290:main.c        ****     for(i = 0; i<= numberOfTimes; i++){
 275              		.loc 1 290 0
 276 000c 0025     		mov	r5, #0
 277 000e 13E0     		b	.L14
 278              	.LVL49:
ARM GAS  C:\Users\a85495\AppData\Local\Temp\ccr0TJ7y.s 			page 11


 279              	.L15:
 291:main.c        ****         RED_LED_Write(~RED_LED_Read());
 280              		.loc 1 291 0 discriminator 3
 281 0010 FFF7FEFF 		bl	RED_LED_Read
 282              	.LVL50:
 283 0014 C043     		mvn	r0, r0
 284 0016 C0B2     		uxtb	r0, r0
 285 0018 FFF7FEFF 		bl	RED_LED_Write
 286              	.LVL51:
 292:main.c        ****         CyDelay(500);
 287              		.loc 1 292 0 discriminator 3
 288 001c FA20     		mov	r0, #250
 289 001e 4000     		lsl	r0, r0, #1
 290 0020 FFF7FEFF 		bl	CyDelay
 291              	.LVL52:
 293:main.c        ****         RED_LED_Write(~RED_LED_Read());
 292              		.loc 1 293 0 discriminator 3
 293 0024 FFF7FEFF 		bl	RED_LED_Read
 294              	.LVL53:
 295 0028 C043     		mvn	r0, r0
 296 002a C0B2     		uxtb	r0, r0
 297 002c FFF7FEFF 		bl	RED_LED_Write
 298              	.LVL54:
 294:main.c        ****         CyDelay(delayBetweenBlinks);
 299              		.loc 1 294 0 discriminator 3
 300 0030 201C     		mov	r0, r4
 301 0032 FFF7FEFF 		bl	CyDelay
 302              	.LVL55:
 290:main.c        ****         RED_LED_Write(~RED_LED_Read());
 303              		.loc 1 290 0 discriminator 3
 304 0036 0135     		add	r5, r5, #1
 305              	.LVL56:
 306              	.L14:
 290:main.c        ****         RED_LED_Write(~RED_LED_Read());
 307              		.loc 1 290 0 is_stmt 0 discriminator 1
 308 0038 B542     		cmp	r5, r6
 309 003a E9DD     		ble	.L15
 295:main.c        ****     }
 296:main.c        **** }
 310              		.loc 1 296 0 is_stmt 1
 311              		@ sp needed
 312              	.LVL57:
 313              	.LVL58:
 314              	.LVL59:
 315 003c 70BD     		pop	{r4, r5, r6, pc}
 316              		.cfi_endproc
 317              	.LFE39:
 318              		.size	toggleRedLED, .-toggleRedLED
 319 003e C046     		.section	.text.toggleYellowLED,"ax",%progbits
 320              		.align	2
 321              		.global	toggleYellowLED
 322              		.code	16
 323              		.thumb_func
 324              		.type	toggleYellowLED, %function
 325              	toggleYellowLED:
 326              	.LFB40:
 297:main.c        **** void toggleYellowLED(int numberOfTimes, int delayBetweenBlinks){
ARM GAS  C:\Users\a85495\AppData\Local\Temp\ccr0TJ7y.s 			page 12


 327              		.loc 1 297 0
 328              		.cfi_startproc
 329              	.LVL60:
 330 0000 70B5     		push	{r4, r5, r6, lr}
 331              		.cfi_def_cfa_offset 16
 332              		.cfi_offset 4, -16
 333              		.cfi_offset 5, -12
 334              		.cfi_offset 6, -8
 335              		.cfi_offset 14, -4
 336 0002 061C     		mov	r6, r0
 337 0004 0C1C     		mov	r4, r1
 338              	.LVL61:
 298:main.c        ****     int i = 0;
 299:main.c        ****     YELLOW_LED_Write(0);
 339              		.loc 1 299 0
 340 0006 0020     		mov	r0, #0
 341              	.LVL62:
 342 0008 FFF7FEFF 		bl	YELLOW_LED_Write
 343              	.LVL63:
 300:main.c        ****     
 301:main.c        ****     for(i = 0; i<= numberOfTimes; i++){
 344              		.loc 1 301 0
 345 000c 0025     		mov	r5, #0
 346 000e 13E0     		b	.L17
 347              	.LVL64:
 348              	.L18:
 302:main.c        ****         YELLOW_LED_Write(~YELLOW_LED_Read());
 349              		.loc 1 302 0 discriminator 3
 350 0010 FFF7FEFF 		bl	YELLOW_LED_Read
 351              	.LVL65:
 352 0014 C043     		mvn	r0, r0
 353 0016 C0B2     		uxtb	r0, r0
 354 0018 FFF7FEFF 		bl	YELLOW_LED_Write
 355              	.LVL66:
 303:main.c        ****         CyDelay(500);
 356              		.loc 1 303 0 discriminator 3
 357 001c FA20     		mov	r0, #250
 358 001e 4000     		lsl	r0, r0, #1
 359 0020 FFF7FEFF 		bl	CyDelay
 360              	.LVL67:
 304:main.c        ****         YELLOW_LED_Write(~YELLOW_LED_Read());
 361              		.loc 1 304 0 discriminator 3
 362 0024 FFF7FEFF 		bl	YELLOW_LED_Read
 363              	.LVL68:
 364 0028 C043     		mvn	r0, r0
 365 002a C0B2     		uxtb	r0, r0
 366 002c FFF7FEFF 		bl	YELLOW_LED_Write
 367              	.LVL69:
 305:main.c        ****         CyDelay(delayBetweenBlinks);
 368              		.loc 1 305 0 discriminator 3
 369 0030 201C     		mov	r0, r4
 370 0032 FFF7FEFF 		bl	CyDelay
 371              	.LVL70:
 301:main.c        ****         YELLOW_LED_Write(~YELLOW_LED_Read());
 372              		.loc 1 301 0 discriminator 3
 373 0036 0135     		add	r5, r5, #1
 374              	.LVL71:
ARM GAS  C:\Users\a85495\AppData\Local\Temp\ccr0TJ7y.s 			page 13


 375              	.L17:
 301:main.c        ****         YELLOW_LED_Write(~YELLOW_LED_Read());
 376              		.loc 1 301 0 is_stmt 0 discriminator 1
 377 0038 B542     		cmp	r5, r6
 378 003a E9DD     		ble	.L18
 306:main.c        ****     }
 307:main.c        **** }
 379              		.loc 1 307 0 is_stmt 1
 380              		@ sp needed
 381              	.LVL72:
 382              	.LVL73:
 383              	.LVL74:
 384 003c 70BD     		pop	{r4, r5, r6, pc}
 385              		.cfi_endproc
 386              	.LFE40:
 387              		.size	toggleYellowLED, .-toggleYellowLED
 388 003e C046     		.section	.text.toggleGreenLED,"ax",%progbits
 389              		.align	2
 390              		.global	toggleGreenLED
 391              		.code	16
 392              		.thumb_func
 393              		.type	toggleGreenLED, %function
 394              	toggleGreenLED:
 395              	.LFB41:
 308:main.c        **** void toggleGreenLED(int numberOfTimes, int delayBetweenBlinks){
 396              		.loc 1 308 0
 397              		.cfi_startproc
 398              	.LVL75:
 399 0000 70B5     		push	{r4, r5, r6, lr}
 400              		.cfi_def_cfa_offset 16
 401              		.cfi_offset 4, -16
 402              		.cfi_offset 5, -12
 403              		.cfi_offset 6, -8
 404              		.cfi_offset 14, -4
 405 0002 061C     		mov	r6, r0
 406 0004 0C1C     		mov	r4, r1
 407              	.LVL76:
 309:main.c        ****     int i = 0;
 310:main.c        ****     GREEN_LED_Write(0);
 408              		.loc 1 310 0
 409 0006 0020     		mov	r0, #0
 410              	.LVL77:
 411 0008 FFF7FEFF 		bl	GREEN_LED_Write
 412              	.LVL78:
 311:main.c        ****     
 312:main.c        ****     for(i = 0; i<= numberOfTimes; i++){
 413              		.loc 1 312 0
 414 000c 0025     		mov	r5, #0
 415 000e 13E0     		b	.L20
 416              	.LVL79:
 417              	.L21:
 313:main.c        ****         GREEN_LED_Write(~GREEN_LED_Read());
 418              		.loc 1 313 0 discriminator 3
 419 0010 FFF7FEFF 		bl	GREEN_LED_Read
 420              	.LVL80:
 421 0014 C043     		mvn	r0, r0
 422 0016 C0B2     		uxtb	r0, r0
ARM GAS  C:\Users\a85495\AppData\Local\Temp\ccr0TJ7y.s 			page 14


 423 0018 FFF7FEFF 		bl	GREEN_LED_Write
 424              	.LVL81:
 314:main.c        ****         CyDelay(500);
 425              		.loc 1 314 0 discriminator 3
 426 001c FA20     		mov	r0, #250
 427 001e 4000     		lsl	r0, r0, #1
 428 0020 FFF7FEFF 		bl	CyDelay
 429              	.LVL82:
 315:main.c        ****         GREEN_LED_Write(~GREEN_LED_Read());
 430              		.loc 1 315 0 discriminator 3
 431 0024 FFF7FEFF 		bl	GREEN_LED_Read
 432              	.LVL83:
 433 0028 C043     		mvn	r0, r0
 434 002a C0B2     		uxtb	r0, r0
 435 002c FFF7FEFF 		bl	GREEN_LED_Write
 436              	.LVL84:
 316:main.c        ****         CyDelay(delayBetweenBlinks);
 437              		.loc 1 316 0 discriminator 3
 438 0030 201C     		mov	r0, r4
 439 0032 FFF7FEFF 		bl	CyDelay
 440              	.LVL85:
 312:main.c        ****         GREEN_LED_Write(~GREEN_LED_Read());
 441              		.loc 1 312 0 discriminator 3
 442 0036 0135     		add	r5, r5, #1
 443              	.LVL86:
 444              	.L20:
 312:main.c        ****         GREEN_LED_Write(~GREEN_LED_Read());
 445              		.loc 1 312 0 is_stmt 0 discriminator 1
 446 0038 B542     		cmp	r5, r6
 447 003a E9DD     		ble	.L21
 317:main.c        ****     }
 318:main.c        **** }
 448              		.loc 1 318 0 is_stmt 1
 449              		@ sp needed
 450              	.LVL87:
 451              	.LVL88:
 452              	.LVL89:
 453 003c 70BD     		pop	{r4, r5, r6, pc}
 454              		.cfi_endproc
 455              	.LFE41:
 456              		.size	toggleGreenLED, .-toggleGreenLED
 457 003e C046     		.section	.text.setupBQ27441,"ax",%progbits
 458              		.align	2
 459              		.global	setupBQ27441
 460              		.code	16
 461              		.thumb_func
 462              		.type	setupBQ27441, %function
 463              	setupBQ27441:
 464              	.LFB37:
 177:main.c        ****     #if _DEBUG  
 465              		.loc 1 177 0
 466              		.cfi_startproc
 467 0000 38B5     		push	{r3, r4, r5, lr}
 468              		.cfi_def_cfa_offset 16
 469              		.cfi_offset 3, -16
 470              		.cfi_offset 4, -12
 471              		.cfi_offset 5, -8
ARM GAS  C:\Users\a85495\AppData\Local\Temp\ccr0TJ7y.s 			page 15


 472              		.cfi_offset 14, -4
 198:main.c        ****            while(1){        //Toggle the RED led on indefinetly
 473              		.loc 1 198 0
 474 0002 FFF7FEFF 		bl	lipo_begin
 475              	.LVL90:
 476 0006 0028     		cmp	r0, #0
 477 0008 09D1     		bne	.L23
 478              	.L24:
 200:main.c        ****                 CyDelay(2000);
 479              		.loc 1 200 0 discriminator 1
 480 000a 0320     		mov	r0, #3
 481 000c FA21     		mov	r1, #250
 482 000e 4900     		lsl	r1, r1, #1
 483 0010 FFF7FEFF 		bl	toggleRedLED
 484              	.LVL91:
 201:main.c        ****             }
 485              		.loc 1 201 0 discriminator 1
 486 0014 FA20     		mov	r0, #250
 487 0016 C000     		lsl	r0, r0, #3
 488 0018 FFF7FEFF 		bl	CyDelay
 489              	.LVL92:
 202:main.c        ****         }
 490              		.loc 1 202 0 discriminator 1
 491 001c F5E7     		b	.L24
 492              	.L23:
 204:main.c        ****         CyDelay(1000);            //wait for about 2 seconds to settle down the user after the Yell
 493              		.loc 1 204 0
 494 001e FA24     		mov	r4, #250
 495 0020 A400     		lsl	r4, r4, #2
 496 0022 0320     		mov	r0, #3
 497 0024 211C     		mov	r1, r4
 498 0026 FFF7FEFF 		bl	toggleYellowLED
 499              	.LVL93:
 205:main.c        ****         
 500              		.loc 1 205 0
 501 002a 201C     		mov	r0, r4
 502 002c FFF7FEFF 		bl	CyDelay
 503              	.LVL94:
 207:main.c        ****         toggleGreenLED(3,1000);             //if the lipo capacity was set correctly and didn't get
 504              		.loc 1 207 0
 505 0030 FA25     		mov	r5, #250
 506 0032 ED00     		lsl	r5, r5, #3
 507 0034 281C     		mov	r0, r5
 508 0036 FFF7FEFF 		bl	lipo_setCapacity
 509              	.LVL95:
 208:main.c        ****                                             //toggle the green LED 3 times with a seond interval to
 510              		.loc 1 208 0
 511 003a 0320     		mov	r0, #3
 512 003c 211C     		mov	r1, r4
 513 003e FFF7FEFF 		bl	toggleGreenLED
 514              	.LVL96:
 217:main.c        ****         lipo_setCapacity(BATTERY_CAPACITY); // Set the battery capacity
 515              		.loc 1 217 0
 516 0042 FFF7FEFF 		bl	lipo_enterConfig
 517              	.LVL97:
 218:main.c        ****         lipo_setGPOUTPolarity(0); // Set GPOUT to active-high
 518              		.loc 1 218 0
ARM GAS  C:\Users\a85495\AppData\Local\Temp\ccr0TJ7y.s 			page 16


 519 0046 281C     		mov	r0, r5
 520 0048 FFF7FEFF 		bl	lipo_setCapacity
 521              	.LVL98:
 219:main.c        ****         lipo_setGPOUTFunction(BAT_LOW); // Set GPOUT to BAT_LOW mode
 522              		.loc 1 219 0
 523 004c 0020     		mov	r0, #0
 524 004e FFF7FEFF 		bl	lipo_setGPOUTPolarity
 525              	.LVL99:
 220:main.c        ****         lipo_setSOC1Thresholds(SOCI_SET, SOCI_CLR); // Set SOCI set and clear thresholds
 526              		.loc 1 220 0
 527 0052 0120     		mov	r0, #1
 528 0054 FFF7FEFF 		bl	lipo_setGPOUTFunction
 529              	.LVL100:
 221:main.c        ****         lipo_setSOCFThresholds(SOCF_SET, SOCF_CLR); // Set SOCF set and clear thresholds
 530              		.loc 1 221 0
 531 0058 0F20     		mov	r0, #15
 532 005a 1421     		mov	r1, #20
 533 005c FFF7FEFF 		bl	lipo_setSOC1Thresholds
 534              	.LVL101:
 222:main.c        ****         lipo_exitConfig();
 535              		.loc 1 222 0
 536 0060 0520     		mov	r0, #5
 537 0062 0A21     		mov	r1, #10
 538 0064 FFF7FEFF 		bl	lipo_setSOCFThresholds
 539              	.LVL102:
 223:main.c        ****     #endif
 540              		.loc 1 223 0
 541 0068 FFF7FEFF 		bl	lipo_exitConfig
 542              	.LVL103:
 225:main.c        **** 
 543              		.loc 1 225 0
 544              		@ sp needed
 545 006c 38BD     		pop	{r3, r4, r5, pc}
 546              		.cfi_endproc
 547              	.LFE37:
 548              		.size	setupBQ27441, .-setupBQ27441
 549 006e C046     		.section	.text.main,"ax",%progbits
 550              		.align	2
 551              		.global	main
 552              		.code	16
 553              		.thumb_func
 554              		.type	main, %function
 555              	main:
 556              	.LFB36:
 135:main.c        ****     CyGlobalIntEnable;                          /* Enable global interrupts. */    
 557              		.loc 1 135 0
 558              		.cfi_startproc
 559 0000 08B5     		push	{r3, lr}
 560              		.cfi_def_cfa_offset 8
 561              		.cfi_offset 3, -8
 562              		.cfi_offset 14, -4
 136:main.c        ****     setupBQ27441();                             //Initializes battery monitor
 563              		.loc 1 136 0
 564              	@ 136 "main.c" 1
 565 0002 62B6     		CPSIE   i
 566              	@ 0 "" 2
 137:main.c        ****     read_battery_StartEx(read_battery_Handler); //Sets up the interrupt Handler
ARM GAS  C:\Users\a85495\AppData\Local\Temp\ccr0TJ7y.s 			page 17


 567              		.loc 1 137 0
 568              		.code	16
 569 0004 FFF7FEFF 		bl	setupBQ27441
 570              	.LVL104:
 138:main.c        ****     lipo_gpout_StartEx(battery_critical_low_Handler);
 571              		.loc 1 138 0
 572 0008 0C48     		ldr	r0, .L28
 573 000a FFF7FEFF 		bl	read_battery_StartEx
 574              	.LVL105:
 139:main.c        ****     
 575              		.loc 1 139 0
 576 000e 0C48     		ldr	r0, .L28+4
 577 0010 FFF7FEFF 		bl	lipo_gpout_StartEx
 578              	.LVL106:
 141:main.c        ****     YELLOW_LED_Write(0); 
 579              		.loc 1 141 0
 580 0014 0020     		mov	r0, #0
 581 0016 FFF7FEFF 		bl	RED_LED_Write
 582              	.LVL107:
 142:main.c        ****     GREEN_LED_Write(0);
 583              		.loc 1 142 0
 584 001a 0020     		mov	r0, #0
 585 001c FFF7FEFF 		bl	YELLOW_LED_Write
 586              	.LVL108:
 143:main.c        ****     
 587              		.loc 1 143 0
 588 0020 0020     		mov	r0, #0
 589 0022 FFF7FEFF 		bl	GREEN_LED_Write
 590              	.LVL109:
 149:main.c        ****             CySysPmUnfreezeIo(); //if so, unfreeze the GPIO PINS
 591              		.loc 1 149 0
 592 0026 FFF7FEFF 		bl	CySysPmGetResetReason
 593              	.LVL110:
 594 002a 0228     		cmp	r0, #2
 595 002c 01D1     		bne	.L27
 150:main.c        ****         }
 596              		.loc 1 150 0
 597 002e FFF7FEFF 		bl	CySysPmUnfreezeIo
 598              	.LVL111:
 599              	.L27:
 160:main.c        ****             //Pulls 150 nA
 600              		.loc 1 160 0 discriminator 1
 601 0032 FFF7FEFF 		bl	CySysPmFreezeIo
 602              	.LVL112:
 162:main.c        ****                                 //This turns off all of the clocks but retains logical state
 603              		.loc 1 162 0 discriminator 1
 604 0036 FFF7FEFF 		bl	CySysPmHibernate
 605              	.LVL113:
 169:main.c        **** }
 606              		.loc 1 169 0 discriminator 1
 607 003a FAE7     		b	.L27
 608              	.L29:
 609              		.align	2
 610              	.L28:
 611 003c 00000000 		.word	read_battery_Handler
 612 0040 00000000 		.word	battery_critical_low_Handler
 613              		.cfi_endproc
ARM GAS  C:\Users\a85495\AppData\Local\Temp\ccr0TJ7y.s 			page 18


 614              	.LFE36:
 615              		.size	main, .-main
 616              		.section	.text.toggleSequenceLED,"ax",%progbits
 617              		.align	2
 618              		.global	toggleSequenceLED
 619              		.code	16
 620              		.thumb_func
 621              		.type	toggleSequenceLED, %function
 622              	toggleSequenceLED:
 623              	.LFB42:
 319:main.c        **** 
 320:main.c        **** void toggleSequenceLED(int numberOfTimes, int delayBetweenSequenceToggle){
 624              		.loc 1 320 0
 625              		.cfi_startproc
 626              	.LVL114:
 627 0000 70B5     		push	{r4, r5, r6, lr}
 628              		.cfi_def_cfa_offset 16
 629              		.cfi_offset 4, -16
 630              		.cfi_offset 5, -12
 631              		.cfi_offset 6, -8
 632              		.cfi_offset 14, -4
 633 0002 061C     		mov	r6, r0
 634 0004 0C1C     		mov	r4, r1
 635              	.LVL115:
 321:main.c        ****     int i = 0;
 322:main.c        ****     RED_LED_Write(0);   //turn all of the LEDS off at first
 636              		.loc 1 322 0
 637 0006 0020     		mov	r0, #0
 638              	.LVL116:
 639 0008 FFF7FEFF 		bl	RED_LED_Write
 640              	.LVL117:
 323:main.c        ****     YELLOW_LED_Write(0);
 641              		.loc 1 323 0
 642 000c 0020     		mov	r0, #0
 643 000e FFF7FEFF 		bl	YELLOW_LED_Write
 644              	.LVL118:
 324:main.c        ****     GREEN_LED_Write(0);
 645              		.loc 1 324 0
 646 0012 0020     		mov	r0, #0
 647 0014 FFF7FEFF 		bl	GREEN_LED_Write
 648              	.LVL119:
 325:main.c        ****     
 326:main.c        ****     for(i = 0; i < (numberOfTimes*2); i++){      //Then, for the number of specified times
 649              		.loc 1 326 0
 650 0018 0025     		mov	r5, #0
 651 001a 1BE0     		b	.L31
 652              	.LVL120:
 653              	.L32:
 327:main.c        ****         RED_LED_Write(~RED_LED_Read());      //toggle each LEDS in a sequence 
 654              		.loc 1 327 0 discriminator 3
 655 001c FFF7FEFF 		bl	RED_LED_Read
 656              	.LVL121:
 657 0020 C043     		mvn	r0, r0
 658 0022 C0B2     		uxtb	r0, r0
 659 0024 FFF7FEFF 		bl	RED_LED_Write
 660              	.LVL122:
 328:main.c        ****         CyDelay(delayBetweenSequenceToggle); //with the given intervals
ARM GAS  C:\Users\a85495\AppData\Local\Temp\ccr0TJ7y.s 			page 19


 661              		.loc 1 328 0 discriminator 3
 662 0028 201C     		mov	r0, r4
 663 002a FFF7FEFF 		bl	CyDelay
 664              	.LVL123:
 329:main.c        ****         YELLOW_LED_Write(~YELLOW_LED_Read());
 665              		.loc 1 329 0 discriminator 3
 666 002e FFF7FEFF 		bl	YELLOW_LED_Read
 667              	.LVL124:
 668 0032 C043     		mvn	r0, r0
 669 0034 C0B2     		uxtb	r0, r0
 670 0036 FFF7FEFF 		bl	YELLOW_LED_Write
 671              	.LVL125:
 330:main.c        ****         CyDelay(delayBetweenSequenceToggle);
 672              		.loc 1 330 0 discriminator 3
 673 003a 201C     		mov	r0, r4
 674 003c FFF7FEFF 		bl	CyDelay
 675              	.LVL126:
 331:main.c        ****         GREEN_LED_Write(~GREEN_LED_Read());
 676              		.loc 1 331 0 discriminator 3
 677 0040 FFF7FEFF 		bl	GREEN_LED_Read
 678              	.LVL127:
 679 0044 C043     		mvn	r0, r0
 680 0046 C0B2     		uxtb	r0, r0
 681 0048 FFF7FEFF 		bl	GREEN_LED_Write
 682              	.LVL128:
 332:main.c        ****         CyDelay(delayBetweenSequenceToggle);
 683              		.loc 1 332 0 discriminator 3
 684 004c 201C     		mov	r0, r4
 685 004e FFF7FEFF 		bl	CyDelay
 686              	.LVL129:
 326:main.c        ****         RED_LED_Write(~RED_LED_Read());      //toggle each LEDS in a sequence 
 687              		.loc 1 326 0 discriminator 3
 688 0052 0135     		add	r5, r5, #1
 689              	.LVL130:
 690              	.L31:
 326:main.c        ****         RED_LED_Write(~RED_LED_Read());      //toggle each LEDS in a sequence 
 691              		.loc 1 326 0 is_stmt 0 discriminator 1
 692 0054 7300     		lsl	r3, r6, #1
 693 0056 AB42     		cmp	r3, r5
 694 0058 E0DC     		bgt	.L32
 333:main.c        ****     }
 334:main.c        **** }
 695              		.loc 1 334 0 is_stmt 1
 696              		@ sp needed
 697              	.LVL131:
 698              	.LVL132:
 699              	.LVL133:
 700 005a 70BD     		pop	{r4, r5, r6, pc}
 701              		.cfi_endproc
 702              	.LFE42:
 703              		.size	toggleSequenceLED, .-toggleSequenceLED
 704              		.global	SOCF_CLR
 705              		.global	SOCF_SET
 706              		.global	SOCI_CLR
 707              		.global	SOCI_SET
 708              		.global	BATTERY_CAPACITY
 709              		.section	.rodata
ARM GAS  C:\Users\a85495\AppData\Local\Temp\ccr0TJ7y.s 			page 20


 710              		.align	2
 711              		.type	SOCF_CLR, %object
 712              		.size	SOCF_CLR, 1
 713              	SOCF_CLR:
 714 0000 0A       		.byte	10
 715              		.type	SOCF_SET, %object
 716              		.size	SOCF_SET, 1
 717              	SOCF_SET:
 718 0001 05       		.byte	5
 719              		.type	SOCI_CLR, %object
 720              		.size	SOCI_CLR, 1
 721              	SOCI_CLR:
 722 0002 14       		.byte	20
 723              		.type	SOCI_SET, %object
 724              		.size	SOCI_SET, 1
 725              	SOCI_SET:
 726 0003 0F       		.byte	15
 727              		.type	BATTERY_CAPACITY, %object
 728              		.size	BATTERY_CAPACITY, 4
 729              	BATTERY_CAPACITY:
 730 0004 D0070000 		.word	2000
 731              		.text
 732              	.Letext0:
 733              		.file 2 "c:\\program files (x86)\\cypress\\psoc creator\\4.0\\psoc creator\\import\\gnu\\arm\\4.9.
 734              		.file 3 "c:\\program files (x86)\\cypress\\psoc creator\\4.0\\psoc creator\\import\\gnu\\arm\\4.9.
 735              		.file 4 "Generated_Source\\PSoC4/cytypes.h"
 736              		.file 5 "..\\..\\..\\..\\PSoC Basestation\\Base_station_src/batteryMonitor.h"
 737              		.file 6 "Generated_Source\\PSoC4/BOARD_LED.h"
 738              		.file 7 "Generated_Source\\PSoC4/RED_LED.h"
 739              		.file 8 "Generated_Source\\PSoC4/YELLOW_LED.h"
 740              		.file 9 "Generated_Source\\PSoC4/GREEN_LED.h"
 741              		.file 10 "Generated_Source\\PSoC4/CyLib.h"
 742              		.file 11 "Generated_Source\\PSoC4/butt_pin.h"
 743              		.file 12 "Generated_Source\\PSoC4/GPOUT.h"
 744              		.file 13 "Generated_Source\\PSoC4/read_battery.h"
 745              		.file 14 "Generated_Source\\PSoC4/lipo_gpout.h"
 746              		.file 15 "Generated_Source\\PSoC4/cyPm.h"