ARM GAS  C:\Users\a85495\AppData\Local\Temp\ccJxQ7Oh.s 			page 1


   1              		.cpu cortex-m0
   2              		.fpu softvfp
   3              		.eabi_attribute 20, 1
   4              		.eabi_attribute 21, 1
   5              		.eabi_attribute 23, 3
   6              		.eabi_attribute 24, 1
   7              		.eabi_attribute 25, 1
   8              		.eabi_attribute 26, 1
   9              		.eabi_attribute 30, 1
  10              		.eabi_attribute 34, 0
  11              		.eabi_attribute 18, 4
  12              		.code	16
  13              		.file	"serial_SPI_UART.c"
  14              		.text
  15              	.Ltext0:
  16              		.cfi_sections	.debug_frame
  17              		.section	.text.serial_SpiUartReadRxData,"ax",%progbits
  18              		.align	2
  19              		.global	serial_SpiUartReadRxData
  20              		.code	16
  21              		.thumb_func
  22              		.type	serial_SpiUartReadRxData, %function
  23              	serial_SpiUartReadRxData:
  24              	.LFB0:
  25              		.file 1 "Generated_Source\\PSoC4\\serial_SPI_UART.c"
   1:Generated_Source\PSoC4/serial_SPI_UART.c **** /***************************************************************************//**
   2:Generated_Source\PSoC4/serial_SPI_UART.c **** * \file serial_SPI_UART.c
   3:Generated_Source\PSoC4/serial_SPI_UART.c **** * \version 3.20
   4:Generated_Source\PSoC4/serial_SPI_UART.c **** *
   5:Generated_Source\PSoC4/serial_SPI_UART.c **** * \brief
   6:Generated_Source\PSoC4/serial_SPI_UART.c **** *  This file provides the source code to the API for the SCB Component in
   7:Generated_Source\PSoC4/serial_SPI_UART.c **** *  SPI and UART modes.
   8:Generated_Source\PSoC4/serial_SPI_UART.c **** *
   9:Generated_Source\PSoC4/serial_SPI_UART.c **** * Note:
  10:Generated_Source\PSoC4/serial_SPI_UART.c **** *
  11:Generated_Source\PSoC4/serial_SPI_UART.c **** *******************************************************************************
  12:Generated_Source\PSoC4/serial_SPI_UART.c **** * \copyright
  13:Generated_Source\PSoC4/serial_SPI_UART.c **** * Copyright 2013-2016, Cypress Semiconductor Corporation.  All rights reserved.
  14:Generated_Source\PSoC4/serial_SPI_UART.c **** * You may use this file only in accordance with the license, terms, conditions,
  15:Generated_Source\PSoC4/serial_SPI_UART.c **** * disclaimers, and limitations in the end user license agreement accompanying
  16:Generated_Source\PSoC4/serial_SPI_UART.c **** * the software package with which this file was provided.
  17:Generated_Source\PSoC4/serial_SPI_UART.c **** *******************************************************************************/
  18:Generated_Source\PSoC4/serial_SPI_UART.c **** 
  19:Generated_Source\PSoC4/serial_SPI_UART.c **** #include "serial_PVT.h"
  20:Generated_Source\PSoC4/serial_SPI_UART.c **** #include "serial_SPI_UART_PVT.h"
  21:Generated_Source\PSoC4/serial_SPI_UART.c **** 
  22:Generated_Source\PSoC4/serial_SPI_UART.c **** /***************************************
  23:Generated_Source\PSoC4/serial_SPI_UART.c **** *        SPI/UART Private Vars
  24:Generated_Source\PSoC4/serial_SPI_UART.c **** ***************************************/
  25:Generated_Source\PSoC4/serial_SPI_UART.c **** 
  26:Generated_Source\PSoC4/serial_SPI_UART.c **** #if(serial_INTERNAL_RX_SW_BUFFER_CONST)
  27:Generated_Source\PSoC4/serial_SPI_UART.c ****     /* Start index to put data into the software receive buffer.*/
  28:Generated_Source\PSoC4/serial_SPI_UART.c ****     volatile uint32 serial_rxBufferHead;
  29:Generated_Source\PSoC4/serial_SPI_UART.c ****     /* Start index to get data from the software receive buffer.*/
  30:Generated_Source\PSoC4/serial_SPI_UART.c ****     volatile uint32 serial_rxBufferTail;
  31:Generated_Source\PSoC4/serial_SPI_UART.c ****     /**
  32:Generated_Source\PSoC4/serial_SPI_UART.c ****     * \addtogroup group_globals
ARM GAS  C:\Users\a85495\AppData\Local\Temp\ccJxQ7Oh.s 			page 2


  33:Generated_Source\PSoC4/serial_SPI_UART.c ****     * \{
  34:Generated_Source\PSoC4/serial_SPI_UART.c ****     */
  35:Generated_Source\PSoC4/serial_SPI_UART.c ****     /** Sets when internal software receive buffer overflow
  36:Generated_Source\PSoC4/serial_SPI_UART.c ****     *  was occurred.
  37:Generated_Source\PSoC4/serial_SPI_UART.c ****     */
  38:Generated_Source\PSoC4/serial_SPI_UART.c ****     volatile uint8  serial_rxBufferOverflow;
  39:Generated_Source\PSoC4/serial_SPI_UART.c ****     /** \} globals */
  40:Generated_Source\PSoC4/serial_SPI_UART.c **** #endif /* (serial_INTERNAL_RX_SW_BUFFER_CONST) */
  41:Generated_Source\PSoC4/serial_SPI_UART.c **** 
  42:Generated_Source\PSoC4/serial_SPI_UART.c **** #if(serial_INTERNAL_TX_SW_BUFFER_CONST)
  43:Generated_Source\PSoC4/serial_SPI_UART.c ****     /* Start index to put data into the software transmit buffer.*/
  44:Generated_Source\PSoC4/serial_SPI_UART.c ****     volatile uint32 serial_txBufferHead;
  45:Generated_Source\PSoC4/serial_SPI_UART.c ****     /* Start index to get data from the software transmit buffer.*/
  46:Generated_Source\PSoC4/serial_SPI_UART.c ****     volatile uint32 serial_txBufferTail;
  47:Generated_Source\PSoC4/serial_SPI_UART.c **** #endif /* (serial_INTERNAL_TX_SW_BUFFER_CONST) */
  48:Generated_Source\PSoC4/serial_SPI_UART.c **** 
  49:Generated_Source\PSoC4/serial_SPI_UART.c **** #if(serial_INTERNAL_RX_SW_BUFFER)
  50:Generated_Source\PSoC4/serial_SPI_UART.c ****     /* Add one element to the buffer to receive full packet. One byte in receive buffer is always e
  51:Generated_Source\PSoC4/serial_SPI_UART.c ****     volatile uint8 serial_rxBufferInternal[serial_INTERNAL_RX_BUFFER_SIZE];
  52:Generated_Source\PSoC4/serial_SPI_UART.c **** #endif /* (serial_INTERNAL_RX_SW_BUFFER) */
  53:Generated_Source\PSoC4/serial_SPI_UART.c **** 
  54:Generated_Source\PSoC4/serial_SPI_UART.c **** #if(serial_INTERNAL_TX_SW_BUFFER)
  55:Generated_Source\PSoC4/serial_SPI_UART.c ****     volatile uint8 serial_txBufferInternal[serial_TX_BUFFER_SIZE];
  56:Generated_Source\PSoC4/serial_SPI_UART.c **** #endif /* (serial_INTERNAL_TX_SW_BUFFER) */
  57:Generated_Source\PSoC4/serial_SPI_UART.c **** 
  58:Generated_Source\PSoC4/serial_SPI_UART.c **** 
  59:Generated_Source\PSoC4/serial_SPI_UART.c **** #if(serial_RX_DIRECTION)
  60:Generated_Source\PSoC4/serial_SPI_UART.c ****     /*******************************************************************************
  61:Generated_Source\PSoC4/serial_SPI_UART.c ****     * Function Name: serial_SpiUartReadRxData
  62:Generated_Source\PSoC4/serial_SPI_UART.c ****     ****************************************************************************//**
  63:Generated_Source\PSoC4/serial_SPI_UART.c ****     *
  64:Generated_Source\PSoC4/serial_SPI_UART.c ****     *  Retrieves the next data element from the receive buffer.
  65:Generated_Source\PSoC4/serial_SPI_UART.c ****     *   - RX software buffer is disabled: Returns data element retrieved from
  66:Generated_Source\PSoC4/serial_SPI_UART.c ****     *     RX FIFO. Undefined data will be returned if the RX FIFO is empty.
  67:Generated_Source\PSoC4/serial_SPI_UART.c ****     *   - RX software buffer is enabled: Returns data element from the software
  68:Generated_Source\PSoC4/serial_SPI_UART.c ****     *     receive buffer. Zero value is returned if the software receive buffer
  69:Generated_Source\PSoC4/serial_SPI_UART.c ****     *     is empty.
  70:Generated_Source\PSoC4/serial_SPI_UART.c ****     *
  71:Generated_Source\PSoC4/serial_SPI_UART.c ****     * \return
  72:Generated_Source\PSoC4/serial_SPI_UART.c ****     *  Next data element from the receive buffer. 
  73:Generated_Source\PSoC4/serial_SPI_UART.c ****     *  The amount of data bits to be received depends on RX data bits selection 
  74:Generated_Source\PSoC4/serial_SPI_UART.c ****     *  (the data bit counting starts from LSB of return value).
  75:Generated_Source\PSoC4/serial_SPI_UART.c ****     *
  76:Generated_Source\PSoC4/serial_SPI_UART.c ****     * \globalvars
  77:Generated_Source\PSoC4/serial_SPI_UART.c ****     *  serial_rxBufferHead - the start index to put data into the 
  78:Generated_Source\PSoC4/serial_SPI_UART.c ****     *  software receive buffer.
  79:Generated_Source\PSoC4/serial_SPI_UART.c ****     *  serial_rxBufferTail - the start index to get data from the 
  80:Generated_Source\PSoC4/serial_SPI_UART.c ****     *  software receive buffer.
  81:Generated_Source\PSoC4/serial_SPI_UART.c ****     *
  82:Generated_Source\PSoC4/serial_SPI_UART.c ****     *******************************************************************************/
  83:Generated_Source\PSoC4/serial_SPI_UART.c ****     uint32 serial_SpiUartReadRxData(void)
  84:Generated_Source\PSoC4/serial_SPI_UART.c ****     {
  26              		.loc 1 84 0
  27              		.cfi_startproc
  28              	.LVL0:
  85:Generated_Source\PSoC4/serial_SPI_UART.c ****         uint32 rxData = 0u;
  86:Generated_Source\PSoC4/serial_SPI_UART.c **** 
ARM GAS  C:\Users\a85495\AppData\Local\Temp\ccJxQ7Oh.s 			page 3


  87:Generated_Source\PSoC4/serial_SPI_UART.c ****     #if (serial_INTERNAL_RX_SW_BUFFER_CONST)
  88:Generated_Source\PSoC4/serial_SPI_UART.c ****         uint32 locTail;
  89:Generated_Source\PSoC4/serial_SPI_UART.c ****     #endif /* (serial_INTERNAL_RX_SW_BUFFER_CONST) */
  90:Generated_Source\PSoC4/serial_SPI_UART.c **** 
  91:Generated_Source\PSoC4/serial_SPI_UART.c ****         #if (serial_CHECK_RX_SW_BUFFER)
  92:Generated_Source\PSoC4/serial_SPI_UART.c ****         {
  93:Generated_Source\PSoC4/serial_SPI_UART.c ****             if (serial_rxBufferHead != serial_rxBufferTail)
  94:Generated_Source\PSoC4/serial_SPI_UART.c ****             {
  95:Generated_Source\PSoC4/serial_SPI_UART.c ****                 /* There is data in RX software buffer */
  96:Generated_Source\PSoC4/serial_SPI_UART.c **** 
  97:Generated_Source\PSoC4/serial_SPI_UART.c ****                 /* Calculate index to read from */
  98:Generated_Source\PSoC4/serial_SPI_UART.c ****                 locTail = (serial_rxBufferTail + 1u);
  99:Generated_Source\PSoC4/serial_SPI_UART.c **** 
 100:Generated_Source\PSoC4/serial_SPI_UART.c ****                 if (serial_INTERNAL_RX_BUFFER_SIZE == locTail)
 101:Generated_Source\PSoC4/serial_SPI_UART.c ****                 {
 102:Generated_Source\PSoC4/serial_SPI_UART.c ****                     locTail = 0u;
 103:Generated_Source\PSoC4/serial_SPI_UART.c ****                 }
 104:Generated_Source\PSoC4/serial_SPI_UART.c **** 
 105:Generated_Source\PSoC4/serial_SPI_UART.c ****                 /* Get data from RX software buffer */
 106:Generated_Source\PSoC4/serial_SPI_UART.c ****                 rxData = serial_GetWordFromRxBuffer(locTail);
 107:Generated_Source\PSoC4/serial_SPI_UART.c **** 
 108:Generated_Source\PSoC4/serial_SPI_UART.c ****                 /* Change index in the buffer */
 109:Generated_Source\PSoC4/serial_SPI_UART.c ****                 serial_rxBufferTail = locTail;
 110:Generated_Source\PSoC4/serial_SPI_UART.c **** 
 111:Generated_Source\PSoC4/serial_SPI_UART.c ****                 #if (serial_CHECK_UART_RTS_CONTROL_FLOW)
 112:Generated_Source\PSoC4/serial_SPI_UART.c ****                 {
 113:Generated_Source\PSoC4/serial_SPI_UART.c ****                     /* Check if RX Not Empty is disabled in the interrupt */
 114:Generated_Source\PSoC4/serial_SPI_UART.c ****                     if (0u == (serial_INTR_RX_MASK_REG & serial_INTR_RX_NOT_EMPTY))
 115:Generated_Source\PSoC4/serial_SPI_UART.c ****                     {
 116:Generated_Source\PSoC4/serial_SPI_UART.c ****                         /* Enable RX Not Empty interrupt source to continue
 117:Generated_Source\PSoC4/serial_SPI_UART.c ****                         * receiving data into software buffer.
 118:Generated_Source\PSoC4/serial_SPI_UART.c ****                         */
 119:Generated_Source\PSoC4/serial_SPI_UART.c ****                         serial_INTR_RX_MASK_REG |= serial_INTR_RX_NOT_EMPTY;
 120:Generated_Source\PSoC4/serial_SPI_UART.c ****                     }
 121:Generated_Source\PSoC4/serial_SPI_UART.c ****                 }
 122:Generated_Source\PSoC4/serial_SPI_UART.c ****                 #endif
 123:Generated_Source\PSoC4/serial_SPI_UART.c **** 
 124:Generated_Source\PSoC4/serial_SPI_UART.c ****             }
 125:Generated_Source\PSoC4/serial_SPI_UART.c ****         }
 126:Generated_Source\PSoC4/serial_SPI_UART.c ****         #else
 127:Generated_Source\PSoC4/serial_SPI_UART.c ****         {
 128:Generated_Source\PSoC4/serial_SPI_UART.c ****             /* Read data from RX FIFO */
 129:Generated_Source\PSoC4/serial_SPI_UART.c ****             rxData = serial_RX_FIFO_RD_REG;
  29              		.loc 1 129 0
  30 0000 014B     		ldr	r3, .L2
  31 0002 1868     		ldr	r0, [r3]
  32              	.LVL1:
 130:Generated_Source\PSoC4/serial_SPI_UART.c ****         }
 131:Generated_Source\PSoC4/serial_SPI_UART.c ****         #endif
 132:Generated_Source\PSoC4/serial_SPI_UART.c **** 
 133:Generated_Source\PSoC4/serial_SPI_UART.c ****         return (rxData);
 134:Generated_Source\PSoC4/serial_SPI_UART.c ****     }
  33              		.loc 1 134 0
  34              		@ sp needed
  35 0004 7047     		bx	lr
  36              	.L3:
  37 0006 C046     		.align	2
ARM GAS  C:\Users\a85495\AppData\Local\Temp\ccJxQ7Oh.s 			page 4


  38              	.L2:
  39 0008 40030740 		.word	1074201408
  40              		.cfi_endproc
  41              	.LFE0:
  42              		.size	serial_SpiUartReadRxData, .-serial_SpiUartReadRxData
  43              		.section	.text.serial_SpiUartGetRxBufferSize,"ax",%progbits
  44              		.align	2
  45              		.global	serial_SpiUartGetRxBufferSize
  46              		.code	16
  47              		.thumb_func
  48              		.type	serial_SpiUartGetRxBufferSize, %function
  49              	serial_SpiUartGetRxBufferSize:
  50              	.LFB1:
 135:Generated_Source\PSoC4/serial_SPI_UART.c **** 
 136:Generated_Source\PSoC4/serial_SPI_UART.c **** 
 137:Generated_Source\PSoC4/serial_SPI_UART.c ****     /*******************************************************************************
 138:Generated_Source\PSoC4/serial_SPI_UART.c ****     * Function Name: serial_SpiUartGetRxBufferSize
 139:Generated_Source\PSoC4/serial_SPI_UART.c ****     ****************************************************************************//**
 140:Generated_Source\PSoC4/serial_SPI_UART.c ****     *
 141:Generated_Source\PSoC4/serial_SPI_UART.c ****     *  Returns the number of received data elements in the receive buffer.
 142:Generated_Source\PSoC4/serial_SPI_UART.c ****     *   - RX software buffer disabled: returns the number of used entries in
 143:Generated_Source\PSoC4/serial_SPI_UART.c ****     *     RX FIFO.
 144:Generated_Source\PSoC4/serial_SPI_UART.c ****     *   - RX software buffer enabled: returns the number of elements which were
 145:Generated_Source\PSoC4/serial_SPI_UART.c ****     *     placed in the receive buffer. This does not include the hardware RX FIFO.
 146:Generated_Source\PSoC4/serial_SPI_UART.c ****     *
 147:Generated_Source\PSoC4/serial_SPI_UART.c ****     * \return
 148:Generated_Source\PSoC4/serial_SPI_UART.c ****     *  Number of received data elements.
 149:Generated_Source\PSoC4/serial_SPI_UART.c ****     *
 150:Generated_Source\PSoC4/serial_SPI_UART.c ****     * \globalvars
 151:Generated_Source\PSoC4/serial_SPI_UART.c ****     *  serial_rxBufferHead - the start index to put data into the 
 152:Generated_Source\PSoC4/serial_SPI_UART.c ****     *  software receive buffer.
 153:Generated_Source\PSoC4/serial_SPI_UART.c ****     *  serial_rxBufferTail - the start index to get data from the 
 154:Generated_Source\PSoC4/serial_SPI_UART.c ****     *  software receive buffer.
 155:Generated_Source\PSoC4/serial_SPI_UART.c ****     *
 156:Generated_Source\PSoC4/serial_SPI_UART.c ****     *******************************************************************************/
 157:Generated_Source\PSoC4/serial_SPI_UART.c ****     uint32 serial_SpiUartGetRxBufferSize(void)
 158:Generated_Source\PSoC4/serial_SPI_UART.c ****     {
  51              		.loc 1 158 0
  52              		.cfi_startproc
 159:Generated_Source\PSoC4/serial_SPI_UART.c ****         uint32 size;
 160:Generated_Source\PSoC4/serial_SPI_UART.c ****     #if (serial_INTERNAL_RX_SW_BUFFER_CONST)
 161:Generated_Source\PSoC4/serial_SPI_UART.c ****         uint32 locHead;
 162:Generated_Source\PSoC4/serial_SPI_UART.c ****     #endif /* (serial_INTERNAL_RX_SW_BUFFER_CONST) */
 163:Generated_Source\PSoC4/serial_SPI_UART.c **** 
 164:Generated_Source\PSoC4/serial_SPI_UART.c ****         #if (serial_CHECK_RX_SW_BUFFER)
 165:Generated_Source\PSoC4/serial_SPI_UART.c ****         {
 166:Generated_Source\PSoC4/serial_SPI_UART.c ****             locHead = serial_rxBufferHead;
 167:Generated_Source\PSoC4/serial_SPI_UART.c **** 
 168:Generated_Source\PSoC4/serial_SPI_UART.c ****             if(locHead >= serial_rxBufferTail)
 169:Generated_Source\PSoC4/serial_SPI_UART.c ****             {
 170:Generated_Source\PSoC4/serial_SPI_UART.c ****                 size = (locHead - serial_rxBufferTail);
 171:Generated_Source\PSoC4/serial_SPI_UART.c ****             }
 172:Generated_Source\PSoC4/serial_SPI_UART.c ****             else
 173:Generated_Source\PSoC4/serial_SPI_UART.c ****             {
 174:Generated_Source\PSoC4/serial_SPI_UART.c ****                 size = (locHead + (serial_INTERNAL_RX_BUFFER_SIZE - serial_rxBufferTail));
 175:Generated_Source\PSoC4/serial_SPI_UART.c ****             }
 176:Generated_Source\PSoC4/serial_SPI_UART.c ****         }
ARM GAS  C:\Users\a85495\AppData\Local\Temp\ccJxQ7Oh.s 			page 5


 177:Generated_Source\PSoC4/serial_SPI_UART.c ****         #else
 178:Generated_Source\PSoC4/serial_SPI_UART.c ****         {
 179:Generated_Source\PSoC4/serial_SPI_UART.c ****             size = serial_GET_RX_FIFO_ENTRIES;
  53              		.loc 1 179 0
  54 0000 024B     		ldr	r3, .L5
  55 0002 1B68     		ldr	r3, [r3]
  56 0004 0F20     		mov	r0, #15
  57 0006 1840     		and	r0, r3
  58              	.LVL2:
 180:Generated_Source\PSoC4/serial_SPI_UART.c ****         }
 181:Generated_Source\PSoC4/serial_SPI_UART.c ****         #endif
 182:Generated_Source\PSoC4/serial_SPI_UART.c **** 
 183:Generated_Source\PSoC4/serial_SPI_UART.c ****         return (size);
 184:Generated_Source\PSoC4/serial_SPI_UART.c ****     }
  59              		.loc 1 184 0
  60              		@ sp needed
  61 0008 7047     		bx	lr
  62              	.L6:
  63 000a C046     		.align	2
  64              	.L5:
  65 000c 08030740 		.word	1074201352
  66              		.cfi_endproc
  67              	.LFE1:
  68              		.size	serial_SpiUartGetRxBufferSize, .-serial_SpiUartGetRxBufferSize
  69              		.section	.text.serial_SpiUartClearRxBuffer,"ax",%progbits
  70              		.align	2
  71              		.global	serial_SpiUartClearRxBuffer
  72              		.code	16
  73              		.thumb_func
  74              		.type	serial_SpiUartClearRxBuffer, %function
  75              	serial_SpiUartClearRxBuffer:
  76              	.LFB2:
 185:Generated_Source\PSoC4/serial_SPI_UART.c **** 
 186:Generated_Source\PSoC4/serial_SPI_UART.c **** 
 187:Generated_Source\PSoC4/serial_SPI_UART.c ****     /*******************************************************************************
 188:Generated_Source\PSoC4/serial_SPI_UART.c ****     * Function Name: serial_SpiUartClearRxBuffer
 189:Generated_Source\PSoC4/serial_SPI_UART.c ****     ****************************************************************************//**
 190:Generated_Source\PSoC4/serial_SPI_UART.c ****     *
 191:Generated_Source\PSoC4/serial_SPI_UART.c ****     *  Clears the receive buffer and RX FIFO.
 192:Generated_Source\PSoC4/serial_SPI_UART.c ****     *
 193:Generated_Source\PSoC4/serial_SPI_UART.c ****     * \globalvars
 194:Generated_Source\PSoC4/serial_SPI_UART.c ****     *  serial_rxBufferHead - the start index to put data into the 
 195:Generated_Source\PSoC4/serial_SPI_UART.c ****     *  software receive buffer.
 196:Generated_Source\PSoC4/serial_SPI_UART.c ****     *  serial_rxBufferTail - the start index to get data from the 
 197:Generated_Source\PSoC4/serial_SPI_UART.c ****     *  software receive buffer.
 198:Generated_Source\PSoC4/serial_SPI_UART.c ****     *
 199:Generated_Source\PSoC4/serial_SPI_UART.c ****     *******************************************************************************/
 200:Generated_Source\PSoC4/serial_SPI_UART.c ****     void serial_SpiUartClearRxBuffer(void)
 201:Generated_Source\PSoC4/serial_SPI_UART.c ****     {
  77              		.loc 1 201 0
  78              		.cfi_startproc
 202:Generated_Source\PSoC4/serial_SPI_UART.c ****         #if (serial_CHECK_RX_SW_BUFFER)
 203:Generated_Source\PSoC4/serial_SPI_UART.c ****         {
 204:Generated_Source\PSoC4/serial_SPI_UART.c ****             /* Lock from component interruption */
 205:Generated_Source\PSoC4/serial_SPI_UART.c ****             serial_DisableInt();
 206:Generated_Source\PSoC4/serial_SPI_UART.c **** 
 207:Generated_Source\PSoC4/serial_SPI_UART.c ****             /* Flush RX software buffer */
ARM GAS  C:\Users\a85495\AppData\Local\Temp\ccJxQ7Oh.s 			page 6


 208:Generated_Source\PSoC4/serial_SPI_UART.c ****             serial_rxBufferHead = serial_rxBufferTail;
 209:Generated_Source\PSoC4/serial_SPI_UART.c ****             serial_rxBufferOverflow = 0u;
 210:Generated_Source\PSoC4/serial_SPI_UART.c **** 
 211:Generated_Source\PSoC4/serial_SPI_UART.c ****             serial_CLEAR_RX_FIFO;
 212:Generated_Source\PSoC4/serial_SPI_UART.c ****             serial_ClearRxInterruptSource(serial_INTR_RX_ALL);
 213:Generated_Source\PSoC4/serial_SPI_UART.c **** 
 214:Generated_Source\PSoC4/serial_SPI_UART.c ****             #if (serial_CHECK_UART_RTS_CONTROL_FLOW)
 215:Generated_Source\PSoC4/serial_SPI_UART.c ****             {
 216:Generated_Source\PSoC4/serial_SPI_UART.c ****                 /* Enable RX Not Empty interrupt source to continue receiving
 217:Generated_Source\PSoC4/serial_SPI_UART.c ****                 * data into software buffer.
 218:Generated_Source\PSoC4/serial_SPI_UART.c ****                 */
 219:Generated_Source\PSoC4/serial_SPI_UART.c ****                 serial_INTR_RX_MASK_REG |= serial_INTR_RX_NOT_EMPTY;
 220:Generated_Source\PSoC4/serial_SPI_UART.c ****             }
 221:Generated_Source\PSoC4/serial_SPI_UART.c ****             #endif
 222:Generated_Source\PSoC4/serial_SPI_UART.c ****             
 223:Generated_Source\PSoC4/serial_SPI_UART.c ****             /* Release lock */
 224:Generated_Source\PSoC4/serial_SPI_UART.c ****             serial_EnableInt();
 225:Generated_Source\PSoC4/serial_SPI_UART.c ****         }
 226:Generated_Source\PSoC4/serial_SPI_UART.c ****         #else
 227:Generated_Source\PSoC4/serial_SPI_UART.c ****         {
 228:Generated_Source\PSoC4/serial_SPI_UART.c ****             serial_CLEAR_RX_FIFO;
  79              		.loc 1 228 0
  80 0000 054B     		ldr	r3, .L8
  81 0002 1A68     		ldr	r2, [r3]
  82 0004 8021     		mov	r1, #128
  83 0006 4902     		lsl	r1, r1, #9
  84 0008 0A43     		orr	r2, r1
  85 000a 1A60     		str	r2, [r3]
  86 000c 1968     		ldr	r1, [r3]
  87 000e 034A     		ldr	r2, .L8+4
  88 0010 0A40     		and	r2, r1
  89 0012 1A60     		str	r2, [r3]
 229:Generated_Source\PSoC4/serial_SPI_UART.c ****         }
 230:Generated_Source\PSoC4/serial_SPI_UART.c ****         #endif
 231:Generated_Source\PSoC4/serial_SPI_UART.c ****     }
  90              		.loc 1 231 0
  91              		@ sp needed
  92 0014 7047     		bx	lr
  93              	.L9:
  94 0016 C046     		.align	2
  95              	.L8:
  96 0018 04030740 		.word	1074201348
  97 001c FFFFFEFF 		.word	-65537
  98              		.cfi_endproc
  99              	.LFE2:
 100              		.size	serial_SpiUartClearRxBuffer, .-serial_SpiUartClearRxBuffer
 101              		.section	.text.serial_SpiUartWriteTxData,"ax",%progbits
 102              		.align	2
 103              		.global	serial_SpiUartWriteTxData
 104              		.code	16
 105              		.thumb_func
 106              		.type	serial_SpiUartWriteTxData, %function
 107              	serial_SpiUartWriteTxData:
 108              	.LFB3:
 232:Generated_Source\PSoC4/serial_SPI_UART.c **** 
 233:Generated_Source\PSoC4/serial_SPI_UART.c **** #endif /* (serial_RX_DIRECTION) */
 234:Generated_Source\PSoC4/serial_SPI_UART.c **** 
ARM GAS  C:\Users\a85495\AppData\Local\Temp\ccJxQ7Oh.s 			page 7


 235:Generated_Source\PSoC4/serial_SPI_UART.c **** 
 236:Generated_Source\PSoC4/serial_SPI_UART.c **** #if(serial_TX_DIRECTION)
 237:Generated_Source\PSoC4/serial_SPI_UART.c ****     /*******************************************************************************
 238:Generated_Source\PSoC4/serial_SPI_UART.c ****     * Function Name: serial_SpiUartWriteTxData
 239:Generated_Source\PSoC4/serial_SPI_UART.c ****     ****************************************************************************//**
 240:Generated_Source\PSoC4/serial_SPI_UART.c ****     *
 241:Generated_Source\PSoC4/serial_SPI_UART.c ****     *  Places a data entry into the transmit buffer to be sent at the next available
 242:Generated_Source\PSoC4/serial_SPI_UART.c ****     *  bus time.
 243:Generated_Source\PSoC4/serial_SPI_UART.c ****     *  This function is blocking and waits until there is space available to put the
 244:Generated_Source\PSoC4/serial_SPI_UART.c ****     *  requested data in the transmit buffer.
 245:Generated_Source\PSoC4/serial_SPI_UART.c ****     *
 246:Generated_Source\PSoC4/serial_SPI_UART.c ****     *  \param txDataByte: the data to be transmitted.
 247:Generated_Source\PSoC4/serial_SPI_UART.c ****     *   The amount of data bits to be transmitted depends on TX data bits selection 
 248:Generated_Source\PSoC4/serial_SPI_UART.c ****     *   (the data bit counting starts from LSB of txDataByte).
 249:Generated_Source\PSoC4/serial_SPI_UART.c ****     *
 250:Generated_Source\PSoC4/serial_SPI_UART.c ****     * \globalvars
 251:Generated_Source\PSoC4/serial_SPI_UART.c ****     *  serial_txBufferHead - the start index to put data into the 
 252:Generated_Source\PSoC4/serial_SPI_UART.c ****     *  software transmit buffer.
 253:Generated_Source\PSoC4/serial_SPI_UART.c ****     *  serial_txBufferTail - start index to get data from the software
 254:Generated_Source\PSoC4/serial_SPI_UART.c ****     *  transmit buffer.
 255:Generated_Source\PSoC4/serial_SPI_UART.c ****     *
 256:Generated_Source\PSoC4/serial_SPI_UART.c ****     *******************************************************************************/
 257:Generated_Source\PSoC4/serial_SPI_UART.c ****     void serial_SpiUartWriteTxData(uint32 txData)
 258:Generated_Source\PSoC4/serial_SPI_UART.c ****     {
 109              		.loc 1 258 0
 110              		.cfi_startproc
 111              	.LVL3:
 259:Generated_Source\PSoC4/serial_SPI_UART.c ****     #if (serial_INTERNAL_TX_SW_BUFFER_CONST)
 260:Generated_Source\PSoC4/serial_SPI_UART.c ****         uint32 locHead;
 261:Generated_Source\PSoC4/serial_SPI_UART.c ****     #endif /* (serial_INTERNAL_TX_SW_BUFFER_CONST) */
 262:Generated_Source\PSoC4/serial_SPI_UART.c **** 
 263:Generated_Source\PSoC4/serial_SPI_UART.c ****         #if (serial_CHECK_TX_SW_BUFFER)
 264:Generated_Source\PSoC4/serial_SPI_UART.c ****         {
 265:Generated_Source\PSoC4/serial_SPI_UART.c ****             /* Put data directly into the TX FIFO */
 266:Generated_Source\PSoC4/serial_SPI_UART.c ****             if ((serial_txBufferHead == serial_txBufferTail) &&
 112              		.loc 1 266 0
 113 0000 144B     		ldr	r3, .L16
 114 0002 1A68     		ldr	r2, [r3]
 115 0004 144B     		ldr	r3, .L16+4
 116 0006 1B68     		ldr	r3, [r3]
 117 0008 9A42     		cmp	r2, r3
 118 000a 08D1     		bne	.L11
 267:Generated_Source\PSoC4/serial_SPI_UART.c ****                 (serial_SPI_UART_FIFO_SIZE != serial_GET_TX_FIFO_ENTRIES))
 119              		.loc 1 267 0 discriminator 1
 120 000c 134B     		ldr	r3, .L16+8
 121 000e 1B68     		ldr	r3, [r3]
 122 0010 0F22     		mov	r2, #15
 123 0012 1340     		and	r3, r2
 266:Generated_Source\PSoC4/serial_SPI_UART.c ****                 (serial_SPI_UART_FIFO_SIZE != serial_GET_TX_FIFO_ENTRIES))
 124              		.loc 1 266 0 discriminator 1
 125 0014 082B     		cmp	r3, #8
 126 0016 02D0     		beq	.L11
 268:Generated_Source\PSoC4/serial_SPI_UART.c ****             {
 269:Generated_Source\PSoC4/serial_SPI_UART.c ****                 /* TX software buffer is empty: put data directly in TX FIFO */
 270:Generated_Source\PSoC4/serial_SPI_UART.c ****                 serial_TX_FIFO_WR_REG = txData;
 127              		.loc 1 270 0
 128 0018 114B     		ldr	r3, .L16+12
ARM GAS  C:\Users\a85495\AppData\Local\Temp\ccJxQ7Oh.s 			page 8


 129 001a 1860     		str	r0, [r3]
 130 001c 19E0     		b	.L10
 131              	.L11:
 271:Generated_Source\PSoC4/serial_SPI_UART.c ****             }
 272:Generated_Source\PSoC4/serial_SPI_UART.c ****             /* Put data into TX software buffer */
 273:Generated_Source\PSoC4/serial_SPI_UART.c ****             else
 274:Generated_Source\PSoC4/serial_SPI_UART.c ****             {
 275:Generated_Source\PSoC4/serial_SPI_UART.c ****                 /* Head index to put data */
 276:Generated_Source\PSoC4/serial_SPI_UART.c ****                 locHead = (serial_txBufferHead + 1u);
 132              		.loc 1 276 0
 133 001e 0D4B     		ldr	r3, .L16
 134 0020 1A68     		ldr	r2, [r3]
 135 0022 0132     		add	r2, r2, #1
 136              	.LVL4:
 277:Generated_Source\PSoC4/serial_SPI_UART.c **** 
 278:Generated_Source\PSoC4/serial_SPI_UART.c ****                 /* Adjust TX software buffer index */
 279:Generated_Source\PSoC4/serial_SPI_UART.c ****                 if (serial_TX_BUFFER_SIZE == locHead)
 137              		.loc 1 279 0
 138 0024 322A     		cmp	r2, #50
 139 0026 00D1     		bne	.L14
 280:Generated_Source\PSoC4/serial_SPI_UART.c ****                 {
 281:Generated_Source\PSoC4/serial_SPI_UART.c ****                     locHead = 0u;
 140              		.loc 1 281 0
 141 0028 0022     		mov	r2, #0
 142              	.LVL5:
 143              	.L14:
 282:Generated_Source\PSoC4/serial_SPI_UART.c ****                 }
 283:Generated_Source\PSoC4/serial_SPI_UART.c **** 
 284:Generated_Source\PSoC4/serial_SPI_UART.c ****                 /* Wait for space in TX software buffer */
 285:Generated_Source\PSoC4/serial_SPI_UART.c ****                 while (locHead == serial_txBufferTail)
 144              		.loc 1 285 0 discriminator 1
 145 002a 0B4B     		ldr	r3, .L16+4
 146 002c 1B68     		ldr	r3, [r3]
 147 002e 9A42     		cmp	r2, r3
 148 0030 FBD0     		beq	.L14
 286:Generated_Source\PSoC4/serial_SPI_UART.c ****                 {
 287:Generated_Source\PSoC4/serial_SPI_UART.c ****                 }
 288:Generated_Source\PSoC4/serial_SPI_UART.c **** 
 289:Generated_Source\PSoC4/serial_SPI_UART.c ****                 /* TX software buffer has at least one room */
 290:Generated_Source\PSoC4/serial_SPI_UART.c **** 
 291:Generated_Source\PSoC4/serial_SPI_UART.c ****                 /* Clear old status of INTR_TX_NOT_FULL. It sets at the end of transfer when TX FIF
 292:Generated_Source\PSoC4/serial_SPI_UART.c ****                 serial_ClearTxInterruptSource(serial_INTR_TX_NOT_FULL);
 149              		.loc 1 292 0
 150 0032 0223     		mov	r3, #2
 151 0034 0B49     		ldr	r1, .L16+16
 152 0036 0B60     		str	r3, [r1]
 293:Generated_Source\PSoC4/serial_SPI_UART.c **** 
 294:Generated_Source\PSoC4/serial_SPI_UART.c ****                 serial_PutWordInTxBuffer(locHead, txData);
 153              		.loc 1 294 0
 154 0038 C0B2     		uxtb	r0, r0
 155              	.LVL6:
 156 003a 0B49     		ldr	r1, .L16+20
 157 003c 8854     		strb	r0, [r1, r2]
 295:Generated_Source\PSoC4/serial_SPI_UART.c **** 
 296:Generated_Source\PSoC4/serial_SPI_UART.c ****                 serial_txBufferHead = locHead;
 158              		.loc 1 296 0
 159 003e 0549     		ldr	r1, .L16
ARM GAS  C:\Users\a85495\AppData\Local\Temp\ccJxQ7Oh.s 			page 9


 160 0040 0A60     		str	r2, [r1]
 297:Generated_Source\PSoC4/serial_SPI_UART.c **** 
 298:Generated_Source\PSoC4/serial_SPI_UART.c ****                 /* Check if TX Not Full is disabled in interrupt */
 299:Generated_Source\PSoC4/serial_SPI_UART.c ****                 if (0u == (serial_INTR_TX_MASK_REG & serial_INTR_TX_NOT_FULL))
 161              		.loc 1 299 0
 162 0042 0A4A     		ldr	r2, .L16+24
 163              	.LVL7:
 164 0044 1268     		ldr	r2, [r2]
 165 0046 1342     		tst	r3, r2
 166 0048 03D1     		bne	.L10
 300:Generated_Source\PSoC4/serial_SPI_UART.c ****                 {
 301:Generated_Source\PSoC4/serial_SPI_UART.c ****                     /* Enable TX Not Full interrupt source to transmit from software buffer */
 302:Generated_Source\PSoC4/serial_SPI_UART.c ****                     serial_INTR_TX_MASK_REG |= (uint32) serial_INTR_TX_NOT_FULL;
 167              		.loc 1 302 0
 168 004a 084A     		ldr	r2, .L16+24
 169 004c 1168     		ldr	r1, [r2]
 170 004e 0B43     		orr	r3, r1
 171 0050 1360     		str	r3, [r2]
 172              	.LVL8:
 173              	.L10:
 303:Generated_Source\PSoC4/serial_SPI_UART.c ****                 }
 304:Generated_Source\PSoC4/serial_SPI_UART.c ****             }
 305:Generated_Source\PSoC4/serial_SPI_UART.c ****         }
 306:Generated_Source\PSoC4/serial_SPI_UART.c ****         #else
 307:Generated_Source\PSoC4/serial_SPI_UART.c ****         {
 308:Generated_Source\PSoC4/serial_SPI_UART.c ****             /* Wait until TX FIFO has space to put data element */
 309:Generated_Source\PSoC4/serial_SPI_UART.c ****             while (serial_SPI_UART_FIFO_SIZE == serial_GET_TX_FIFO_ENTRIES)
 310:Generated_Source\PSoC4/serial_SPI_UART.c ****             {
 311:Generated_Source\PSoC4/serial_SPI_UART.c ****             }
 312:Generated_Source\PSoC4/serial_SPI_UART.c **** 
 313:Generated_Source\PSoC4/serial_SPI_UART.c ****             serial_TX_FIFO_WR_REG = txData;
 314:Generated_Source\PSoC4/serial_SPI_UART.c ****         }
 315:Generated_Source\PSoC4/serial_SPI_UART.c ****         #endif
 316:Generated_Source\PSoC4/serial_SPI_UART.c ****     }
 174              		.loc 1 316 0
 175              		@ sp needed
 176 0052 7047     		bx	lr
 177              	.L17:
 178              		.align	2
 179              	.L16:
 180 0054 00000000 		.word	serial_txBufferHead
 181 0058 00000000 		.word	serial_txBufferTail
 182 005c 08020740 		.word	1074201096
 183 0060 40020740 		.word	1074201152
 184 0064 800F0740 		.word	1074204544
 185 0068 00000000 		.word	serial_txBufferInternal
 186 006c 880F0740 		.word	1074204552
 187              		.cfi_endproc
 188              	.LFE3:
 189              		.size	serial_SpiUartWriteTxData, .-serial_SpiUartWriteTxData
 190              		.section	.text.serial_SpiUartPutArray,"ax",%progbits
 191              		.align	2
 192              		.global	serial_SpiUartPutArray
 193              		.code	16
 194              		.thumb_func
 195              		.type	serial_SpiUartPutArray, %function
 196              	serial_SpiUartPutArray:
ARM GAS  C:\Users\a85495\AppData\Local\Temp\ccJxQ7Oh.s 			page 10


 197              	.LFB4:
 317:Generated_Source\PSoC4/serial_SPI_UART.c **** 
 318:Generated_Source\PSoC4/serial_SPI_UART.c **** 
 319:Generated_Source\PSoC4/serial_SPI_UART.c ****     /*******************************************************************************
 320:Generated_Source\PSoC4/serial_SPI_UART.c ****     * Function Name: serial_SpiUartPutArray
 321:Generated_Source\PSoC4/serial_SPI_UART.c ****     ****************************************************************************//**
 322:Generated_Source\PSoC4/serial_SPI_UART.c ****     *
 323:Generated_Source\PSoC4/serial_SPI_UART.c ****     *  Places an array of data into the transmit buffer to be sent.
 324:Generated_Source\PSoC4/serial_SPI_UART.c ****     *  This function is blocking and waits until there is a space available to put
 325:Generated_Source\PSoC4/serial_SPI_UART.c ****     *  all the requested data in the transmit buffer. The array size can be greater
 326:Generated_Source\PSoC4/serial_SPI_UART.c ****     *  than transmit buffer size.
 327:Generated_Source\PSoC4/serial_SPI_UART.c ****     *
 328:Generated_Source\PSoC4/serial_SPI_UART.c ****     * \param wrBuf: pointer to an array of data to be placed in transmit buffer. 
 329:Generated_Source\PSoC4/serial_SPI_UART.c ****     *  The width of the data to be transmitted depends on TX data width selection 
 330:Generated_Source\PSoC4/serial_SPI_UART.c ****     *  (the data bit counting starts from LSB for each array element).
 331:Generated_Source\PSoC4/serial_SPI_UART.c ****     * \param count: number of data elements to be placed in the transmit buffer.
 332:Generated_Source\PSoC4/serial_SPI_UART.c ****     *
 333:Generated_Source\PSoC4/serial_SPI_UART.c ****     * \globalvars
 334:Generated_Source\PSoC4/serial_SPI_UART.c ****     *  serial_txBufferHead - the start index to put data into the 
 335:Generated_Source\PSoC4/serial_SPI_UART.c ****     *  software transmit buffer.
 336:Generated_Source\PSoC4/serial_SPI_UART.c ****     *  serial_txBufferTail - start index to get data from the software
 337:Generated_Source\PSoC4/serial_SPI_UART.c ****     *  transmit buffer.
 338:Generated_Source\PSoC4/serial_SPI_UART.c ****     *
 339:Generated_Source\PSoC4/serial_SPI_UART.c ****     *******************************************************************************/
 340:Generated_Source\PSoC4/serial_SPI_UART.c ****     void serial_SpiUartPutArray(const uint8 wrBuf[], uint32 count)
 341:Generated_Source\PSoC4/serial_SPI_UART.c ****     {
 198              		.loc 1 341 0
 199              		.cfi_startproc
 200              	.LVL9:
 201 0000 70B5     		push	{r4, r5, r6, lr}
 202              		.cfi_def_cfa_offset 16
 203              		.cfi_offset 4, -16
 204              		.cfi_offset 5, -12
 205              		.cfi_offset 6, -8
 206              		.cfi_offset 14, -4
 207 0002 061C     		mov	r6, r0
 208 0004 0D1C     		mov	r5, r1
 209              	.LVL10:
 342:Generated_Source\PSoC4/serial_SPI_UART.c ****         uint32 i;
 343:Generated_Source\PSoC4/serial_SPI_UART.c **** 
 344:Generated_Source\PSoC4/serial_SPI_UART.c ****         for (i=0u; i < count; i++)
 210              		.loc 1 344 0
 211 0006 0024     		mov	r4, #0
 212 0008 03E0     		b	.L19
 213              	.LVL11:
 214              	.L20:
 345:Generated_Source\PSoC4/serial_SPI_UART.c ****         {
 346:Generated_Source\PSoC4/serial_SPI_UART.c ****             serial_SpiUartWriteTxData((uint32) wrBuf[i]);
 215              		.loc 1 346 0 discriminator 3
 216 000a 305D     		ldrb	r0, [r6, r4]
 217 000c FFF7FEFF 		bl	serial_SpiUartWriteTxData
 218              	.LVL12:
 344:Generated_Source\PSoC4/serial_SPI_UART.c ****         {
 219              		.loc 1 344 0 discriminator 3
 220 0010 0134     		add	r4, r4, #1
 221              	.LVL13:
 222              	.L19:
ARM GAS  C:\Users\a85495\AppData\Local\Temp\ccJxQ7Oh.s 			page 11


 344:Generated_Source\PSoC4/serial_SPI_UART.c ****         {
 223              		.loc 1 344 0 is_stmt 0 discriminator 1
 224 0012 AC42     		cmp	r4, r5
 225 0014 F9D3     		bcc	.L20
 347:Generated_Source\PSoC4/serial_SPI_UART.c ****         }
 348:Generated_Source\PSoC4/serial_SPI_UART.c ****     }
 226              		.loc 1 348 0 is_stmt 1
 227              		@ sp needed
 228              	.LVL14:
 229              	.LVL15:
 230              	.LVL16:
 231 0016 70BD     		pop	{r4, r5, r6, pc}
 232              		.cfi_endproc
 233              	.LFE4:
 234              		.size	serial_SpiUartPutArray, .-serial_SpiUartPutArray
 235              		.section	.text.serial_SpiUartGetTxBufferSize,"ax",%progbits
 236              		.align	2
 237              		.global	serial_SpiUartGetTxBufferSize
 238              		.code	16
 239              		.thumb_func
 240              		.type	serial_SpiUartGetTxBufferSize, %function
 241              	serial_SpiUartGetTxBufferSize:
 242              	.LFB5:
 349:Generated_Source\PSoC4/serial_SPI_UART.c **** 
 350:Generated_Source\PSoC4/serial_SPI_UART.c **** 
 351:Generated_Source\PSoC4/serial_SPI_UART.c ****     /*******************************************************************************
 352:Generated_Source\PSoC4/serial_SPI_UART.c ****     * Function Name: serial_SpiUartGetTxBufferSize
 353:Generated_Source\PSoC4/serial_SPI_UART.c ****     ****************************************************************************//**
 354:Generated_Source\PSoC4/serial_SPI_UART.c ****     *
 355:Generated_Source\PSoC4/serial_SPI_UART.c ****     *  Returns the number of elements currently in the transmit buffer.
 356:Generated_Source\PSoC4/serial_SPI_UART.c ****     *   - TX software buffer is disabled: returns the number of used entries in
 357:Generated_Source\PSoC4/serial_SPI_UART.c ****     *     TX FIFO.
 358:Generated_Source\PSoC4/serial_SPI_UART.c ****     *   - TX software buffer is enabled: returns the number of elements currently
 359:Generated_Source\PSoC4/serial_SPI_UART.c ****     *     used in the transmit buffer. This number does not include used entries in
 360:Generated_Source\PSoC4/serial_SPI_UART.c ****     *     the TX FIFO. The transmit buffer size is zero until the TX FIFO is
 361:Generated_Source\PSoC4/serial_SPI_UART.c ****     *     not full.
 362:Generated_Source\PSoC4/serial_SPI_UART.c ****     *
 363:Generated_Source\PSoC4/serial_SPI_UART.c ****     * \return
 364:Generated_Source\PSoC4/serial_SPI_UART.c ****     *  Number of data elements ready to transmit.
 365:Generated_Source\PSoC4/serial_SPI_UART.c ****     *
 366:Generated_Source\PSoC4/serial_SPI_UART.c ****     * \globalvars
 367:Generated_Source\PSoC4/serial_SPI_UART.c ****     *  serial_txBufferHead - the start index to put data into the 
 368:Generated_Source\PSoC4/serial_SPI_UART.c ****     *  software transmit buffer.
 369:Generated_Source\PSoC4/serial_SPI_UART.c ****     *  serial_txBufferTail - start index to get data from the software
 370:Generated_Source\PSoC4/serial_SPI_UART.c ****     *  transmit buffer.
 371:Generated_Source\PSoC4/serial_SPI_UART.c ****     *
 372:Generated_Source\PSoC4/serial_SPI_UART.c ****     *******************************************************************************/
 373:Generated_Source\PSoC4/serial_SPI_UART.c ****     uint32 serial_SpiUartGetTxBufferSize(void)
 374:Generated_Source\PSoC4/serial_SPI_UART.c ****     {
 243              		.loc 1 374 0
 244              		.cfi_startproc
 375:Generated_Source\PSoC4/serial_SPI_UART.c ****         uint32 size;
 376:Generated_Source\PSoC4/serial_SPI_UART.c ****     #if (serial_INTERNAL_TX_SW_BUFFER_CONST)
 377:Generated_Source\PSoC4/serial_SPI_UART.c ****         uint32 locTail;
 378:Generated_Source\PSoC4/serial_SPI_UART.c ****     #endif /* (serial_INTERNAL_TX_SW_BUFFER_CONST) */
 379:Generated_Source\PSoC4/serial_SPI_UART.c **** 
 380:Generated_Source\PSoC4/serial_SPI_UART.c ****         #if (serial_CHECK_TX_SW_BUFFER)
ARM GAS  C:\Users\a85495\AppData\Local\Temp\ccJxQ7Oh.s 			page 12


 381:Generated_Source\PSoC4/serial_SPI_UART.c ****         {
 382:Generated_Source\PSoC4/serial_SPI_UART.c ****             /* Get current Tail index */
 383:Generated_Source\PSoC4/serial_SPI_UART.c ****             locTail = serial_txBufferTail;
 245              		.loc 1 383 0
 246 0000 074B     		ldr	r3, .L24
 247 0002 1868     		ldr	r0, [r3]
 248              	.LVL17:
 384:Generated_Source\PSoC4/serial_SPI_UART.c **** 
 385:Generated_Source\PSoC4/serial_SPI_UART.c ****             if (serial_txBufferHead >= locTail)
 249              		.loc 1 385 0
 250 0004 074B     		ldr	r3, .L24+4
 251 0006 1B68     		ldr	r3, [r3]
 252 0008 8342     		cmp	r3, r0
 253 000a 03D3     		bcc	.L22
 386:Generated_Source\PSoC4/serial_SPI_UART.c ****             {
 387:Generated_Source\PSoC4/serial_SPI_UART.c ****                 size = (serial_txBufferHead - locTail);
 254              		.loc 1 387 0
 255 000c 054B     		ldr	r3, .L24+4
 256 000e 1B68     		ldr	r3, [r3]
 257 0010 181A     		sub	r0, r3, r0
 258              	.LVL18:
 259 0012 03E0     		b	.L23
 260              	.LVL19:
 261              	.L22:
 388:Generated_Source\PSoC4/serial_SPI_UART.c ****             }
 389:Generated_Source\PSoC4/serial_SPI_UART.c ****             else
 390:Generated_Source\PSoC4/serial_SPI_UART.c ****             {
 391:Generated_Source\PSoC4/serial_SPI_UART.c ****                 size = (serial_txBufferHead + (serial_TX_BUFFER_SIZE - locTail));
 262              		.loc 1 391 0
 263 0014 034B     		ldr	r3, .L24+4
 264 0016 1B68     		ldr	r3, [r3]
 265 0018 181A     		sub	r0, r3, r0
 266              	.LVL20:
 267 001a 3230     		add	r0, r0, #50
 268              	.LVL21:
 269              	.L23:
 392:Generated_Source\PSoC4/serial_SPI_UART.c ****             }
 393:Generated_Source\PSoC4/serial_SPI_UART.c ****         }
 394:Generated_Source\PSoC4/serial_SPI_UART.c ****         #else
 395:Generated_Source\PSoC4/serial_SPI_UART.c ****         {
 396:Generated_Source\PSoC4/serial_SPI_UART.c ****             size = serial_GET_TX_FIFO_ENTRIES;
 397:Generated_Source\PSoC4/serial_SPI_UART.c ****         }
 398:Generated_Source\PSoC4/serial_SPI_UART.c ****         #endif
 399:Generated_Source\PSoC4/serial_SPI_UART.c **** 
 400:Generated_Source\PSoC4/serial_SPI_UART.c ****         return (size);
 401:Generated_Source\PSoC4/serial_SPI_UART.c ****     }
 270              		.loc 1 401 0
 271              		@ sp needed
 272 001c 7047     		bx	lr
 273              	.L25:
 274 001e C046     		.align	2
 275              	.L24:
 276 0020 00000000 		.word	serial_txBufferTail
 277 0024 00000000 		.word	serial_txBufferHead
 278              		.cfi_endproc
 279              	.LFE5:
 280              		.size	serial_SpiUartGetTxBufferSize, .-serial_SpiUartGetTxBufferSize
ARM GAS  C:\Users\a85495\AppData\Local\Temp\ccJxQ7Oh.s 			page 13


 281              		.section	.text.serial_SpiUartClearTxBuffer,"ax",%progbits
 282              		.align	2
 283              		.global	serial_SpiUartClearTxBuffer
 284              		.code	16
 285              		.thumb_func
 286              		.type	serial_SpiUartClearTxBuffer, %function
 287              	serial_SpiUartClearTxBuffer:
 288              	.LFB6:
 402:Generated_Source\PSoC4/serial_SPI_UART.c **** 
 403:Generated_Source\PSoC4/serial_SPI_UART.c **** 
 404:Generated_Source\PSoC4/serial_SPI_UART.c ****     /*******************************************************************************
 405:Generated_Source\PSoC4/serial_SPI_UART.c ****     * Function Name: serial_SpiUartClearTxBuffer
 406:Generated_Source\PSoC4/serial_SPI_UART.c ****     ****************************************************************************//**
 407:Generated_Source\PSoC4/serial_SPI_UART.c ****     *
 408:Generated_Source\PSoC4/serial_SPI_UART.c ****     *  Clears the transmit buffer and TX FIFO.
 409:Generated_Source\PSoC4/serial_SPI_UART.c ****     *
 410:Generated_Source\PSoC4/serial_SPI_UART.c ****     * \globalvars
 411:Generated_Source\PSoC4/serial_SPI_UART.c ****     *  serial_txBufferHead - the start index to put data into the 
 412:Generated_Source\PSoC4/serial_SPI_UART.c ****     *  software transmit buffer.
 413:Generated_Source\PSoC4/serial_SPI_UART.c ****     *  serial_txBufferTail - start index to get data from the software
 414:Generated_Source\PSoC4/serial_SPI_UART.c ****     *  transmit buffer.
 415:Generated_Source\PSoC4/serial_SPI_UART.c ****     *
 416:Generated_Source\PSoC4/serial_SPI_UART.c ****     *******************************************************************************/
 417:Generated_Source\PSoC4/serial_SPI_UART.c ****     void serial_SpiUartClearTxBuffer(void)
 418:Generated_Source\PSoC4/serial_SPI_UART.c ****     {
 289              		.loc 1 418 0
 290              		.cfi_startproc
 291 0000 08B5     		push	{r3, lr}
 292              		.cfi_def_cfa_offset 8
 293              		.cfi_offset 3, -8
 294              		.cfi_offset 14, -4
 419:Generated_Source\PSoC4/serial_SPI_UART.c ****         #if (serial_CHECK_TX_SW_BUFFER)
 420:Generated_Source\PSoC4/serial_SPI_UART.c ****         {
 421:Generated_Source\PSoC4/serial_SPI_UART.c ****             /* Lock from component interruption */
 422:Generated_Source\PSoC4/serial_SPI_UART.c ****             serial_DisableInt();
 295              		.loc 1 422 0
 296 0002 0B20     		mov	r0, #11
 297 0004 FFF7FEFF 		bl	CyIntDisable
 298              	.LVL22:
 423:Generated_Source\PSoC4/serial_SPI_UART.c **** 
 424:Generated_Source\PSoC4/serial_SPI_UART.c ****             /* Flush TX software buffer */
 425:Generated_Source\PSoC4/serial_SPI_UART.c ****             serial_txBufferHead = serial_txBufferTail;
 299              		.loc 1 425 0
 300 0008 0C4B     		ldr	r3, .L27
 301 000a 1A68     		ldr	r2, [r3]
 302 000c 0C4B     		ldr	r3, .L27+4
 303 000e 1A60     		str	r2, [r3]
 426:Generated_Source\PSoC4/serial_SPI_UART.c **** 
 427:Generated_Source\PSoC4/serial_SPI_UART.c ****             serial_INTR_TX_MASK_REG &= (uint32) ~serial_INTR_TX_NOT_FULL;
 304              		.loc 1 427 0
 305 0010 0C4A     		ldr	r2, .L27+8
 306 0012 1368     		ldr	r3, [r2]
 307 0014 0221     		mov	r1, #2
 308 0016 8B43     		bic	r3, r1
 309 0018 1360     		str	r3, [r2]
 428:Generated_Source\PSoC4/serial_SPI_UART.c ****             serial_CLEAR_TX_FIFO;
 310              		.loc 1 428 0
ARM GAS  C:\Users\a85495\AppData\Local\Temp\ccJxQ7Oh.s 			page 14


 311 001a 0B4B     		ldr	r3, .L27+12
 312 001c 1A68     		ldr	r2, [r3]
 313 001e 8021     		mov	r1, #128
 314 0020 4902     		lsl	r1, r1, #9
 315 0022 0A43     		orr	r2, r1
 316 0024 1A60     		str	r2, [r3]
 317 0026 1968     		ldr	r1, [r3]
 318 0028 084A     		ldr	r2, .L27+16
 319 002a 0A40     		and	r2, r1
 320 002c 1A60     		str	r2, [r3]
 429:Generated_Source\PSoC4/serial_SPI_UART.c ****             serial_ClearTxInterruptSource(serial_INTR_TX_ALL);
 321              		.loc 1 429 0
 322 002e 084A     		ldr	r2, .L27+20
 323 0030 084B     		ldr	r3, .L27+24
 324 0032 1A60     		str	r2, [r3]
 430:Generated_Source\PSoC4/serial_SPI_UART.c **** 
 431:Generated_Source\PSoC4/serial_SPI_UART.c ****             /* Release lock */
 432:Generated_Source\PSoC4/serial_SPI_UART.c ****             serial_EnableInt();
 325              		.loc 1 432 0
 326 0034 0B20     		mov	r0, #11
 327 0036 FFF7FEFF 		bl	CyIntEnable
 328              	.LVL23:
 433:Generated_Source\PSoC4/serial_SPI_UART.c ****         }
 434:Generated_Source\PSoC4/serial_SPI_UART.c ****         #else
 435:Generated_Source\PSoC4/serial_SPI_UART.c ****         {
 436:Generated_Source\PSoC4/serial_SPI_UART.c ****             serial_CLEAR_TX_FIFO;
 437:Generated_Source\PSoC4/serial_SPI_UART.c ****         }
 438:Generated_Source\PSoC4/serial_SPI_UART.c ****         #endif
 439:Generated_Source\PSoC4/serial_SPI_UART.c ****     }
 329              		.loc 1 439 0
 330              		@ sp needed
 331 003a 08BD     		pop	{r3, pc}
 332              	.L28:
 333              		.align	2
 334              	.L27:
 335 003c 00000000 		.word	serial_txBufferTail
 336 0040 00000000 		.word	serial_txBufferHead
 337 0044 880F0740 		.word	1074204552
 338 0048 04020740 		.word	1074201092
 339 004c FFFFFEFF 		.word	-65537
 340 0050 F3070000 		.word	2035
 341 0054 800F0740 		.word	1074204544
 342              		.cfi_endproc
 343              	.LFE6:
 344              		.size	serial_SpiUartClearTxBuffer, .-serial_SpiUartClearTxBuffer
 345              		.section	.text.serial_SpiUartDisableIntRx,"ax",%progbits
 346              		.align	2
 347              		.global	serial_SpiUartDisableIntRx
 348              		.code	16
 349              		.thumb_func
 350              		.type	serial_SpiUartDisableIntRx, %function
 351              	serial_SpiUartDisableIntRx:
 352              	.LFB7:
 440:Generated_Source\PSoC4/serial_SPI_UART.c **** 
 441:Generated_Source\PSoC4/serial_SPI_UART.c **** #endif /* (serial_TX_DIRECTION) */
 442:Generated_Source\PSoC4/serial_SPI_UART.c **** 
 443:Generated_Source\PSoC4/serial_SPI_UART.c **** 
ARM GAS  C:\Users\a85495\AppData\Local\Temp\ccJxQ7Oh.s 			page 15


 444:Generated_Source\PSoC4/serial_SPI_UART.c **** /*******************************************************************************
 445:Generated_Source\PSoC4/serial_SPI_UART.c **** * Function Name: serial_SpiUartDisableIntRx
 446:Generated_Source\PSoC4/serial_SPI_UART.c **** ****************************************************************************//**
 447:Generated_Source\PSoC4/serial_SPI_UART.c **** *
 448:Generated_Source\PSoC4/serial_SPI_UART.c **** *  Disables the RX interrupt sources.
 449:Generated_Source\PSoC4/serial_SPI_UART.c **** *
 450:Generated_Source\PSoC4/serial_SPI_UART.c **** *  \return
 451:Generated_Source\PSoC4/serial_SPI_UART.c **** *   Returns the RX interrupt sources enabled before the function call.
 452:Generated_Source\PSoC4/serial_SPI_UART.c **** *
 453:Generated_Source\PSoC4/serial_SPI_UART.c **** *******************************************************************************/
 454:Generated_Source\PSoC4/serial_SPI_UART.c **** uint32 serial_SpiUartDisableIntRx(void)
 455:Generated_Source\PSoC4/serial_SPI_UART.c **** {
 353              		.loc 1 455 0
 354              		.cfi_startproc
 456:Generated_Source\PSoC4/serial_SPI_UART.c ****     uint32 intSource;
 457:Generated_Source\PSoC4/serial_SPI_UART.c **** 
 458:Generated_Source\PSoC4/serial_SPI_UART.c ****     intSource = serial_GetRxInterruptMode();
 355              		.loc 1 458 0
 356 0000 024B     		ldr	r3, .L30
 357 0002 1868     		ldr	r0, [r3]
 358              	.LVL24:
 459:Generated_Source\PSoC4/serial_SPI_UART.c **** 
 460:Generated_Source\PSoC4/serial_SPI_UART.c ****     serial_SetRxInterruptMode(serial_NO_INTR_SOURCES);
 359              		.loc 1 460 0
 360 0004 0022     		mov	r2, #0
 361 0006 1A60     		str	r2, [r3]
 461:Generated_Source\PSoC4/serial_SPI_UART.c **** 
 462:Generated_Source\PSoC4/serial_SPI_UART.c ****     return (intSource);
 463:Generated_Source\PSoC4/serial_SPI_UART.c **** }
 362              		.loc 1 463 0
 363              		@ sp needed
 364 0008 7047     		bx	lr
 365              	.L31:
 366 000a C046     		.align	2
 367              	.L30:
 368 000c C80F0740 		.word	1074204616
 369              		.cfi_endproc
 370              	.LFE7:
 371              		.size	serial_SpiUartDisableIntRx, .-serial_SpiUartDisableIntRx
 372              		.section	.text.serial_SpiUartDisableIntTx,"ax",%progbits
 373              		.align	2
 374              		.global	serial_SpiUartDisableIntTx
 375              		.code	16
 376              		.thumb_func
 377              		.type	serial_SpiUartDisableIntTx, %function
 378              	serial_SpiUartDisableIntTx:
 379              	.LFB8:
 464:Generated_Source\PSoC4/serial_SPI_UART.c **** 
 465:Generated_Source\PSoC4/serial_SPI_UART.c **** 
 466:Generated_Source\PSoC4/serial_SPI_UART.c **** /*******************************************************************************
 467:Generated_Source\PSoC4/serial_SPI_UART.c **** * Function Name: serial_SpiUartDisableIntTx
 468:Generated_Source\PSoC4/serial_SPI_UART.c **** ****************************************************************************//**
 469:Generated_Source\PSoC4/serial_SPI_UART.c **** *
 470:Generated_Source\PSoC4/serial_SPI_UART.c **** *  Disables TX interrupt sources.
 471:Generated_Source\PSoC4/serial_SPI_UART.c **** *
 472:Generated_Source\PSoC4/serial_SPI_UART.c **** *  \return
 473:Generated_Source\PSoC4/serial_SPI_UART.c **** *   Returns TX interrupt sources enabled before function call.
ARM GAS  C:\Users\a85495\AppData\Local\Temp\ccJxQ7Oh.s 			page 16


 474:Generated_Source\PSoC4/serial_SPI_UART.c **** *
 475:Generated_Source\PSoC4/serial_SPI_UART.c **** *******************************************************************************/
 476:Generated_Source\PSoC4/serial_SPI_UART.c **** uint32 serial_SpiUartDisableIntTx(void)
 477:Generated_Source\PSoC4/serial_SPI_UART.c **** {
 380              		.loc 1 477 0
 381              		.cfi_startproc
 478:Generated_Source\PSoC4/serial_SPI_UART.c ****     uint32 intSourceMask;
 479:Generated_Source\PSoC4/serial_SPI_UART.c **** 
 480:Generated_Source\PSoC4/serial_SPI_UART.c ****     intSourceMask = serial_GetTxInterruptMode();
 382              		.loc 1 480 0
 383 0000 024B     		ldr	r3, .L33
 384 0002 1868     		ldr	r0, [r3]
 385              	.LVL25:
 481:Generated_Source\PSoC4/serial_SPI_UART.c **** 
 482:Generated_Source\PSoC4/serial_SPI_UART.c ****     serial_SetTxInterruptMode(serial_NO_INTR_SOURCES);
 386              		.loc 1 482 0
 387 0004 0022     		mov	r2, #0
 388 0006 1A60     		str	r2, [r3]
 483:Generated_Source\PSoC4/serial_SPI_UART.c **** 
 484:Generated_Source\PSoC4/serial_SPI_UART.c ****     return (intSourceMask);
 485:Generated_Source\PSoC4/serial_SPI_UART.c **** }
 389              		.loc 1 485 0
 390              		@ sp needed
 391 0008 7047     		bx	lr
 392              	.L34:
 393 000a C046     		.align	2
 394              	.L33:
 395 000c 880F0740 		.word	1074204552
 396              		.cfi_endproc
 397              	.LFE8:
 398              		.size	serial_SpiUartDisableIntTx, .-serial_SpiUartDisableIntTx
 399              		.comm	serial_txBufferInternal,50,4
 400              		.comm	serial_txBufferTail,4,4
 401              		.comm	serial_txBufferHead,4,4
 402              		.text
 403              	.Letext0:
 404              		.file 2 "Generated_Source\\PSoC4/cytypes.h"
 405              		.file 3 "Generated_Source\\PSoC4/CyLib.h"