ARM GAS  C:\Users\a85495\AppData\Local\Temp\ccLWzHr4.s 			page 1


   1              		.syntax unified
   2              		.cpu cortex-m3
   3              		.fpu softvfp
   4              		.eabi_attribute 20, 1
   5              		.eabi_attribute 21, 1
   6              		.eabi_attribute 23, 3
   7              		.eabi_attribute 24, 1
   8              		.eabi_attribute 25, 1
   9              		.eabi_attribute 26, 1
  10              		.eabi_attribute 30, 1
  11              		.eabi_attribute 34, 1
  12              		.eabi_attribute 18, 4
  13              		.thumb
  14              		.file	"main.c"
  15              		.text
  16              	.Ltext0:
  17              		.cfi_sections	.debug_frame
  18              		.section	.text.quad_sensor_init,"ax",%progbits
  19              		.align	2
  20              		.global	quad_sensor_init
  21              		.thumb
  22              		.thumb_func
  23              		.type	quad_sensor_init, %function
  24              	quad_sensor_init:
  25              	.LFB65:
  26              		.file 1 "main.c"
   1:main.c        **** /* ========================================
   2:main.c        ****  *
   3:main.c        ****  * Copyright ARROW ELECTRONICS, 2017
   4:main.c        ****  * All Rights Reserved
   5:main.c        ****  * UNPUBLISHED, LICENSED SOFTWARE.
   6:main.c        ****  *
   7:main.c        ****  * CONFIDENTIAL AND PROPRIETARY INFORMATION
   8:main.c        ****  * WHICH IS THE PROPERTY OF your company.
   9:main.c        ****  *
  10:main.c        ****  * ========================================
  11:main.c        **** */
  12:main.c        **** #include "project.h"
  13:main.c        **** #include "accel_mag.h"
  14:main.c        **** #include "gyroscope.h"
  15:main.c        **** #include "barometer.h"
  16:main.c        **** #include "Serial.h"
  17:main.c        **** #include "twi.h"
  18:main.c        **** #include <stdlib.h>
  19:main.c        **** #include <stdio.h>
  20:main.c        **** #include <stdint.h>
  21:main.c        **** #include <math.h>
  22:main.c        **** 
  23:main.c        **** 
  24:main.c        **** void quad_init(void);
  25:main.c        **** void quad_sensor_init(void);
  26:main.c        **** void sensor_update(void);
  27:main.c        **** void imu_update(void);
  28:main.c        **** 
  29:main.c        **** int main(void)
  30:main.c        **** {
  31:main.c        ****     quad_init();
ARM GAS  C:\Users\a85495\AppData\Local\Temp\ccLWzHr4.s 			page 2


  32:main.c        ****     /* Place your initialization/startup code here (e.g. MyInst_Start()) */
  33:main.c        ****     serial_println("Started");
  34:main.c        ****     for(;;)
  35:main.c        ****     {
  36:main.c        ****         /* Place your application code here. */
  37:main.c        ****         sensor_update();
  38:main.c        ****         //double i = pow((10.2),(2.7));
  39:main.c        ****         //serial_printDoubleln(i);
  40:main.c        ****         CyDelay(1000);
  41:main.c        ****             //update the Barometric Pressure and Temperature Sensor values
  42:main.c        ****     /*bar.rawTemp = baro_getRawTemperature();
  43:main.c        ****     bar.rawPress = baro_getRawPressure();
  44:main.c        ****     bar.temperature = baro_getTemperature();
  45:main.c        ****     bar.pressure = baro_getPressure();
  46:main.c        **** 
  47:main.c        ****     bar.absAlt = baro_getAbsoluteAltitude(bar.pressure);
  48:main.c        ****     bar.relAlt = baro_getRelativeAltitude((bar.pressure), (initial_reference_pressure__));
  49:main.c        **** 
  50:main.c        **** //if the macro DEBUG is true (value is not 0)
  51:main.c        ****     serial_print(" rawTemp = ");
  52:main.c        ****     serial_printInt(bar.rawTemp); //print an integer
  53:main.c        ****     serial_print(", realTemp = ");
  54:main.c        ****     serial_printInt(bar.temperature); //print a double
  55:main.c        ****     serial_print(" *C");
  56:main.c        **** 
  57:main.c        ****     serial_print(" ||  rawPressure = ");
  58:main.c        ****     serial_printInt(bar.rawPress); //print an integer
  59:main.c        ****     serial_print(", realPressure = ");
  60:main.c        ****     serial_printInt(bar.pressure); //print an integer
  61:main.c        ****     serial_print(" Pa ");
  62:main.c        **** 
  63:main.c        ****     serial_print(" ||  absoluteAltitude = ");
  64:main.c        ****     serial_printDouble(bar.absAlt); //print a double
  65:main.c        ****     serial_print(" m, relativeAltitude = ");
  66:main.c        ****     serial_printDouble(bar.relAlt); //print a double
  67:main.c        ****     serial_println(" m");
  68:main.c        ****     */
  69:main.c        ****     }
  70:main.c        ****      
  71:main.c        **** }
  72:main.c        **** 
  73:main.c        **** void quad_init(void){
  74:main.c        ****     Wire_begin();
  75:main.c        ****     serial_begin();
  76:main.c        ****     CyGlobalIntEnable; /* Enable global interrupts. */
  77:main.c        ****     quad_sensor_init();
  78:main.c        **** }
  79:main.c        **** 
  80:main.c        **** void quad_sensor_init(void){
  27              		.loc 1 80 0
  28              		.cfi_startproc
  29              		@ args = 0, pretend = 0, frame = 0
  30              		@ frame_needed = 0, uses_anonymous_args = 0
  31 0000 08B5     		push	{r3, lr}
  32              		.cfi_def_cfa_offset 8
  33              		.cfi_offset 3, -8
  34              		.cfi_offset 14, -4
ARM GAS  C:\Users\a85495\AppData\Local\Temp\ccLWzHr4.s 			page 3


  81:main.c        ****     //accel_mag_initialize(ACCEL_RANGE_2G);
  82:main.c        ****     //gyro_initialize(GYRO_RANGE_250DPS);
  83:main.c        ****     baro_begin();
  35              		.loc 1 83 0
  36 0002 FFF7FEFF 		bl	baro_begin
  37              	.LVL0:
  38 0006 08BD     		pop	{r3, pc}
  39              		.cfi_endproc
  40              	.LFE65:
  41              		.size	quad_sensor_init, .-quad_sensor_init
  42              		.section	.text.quad_init,"ax",%progbits
  43              		.align	2
  44              		.global	quad_init
  45              		.thumb
  46              		.thumb_func
  47              		.type	quad_init, %function
  48              	quad_init:
  49              	.LFB64:
  73:main.c        ****     Wire_begin();
  50              		.loc 1 73 0
  51              		.cfi_startproc
  52              		@ args = 0, pretend = 0, frame = 0
  53              		@ frame_needed = 0, uses_anonymous_args = 0
  54 0000 08B5     		push	{r3, lr}
  55              		.cfi_def_cfa_offset 8
  56              		.cfi_offset 3, -8
  57              		.cfi_offset 14, -4
  74:main.c        ****     serial_begin();
  58              		.loc 1 74 0
  59 0002 FFF7FEFF 		bl	Wire_begin
  60              	.LVL1:
  75:main.c        ****     CyGlobalIntEnable; /* Enable global interrupts. */
  61              		.loc 1 75 0
  62 0006 FFF7FEFF 		bl	serial_begin
  63              	.LVL2:
  76:main.c        ****     quad_sensor_init();
  64              		.loc 1 76 0
  65              	@ 76 "main.c" 1
  66 000a 62B6     		CPSIE   i
  67              	@ 0 "" 2
  77:main.c        **** }
  68              		.loc 1 77 0
  69              		.thumb
  70 000c FFF7FEFF 		bl	quad_sensor_init
  71              	.LVL3:
  72 0010 08BD     		pop	{r3, pc}
  73              		.cfi_endproc
  74              	.LFE64:
  75              		.size	quad_init, .-quad_init
  76 0012 00BF     		.section	.text.sensor_update,"ax",%progbits
  77              		.align	2
  78              		.global	sensor_update
  79              		.thumb
  80              		.thumb_func
  81              		.type	sensor_update, %function
  82              	sensor_update:
  83              	.LFB66:
ARM GAS  C:\Users\a85495\AppData\Local\Temp\ccLWzHr4.s 			page 4


  84:main.c        **** }
  85:main.c        **** 
  86:main.c        **** void sensor_update(void){
  84              		.loc 1 86 0
  85              		.cfi_startproc
  86              		@ args = 0, pretend = 0, frame = 0
  87              		@ frame_needed = 0, uses_anonymous_args = 0
  88 0000 08B5     		push	{r3, lr}
  89              		.cfi_def_cfa_offset 8
  90              		.cfi_offset 3, -8
  91              		.cfi_offset 14, -4
  87:main.c        ****     //serial_PutString("HELLO\r\n");
  88:main.c        ****     //accel_mag_update();
  89:main.c        ****     //gyro_update();
  90:main.c        ****     baro_update();
  92              		.loc 1 90 0
  93 0002 FFF7FEFF 		bl	baro_update
  94              	.LVL4:
  95 0006 08BD     		pop	{r3, pc}
  96              		.cfi_endproc
  97              	.LFE66:
  98              		.size	sensor_update, .-sensor_update
  99              		.section	.text.main,"ax",%progbits
 100              		.align	2
 101              		.global	main
 102              		.thumb
 103              		.thumb_func
 104              		.type	main, %function
 105              	main:
 106              	.LFB63:
  30:main.c        ****     quad_init();
 107              		.loc 1 30 0
 108              		.cfi_startproc
 109              		@ Volatile: function does not return.
 110              		@ args = 0, pretend = 0, frame = 0
 111              		@ frame_needed = 0, uses_anonymous_args = 0
 112 0000 08B5     		push	{r3, lr}
 113              		.cfi_def_cfa_offset 8
 114              		.cfi_offset 3, -8
 115              		.cfi_offset 14, -4
  31:main.c        ****     /* Place your initialization/startup code here (e.g. MyInst_Start()) */
 116              		.loc 1 31 0
 117 0002 FFF7FEFF 		bl	quad_init
 118              	.LVL5:
  33:main.c        ****     for(;;)
 119              		.loc 1 33 0
 120 0006 0548     		ldr	r0, .L10
 121 0008 FFF7FEFF 		bl	serial_println
 122              	.LVL6:
 123              	.L8:
  37:main.c        ****         //double i = pow((10.2),(2.7));
 124              		.loc 1 37 0 discriminator 1
 125 000c FFF7FEFF 		bl	sensor_update
 126              	.LVL7:
  40:main.c        ****             //update the Barometric Pressure and Temperature Sensor values
 127              		.loc 1 40 0 discriminator 1
 128 0010 4FF47A70 		mov	r0, #1000
ARM GAS  C:\Users\a85495\AppData\Local\Temp\ccLWzHr4.s 			page 5


 129 0014 FFF7FEFF 		bl	CyDelay
 130              	.LVL8:
  69:main.c        ****      
 131              		.loc 1 69 0 discriminator 1
 132 0018 F8E7     		b	.L8
 133              	.L11:
 134 001a 00BF     		.align	2
 135              	.L10:
 136 001c 00000000 		.word	.LC0
 137              		.cfi_endproc
 138              	.LFE63:
 139              		.size	main, .-main
 140              		.section	.text.imu_update,"ax",%progbits
 141              		.align	2
 142              		.global	imu_update
 143              		.thumb
 144              		.thumb_func
 145              		.type	imu_update, %function
 146              	imu_update:
 147              	.LFB67:
  91:main.c        ****     
  92:main.c        **** }
  93:main.c        **** 
  94:main.c        **** void imu_update(void){
 148              		.loc 1 94 0
 149              		.cfi_startproc
 150              		@ args = 0, pretend = 0, frame = 0
 151              		@ frame_needed = 0, uses_anonymous_args = 0
 152              		@ link register save eliminated.
 153 0000 7047     		bx	lr
 154              		.cfi_endproc
 155              	.LFE67:
 156              		.size	imu_update, .-imu_update
 157 0002 00BF     		.section	.rodata.str1.4,"aMS",%progbits,1
 158              		.align	2
 159              	.LC0:
 160 0000 53746172 		.ascii	"Started\000"
 160      74656400 
 161              		.text
 162              	.Letext0:
 163              		.file 2 "c:\\program files (x86)\\cypress\\psoc creator\\4.0\\psoc creator\\import\\gnu\\arm\\4.9.
 164              		.file 3 "c:\\program files (x86)\\cypress\\psoc creator\\4.0\\psoc creator\\import\\gnu\\arm\\4.9.
 165              		.file 4 "Generated_Source\\PSoC5/cytypes.h"
 166              		.file 5 "..\\../twi.h"
 167              		.file 6 "..\\../Serial.h"
 168              		.file 7 "..\\../barometer.h"
 169              		.file 8 "Generated_Source\\PSoC5/CyLib.h"
 170              		.file 9 "Generated_Source\\PSoC5/core_cm3.h"