ARM GAS  C:\Users\a85495\AppData\Local\Temp\ccpGjKwN.s 			page 1


   1              		.syntax unified
   2              		.cpu cortex-m3
   3              		.fpu softvfp
   4              		.eabi_attribute 20, 1
   5              		.eabi_attribute 21, 1
   6              		.eabi_attribute 23, 3
   7              		.eabi_attribute 24, 1
   8              		.eabi_attribute 25, 1
   9              		.eabi_attribute 26, 1
  10              		.eabi_attribute 30, 1
  11              		.eabi_attribute 34, 1
  12              		.eabi_attribute 18, 4
  13              		.thumb
  14              		.file	"accel_mag.c"
  15              		.text
  16              	.Ltext0:
  17              		.cfi_sections	.debug_frame
  18              		.section	.text.accel_mag_write8,"ax",%progbits
  19              		.align	2
  20              		.global	accel_mag_write8
  21              		.thumb
  22              		.thumb_func
  23              		.type	accel_mag_write8, %function
  24              	accel_mag_write8:
  25              	.LFB63:
  26              		.file 1 "..\\..\\accel_mag.c"
   1:..\../accel_mag.c **** /*
   2:..\../accel_mag.c ****  * This is going to be the remade version of the FXOS8700 library from adafruit
   3:..\../accel_mag.c ****  * to support the PSoC Version of our project
   4:..\../accel_mag.c **** */
   5:..\../accel_mag.c **** 
   6:..\../accel_mag.c **** #include "accel_mag.h" /*include header files*/
   7:..\../accel_mag.c **** #include "twi.h"
   8:..\../accel_mag.c **** #include "project.h"
   9:..\../accel_mag.c **** #include "SensorVal.h"
  10:..\../accel_mag.c **** #include "SensorVal.c"
  11:..\../accel_mag.c **** #include "stdlib.h"
  12:..\../accel_mag.c **** #include <stdint.h>
  13:..\../accel_mag.c **** #include "debSerial.h"
  14:..\../accel_mag.c **** 
  15:..\../accel_mag.c **** static fxos8700AccelRange_t _range; /*will be used to save the sensitivity wanted*/
  16:..\../accel_mag.c **** 
  17:..\../accel_mag.c **** /*A couple of macros are defined for simplicity in the code*/
  18:..\../accel_mag.c **** #define _write I2C_WRITE_XFER_MODE
  19:..\../accel_mag.c **** #define _read I2C_READ_XFER_MODE
  20:..\../accel_mag.c **** 
  21:..\../accel_mag.c **** #define ACCEL_MG_LSB_2G (0.000244F)
  22:..\../accel_mag.c **** #define ACCEL_MG_LSB_4G (0.000488F)
  23:..\../accel_mag.c **** #define ACCEL_MG_LSB_8G (0.000976F)
  24:..\../accel_mag.c **** #define MAG_UT_LSB (0.1F)
  25:..\../accel_mag.c **** 
  26:..\../accel_mag.c **** #define SENSORS_GRAVITY_EARTH (9.80665F) /**< Earth's gravity in m/s^2 */
  27:..\../accel_mag.c **** #define SENSORS_GRAVITY_MOON (1.6F)      /**< The moon's gravity in m/s^2 */
  28:..\../accel_mag.c **** #define SENSORS_GRAVITY_SUN (275.0F)     /**< The sun's gravity in m/s^2 */
  29:..\../accel_mag.c **** #define SENSORS_GRAVITY_STANDARD (SENSORS_GRAVITY_EARTH)
  30:..\../accel_mag.c **** #define SENSORS_MAGFIELD_EARTH_MAX (60.0F)      /**< Maximum magnetic field on Earth's surface */
  31:..\../accel_mag.c **** #define SENSORS_MAGFIELD_EARTH_MIN (30.0F)      /**< Minimum magnetic field on Earth's surface */
ARM GAS  C:\Users\a85495\AppData\Local\Temp\ccpGjKwN.s 			page 2


  32:..\../accel_mag.c **** #define SENSORS_PRESSURE_SEALEVELHPA (1013.25F) /**< Average sea level pressure is 1013.25 hPa */
  33:..\../accel_mag.c **** #define SENSORS_GAUSS_TO_MICROTESLA (100)       /**< Gauss to micro-Tesla multiplier */
  34:..\../accel_mag.c **** 
  35:..\../accel_mag.c **** #define true 1
  36:..\../accel_mag.c **** #define false 0
  37:..\../accel_mag.c **** 
  38:..\../accel_mag.c **** /**************************************************************************/
  39:..\../accel_mag.c **** /*!
  40:..\../accel_mag.c ****     @brief  Abstract away the I2C reading and writing procedure
  41:..\../accel_mag.c **** */
  42:..\../accel_mag.c **** /**************************************************************************/
  43:..\../accel_mag.c **** 
  44:..\../accel_mag.c **** 
  45:..\../accel_mag.c **** void accel_mag_write8(byte Reg, byte value)
  46:..\../accel_mag.c **** {
  27              		.loc 1 46 0
  28              		.cfi_startproc
  29              		@ args = 0, pretend = 0, frame = 8
  30              		@ frame_needed = 0, uses_anonymous_args = 0
  31              	.LVL0:
  32 0000 00B5     		push	{lr}
  33              		.cfi_def_cfa_offset 4
  34              		.cfi_offset 14, -4
  35 0002 83B0     		sub	sp, sp, #12
  36              		.cfi_def_cfa_offset 16
  47:..\../accel_mag.c ****     
  48:..\../accel_mag.c **** //to write, you want to write 2 values: (1) The registeraddress you want to write to
  49:..\../accel_mag.c **** //                                      (2) The value you wish to write to the register
  50:..\../accel_mag.c **** 
  51:..\../accel_mag.c ****     uint8_t Write_Buf[2] = {0};
  52:..\../accel_mag.c ****     Write_Buf[0] = (uint8_t)Reg;
  37              		.loc 1 52 0
  38 0004 8DF80400 		strb	r0, [sp, #4]
  53:..\../accel_mag.c ****     Write_Buf[1] = (uint8_t)value;
  39              		.loc 1 53 0
  40 0008 8DF80510 		strb	r1, [sp, #5]
  54:..\../accel_mag.c ****     
  55:..\../accel_mag.c ****     I2C_MasterWriteBuf(FXOS8700_ADDRESS, (uint8 *)Write_Buf, 2, I2C_MODE_COMPLETE_XFER);
  41              		.loc 1 55 0
  42 000c 1F20     		movs	r0, #31
  43              	.LVL1:
  44 000e 01A9     		add	r1, sp, #4
  45              	.LVL2:
  46 0010 0222     		movs	r2, #2
  47 0012 0023     		movs	r3, #0
  48 0014 FFF7FEFF 		bl	I2C_MasterWriteBuf
  49              	.LVL3:
  50              	.L2:
  56:..\../accel_mag.c ****     while((I2C_MasterStatus() & I2C_MSTAT_WR_CMPLT)==0){}
  51              		.loc 1 56 0 discriminator 1
  52 0018 FFF7FEFF 		bl	I2C_MasterStatus
  53              	.LVL4:
  54 001c 10F0020F 		tst	r0, #2
  55 0020 FAD0     		beq	.L2
  57:..\../accel_mag.c ****     
  58:..\../accel_mag.c ****     return;                //return 1 if everything was successful
  59:..\../accel_mag.c **** }
ARM GAS  C:\Users\a85495\AppData\Local\Temp\ccpGjKwN.s 			page 3


  56              		.loc 1 59 0
  57 0022 03B0     		add	sp, sp, #12
  58              		.cfi_def_cfa_offset 4
  59              		@ sp needed
  60 0024 5DF804FB 		ldr	pc, [sp], #4
  61              		.cfi_endproc
  62              	.LFE63:
  63              		.size	accel_mag_write8, .-accel_mag_write8
  64              		.section	.text.accel_mag_read8,"ax",%progbits
  65              		.align	2
  66              		.global	accel_mag_read8
  67              		.thumb
  68              		.thumb_func
  69              		.type	accel_mag_read8, %function
  70              	accel_mag_read8:
  71              	.LFB64:
  60:..\../accel_mag.c **** 
  61:..\../accel_mag.c **** uint8_t accel_mag_read8(uint8_t Reg)
  62:..\../accel_mag.c **** {
  72              		.loc 1 62 0
  73              		.cfi_startproc
  74              		@ args = 0, pretend = 0, frame = 8
  75              		@ frame_needed = 0, uses_anonymous_args = 0
  76              	.LVL5:
  77 0000 00B5     		push	{lr}
  78              		.cfi_def_cfa_offset 4
  79              		.cfi_offset 14, -4
  80 0002 83B0     		sub	sp, sp, #12
  81              		.cfi_def_cfa_offset 16
  63:..\../accel_mag.c ****     
  64:..\../accel_mag.c **** //to read:  (1)Write the register address you want to read from to the slave device 
  65:..\../accel_mag.c **** //          (2)Use MasterReadBuf to store what is contained in the refister into the read buffer
  66:..\../accel_mag.c **** 
  67:..\../accel_mag.c ****     uint8_t Write_Buf[1];
  68:..\../accel_mag.c ****     Write_Buf[0] = (uint8_t)Reg;
  82              		.loc 1 68 0
  83 0004 8DF80400 		strb	r0, [sp, #4]
  69:..\../accel_mag.c ****     
  70:..\../accel_mag.c ****     uint8 Read_Buf[1] = {0};
  84              		.loc 1 70 0
  85 0008 0023     		movs	r3, #0
  86 000a 8DF80030 		strb	r3, [sp]
  71:..\../accel_mag.c ****     
  72:..\../accel_mag.c ****     I2C_MasterWriteBuf(FXOS8700_ADDRESS, (uint8 *)Write_Buf, 1, I2C_MODE_NO_STOP);
  87              		.loc 1 72 0
  88 000e 1F20     		movs	r0, #31
  89              	.LVL6:
  90 0010 01A9     		add	r1, sp, #4
  91              	.LVL7:
  92 0012 0122     		movs	r2, #1
  93 0014 0223     		movs	r3, #2
  94 0016 FFF7FEFF 		bl	I2C_MasterWriteBuf
  95              	.LVL8:
  96              	.L5:
  73:..\../accel_mag.c ****     while((I2C_MasterStatus() & I2C_MSTAT_WR_CMPLT) == 0){} //wait till Master status indicates tha
  97              		.loc 1 73 0 discriminator 1
  98 001a FFF7FEFF 		bl	I2C_MasterStatus
ARM GAS  C:\Users\a85495\AppData\Local\Temp\ccpGjKwN.s 			page 4


  99              	.LVL9:
 100 001e 10F0020F 		tst	r0, #2
 101 0022 FAD0     		beq	.L5
  74:..\../accel_mag.c ****    
  75:..\../accel_mag.c ****     I2C_MasterReadBuf(FXOS8700_ADDRESS, (uint8 *) Read_Buf, 1, I2C_MODE_REPEAT_START);
 102              		.loc 1 75 0
 103 0024 1F20     		movs	r0, #31
 104 0026 6946     		mov	r1, sp
 105 0028 0122     		movs	r2, #1
 106 002a 1346     		mov	r3, r2
 107 002c FFF7FEFF 		bl	I2C_MasterReadBuf
 108              	.LVL10:
 109              	.L6:
  76:..\../accel_mag.c ****     while((I2C_MasterStatus() & I2C_MSTAT_RD_CMPLT)==0){}   //wait till Master status indicates rea
 110              		.loc 1 76 0 discriminator 1
 111 0030 FFF7FEFF 		bl	I2C_MasterStatus
 112              	.LVL11:
 113 0034 10F0010F 		tst	r0, #1
 114 0038 FAD0     		beq	.L6
  77:..\../accel_mag.c **** 
  78:..\../accel_mag.c ****     return Read_Buf[0];
  79:..\../accel_mag.c **** }
 115              		.loc 1 79 0
 116 003a 9DF80000 		ldrb	r0, [sp]	@ zero_extendqisi2
 117 003e 03B0     		add	sp, sp, #12
 118              		.cfi_def_cfa_offset 4
 119              		@ sp needed
 120 0040 5DF804FB 		ldr	pc, [sp], #4
 121              		.cfi_endproc
 122              	.LFE64:
 123              		.size	accel_mag_read8, .-accel_mag_read8
 124              		.section	.text.accel_mag_begin,"ax",%progbits
 125              		.align	2
 126              		.global	accel_mag_begin
 127              		.thumb
 128              		.thumb_func
 129              		.type	accel_mag_begin, %function
 130              	accel_mag_begin:
 131              	.LFB65:
  80:..\../accel_mag.c **** 
  81:..\../accel_mag.c **** /**************************************************************************/
  82:..\../accel_mag.c **** /*!
  83:..\../accel_mag.c ****     initialize the HW (Hardware)
  84:..\../accel_mag.c **** */
  85:..\../accel_mag.c **** /**************************************************************************/
  86:..\../accel_mag.c **** 
  87:..\../accel_mag.c **** uint8_t accel_mag_begin(fxos8700AccelRange_t rng){
 132              		.loc 1 87 0
 133              		.cfi_startproc
 134              		@ args = 0, pretend = 0, frame = 0
 135              		@ frame_needed = 0, uses_anonymous_args = 0
 136              	.LVL12:
 137 0000 10B5     		push	{r4, lr}
 138              		.cfi_def_cfa_offset 8
 139              		.cfi_offset 4, -8
 140              		.cfi_offset 14, -4
 141 0002 0446     		mov	r4, r0
ARM GAS  C:\Users\a85495\AppData\Local\Temp\ccpGjKwN.s 			page 5


  88:..\../accel_mag.c ****     /* Enable I2C */
  89:..\../accel_mag.c ****     Wire_begin();
 142              		.loc 1 89 0
 143 0004 FFF7FEFF 		bl	Wire_begin
 144              	.LVL13:
  90:..\../accel_mag.c ****     /* Set the range the an appropriate value */
  91:..\../accel_mag.c ****     _range = rng;
 145              		.loc 1 91 0
 146 0008 204B     		ldr	r3, .L16
 147 000a 1C70     		strb	r4, [r3]
  92:..\../accel_mag.c **** 
  93:..\../accel_mag.c ****     /* Clear the raw sensor data */
  94:..\../accel_mag.c ****     accel_raw.x = 0;
 148              		.loc 1 94 0
 149 000c 204A     		ldr	r2, .L16+4
 150 000e 0023     		movs	r3, #0
 151 0010 1380     		strh	r3, [r2]	@ movhi
  95:..\../accel_mag.c ****     accel_raw.y = 0;
 152              		.loc 1 95 0
 153 0012 5380     		strh	r3, [r2, #2]	@ movhi
  96:..\../accel_mag.c ****     accel_raw.z = 0;
 154              		.loc 1 96 0
 155 0014 9380     		strh	r3, [r2, #4]	@ movhi
  97:..\../accel_mag.c ****     mag_raw.x = 0;
 156              		.loc 1 97 0
 157 0016 1F4A     		ldr	r2, .L16+8
 158 0018 1380     		strh	r3, [r2]	@ movhi
  98:..\../accel_mag.c ****     mag_raw.y = 0;
 159              		.loc 1 98 0
 160 001a 5380     		strh	r3, [r2, #2]	@ movhi
  99:..\../accel_mag.c ****     mag_raw.z = 0;
 161              		.loc 1 99 0
 162 001c 9380     		strh	r3, [r2, #4]	@ movhi
 100:..\../accel_mag.c **** 
 101:..\../accel_mag.c ****     /* Make sure we have the correct chip ID since this checks
 102:..\../accel_mag.c ****      for correct address and that the IC is properly connected */
 103:..\../accel_mag.c ****     uint32_t id = accel_mag_read8(FXOS8700_REGISTER_WHO_AM_I);
 163              		.loc 1 103 0
 164 001e 0D20     		movs	r0, #13
 165 0020 FFF7FEFF 		bl	accel_mag_read8
 166              	.LVL14:
 104:..\../accel_mag.c ****     if (id != FXOS8700_ID)
 167              		.loc 1 104 0
 168 0024 C728     		cmp	r0, #199
 169 0026 04D0     		beq	.L9
 105:..\../accel_mag.c ****     {
 106:..\../accel_mag.c ****         serial_println("Incorrect ID, check wiring or code");
 170              		.loc 1 106 0
 171 0028 1B48     		ldr	r0, .L16+12
 172              	.LVL15:
 173 002a FFF7FEFF 		bl	serial_println
 174              	.LVL16:
 107:..\../accel_mag.c ****         return false;
 175              		.loc 1 107 0
 176 002e 0020     		movs	r0, #0
 177 0030 10BD     		pop	{r4, pc}
 178              	.LVL17:
ARM GAS  C:\Users\a85495\AppData\Local\Temp\ccpGjKwN.s 			page 6


 179              	.L9:
 108:..\../accel_mag.c ****     }
 109:..\../accel_mag.c **** 
 110:..\../accel_mag.c ****     /* Set to standby mode (required to make changes to this register) */
 111:..\../accel_mag.c ****     accel_mag_write8(FXOS8700_REGISTER_CTRL_REG1, 0);
 180              		.loc 1 111 0
 181 0032 2A20     		movs	r0, #42
 182              	.LVL18:
 183 0034 0021     		movs	r1, #0
 184 0036 FFF7FEFF 		bl	accel_mag_write8
 185              	.LVL19:
 112:..\../accel_mag.c **** 
 113:..\../accel_mag.c ****     /* Configure the accelerometer */
 114:..\../accel_mag.c ****     switch (_range)
 186              		.loc 1 114 0
 187 003a 144B     		ldr	r3, .L16
 188 003c 1B78     		ldrb	r3, [r3]	@ zero_extendqisi2
 189 003e 012B     		cmp	r3, #1
 190 0040 08D0     		beq	.L12
 191 0042 13B1     		cbz	r3, .L13
 192 0044 022B     		cmp	r3, #2
 193 0046 0AD0     		beq	.L14
 194 0048 0DE0     		b	.L11
 195              	.L13:
 115:..\../accel_mag.c ****     {
 116:..\../accel_mag.c ****     case (ACCEL_RANGE_2G):
 117:..\../accel_mag.c ****         accel_mag_write8(FXOS8700_REGISTER_XYZ_DATA_CFG, 0x00);
 196              		.loc 1 117 0
 197 004a 0E20     		movs	r0, #14
 198 004c 0021     		movs	r1, #0
 199 004e FFF7FEFF 		bl	accel_mag_write8
 200              	.LVL20:
 118:..\../accel_mag.c ****         break;
 201              		.loc 1 118 0
 202 0052 08E0     		b	.L11
 203              	.L12:
 119:..\../accel_mag.c ****     case (ACCEL_RANGE_4G):
 120:..\../accel_mag.c ****         accel_mag_write8(FXOS8700_REGISTER_XYZ_DATA_CFG, 0x01);
 204              		.loc 1 120 0
 205 0054 0E20     		movs	r0, #14
 206 0056 0121     		movs	r1, #1
 207 0058 FFF7FEFF 		bl	accel_mag_write8
 208              	.LVL21:
 121:..\../accel_mag.c ****         break;
 209              		.loc 1 121 0
 210 005c 03E0     		b	.L11
 211              	.L14:
 122:..\../accel_mag.c ****     case (ACCEL_RANGE_8G):
 123:..\../accel_mag.c ****         accel_mag_write8(FXOS8700_REGISTER_XYZ_DATA_CFG, 0x02);
 212              		.loc 1 123 0
 213 005e 0E20     		movs	r0, #14
 214 0060 0221     		movs	r1, #2
 215 0062 FFF7FEFF 		bl	accel_mag_write8
 216              	.LVL22:
 217              	.L11:
 124:..\../accel_mag.c ****         break;
 125:..\../accel_mag.c ****     }
ARM GAS  C:\Users\a85495\AppData\Local\Temp\ccpGjKwN.s 			page 7


 126:..\../accel_mag.c ****     /* High resolution */
 127:..\../accel_mag.c ****     accel_mag_write8(FXOS8700_REGISTER_CTRL_REG2, 0x02);
 218              		.loc 1 127 0
 219 0066 2B20     		movs	r0, #43
 220 0068 0221     		movs	r1, #2
 221 006a FFF7FEFF 		bl	accel_mag_write8
 222              	.LVL23:
 128:..\../accel_mag.c ****     /* Active, Normal Mode, Low Noise, 100Hz in Hybrid Mode */
 129:..\../accel_mag.c ****     accel_mag_write8(FXOS8700_REGISTER_CTRL_REG1, 0x15);
 223              		.loc 1 129 0
 224 006e 2A20     		movs	r0, #42
 225 0070 1521     		movs	r1, #21
 226 0072 FFF7FEFF 		bl	accel_mag_write8
 227              	.LVL24:
 130:..\../accel_mag.c **** 
 131:..\../accel_mag.c ****     /* Configure the magnetometer */
 132:..\../accel_mag.c ****     /* Hybrid Mode, Over Sampling Rate = 16 */
 133:..\../accel_mag.c ****     accel_mag_write8(FXOS8700_REGISTER_MCTRL_REG1, 0x1F);
 228              		.loc 1 133 0
 229 0076 5B20     		movs	r0, #91
 230 0078 1F21     		movs	r1, #31
 231 007a FFF7FEFF 		bl	accel_mag_write8
 232              	.LVL25:
 134:..\../accel_mag.c ****     /* Jump to reg 0x33 after reading 0x06 */
 135:..\../accel_mag.c ****     accel_mag_write8(FXOS8700_REGISTER_MCTRL_REG2, 0x20);
 233              		.loc 1 135 0
 234 007e 5C20     		movs	r0, #92
 235 0080 2021     		movs	r1, #32
 236 0082 FFF7FEFF 		bl	accel_mag_write8
 237              	.LVL26:
 136:..\../accel_mag.c **** 
 137:..\../accel_mag.c ****     return true;
 238              		.loc 1 137 0
 239 0086 0120     		movs	r0, #1
 138:..\../accel_mag.c **** }
 240              		.loc 1 138 0
 241 0088 10BD     		pop	{r4, pc}
 242              	.L17:
 243 008a 00BF     		.align	2
 244              	.L16:
 245 008c 00000000 		.word	.LANCHOR0
 246 0090 00000000 		.word	accel_raw
 247 0094 00000000 		.word	mag_raw
 248 0098 00000000 		.word	.LC0
 249              		.cfi_endproc
 250              	.LFE65:
 251              		.size	accel_mag_begin, .-accel_mag_begin
 252              		.global	__aeabi_i2f
 253              		.global	__aeabi_f2iz
 254              		.global	__aeabi_fmul
 255              		.section	.text.accel_mag_update,"ax",%progbits
 256              		.align	2
 257              		.global	accel_mag_update
 258              		.thumb
 259              		.thumb_func
 260              		.type	accel_mag_update, %function
 261              	accel_mag_update:
ARM GAS  C:\Users\a85495\AppData\Local\Temp\ccpGjKwN.s 			page 8


 262              	.LFB66:
 139:..\../accel_mag.c **** 
 140:..\../accel_mag.c **** uint8_t accel_mag_update()
 141:..\../accel_mag.c **** {
 263              		.loc 1 141 0
 264              		.cfi_startproc
 265              		@ args = 0, pretend = 0, frame = 40
 266              		@ frame_needed = 0, uses_anonymous_args = 0
 267 0000 2DE9F04F 		push	{r4, r5, r6, r7, r8, r9, r10, fp, lr}
 268              		.cfi_def_cfa_offset 36
 269              		.cfi_offset 4, -36
 270              		.cfi_offset 5, -32
 271              		.cfi_offset 6, -28
 272              		.cfi_offset 7, -24
 273              		.cfi_offset 8, -20
 274              		.cfi_offset 9, -16
 275              		.cfi_offset 10, -12
 276              		.cfi_offset 11, -8
 277              		.cfi_offset 14, -4
 278 0004 8BB0     		sub	sp, sp, #44
 279              		.cfi_def_cfa_offset 80
 142:..\../accel_mag.c **** 
 143:..\../accel_mag.c ****     /* Clear the raw data placeholder */
 144:..\../accel_mag.c ****     accel_raw.x = 0;
 280              		.loc 1 144 0
 281 0006 6B4A     		ldr	r2, .L26
 282 0008 0023     		movs	r3, #0
 283 000a 1380     		strh	r3, [r2]	@ movhi
 145:..\../accel_mag.c ****     accel_raw.y = 0;
 284              		.loc 1 145 0
 285 000c 5380     		strh	r3, [r2, #2]	@ movhi
 146:..\../accel_mag.c ****     accel_raw.z = 0;
 286              		.loc 1 146 0
 287 000e 9380     		strh	r3, [r2, #4]	@ movhi
 147:..\../accel_mag.c ****     mag_raw.x = 0;
 288              		.loc 1 147 0
 289 0010 694A     		ldr	r2, .L26+4
 290 0012 1380     		strh	r3, [r2]	@ movhi
 148:..\../accel_mag.c ****     mag_raw.y = 0;
 291              		.loc 1 148 0
 292 0014 5380     		strh	r3, [r2, #2]	@ movhi
 149:..\../accel_mag.c ****     mag_raw.z = 0;
 293              		.loc 1 149 0
 294 0016 9380     		strh	r3, [r2, #4]	@ movhi
 150:..\../accel_mag.c **** 
 151:..\../accel_mag.c ****     /*Wire.beginTransmission((byte)FXOS8700_ADDRESS);
 152:..\../accel_mag.c ****     Wire.write(FXOS8700_REGISTER_STATUS | 0x80);
 153:..\../accel_mag.c ****     Wire.endTransmission();
 154:..\../accel_mag.c ****     Wire.requestFrom((byte)FXOS8700_ADDRESS, (byte)13);*/
 155:..\../accel_mag.c ****     
 156:..\../accel_mag.c ****     //serial_UartPutString("here 2\r\n");
 157:..\../accel_mag.c ****     
 158:..\../accel_mag.c ****     /*I2C_I2CMasterSendStart((byte)FXOS8700_ADDRESS, _write);
 159:..\../accel_mag.c ****     serial_UartPutString("here 3\r\n");
 160:..\../accel_mag.c ****     I2C_I2CMasterWriteByte(FXOS8700_REGISTER_STATUS | 0x80);
 161:..\../accel_mag.c ****     if (I2C_I2C_MSTR_NO_ERROR != (I2C_I2CMasterWriteByte(FXOS8700_REGISTER_STATUS | 0x80)))
 162:..\../accel_mag.c ****     {
ARM GAS  C:\Users\a85495\AppData\Local\Temp\ccpGjKwN.s 			page 9


 163:..\../accel_mag.c ****         serial_UartPutString("here 4\r\n");
 164:..\../accel_mag.c ****         return false;
 165:..\../accel_mag.c ****     }
 166:..\../accel_mag.c ****     serial_UartPutString("here 5\r\n");
 167:..\../accel_mag.c ****     I2C_I2CMasterSendStop();*/
 168:..\../accel_mag.c ****     
 169:..\../accel_mag.c ****     uint8_t Write_Buf[1];  //create a buffer that will store the register that we want to start rea
 170:..\../accel_mag.c ****     Write_Buf[0] = (uint8_t)FXOS8700_REGISTER_STATUS;   
 295              		.loc 1 170 0
 296 0018 8DF82430 		strb	r3, [sp, #36]
 171:..\../accel_mag.c ****     
 172:..\../accel_mag.c ****     uint8_t Read_Buf[14] = {0}; //create an array that will store the data read
 297              		.loc 1 172 0
 298 001c 0593     		str	r3, [sp, #20]
 299 001e 0693     		str	r3, [sp, #24]
 300 0020 0793     		str	r3, [sp, #28]
 301 0022 ADF82030 		strh	r3, [sp, #32]	@ movhi
 173:..\../accel_mag.c ****     
 174:..\../accel_mag.c ****     I2C_MasterWriteBuf(FXOS8700_ADDRESS, (uint8 *)Write_Buf, 1, I2C_MODE_NO_STOP);
 302              		.loc 1 174 0
 303 0026 1F20     		movs	r0, #31
 304 0028 09A9     		add	r1, sp, #36
 305 002a 0122     		movs	r2, #1
 306 002c 0223     		movs	r3, #2
 307 002e FFF7FEFF 		bl	I2C_MasterWriteBuf
 308              	.LVL27:
 309              	.L19:
 175:..\../accel_mag.c ****     while((I2C_MasterStatus() & I2C_MSTAT_WR_CMPLT) == 0){} //wait till Master status indicates tha
 310              		.loc 1 175 0 discriminator 1
 311 0032 FFF7FEFF 		bl	I2C_MasterStatus
 312              	.LVL28:
 313 0036 10F0020F 		tst	r0, #2
 314 003a FAD0     		beq	.L19
 176:..\../accel_mag.c ****     
 177:..\../accel_mag.c ****     I2C_MasterReadBuf(FXOS8700_ADDRESS, (uint8 *) Read_Buf, sizeof(Read_Buf), I2C_MODE_REPEAT_START
 315              		.loc 1 177 0
 316 003c 1F20     		movs	r0, #31
 317 003e 05A9     		add	r1, sp, #20
 318 0040 0E22     		movs	r2, #14
 319 0042 0123     		movs	r3, #1
 320 0044 FFF7FEFF 		bl	I2C_MasterReadBuf
 321              	.LVL29:
 322              	.L20:
 178:..\../accel_mag.c ****     while((I2C_MasterStatus() & I2C_MSTAT_RD_CMPLT)==0){}   //wait till Master status indicates rea
 323              		.loc 1 178 0 discriminator 1
 324 0048 FFF7FEFF 		bl	I2C_MasterStatus
 325              	.LVL30:
 326 004c 10F0010F 		tst	r0, #1
 327 0050 FAD0     		beq	.L20
 179:..\../accel_mag.c ****     
 180:..\../accel_mag.c ****     //serial_UartPutString("here 3\r\n");
 181:..\../accel_mag.c ****     //Wire_requestFrom((byte)FXOS8700_ADDRESS, sizeof(Read_Buf), Read_Buf);
 182:..\../accel_mag.c ****     
 183:..\../accel_mag.c ****     //serial_UartPutString("here 4\r\n");
 184:..\../accel_mag.c ****     
 185:..\../accel_mag.c ****     //uint8_t status = Read_Buf[0]; //Status not used
 186:..\../accel_mag.c ****     uint8_t axhi = Read_Buf[1];
ARM GAS  C:\Users\a85495\AppData\Local\Temp\ccpGjKwN.s 			page 10


 328              		.loc 1 186 0
 329 0052 9DF81500 		ldrb	r0, [sp, #21]	@ zero_extendqisi2
 330              	.LVL31:
 187:..\../accel_mag.c ****     uint8_t axlo = Read_Buf[2];
 331              		.loc 1 187 0
 332 0056 9DF81630 		ldrb	r3, [sp, #22]	@ zero_extendqisi2
 333              	.LVL32:
 188:..\../accel_mag.c ****     uint8_t ayhi = Read_Buf[3];
 334              		.loc 1 188 0
 335 005a 9DF817B0 		ldrb	fp, [sp, #23]	@ zero_extendqisi2
 336              	.LVL33:
 189:..\../accel_mag.c ****     uint8_t aylo = Read_Buf[4];
 337              		.loc 1 189 0
 338 005e 9DF81870 		ldrb	r7, [sp, #24]	@ zero_extendqisi2
 339              	.LVL34:
 190:..\../accel_mag.c ****     uint8_t azhi = Read_Buf[5];
 340              		.loc 1 190 0
 341 0062 9DF819A0 		ldrb	r10, [sp, #25]	@ zero_extendqisi2
 342              	.LVL35:
 191:..\../accel_mag.c ****     uint8_t azlo = Read_Buf[6];
 343              		.loc 1 191 0
 344 0066 9DF81A60 		ldrb	r6, [sp, #26]	@ zero_extendqisi2
 345              	.LVL36:
 192:..\../accel_mag.c ****     uint8_t mxhi = Read_Buf[7];
 346              		.loc 1 192 0
 347 006a 9DF81B90 		ldrb	r9, [sp, #27]	@ zero_extendqisi2
 348              	.LVL37:
 193:..\../accel_mag.c ****     uint8_t mxlo = Read_Buf[8];
 349              		.loc 1 193 0
 350 006e 9DF81C40 		ldrb	r4, [sp, #28]	@ zero_extendqisi2
 351              	.LVL38:
 194:..\../accel_mag.c ****     uint8_t myhi = Read_Buf[9];
 352              		.loc 1 194 0
 353 0072 9DF81D20 		ldrb	r2, [sp, #29]	@ zero_extendqisi2
 354 0076 0192     		str	r2, [sp, #4]
 355              	.LVL39:
 195:..\../accel_mag.c ****     uint8_t mylo = Read_Buf[10];
 356              		.loc 1 195 0
 357 0078 9DF81E10 		ldrb	r1, [sp, #30]	@ zero_extendqisi2
 358 007c 0291     		str	r1, [sp, #8]
 359              	.LVL40:
 196:..\../accel_mag.c ****     uint8_t mzhi = Read_Buf[11];
 360              		.loc 1 196 0
 361 007e 9DF81F50 		ldrb	r5, [sp, #31]	@ zero_extendqisi2
 362 0082 0395     		str	r5, [sp, #12]
 363              	.LVL41:
 197:..\../accel_mag.c ****     uint8_t mzlo = Read_Buf[12];
 364              		.loc 1 197 0
 365 0084 9DF82080 		ldrb	r8, [sp, #32]	@ zero_extendqisi2
 366              	.LVL42:
 198:..\../accel_mag.c **** 
 199:..\../accel_mag.c ****     /* Shift values to create properly formed integers */
 200:..\../accel_mag.c ****     /* Note, accel data is 14-bit and left-aligned, so we shift two bit right */
 201:..\../accel_mag.c ****     accel.x = (int16_t)((axhi << 8) | axlo) >> 2;
 367              		.loc 1 201 0
 368 0088 43EA0020 		orr	r0, r3, r0, lsl #8
 369              	.LVL43:
ARM GAS  C:\Users\a85495\AppData\Local\Temp\ccpGjKwN.s 			page 11


 370 008c 40F38D00 		sbfx	r0, r0, #2, #14
 371 0090 FFF7FEFF 		bl	__aeabi_i2f
 372              	.LVL44:
 373 0094 0090     		str	r0, [sp]	@ float
 374 0096 494D     		ldr	r5, .L26+8
 375 0098 2860     		str	r0, [r5]	@ float
 202:..\../accel_mag.c ****     accel.y = (int16_t)((ayhi << 8) | aylo) >> 2;
 376              		.loc 1 202 0
 377 009a 47EA0B20 		orr	r0, r7, fp, lsl #8
 378 009e 40F38D00 		sbfx	r0, r0, #2, #14
 379 00a2 FFF7FEFF 		bl	__aeabi_i2f
 380              	.LVL45:
 381 00a6 0746     		mov	r7, r0
 382              	.LVL46:
 383 00a8 6860     		str	r0, [r5, #4]	@ float
 203:..\../accel_mag.c ****     accel.z = (int16_t)((azhi << 8) | azlo) >> 2;
 384              		.loc 1 203 0
 385 00aa 46EA0A20 		orr	r0, r6, r10, lsl #8
 386 00ae 40F38D00 		sbfx	r0, r0, #2, #14
 387 00b2 FFF7FEFF 		bl	__aeabi_i2f
 388              	.LVL47:
 389 00b6 0646     		mov	r6, r0
 390              	.LVL48:
 391 00b8 A860     		str	r0, [r5, #8]	@ float
 204:..\../accel_mag.c ****     mag.x = (int16_t)((mxhi << 8) | mxlo);
 392              		.loc 1 204 0
 393 00ba 44EA0920 		orr	r0, r4, r9, lsl #8
 394 00be 00B2     		sxth	r0, r0
 395 00c0 FFF7FEFF 		bl	__aeabi_i2f
 396              	.LVL49:
 397 00c4 0446     		mov	r4, r0
 398              	.LVL50:
 205:..\../accel_mag.c ****     mag.y = (int16_t)((myhi << 8) | mylo);
 399              		.loc 1 205 0
 400 00c6 0299     		ldr	r1, [sp, #8]
 401 00c8 019A     		ldr	r2, [sp, #4]
 402 00ca 41EA0220 		orr	r0, r1, r2, lsl #8
 403 00ce 00B2     		sxth	r0, r0
 404 00d0 FFF7FEFF 		bl	__aeabi_i2f
 405              	.LVL51:
 406 00d4 8146     		mov	r9, r0
 407              	.LVL52:
 206:..\../accel_mag.c ****     mag.z = (int16_t)((mzhi << 8) | mzlo);
 408              		.loc 1 206 0
 409 00d6 039D     		ldr	r5, [sp, #12]
 410 00d8 48EA0520 		orr	r0, r8, r5, lsl #8
 411 00dc 00B2     		sxth	r0, r0
 412 00de FFF7FEFF 		bl	__aeabi_i2f
 413              	.LVL53:
 414 00e2 8246     		mov	r10, r0
 415              	.LVL54:
 207:..\../accel_mag.c **** 
 208:..\../accel_mag.c ****     /* Assign raw values in case someone needs them */
 209:..\../accel_mag.c ****     accel_raw.x = accel.x;
 416              		.loc 1 209 0
 417 00e4 334D     		ldr	r5, .L26
 418 00e6 0098     		ldr	r0, [sp]	@ float
ARM GAS  C:\Users\a85495\AppData\Local\Temp\ccpGjKwN.s 			page 12


 419 00e8 FFF7FEFF 		bl	__aeabi_f2iz
 420              	.LVL55:
 421 00ec 2880     		strh	r0, [r5]	@ movhi
 210:..\../accel_mag.c ****     accel_raw.y = accel.y;
 422              		.loc 1 210 0
 423 00ee 3846     		mov	r0, r7
 424 00f0 FFF7FEFF 		bl	__aeabi_f2iz
 425              	.LVL56:
 426 00f4 6880     		strh	r0, [r5, #2]	@ movhi
 211:..\../accel_mag.c ****     accel_raw.z = accel.z;
 427              		.loc 1 211 0
 428 00f6 3046     		mov	r0, r6
 429 00f8 FFF7FEFF 		bl	__aeabi_f2iz
 430              	.LVL57:
 431 00fc A880     		strh	r0, [r5, #4]	@ movhi
 212:..\../accel_mag.c ****     mag_raw.x = mag.x;
 432              		.loc 1 212 0
 433 00fe 2E4D     		ldr	r5, .L26+4
 434 0100 2046     		mov	r0, r4
 435 0102 FFF7FEFF 		bl	__aeabi_f2iz
 436              	.LVL58:
 437 0106 2880     		strh	r0, [r5]	@ movhi
 213:..\../accel_mag.c ****     mag_raw.y = mag.y;
 438              		.loc 1 213 0
 439 0108 4846     		mov	r0, r9
 440 010a FFF7FEFF 		bl	__aeabi_f2iz
 441              	.LVL59:
 442 010e 6880     		strh	r0, [r5, #2]	@ movhi
 214:..\../accel_mag.c ****     mag_raw.z = mag.z;
 443              		.loc 1 214 0
 444 0110 5046     		mov	r0, r10
 445 0112 FFF7FEFF 		bl	__aeabi_f2iz
 446              	.LVL60:
 447 0116 A880     		strh	r0, [r5, #4]	@ movhi
 215:..\../accel_mag.c ****     
 216:..\../accel_mag.c ****     /* Convert accel values to m/s^2 */
 217:..\../accel_mag.c ****     switch (_range)
 448              		.loc 1 217 0
 449 0118 294B     		ldr	r3, .L26+12
 450 011a 1B78     		ldrb	r3, [r3]	@ zero_extendqisi2
 451 011c 012B     		cmp	r3, #1
 452 011e 14D0     		beq	.L22
 453 0120 13B1     		cbz	r3, .L23
 454 0122 022B     		cmp	r3, #2
 455 0124 22D0     		beq	.L24
 456 0126 31E0     		b	.L21
 457              	.L23:
 218:..\../accel_mag.c ****     {
 219:..\../accel_mag.c ****     case (ACCEL_RANGE_2G):
 220:..\../accel_mag.c ****         accel.x *= ACCEL_MG_LSB_2G * SENSORS_GRAVITY_STANDARD;
 458              		.loc 1 220 0
 459 0128 244D     		ldr	r5, .L26+8
 460 012a 0098     		ldr	r0, [sp]	@ float
 461 012c 2549     		ldr	r1, .L26+16
 462 012e FFF7FEFF 		bl	__aeabi_fmul
 463              	.LVL61:
 464 0132 2860     		str	r0, [r5]	@ float
ARM GAS  C:\Users\a85495\AppData\Local\Temp\ccpGjKwN.s 			page 13


 221:..\../accel_mag.c ****         accel.y *= ACCEL_MG_LSB_2G * SENSORS_GRAVITY_STANDARD;
 465              		.loc 1 221 0
 466 0134 3846     		mov	r0, r7
 467 0136 2349     		ldr	r1, .L26+16
 468 0138 FFF7FEFF 		bl	__aeabi_fmul
 469              	.LVL62:
 470 013c 6860     		str	r0, [r5, #4]	@ float
 222:..\../accel_mag.c ****         accel.z *= ACCEL_MG_LSB_2G * SENSORS_GRAVITY_STANDARD;
 471              		.loc 1 222 0
 472 013e 3046     		mov	r0, r6
 473 0140 2049     		ldr	r1, .L26+16
 474 0142 FFF7FEFF 		bl	__aeabi_fmul
 475              	.LVL63:
 476 0146 A860     		str	r0, [r5, #8]	@ float
 223:..\../accel_mag.c ****         //serial_UartPutString("here 5\r\n");
 224:..\../accel_mag.c ****         break;
 477              		.loc 1 224 0
 478 0148 20E0     		b	.L21
 479              	.L22:
 225:..\../accel_mag.c ****     case (ACCEL_RANGE_4G):
 226:..\../accel_mag.c ****         accel.x *= ACCEL_MG_LSB_4G * SENSORS_GRAVITY_STANDARD;
 480              		.loc 1 226 0
 481 014a 1C4D     		ldr	r5, .L26+8
 482 014c 0098     		ldr	r0, [sp]	@ float
 483 014e 1E49     		ldr	r1, .L26+20
 484 0150 FFF7FEFF 		bl	__aeabi_fmul
 485              	.LVL64:
 486 0154 2860     		str	r0, [r5]	@ float
 227:..\../accel_mag.c ****         accel.y *= ACCEL_MG_LSB_4G * SENSORS_GRAVITY_STANDARD;
 487              		.loc 1 227 0
 488 0156 3846     		mov	r0, r7
 489 0158 1B49     		ldr	r1, .L26+20
 490 015a FFF7FEFF 		bl	__aeabi_fmul
 491              	.LVL65:
 492 015e 6860     		str	r0, [r5, #4]	@ float
 228:..\../accel_mag.c ****         accel.z *= ACCEL_MG_LSB_4G * SENSORS_GRAVITY_STANDARD;
 493              		.loc 1 228 0
 494 0160 3046     		mov	r0, r6
 495 0162 1949     		ldr	r1, .L26+20
 496 0164 FFF7FEFF 		bl	__aeabi_fmul
 497              	.LVL66:
 498 0168 A860     		str	r0, [r5, #8]	@ float
 229:..\../accel_mag.c ****         break;
 499              		.loc 1 229 0
 500 016a 0FE0     		b	.L21
 501              	.L24:
 230:..\../accel_mag.c ****     case (ACCEL_RANGE_8G):
 231:..\../accel_mag.c ****         accel.x *= ACCEL_MG_LSB_8G * SENSORS_GRAVITY_STANDARD;
 502              		.loc 1 231 0
 503 016c 134D     		ldr	r5, .L26+8
 504 016e 0098     		ldr	r0, [sp]	@ float
 505 0170 1649     		ldr	r1, .L26+24
 506 0172 FFF7FEFF 		bl	__aeabi_fmul
 507              	.LVL67:
 508 0176 2860     		str	r0, [r5]	@ float
 232:..\../accel_mag.c ****         accel.y *= ACCEL_MG_LSB_8G * SENSORS_GRAVITY_STANDARD;
 509              		.loc 1 232 0
ARM GAS  C:\Users\a85495\AppData\Local\Temp\ccpGjKwN.s 			page 14


 510 0178 3846     		mov	r0, r7
 511 017a 1449     		ldr	r1, .L26+24
 512 017c FFF7FEFF 		bl	__aeabi_fmul
 513              	.LVL68:
 514 0180 6860     		str	r0, [r5, #4]	@ float
 233:..\../accel_mag.c ****         accel.z *= ACCEL_MG_LSB_8G * SENSORS_GRAVITY_STANDARD;
 515              		.loc 1 233 0
 516 0182 3046     		mov	r0, r6
 517 0184 1149     		ldr	r1, .L26+24
 518 0186 FFF7FEFF 		bl	__aeabi_fmul
 519              	.LVL69:
 520 018a A860     		str	r0, [r5, #8]	@ float
 521              	.L21:
 234:..\../accel_mag.c ****         break;
 235:..\../accel_mag.c ****     }
 236:..\../accel_mag.c **** 
 237:..\../accel_mag.c ****     /* Convert mag values to uTesla */
 238:..\../accel_mag.c ****     mag.x *= MAG_UT_LSB;
 522              		.loc 1 238 0
 523 018c 104D     		ldr	r5, .L26+28
 524 018e 2046     		mov	r0, r4
 525 0190 1049     		ldr	r1, .L26+32
 526 0192 FFF7FEFF 		bl	__aeabi_fmul
 527              	.LVL70:
 528 0196 2860     		str	r0, [r5]	@ float
 239:..\../accel_mag.c ****     mag.y *= MAG_UT_LSB;
 529              		.loc 1 239 0
 530 0198 4846     		mov	r0, r9
 531 019a 0E49     		ldr	r1, .L26+32
 532 019c FFF7FEFF 		bl	__aeabi_fmul
 533              	.LVL71:
 534 01a0 6860     		str	r0, [r5, #4]	@ float
 240:..\../accel_mag.c ****     mag.z *= MAG_UT_LSB;
 535              		.loc 1 240 0
 536 01a2 5046     		mov	r0, r10
 537 01a4 0B49     		ldr	r1, .L26+32
 538 01a6 FFF7FEFF 		bl	__aeabi_fmul
 539              	.LVL72:
 540 01aa A860     		str	r0, [r5, #8]	@ float
 241:..\../accel_mag.c **** 
 242:..\../accel_mag.c ****     #if ACCEL_MAG_DEBUG 
 243:..\../accel_mag.c ****         serial_print("accel.x = ");
 244:..\../accel_mag.c ****         serial_printDouble(accel.x);
 245:..\../accel_mag.c ****         serial_print(" accel.y = ");
 246:..\../accel_mag.c ****         serial_printDouble(accel.y);
 247:..\../accel_mag.c ****         serial_print(" accel.z = ");
 248:..\../accel_mag.c ****         serial_printDouble(accel.z);
 249:..\../accel_mag.c ****         serial_print(" m/(s^2)");
 250:..\../accel_mag.c **** 
 251:..\../accel_mag.c ****         serial_print("   mag.x = ");
 252:..\../accel_mag.c ****         serial_printDouble(mag.x);
 253:..\../accel_mag.c ****         serial_print(" mag.y = ");
 254:..\../accel_mag.c ****         serial_printDouble(mag.y);
 255:..\../accel_mag.c ****         serial_print(" mag.z = ");
 256:..\../accel_mag.c ****         serial_printDouble(mag.z);
 257:..\../accel_mag.c ****         serial_println(" uTesla");
 258:..\../accel_mag.c **** 
ARM GAS  C:\Users\a85495\AppData\Local\Temp\ccpGjKwN.s 			page 15


 259:..\../accel_mag.c ****     #endif
 260:..\../accel_mag.c **** 
 261:..\../accel_mag.c ****     return true;
 262:..\../accel_mag.c **** }
 541              		.loc 1 262 0
 542 01ac 0120     		movs	r0, #1
 543 01ae 0BB0     		add	sp, sp, #44
 544              		.cfi_def_cfa_offset 36
 545              		@ sp needed
 546 01b0 BDE8F08F 		pop	{r4, r5, r6, r7, r8, r9, r10, fp, pc}
 547              	.LVL73:
 548              	.L27:
 549              		.align	2
 550              	.L26:
 551 01b4 00000000 		.word	accel_raw
 552 01b8 00000000 		.word	mag_raw
 553 01bc 00000000 		.word	accel
 554 01c0 00000000 		.word	.LANCHOR0
 555 01c4 E7D01C3B 		.word	991744231
 556 01c8 E7D09C3B 		.word	1000132839
 557 01cc E7D01C3C 		.word	1008521447
 558 01d0 00000000 		.word	mag
 559 01d4 CDCCCC3D 		.word	1036831949
 560              		.cfi_endproc
 561              	.LFE66:
 562              		.size	accel_mag_update, .-accel_mag_update
 563              		.section	.text.accel_mag_readData,"ax",%progbits
 564              		.align	2
 565              		.global	accel_mag_readData
 566              		.thumb
 567              		.thumb_func
 568              		.type	accel_mag_readData, %function
 569              	accel_mag_readData:
 570              	.LFB67:
 263:..\../accel_mag.c **** 
 264:..\../accel_mag.c **** void accel_mag_readData(fxos8700Data_t * _acceleration, fxos8700Data_t * _magnetic)
 265:..\../accel_mag.c **** {
 571              		.loc 1 265 0
 572              		.cfi_startproc
 573              		@ args = 0, pretend = 0, frame = 0
 574              		@ frame_needed = 0, uses_anonymous_args = 0
 575              	.LVL74:
 576 0000 38B5     		push	{r3, r4, r5, lr}
 577              		.cfi_def_cfa_offset 16
 578              		.cfi_offset 3, -16
 579              		.cfi_offset 4, -12
 580              		.cfi_offset 5, -8
 581              		.cfi_offset 14, -4
 582 0002 0546     		mov	r5, r0
 583 0004 0C46     		mov	r4, r1
 266:..\../accel_mag.c ****     //serial_UartPutString("here 1\r\n");
 267:..\../accel_mag.c ****     accel_mag_update();
 584              		.loc 1 267 0
 585 0006 FFF7FEFF 		bl	accel_mag_update
 586              	.LVL75:
 268:..\../accel_mag.c ****     //serial_UartPutString("here 6\r\n");
 269:..\../accel_mag.c ****      _acceleration->x = accel.x;
ARM GAS  C:\Users\a85495\AppData\Local\Temp\ccpGjKwN.s 			page 16


 587              		.loc 1 269 0
 588 000a 074B     		ldr	r3, .L30
 589 000c 1A68     		ldr	r2, [r3]	@ float
 590 000e 2A60     		str	r2, [r5]	@ float
 270:..\../accel_mag.c ****      _acceleration->y = accel.y;
 591              		.loc 1 270 0
 592 0010 5A68     		ldr	r2, [r3, #4]	@ float
 593 0012 6A60     		str	r2, [r5, #4]	@ float
 271:..\../accel_mag.c ****      _acceleration->z = accel.z;
 594              		.loc 1 271 0
 595 0014 9B68     		ldr	r3, [r3, #8]	@ float
 596 0016 AB60     		str	r3, [r5, #8]	@ float
 272:..\../accel_mag.c **** 
 273:..\../accel_mag.c ****     _magnetic->x = mag.x;
 597              		.loc 1 273 0
 598 0018 044B     		ldr	r3, .L30+4
 599 001a 1A68     		ldr	r2, [r3]	@ float
 600 001c 2260     		str	r2, [r4]	@ float
 274:..\../accel_mag.c ****     _magnetic->y = mag.y;
 601              		.loc 1 274 0
 602 001e 5A68     		ldr	r2, [r3, #4]	@ float
 603 0020 6260     		str	r2, [r4, #4]	@ float
 275:..\../accel_mag.c ****     _magnetic->z = mag.z;
 604              		.loc 1 275 0
 605 0022 9B68     		ldr	r3, [r3, #8]	@ float
 606 0024 A360     		str	r3, [r4, #8]	@ float
 607 0026 38BD     		pop	{r3, r4, r5, pc}
 608              	.LVL76:
 609              	.L31:
 610              		.align	2
 611              	.L30:
 612 0028 00000000 		.word	accel
 613 002c 00000000 		.word	mag
 614              		.cfi_endproc
 615              	.LFE67:
 616              		.size	accel_mag_readData, .-accel_mag_readData
 617              		.section	.text.accel_readData,"ax",%progbits
 618              		.align	2
 619              		.global	accel_readData
 620              		.thumb
 621              		.thumb_func
 622              		.type	accel_readData, %function
 623              	accel_readData:
 624              	.LFB68:
 276:..\../accel_mag.c **** }
 277:..\../accel_mag.c **** 
 278:..\../accel_mag.c **** void accel_readData(fxos8700Data_t * _acceleration){
 625              		.loc 1 278 0
 626              		.cfi_startproc
 627              		@ args = 0, pretend = 0, frame = 0
 628              		@ frame_needed = 0, uses_anonymous_args = 0
 629              	.LVL77:
 630 0000 10B5     		push	{r4, lr}
 631              		.cfi_def_cfa_offset 8
 632              		.cfi_offset 4, -8
 633              		.cfi_offset 14, -4
 634 0002 0446     		mov	r4, r0
ARM GAS  C:\Users\a85495\AppData\Local\Temp\ccpGjKwN.s 			page 17


 279:..\../accel_mag.c ****     accel_mag_update();
 635              		.loc 1 279 0
 636 0004 FFF7FEFF 		bl	accel_mag_update
 637              	.LVL78:
 280:..\../accel_mag.c ****     _acceleration->x = accel.x;
 638              		.loc 1 280 0
 639 0008 034B     		ldr	r3, .L34
 640 000a 1A68     		ldr	r2, [r3]	@ float
 641 000c 2260     		str	r2, [r4]	@ float
 281:..\../accel_mag.c ****     _acceleration->y = accel.y;
 642              		.loc 1 281 0
 643 000e 5A68     		ldr	r2, [r3, #4]	@ float
 644 0010 6260     		str	r2, [r4, #4]	@ float
 282:..\../accel_mag.c ****     _acceleration->z = accel.z;
 645              		.loc 1 282 0
 646 0012 9B68     		ldr	r3, [r3, #8]	@ float
 647 0014 A360     		str	r3, [r4, #8]	@ float
 648 0016 10BD     		pop	{r4, pc}
 649              	.LVL79:
 650              	.L35:
 651              		.align	2
 652              	.L34:
 653 0018 00000000 		.word	accel
 654              		.cfi_endproc
 655              	.LFE68:
 656              		.size	accel_readData, .-accel_readData
 657              		.section	.text.mag_readData,"ax",%progbits
 658              		.align	2
 659              		.global	mag_readData
 660              		.thumb
 661              		.thumb_func
 662              		.type	mag_readData, %function
 663              	mag_readData:
 664              	.LFB69:
 283:..\../accel_mag.c **** }
 284:..\../accel_mag.c **** 
 285:..\../accel_mag.c **** void mag_readData(fxos8700Data_t * _magnetic){
 665              		.loc 1 285 0
 666              		.cfi_startproc
 667              		@ args = 0, pretend = 0, frame = 0
 668              		@ frame_needed = 0, uses_anonymous_args = 0
 669              	.LVL80:
 670 0000 10B5     		push	{r4, lr}
 671              		.cfi_def_cfa_offset 8
 672              		.cfi_offset 4, -8
 673              		.cfi_offset 14, -4
 674 0002 0446     		mov	r4, r0
 286:..\../accel_mag.c ****     accel_mag_update();
 675              		.loc 1 286 0
 676 0004 FFF7FEFF 		bl	accel_mag_update
 677              	.LVL81:
 287:..\../accel_mag.c ****     _magnetic->x = mag.x;
 678              		.loc 1 287 0
 679 0008 034B     		ldr	r3, .L38
 680 000a 1A68     		ldr	r2, [r3]	@ float
 681 000c 2260     		str	r2, [r4]	@ float
 288:..\../accel_mag.c ****     _magnetic->y = mag.y;
ARM GAS  C:\Users\a85495\AppData\Local\Temp\ccpGjKwN.s 			page 18


 682              		.loc 1 288 0
 683 000e 5A68     		ldr	r2, [r3, #4]	@ float
 684 0010 6260     		str	r2, [r4, #4]	@ float
 289:..\../accel_mag.c ****     _magnetic->z = mag.z;
 685              		.loc 1 289 0
 686 0012 9B68     		ldr	r3, [r3, #8]	@ float
 687 0014 A360     		str	r3, [r4, #8]	@ float
 688 0016 10BD     		pop	{r4, pc}
 689              	.LVL82:
 690              	.L39:
 691              		.align	2
 692              	.L38:
 693 0018 00000000 		.word	mag
 694              		.cfi_endproc
 695              	.LFE69:
 696              		.size	mag_readData, .-mag_readData
 697              		.section	.text.accel_mag_initialize,"ax",%progbits
 698              		.align	2
 699              		.global	accel_mag_initialize
 700              		.thumb
 701              		.thumb_func
 702              		.type	accel_mag_initialize, %function
 703              	accel_mag_initialize:
 704              	.LFB70:
 290:..\../accel_mag.c **** }
 291:..\../accel_mag.c **** 
 292:..\../accel_mag.c **** uint8_t accel_mag_initialize(fxos8700AccelRange_t rng){
 705              		.loc 1 292 0
 706              		.cfi_startproc
 707              		@ args = 0, pretend = 0, frame = 0
 708              		@ frame_needed = 0, uses_anonymous_args = 0
 709              	.LVL83:
 710 0000 08B5     		push	{r3, lr}
 711              		.cfi_def_cfa_offset 8
 712              		.cfi_offset 3, -8
 713              		.cfi_offset 14, -4
 714              	.LVL84:
 293:..\../accel_mag.c ****     uint8_t ret = 1;
 294:..\../accel_mag.c ****     ret = accel_mag_begin(rng);
 715              		.loc 1 294 0
 716 0002 FFF7FEFF 		bl	accel_mag_begin
 717              	.LVL85:
 295:..\../accel_mag.c ****     return ret;
 296:..\../accel_mag.c **** }
 718              		.loc 1 296 0
 719 0006 08BD     		pop	{r3, pc}
 720              		.cfi_endproc
 721              	.LFE70:
 722              		.size	accel_mag_initialize, .-accel_mag_initialize
 723              		.section	.text.accel_getX,"ax",%progbits
 724              		.align	2
 725              		.global	accel_getX
 726              		.thumb
 727              		.thumb_func
 728              		.type	accel_getX, %function
 729              	accel_getX:
 730              	.LFB71:
ARM GAS  C:\Users\a85495\AppData\Local\Temp\ccpGjKwN.s 			page 19


 297:..\../accel_mag.c **** 
 298:..\../accel_mag.c **** /*  These functions are provided to allow the user to extract
 299:..\../accel_mag.c ****  *  single pieces of data from the sensor readings safely
 300:..\../accel_mag.c ****  *  instead of just calling the sensor variables directly
 301:..\../accel_mag.c **** */
 302:..\../accel_mag.c **** int16_t accel_getX(void){
 731              		.loc 1 302 0
 732              		.cfi_startproc
 733              		@ args = 0, pretend = 0, frame = 0
 734              		@ frame_needed = 0, uses_anonymous_args = 0
 735 0000 08B5     		push	{r3, lr}
 736              		.cfi_def_cfa_offset 8
 737              		.cfi_offset 3, -8
 738              		.cfi_offset 14, -4
 303:..\../accel_mag.c ****     return (accel.x);
 739              		.loc 1 303 0
 740 0002 034B     		ldr	r3, .L44
 741 0004 1868     		ldr	r0, [r3]	@ float
 742 0006 FFF7FEFF 		bl	__aeabi_f2iz
 743              	.LVL86:
 304:..\../accel_mag.c **** }
 744              		.loc 1 304 0
 745 000a 00B2     		sxth	r0, r0
 746 000c 08BD     		pop	{r3, pc}
 747              	.L45:
 748 000e 00BF     		.align	2
 749              	.L44:
 750 0010 00000000 		.word	accel
 751              		.cfi_endproc
 752              	.LFE71:
 753              		.size	accel_getX, .-accel_getX
 754              		.section	.text.accel_getY,"ax",%progbits
 755              		.align	2
 756              		.global	accel_getY
 757              		.thumb
 758              		.thumb_func
 759              		.type	accel_getY, %function
 760              	accel_getY:
 761              	.LFB72:
 305:..\../accel_mag.c **** 
 306:..\../accel_mag.c **** int16_t accel_getY(void){
 762              		.loc 1 306 0
 763              		.cfi_startproc
 764              		@ args = 0, pretend = 0, frame = 0
 765              		@ frame_needed = 0, uses_anonymous_args = 0
 766 0000 08B5     		push	{r3, lr}
 767              		.cfi_def_cfa_offset 8
 768              		.cfi_offset 3, -8
 769              		.cfi_offset 14, -4
 307:..\../accel_mag.c ****     return (accel.y);
 770              		.loc 1 307 0
 771 0002 034B     		ldr	r3, .L48
 772 0004 5868     		ldr	r0, [r3, #4]	@ float
 773 0006 FFF7FEFF 		bl	__aeabi_f2iz
 774              	.LVL87:
 308:..\../accel_mag.c **** }
 775              		.loc 1 308 0
ARM GAS  C:\Users\a85495\AppData\Local\Temp\ccpGjKwN.s 			page 20


 776 000a 00B2     		sxth	r0, r0
 777 000c 08BD     		pop	{r3, pc}
 778              	.L49:
 779 000e 00BF     		.align	2
 780              	.L48:
 781 0010 00000000 		.word	accel
 782              		.cfi_endproc
 783              	.LFE72:
 784              		.size	accel_getY, .-accel_getY
 785              		.section	.text.accel_getZ,"ax",%progbits
 786              		.align	2
 787              		.global	accel_getZ
 788              		.thumb
 789              		.thumb_func
 790              		.type	accel_getZ, %function
 791              	accel_getZ:
 792              	.LFB73:
 309:..\../accel_mag.c **** 
 310:..\../accel_mag.c **** int16_t accel_getZ(void){
 793              		.loc 1 310 0
 794              		.cfi_startproc
 795              		@ args = 0, pretend = 0, frame = 0
 796              		@ frame_needed = 0, uses_anonymous_args = 0
 797 0000 08B5     		push	{r3, lr}
 798              		.cfi_def_cfa_offset 8
 799              		.cfi_offset 3, -8
 800              		.cfi_offset 14, -4
 311:..\../accel_mag.c ****     return (accel.z);
 801              		.loc 1 311 0
 802 0002 034B     		ldr	r3, .L52
 803 0004 9868     		ldr	r0, [r3, #8]	@ float
 804 0006 FFF7FEFF 		bl	__aeabi_f2iz
 805              	.LVL88:
 312:..\../accel_mag.c **** }
 806              		.loc 1 312 0
 807 000a 00B2     		sxth	r0, r0
 808 000c 08BD     		pop	{r3, pc}
 809              	.L53:
 810 000e 00BF     		.align	2
 811              	.L52:
 812 0010 00000000 		.word	accel
 813              		.cfi_endproc
 814              	.LFE73:
 815              		.size	accel_getZ, .-accel_getZ
 816              		.section	.text.mag_getX,"ax",%progbits
 817              		.align	2
 818              		.global	mag_getX
 819              		.thumb
 820              		.thumb_func
 821              		.type	mag_getX, %function
 822              	mag_getX:
 823              	.LFB74:
 313:..\../accel_mag.c **** 
 314:..\../accel_mag.c **** int16_t mag_getX(void){
 824              		.loc 1 314 0
 825              		.cfi_startproc
 826              		@ args = 0, pretend = 0, frame = 0
ARM GAS  C:\Users\a85495\AppData\Local\Temp\ccpGjKwN.s 			page 21


 827              		@ frame_needed = 0, uses_anonymous_args = 0
 828 0000 08B5     		push	{r3, lr}
 829              		.cfi_def_cfa_offset 8
 830              		.cfi_offset 3, -8
 831              		.cfi_offset 14, -4
 315:..\../accel_mag.c ****     return (mag.x);
 832              		.loc 1 315 0
 833 0002 034B     		ldr	r3, .L56
 834 0004 1868     		ldr	r0, [r3]	@ float
 835 0006 FFF7FEFF 		bl	__aeabi_f2iz
 836              	.LVL89:
 316:..\../accel_mag.c **** }
 837              		.loc 1 316 0
 838 000a 00B2     		sxth	r0, r0
 839 000c 08BD     		pop	{r3, pc}
 840              	.L57:
 841 000e 00BF     		.align	2
 842              	.L56:
 843 0010 00000000 		.word	mag
 844              		.cfi_endproc
 845              	.LFE74:
 846              		.size	mag_getX, .-mag_getX
 847              		.section	.text.mag_getY,"ax",%progbits
 848              		.align	2
 849              		.global	mag_getY
 850              		.thumb
 851              		.thumb_func
 852              		.type	mag_getY, %function
 853              	mag_getY:
 854              	.LFB75:
 317:..\../accel_mag.c **** 
 318:..\../accel_mag.c **** int16_t mag_getY(void){
 855              		.loc 1 318 0
 856              		.cfi_startproc
 857              		@ args = 0, pretend = 0, frame = 0
 858              		@ frame_needed = 0, uses_anonymous_args = 0
 859 0000 08B5     		push	{r3, lr}
 860              		.cfi_def_cfa_offset 8
 861              		.cfi_offset 3, -8
 862              		.cfi_offset 14, -4
 319:..\../accel_mag.c ****     return (mag.x);
 863              		.loc 1 319 0
 864 0002 034B     		ldr	r3, .L60
 865 0004 1868     		ldr	r0, [r3]	@ float
 866 0006 FFF7FEFF 		bl	__aeabi_f2iz
 867              	.LVL90:
 320:..\../accel_mag.c **** }
 868              		.loc 1 320 0
 869 000a 00B2     		sxth	r0, r0
 870 000c 08BD     		pop	{r3, pc}
 871              	.L61:
 872 000e 00BF     		.align	2
 873              	.L60:
 874 0010 00000000 		.word	mag
 875              		.cfi_endproc
 876              	.LFE75:
 877              		.size	mag_getY, .-mag_getY
ARM GAS  C:\Users\a85495\AppData\Local\Temp\ccpGjKwN.s 			page 22


 878              		.section	.text.mag_getZ,"ax",%progbits
 879              		.align	2
 880              		.global	mag_getZ
 881              		.thumb
 882              		.thumb_func
 883              		.type	mag_getZ, %function
 884              	mag_getZ:
 885              	.LFB76:
 321:..\../accel_mag.c **** 
 322:..\../accel_mag.c **** int16_t mag_getZ(void){
 886              		.loc 1 322 0
 887              		.cfi_startproc
 888              		@ args = 0, pretend = 0, frame = 0
 889              		@ frame_needed = 0, uses_anonymous_args = 0
 890 0000 08B5     		push	{r3, lr}
 891              		.cfi_def_cfa_offset 8
 892              		.cfi_offset 3, -8
 893              		.cfi_offset 14, -4
 323:..\../accel_mag.c ****     return (mag.x);
 894              		.loc 1 323 0
 895 0002 034B     		ldr	r3, .L64
 896 0004 1868     		ldr	r0, [r3]	@ float
 897 0006 FFF7FEFF 		bl	__aeabi_f2iz
 898              	.LVL91:
 324:..\../accel_mag.c **** }...
 899              		.loc 1 324 0
 900 000a 00B2     		sxth	r0, r0
 901 000c 08BD     		pop	{r3, pc}
 902              	.L65:
 903 000e 00BF     		.align	2
 904              	.L64:
 905 0010 00000000 		.word	mag
 906              		.cfi_endproc
 907              	.LFE76:
 908              		.size	mag_getZ, .-mag_getZ
 909              		.comm	GPS,68,4
 910              		.comm	baro,40,8
 911              		.comm	initial_relative_altitude,8,8
 912              		.comm	initial_absolute_altitude,8,8
 913              		.comm	initial_real_pressure,4,4
 914              		.comm	initial_real_temprature,8,8
 915              		.comm	initial_raw_pressure,4,4
 916              		.comm	initial_raw_temperature,4,4
 917              		.comm	reference_pressure,4,4
 918              		.comm	gyro,12,4
 919              		.comm	gyro_raw,6,4
 920              		.comm	mag,12,4
 921              		.comm	accel,12,4
 922              		.comm	mag_raw,6,4
 923              		.comm	accel_raw,6,4
 924              		.section	.rodata.str1.4,"aMS",%progbits,1
 925              		.align	2
 926              	.LC0:
 927 0000 496E636F 		.ascii	"Incorrect ID, check wiring or code\000"
 927      72726563 
 927      74204944 
 927      2C206368 
ARM GAS  C:\Users\a85495\AppData\Local\Temp\ccpGjKwN.s 			page 23


 927      65636B20 
 928 0023 00       		.bss
 929              		.set	.LANCHOR0,. + 0
 930              		.type	_range, %object
 931              		.size	_range, 1
 932              	_range:
 933 0000 00       		.space	1
 934              		.text
 935              	.Letext0:
 936              		.file 2 "c:\\program files (x86)\\cypress\\psoc creator\\4.0\\psoc creator\\import\\gnu\\arm\\4.9.
 937              		.file 3 "c:\\program files (x86)\\cypress\\psoc creator\\4.0\\psoc creator\\import\\gnu\\arm\\4.9.
 938              		.file 4 "..\\..\\accel_mag.h"
 939              		.file 5 "Generated_Source\\PSoC5/cytypes.h"
 940              		.file 6 "..\\../gyroscope.h"
 941              		.file 7 "..\\../barometer.h"
 942              		.file 8 "..\\../gps.h"
 943              		.file 9 "Generated_Source\\PSoC5/core_cm3.h"
 944              		.file 10 "..\\..\\SensorVal.c"
 945              		.file 11 "Generated_Source\\PSoC5/I2C.h"
 946              		.file 12 "..\\..\\twi.h"
 947              		.file 13 "..\\../debSerial.h"