ARM GAS  C:\Users\a85495\AppData\Local\Temp\cc74zB5e.s 			page 1


   1              		.syntax unified
   2              		.cpu cortex-m3
   3              		.fpu softvfp
   4              		.eabi_attribute 20, 1
   5              		.eabi_attribute 21, 1
   6              		.eabi_attribute 23, 3
   7              		.eabi_attribute 24, 1
   8              		.eabi_attribute 25, 1
   9              		.eabi_attribute 26, 1
  10              		.eabi_attribute 30, 1
  11              		.eabi_attribute 34, 1
  12              		.eabi_attribute 18, 4
  13              		.thumb
  14              		.file	"barometer.c"
  15              		.text
  16              	.Ltext0:
  17              		.cfi_sections	.debug_frame
  18              		.section	.text.baro_sendCommand,"ax",%progbits
  19              		.align	2
  20              		.thumb
  21              		.thumb_func
  22              		.type	baro_sendCommand, %function
  23              	baro_sendCommand:
  24              	.LFB63:
  25              		.file 1 "..\\..\\barometer.c"
   1:..\../barometer.c **** /*
   2:..\../barometer.c **** *   This file includes the description of the function to read and calculate the
   3:..\../barometer.c **** *   Barometric Pressure, Temprature, and Altitude from the MS5611 Barometric Pressure & Temperature
   4:..\../barometer.c **** *   which is made by TE. 
   5:..\../barometer.c **** *   We are using the chip on a breakout board that we got from Amazon called GY-63
   6:..\../barometer.c **** */
   7:..\../barometer.c **** 
   8:..\../barometer.c **** #include "debSerial.h"
   9:..\../barometer.c **** #include "barometer.h"
  10:..\../barometer.c **** #include "twi.h"
  11:..\../barometer.c **** #include "project.h"
  12:..\../barometer.c **** #include "SensorVal.h"
  13:..\../barometer.c **** #include "stdlib.h"
  14:..\../barometer.c **** #include "math.h"
  15:..\../barometer.c **** #include <stdint.h>
  16:..\../barometer.c **** 
  17:..\../barometer.c **** 
  18:..\../barometer.c **** static uint16_t fc[6];
  19:..\../barometer.c **** static uint8_t ct;
  20:..\../barometer.c **** static uint8_t uosr;
  21:..\../barometer.c **** static int32_t TEMP2;
  22:..\../barometer.c **** static int64_t OFF2, SENS2;
  23:..\../barometer.c **** static uint8_t _COMPENSATION = false;
  24:..\../barometer.c **** 
  25:..\../barometer.c **** static void baro_sendCommand(uint8_t cmd); //used to send one through I2C
  26:..\../barometer.c **** static void baro_reset(void);              //used to send the reset command
  27:..\../barometer.c **** static void baro_readPROM(void);           //used to read the PROM
  28:..\../barometer.c **** 
  29:..\../barometer.c **** static uint16_t baro_readRegister16(uint8_t reg); //reads and return 2 bytes of data
  30:..\../barometer.c **** static uint32_t baro_readRegister24(uint8_t reg); //reads and return 3 bytes of data
  31:..\../barometer.c **** 
  32:..\../barometer.c **** static void baro_sendCommand(uint8_t cmd)
ARM GAS  C:\Users\a85495\AppData\Local\Temp\cc74zB5e.s 			page 2


  33:..\../barometer.c **** {
  26              		.loc 1 33 0
  27              		.cfi_startproc
  28              		@ args = 0, pretend = 0, frame = 8
  29              		@ frame_needed = 0, uses_anonymous_args = 0
  30              	.LVL0:
  31 0000 00B5     		push	{lr}
  32              		.cfi_def_cfa_offset 4
  33              		.cfi_offset 14, -4
  34 0002 83B0     		sub	sp, sp, #12
  35              		.cfi_def_cfa_offset 16
  34:..\../barometer.c ****     //to write, you want to write:  (1) The address you want to write to
  35:..\../barometer.c ****     //                              (2) The cmd you wish to write to the register
  36:..\../barometer.c **** 
  37:..\../barometer.c ****     uint8_t Write_Buf[1] = {0};
  38:..\../barometer.c ****     Write_Buf[0] = (uint8_t)cmd;
  36              		.loc 1 38 0
  37 0004 02A9     		add	r1, sp, #8
  38 0006 01F8040D 		strb	r0, [r1, #-4]!
  39:..\../barometer.c **** 
  40:..\../barometer.c ****     I2C_MasterWriteBuf(MS5611_ADDRESS, (uint8 *)Write_Buf, sizeof(Write_Buf), I2C_MODE_COMPLETE_XFE
  39              		.loc 1 40 0
  40 000a 7720     		movs	r0, #119
  41              	.LVL1:
  42 000c 0122     		movs	r2, #1
  43 000e 0023     		movs	r3, #0
  44 0010 FFF7FEFF 		bl	I2C_MasterWriteBuf
  45              	.LVL2:
  46              	.L2:
  41:..\../barometer.c ****     while ((I2C_MasterStatus() & I2C_MSTAT_WR_CMPLT) == 0)
  47              		.loc 1 41 0 discriminator 1
  48 0014 FFF7FEFF 		bl	I2C_MasterStatus
  49              	.LVL3:
  50 0018 10F0020F 		tst	r0, #2
  51 001c FAD0     		beq	.L2
  42:..\../barometer.c ****     {
  43:..\../barometer.c ****     }
  44:..\../barometer.c **** 
  45:..\../barometer.c ****     return; //return 1 if everything was successful
  46:..\../barometer.c **** }
  52              		.loc 1 46 0
  53 001e 03B0     		add	sp, sp, #12
  54              		.cfi_def_cfa_offset 4
  55              		@ sp needed
  56 0020 5DF804FB 		ldr	pc, [sp], #4
  57              		.cfi_endproc
  58              	.LFE63:
  59              		.size	baro_sendCommand, .-baro_sendCommand
  60              		.section	.text.baro_reset,"ax",%progbits
  61              		.align	2
  62              		.thumb
  63              		.thumb_func
  64              		.type	baro_reset, %function
  65              	baro_reset:
  66              	.LFB69:
  47:..\../barometer.c **** 
  48:..\../barometer.c **** #if SPECIFY_OSR_AT_RUNTIME
ARM GAS  C:\Users\a85495\AppData\Local\Temp\cc74zB5e.s 			page 3


  49:..\../barometer.c **** 
  50:..\../barometer.c **** void baro_initialize(ms5611_osr_t osr)
  51:..\../barometer.c **** {
  52:..\../barometer.c ****     serial_println("Initializing Barometeric Pressure and Temperature sensor:");
  53:..\../barometer.c ****     while (!baro_begin(osr))
  54:..\../barometer.c ****     {
  55:..\../barometer.c ****         serial_println("//=======Could not find a valid Barometric sensor, check wiring!=======//")
  56:..\../barometer.c ****     }
  57:..\../barometer.c ****     baro_setCompensation(true);
  58:..\../barometer.c **** 
  59:..\../barometer.c ****     //read the reference Pressure to enable us to calculate the relative Altitude
  60:..\../barometer.c ****     reference_pressure = baro_readPressure();
  61:..\../barometer.c **** 
  62:..\../barometer.c ****     //read the initial raw Temperature and Pressure just in case we later want some reference
  63:..\../barometer.c ****     initial_raw_temperature = baro_readRawTemperature();
  64:..\../barometer.c ****     initial_raw_pressure = baro_readRawPressure();
  65:..\../barometer.c **** 
  66:..\../barometer.c ****     //read the real compasated Temperature and Pressure just in case we want it later
  67:..\../barometer.c ****     initial_real_temprature = baro_readTemperature();
  68:..\../barometer.c ****     initial_real_pressure = baro_readPressure();
  69:..\../barometer.c **** 
  70:..\../barometer.c ****     //Calculate and store the initial absolute and relative altitude
  71:..\../barometer.c ****     //The initial relative altitude should be less than 10, MAX
  72:..\../barometer.c ****     initial_absolute_altitude = baro_getAbsoluteAltitude(reference_pressure);
  73:..\../barometer.c ****     
  74:..\../barometer.c ****     int32_t check_pressure = baro_readPressure();
  75:..\../barometer.c ****     initial_relative_altitude = baro_getRelativeAltitude(check_pressure, reference_pressure);
  76:..\../barometer.c ****     
  77:..\../barometer.c ****     if (initial_relative_altitude > 10)
  78:..\../barometer.c ****     {
  79:..\../barometer.c ****         serial_println("There must be an issue with the Altitude calculation or pressure");
  80:..\../barometer.c ****         serial_println("check code or restart quadcopter and don't touch.");
  81:..\../barometer.c ****     }
  82:..\../barometer.c **** 
  83:..\../barometer.c **** //if the macro DEBUG is true (value is not 0)
  84:..\../barometer.c **** #if BAROMETER_DEBUG
  85:..\../barometer.c ****     Serial_print(" rawTemp = ");
  86:..\../barometer.c ****     serial_printInt(initial_raw_temperature); //print an integer
  87:..\../barometer.c ****     Serial_print(", realTemp = ");
  88:..\../barometer.c ****     serial_printDouble(initial_raw_temperature); //print a double
  89:..\../barometer.c ****     Serial_println(" *C");
  90:..\../barometer.c **** 
  91:..\../barometer.c ****     Serial_print(" rawPressure = ");
  92:..\../barometer.c ****     serial_printInt(rawPressure); //print an integer
  93:..\../barometer.c ****     Serial_print(", realPressure = ");
  94:..\../barometer.c ****     serial_printInt(realPressure); //print an integer
  95:..\../barometer.c ****     Serial_println(" Pa");
  96:..\../barometer.c **** 
  97:..\../barometer.c ****     Serial_print(" absoluteAltitude = ");
  98:..\../barometer.c ****     serial_printDouble(absoluteAltitude); //print a double
  99:..\../barometer.c ****     Serial_print(" m, relativeAltitude = ");
 100:..\../barometer.c ****     serial_printDouble(relativeAltitude); //print a double
 101:..\../barometer.c ****     Serial_println(" m");
 102:..\../barometer.c **** #endif
 103:..\../barometer.c **** }
 104:..\../barometer.c ****     
 105:..\../barometer.c **** uint8_t baro_begin(ms5611_osr_t osr)
ARM GAS  C:\Users\a85495\AppData\Local\Temp\cc74zB5e.s 			page 4


 106:..\../barometer.c **** {
 107:..\../barometer.c ****     Wire_begin();
 108:..\../barometer.c ****     baro_reset();
 109:..\../barometer.c ****     baro_setOversampling(osr);
 110:..\../barometer.c ****     CyDelay(100);
 111:..\../barometer.c ****     baro_readPROM();
 112:..\../barometer.c ****     return true;
 113:..\../barometer.c **** }
 114:..\../barometer.c **** 
 115:..\../barometer.c **** #else
 116:..\../barometer.c ****     
 117:..\../barometer.c **** void baro_initialize(void)
 118:..\../barometer.c **** {
 119:..\../barometer.c ****     serial_println("Initializing Barometeric Pressure and Temperature sensor:");
 120:..\../barometer.c ****     while (!baro_begin())
 121:..\../barometer.c ****     {
 122:..\../barometer.c ****         serial_println("//=======Could not find a valid Barometric sensor, check wiring!=======//")
 123:..\../barometer.c ****     }
 124:..\../barometer.c **** 
 125:..\../barometer.c ****     //read the reference Pressure to enable us to calculate the relative Altitude
 126:..\../barometer.c ****     reference_pressure = baro_readPressure();
 127:..\../barometer.c **** 
 128:..\../barometer.c ****     //read the initial raw Temperature and Pressure just in case we later want some reference
 129:..\../barometer.c ****     initial_raw_temperature = baro_readRawTemperature();
 130:..\../barometer.c ****     initial_raw_pressure = baro_readRawPressure();
 131:..\../barometer.c **** 
 132:..\../barometer.c ****     //read the real compasated Temperature and Pressure just in case we want it later
 133:..\../barometer.c ****     initial_real_temprature = baro_readTemperature();
 134:..\../barometer.c ****     initial_real_pressure = baro_readPressure();
 135:..\../barometer.c **** 
 136:..\../barometer.c ****     //Calculate and store the initial absolute and relative altitude
 137:..\../barometer.c ****     //The initial relative altitude should be less than 10, MAX
 138:..\../barometer.c ****     initial_absolute_altitude = baro_getAbsoluteAltitude(reference_pressure);
 139:..\../barometer.c ****     
 140:..\../barometer.c ****     int32_t check_pressure = baro_readPressure();
 141:..\../barometer.c ****     initial_relative_altitude = baro_getRelativeAltitude(check_pressure, reference_pressure);
 142:..\../barometer.c ****     
 143:..\../barometer.c ****     if (initial_relative_altitude > 10)
 144:..\../barometer.c ****     {
 145:..\../barometer.c ****         serial_println("There must be an issue with the Altitude calculation or pressure");
 146:..\../barometer.c ****         serial_println("check code or restart quadcopter and don't touch.");
 147:..\../barometer.c ****     }
 148:..\../barometer.c **** 
 149:..\../barometer.c **** //if the macro DEBUG is true (value is not 0)
 150:..\../barometer.c **** #if BAROMETER_DEBUG
 151:..\../barometer.c ****     serial_print(" rawTemp = ");
 152:..\../barometer.c ****     serial_printInt(initial_raw_temperature); //print an integer
 153:..\../barometer.c ****     serial_print(", realTemp = ");
 154:..\../barometer.c ****     serial_printDouble(initial_raw_temperature); //print a double
 155:..\../barometer.c ****     serial_println(" *C");
 156:..\../barometer.c **** 
 157:..\../barometer.c ****     serial_print(" rawPressure = ");
 158:..\../barometer.c ****     serial_printInt(initial_raw_pressure); //print an integer
 159:..\../barometer.c ****     serial_print(", realPressure = ");
 160:..\../barometer.c ****     serial_printInt(initial_real_pressure); //print an integer
 161:..\../barometer.c ****     serial_println(" Pa");
 162:..\../barometer.c **** 
ARM GAS  C:\Users\a85495\AppData\Local\Temp\cc74zB5e.s 			page 5


 163:..\../barometer.c ****     serial_print(" absoluteAltitude = ");
 164:..\../barometer.c ****     serial_printDouble(initial_absolute_altitude); //print a double
 165:..\../barometer.c ****     serial_print(" m, relativeAltitude = ");
 166:..\../barometer.c ****     serial_printDouble(initial_relative_altitude); //print a double
 167:..\../barometer.c ****     serial_println(" m");
 168:..\../barometer.c **** #endif
 169:..\../barometer.c **** }
 170:..\../barometer.c **** 
 171:..\../barometer.c **** uint8_t baro_begin()
 172:..\../barometer.c **** {
 173:..\../barometer.c ****     //This is like a default setting
 174:..\../barometer.c ****     ms5611_osr_t osr = MS5611_LOW_POWER;
 175:..\../barometer.c ****     Wire_begin();
 176:..\../barometer.c ****     baro_reset();
 177:..\../barometer.c ****     baro_setOversampling(osr);
 178:..\../barometer.c ****     CyDelay(100);
 179:..\../barometer.c ****     baro_readPROM();
 180:..\../barometer.c ****     return true;
 181:..\../barometer.c **** }
 182:..\../barometer.c **** 
 183:..\../barometer.c **** #endif
 184:..\../barometer.c **** 
 185:..\../barometer.c **** // Set oversampling value
 186:..\../barometer.c **** void baro_setOversampling(ms5611_osr_t osr)
 187:..\../barometer.c **** {
 188:..\../barometer.c ****     switch (osr)
 189:..\../barometer.c ****     {
 190:..\../barometer.c ****     case MS5611_ULTRA_LOW_POWER:
 191:..\../barometer.c ****         ct = 1;
 192:..\../barometer.c ****         break;
 193:..\../barometer.c ****     case MS5611_LOW_POWER:
 194:..\../barometer.c ****         ct = 2;
 195:..\../barometer.c ****         break;
 196:..\../barometer.c ****     case MS5611_STANDARD:
 197:..\../barometer.c ****         ct = 3;
 198:..\../barometer.c ****         break;
 199:..\../barometer.c ****     case MS5611_HIGH_RES:
 200:..\../barometer.c ****         ct = 5;
 201:..\../barometer.c ****         break;
 202:..\../barometer.c ****     case MS5611_ULTRA_HIGH_RES:
 203:..\../barometer.c ****         ct = 10;
 204:..\../barometer.c ****         break;
 205:..\../barometer.c ****     }
 206:..\../barometer.c **** 
 207:..\../barometer.c ****     uosr = osr;
 208:..\../barometer.c **** }
 209:..\../barometer.c **** 
 210:..\../barometer.c **** // Get oversampling value
 211:..\../barometer.c **** ms5611_osr_t baro_getOversampling(void)
 212:..\../barometer.c **** {
 213:..\../barometer.c ****     return (ms5611_osr_t)uosr;
 214:..\../barometer.c **** }
 215:..\../barometer.c **** 
 216:..\../barometer.c **** void baro_setCompensation(uint8_t val){
 217:..\../barometer.c ****     _COMPENSATION = val;
 218:..\../barometer.c **** }
 219:..\../barometer.c **** 
ARM GAS  C:\Users\a85495\AppData\Local\Temp\cc74zB5e.s 			page 6


 220:..\../barometer.c **** 
 221:..\../barometer.c **** static void baro_reset(void)
 222:..\../barometer.c **** {
  67              		.loc 1 222 0
  68              		.cfi_startproc
  69              		@ args = 0, pretend = 0, frame = 0
  70              		@ frame_needed = 0, uses_anonymous_args = 0
  71 0000 08B5     		push	{r3, lr}
  72              		.cfi_def_cfa_offset 8
  73              		.cfi_offset 3, -8
  74              		.cfi_offset 14, -4
 223:..\../barometer.c ****     baro_sendCommand(MS5611_CMD_RESET);
  75              		.loc 1 223 0
  76 0002 1E20     		movs	r0, #30
  77 0004 FFF7FEFF 		bl	baro_sendCommand
  78              	.LVL4:
  79 0008 08BD     		pop	{r3, pc}
  80              		.cfi_endproc
  81              	.LFE69:
  82              		.size	baro_reset, .-baro_reset
  83 000a 00BF     		.section	.text.baro_readRegister16,"ax",%progbits
  84              		.align	2
  85              		.thumb
  86              		.thumb_func
  87              		.type	baro_readRegister16, %function
  88              	baro_readRegister16:
  89              	.LFB78:
 224:..\../barometer.c **** }
 225:..\../barometer.c **** 
 226:..\../barometer.c **** static void baro_readPROM(void)
 227:..\../barometer.c **** {
 228:..\../barometer.c ****     uint8_t offset = 0;
 229:..\../barometer.c ****     for (offset = 0; offset < 6; offset++)
 230:..\../barometer.c ****     {
 231:..\../barometer.c ****         fc[offset] = baro_readRegister16(MS5611_CMD_READ_PROM + (offset * 2));
 232:..\../barometer.c ****     }
 233:..\../barometer.c **** }
 234:..\../barometer.c **** 
 235:..\../barometer.c **** uint32_t baro_readRawTemperature(void)
 236:..\../barometer.c **** {
 237:..\../barometer.c ****     baro_sendCommand(MS5611_CMD_CONV_D2 + uosr);
 238:..\../barometer.c ****     CyDelay(ct);
 239:..\../barometer.c ****     return baro_readRegister24(MS5611_CMD_ADC_READ);
 240:..\../barometer.c **** }
 241:..\../barometer.c **** 
 242:..\../barometer.c **** uint32_t baro_readRawPressure(void)
 243:..\../barometer.c **** {
 244:..\../barometer.c ****     baro_sendCommand(MS5611_CMD_CONV_D2 + uosr);
 245:..\../barometer.c ****     CyDelay(ct);
 246:..\../barometer.c ****     return baro_readRegister24(MS5611_CMD_ADC_READ);
 247:..\../barometer.c **** }
 248:..\../barometer.c **** 
 249:..\../barometer.c **** int32_t baro_readPressure(void)
 250:..\../barometer.c **** {
 251:..\../barometer.c ****     uint32_t D1 = baro_readRawPressure();
 252:..\../barometer.c **** 
 253:..\../barometer.c ****     uint32_t D2 = baro_readRawTemperature();
ARM GAS  C:\Users\a85495\AppData\Local\Temp\cc74zB5e.s 			page 7


 254:..\../barometer.c ****     int32_t dT = D2 - (uint32_t)fc[4] * 256;
 255:..\../barometer.c **** 
 256:..\../barometer.c ****     int64_t OFF = (int64_t)fc[1] * 65536 + (int64_t)fc[3] * dT / 128;
 257:..\../barometer.c ****     int64_t SENS = (int64_t)fc[0] * 32768 + (int64_t)fc[2] * dT / 256;
 258:..\../barometer.c **** 
 259:..\../barometer.c ****     if (_COMPENSATION)
 260:..\../barometer.c ****     {
 261:..\../barometer.c ****         int32_t TEMP = 2000 + ((int64_t)dT * fc[5]) / 8388608;
 262:..\../barometer.c **** 
 263:..\../barometer.c ****         OFF2 = 0;
 264:..\../barometer.c ****         SENS2 = 0;
 265:..\../barometer.c **** 
 266:..\../barometer.c ****         if (TEMP < 2000)
 267:..\../barometer.c ****         {
 268:..\../barometer.c ****             OFF2 = 5 * ((TEMP - 2000) * (TEMP - 2000)) / 2;
 269:..\../barometer.c ****             SENS2 = 5 * ((TEMP - 2000) * (TEMP - 2000)) / 4;
 270:..\../barometer.c ****         }
 271:..\../barometer.c **** 
 272:..\../barometer.c ****         if (TEMP < -1500)
 273:..\../barometer.c ****         {
 274:..\../barometer.c ****             OFF2 = OFF2 + 7 * ((TEMP + 1500) * (TEMP + 1500));
 275:..\../barometer.c ****             SENS2 = SENS2 + 11 * ((TEMP + 1500) * (TEMP + 1500)) / 2;
 276:..\../barometer.c ****         }
 277:..\../barometer.c **** 
 278:..\../barometer.c ****         OFF = OFF - OFF2;
 279:..\../barometer.c ****         SENS = SENS - SENS2;
 280:..\../barometer.c ****     }
 281:..\../barometer.c **** 
 282:..\../barometer.c ****     uint32_t P = (D1 * SENS / 2097152 - OFF) / 32768;
 283:..\../barometer.c **** 
 284:..\../barometer.c ****     return P;
 285:..\../barometer.c **** }
 286:..\../barometer.c **** 
 287:..\../barometer.c **** double baro_readTemperature(void)
 288:..\../barometer.c **** {
 289:..\../barometer.c ****     uint32_t D2 = baro_readRawTemperature();
 290:..\../barometer.c ****     int32_t dT = D2 - (uint32_t)fc[4] * 256;
 291:..\../barometer.c **** 
 292:..\../barometer.c ****     int32_t TEMP = 2000 + ((int64_t)dT * fc[5]) / 8388608;
 293:..\../barometer.c **** 
 294:..\../barometer.c ****     TEMP2 = 0;
 295:..\../barometer.c **** 
 296:..\../barometer.c ****     if (_COMPENSATION)
 297:..\../barometer.c ****     {
 298:..\../barometer.c ****         if (TEMP < 2000)
 299:..\../barometer.c ****         {
 300:..\../barometer.c ****             TEMP2 = (dT * dT) / (2 << 30);
 301:..\../barometer.c ****         }
 302:..\../barometer.c ****     }
 303:..\../barometer.c **** 
 304:..\../barometer.c ****     TEMP = TEMP - TEMP2;
 305:..\../barometer.c **** 
 306:..\../barometer.c ****     return ((double)TEMP / 100);
 307:..\../barometer.c **** }
 308:..\../barometer.c **** 
 309:..\../barometer.c **** // Calculate altitude from Pressure & Sea level pressure
 310:..\../barometer.c **** double baro_getAbsoluteAltitude(int32_t pressure)
ARM GAS  C:\Users\a85495\AppData\Local\Temp\cc74zB5e.s 			page 8


 311:..\../barometer.c **** {
 312:..\../barometer.c ****     double seaLevelPressure = 101325;
 313:..\../barometer.c ****     double ret = (44330.0f * (1.0f - pow(((double)pressure / (double)seaLevelPressure), 0.19029490f
 314:..\../barometer.c ****     return ret;
 315:..\../barometer.c **** }
 316:..\../barometer.c **** 
 317:..\../barometer.c **** // Calculate altitude from Pressure & initial pressure
 318:..\../barometer.c **** double baro_getRelativeAltitude(int32_t pressure, int32_t initialPressure)
 319:..\../barometer.c **** {
 320:..\../barometer.c ****     double ret = (44330.0f * (1.0f - pow(((double)pressure / (double)initialPressure), 0.1902949f))
 321:..\../barometer.c ****     return ret;
 322:..\../barometer.c **** }
 323:..\../barometer.c **** 
 324:..\../barometer.c **** // Calculate sea level from Pressure given on specific altitude
 325:..\../barometer.c **** double baro_getSeaLevel(int32_t pressure, int32_t altitude)
 326:..\../barometer.c **** {
 327:..\../barometer.c ****     double ret = ((double)pressure / pow((1.0) - ((double)altitude / (44330.0)), (5.255)));
 328:..\../barometer.c ****     return ret;
 329:..\../barometer.c **** }
 330:..\../barometer.c **** 
 331:..\../barometer.c **** // Read 16-bit from register (oops MSB, LSB)
 332:..\../barometer.c **** uint16_t baro_readRegister16(uint8_t reg)
 333:..\../barometer.c **** {
  90              		.loc 1 333 0
  91              		.cfi_startproc
  92              		@ args = 0, pretend = 0, frame = 8
  93              		@ frame_needed = 0, uses_anonymous_args = 0
  94              	.LVL5:
  95 0000 30B5     		push	{r4, r5, lr}
  96              		.cfi_def_cfa_offset 12
  97              		.cfi_offset 4, -12
  98              		.cfi_offset 5, -8
  99              		.cfi_offset 14, -4
 100 0002 83B0     		sub	sp, sp, #12
 101              		.cfi_def_cfa_offset 24
 334:..\../barometer.c ****     uint16_t value;
 335:..\../barometer.c ****     uint8_t Read_Buf[2] = {0}; //create an array that will store the data read
 102              		.loc 1 335 0
 103 0004 0025     		movs	r5, #0
 104 0006 02AC     		add	r4, sp, #8
 105 0008 24F8045D 		strh	r5, [r4, #-4]!	@ movhi
 336:..\../barometer.c **** 
 337:..\../barometer.c ****     // First command sets up the system into the correct read mode (ex:PROM).
 338:..\../barometer.c ****     baro_sendCommand(reg);
 106              		.loc 1 338 0
 107 000c FFF7FEFF 		bl	baro_sendCommand
 108              	.LVL6:
 339:..\../barometer.c ****     //The second part gets the data from the system.
 340:..\../barometer.c ****     I2C_MasterReadBuf(MS5611_ADDRESS, (uint8 *)Read_Buf, sizeof(Read_Buf), I2C_MODE_COMPLETE_XFER);
 109              		.loc 1 340 0
 110 0010 7720     		movs	r0, #119
 111 0012 2146     		mov	r1, r4
 112 0014 0222     		movs	r2, #2
 113 0016 2B46     		mov	r3, r5
 114 0018 FFF7FEFF 		bl	I2C_MasterReadBuf
 115              	.LVL7:
 116              	.L7:
ARM GAS  C:\Users\a85495\AppData\Local\Temp\cc74zB5e.s 			page 9


 341:..\../barometer.c ****     while ((I2C_MasterStatus() & I2C_MSTAT_RD_CMPLT) == 0)
 117              		.loc 1 341 0 discriminator 1
 118 001c FFF7FEFF 		bl	I2C_MasterStatus
 119              	.LVL8:
 120 0020 10F0010F 		tst	r0, #1
 121 0024 FAD0     		beq	.L7
 342:..\../barometer.c ****     {
 343:..\../barometer.c ****     } //wait till Master status indicates read is complete
 344:..\../barometer.c **** 
 345:..\../barometer.c ****     uint8_t vha = Read_Buf[0];
 122              		.loc 1 345 0
 123 0026 9DF80400 		ldrb	r0, [sp, #4]	@ zero_extendqisi2
 124              	.LVL9:
 346:..\../barometer.c ****     uint8_t vla = Read_Buf[1];
 125              		.loc 1 346 0
 126 002a 9DF80530 		ldrb	r3, [sp, #5]	@ zero_extendqisi2
 127              	.LVL10:
 347:..\../barometer.c **** 
 348:..\../barometer.c ****     value = vha << 8 | vla;
 349:..\../barometer.c **** 
 350:..\../barometer.c ****     return value;
 351:..\../barometer.c **** }
 128              		.loc 1 351 0
 129 002e 43EA0020 		orr	r0, r3, r0, lsl #8
 130              	.LVL11:
 131 0032 03B0     		add	sp, sp, #12
 132              		.cfi_def_cfa_offset 12
 133              		@ sp needed
 134 0034 30BD     		pop	{r4, r5, pc}
 135              		.cfi_endproc
 136              	.LFE78:
 137              		.size	baro_readRegister16, .-baro_readRegister16
 138 0036 00BF     		.section	.text.baro_readPROM,"ax",%progbits
 139              		.align	2
 140              		.thumb
 141              		.thumb_func
 142              		.type	baro_readPROM, %function
 143              	baro_readPROM:
 144              	.LFB70:
 227:..\../barometer.c ****     uint8_t offset = 0;
 145              		.loc 1 227 0
 146              		.cfi_startproc
 147              		@ args = 0, pretend = 0, frame = 0
 148              		@ frame_needed = 0, uses_anonymous_args = 0
 149 0000 10B5     		push	{r4, lr}
 150              		.cfi_def_cfa_offset 8
 151              		.cfi_offset 4, -8
 152              		.cfi_offset 14, -4
 153              	.LVL12:
 229:..\../barometer.c ****     {
 154              		.loc 1 229 0
 155 0002 0024     		movs	r4, #0
 156 0004 0BE0     		b	.L10
 157              	.LVL13:
 158              	.L11:
 231:..\../barometer.c ****     }
 159              		.loc 1 231 0 discriminator 3
ARM GAS  C:\Users\a85495\AppData\Local\Temp\cc74zB5e.s 			page 10


 160 0006 04F15100 		add	r0, r4, #81
 161 000a 4000     		lsls	r0, r0, #1
 162 000c 00F0FE00 		and	r0, r0, #254
 163 0010 FFF7FEFF 		bl	baro_readRegister16
 164              	.LVL14:
 165 0014 034B     		ldr	r3, .L13
 166 0016 23F81400 		strh	r0, [r3, r4, lsl #1]	@ movhi
 229:..\../barometer.c ****     {
 167              		.loc 1 229 0 discriminator 3
 168 001a 0134     		adds	r4, r4, #1
 169              	.LVL15:
 170 001c E4B2     		uxtb	r4, r4
 171              	.LVL16:
 172              	.L10:
 229:..\../barometer.c ****     {
 173              		.loc 1 229 0 is_stmt 0 discriminator 1
 174 001e 052C     		cmp	r4, #5
 175 0020 F1D9     		bls	.L11
 233:..\../barometer.c **** 
 176              		.loc 1 233 0 is_stmt 1
 177 0022 10BD     		pop	{r4, pc}
 178              	.LVL17:
 179              	.L14:
 180              		.align	2
 181              	.L13:
 182 0024 00000000 		.word	.LANCHOR0
 183              		.cfi_endproc
 184              	.LFE70:
 185              		.size	baro_readPROM, .-baro_readPROM
 186              		.section	.text.baro_readRegister24,"ax",%progbits
 187              		.align	2
 188              		.thumb
 189              		.thumb_func
 190              		.type	baro_readRegister24, %function
 191              	baro_readRegister24:
 192              	.LFB79:
 352:..\../barometer.c **** 
 353:..\../barometer.c **** // Read 24-bit from register (oops XSB, MSB, LSB)
 354:..\../barometer.c **** uint32_t baro_readRegister24(uint8_t reg)
 355:..\../barometer.c **** {
 193              		.loc 1 355 0
 194              		.cfi_startproc
 195              		@ args = 0, pretend = 0, frame = 8
 196              		@ frame_needed = 0, uses_anonymous_args = 0
 197              	.LVL18:
 198 0000 10B5     		push	{r4, lr}
 199              		.cfi_def_cfa_offset 8
 200              		.cfi_offset 4, -8
 201              		.cfi_offset 14, -4
 202 0002 82B0     		sub	sp, sp, #8
 203              		.cfi_def_cfa_offset 16
 356:..\../barometer.c ****     uint32_t value;
 357:..\../barometer.c ****     uint8_t Read_Buf[3] = {0}; //create an array that will store the data read
 204              		.loc 1 357 0
 205 0004 0024     		movs	r4, #0
 206 0006 ADF80440 		strh	r4, [sp, #4]	@ movhi
 207 000a 8DF80640 		strb	r4, [sp, #6]
ARM GAS  C:\Users\a85495\AppData\Local\Temp\cc74zB5e.s 			page 11


 358:..\../barometer.c **** 
 359:..\../barometer.c ****     // First command sets up the system into the correct read mode (ex:ADC Conversion read).
 360:..\../barometer.c ****     baro_sendCommand(reg);
 208              		.loc 1 360 0
 209 000e FFF7FEFF 		bl	baro_sendCommand
 210              	.LVL19:
 361:..\../barometer.c ****     //The second part gets the data from the system.
 362:..\../barometer.c ****     I2C_MasterReadBuf(MS5611_ADDRESS, (uint8 *)Read_Buf, sizeof(Read_Buf), I2C_MODE_COMPLETE_XFER);
 211              		.loc 1 362 0
 212 0012 7720     		movs	r0, #119
 213 0014 01A9     		add	r1, sp, #4
 214 0016 0322     		movs	r2, #3
 215 0018 2346     		mov	r3, r4
 216 001a FFF7FEFF 		bl	I2C_MasterReadBuf
 217              	.LVL20:
 218              	.L16:
 363:..\../barometer.c ****     while ((I2C_MasterStatus() & I2C_MSTAT_RD_CMPLT) == 0)
 219              		.loc 1 363 0 discriminator 1
 220 001e FFF7FEFF 		bl	I2C_MasterStatus
 221              	.LVL21:
 222 0022 10F0010F 		tst	r0, #1
 223 0026 FAD0     		beq	.L16
 364:..\../barometer.c ****     {
 365:..\../barometer.c ****     } //wait till Master status indicates read is complete
 366:..\../barometer.c **** 
 367:..\../barometer.c ****     uint8_t vxa = Read_Buf[0];
 224              		.loc 1 367 0
 225 0028 9DF80420 		ldrb	r2, [sp, #4]	@ zero_extendqisi2
 226              	.LVL22:
 368:..\../barometer.c ****     uint8_t vha = Read_Buf[1];
 227              		.loc 1 368 0
 228 002c 9DF80530 		ldrb	r3, [sp, #5]	@ zero_extendqisi2
 229              	.LVL23:
 369:..\../barometer.c ****     uint8_t vla = Read_Buf[2];
 230              		.loc 1 369 0
 231 0030 9DF80600 		ldrb	r0, [sp, #6]	@ zero_extendqisi2
 232              	.LVL24:
 370:..\../barometer.c **** 
 371:..\../barometer.c ****     value = ((int32_t)vxa << 16) | ((int32_t)vha << 8) | vla;
 233              		.loc 1 371 0
 234 0034 1B02     		lsls	r3, r3, #8
 235              	.LVL25:
 236 0036 43EA0243 		orr	r3, r3, r2, lsl #16
 237              	.LVL26:
 372:..\../barometer.c ****     //serial_printIntln(value);
 373:..\../barometer.c ****     return value;
 374:..\../barometer.c **** }
 238              		.loc 1 374 0
 239 003a 1843     		orrs	r0, r0, r3
 240              	.LVL27:
 241 003c 02B0     		add	sp, sp, #8
 242              		.cfi_def_cfa_offset 8
 243              		@ sp needed
 244 003e 10BD     		pop	{r4, pc}
 245              		.cfi_endproc
 246              	.LFE79:
 247              		.size	baro_readRegister24, .-baro_readRegister24
ARM GAS  C:\Users\a85495\AppData\Local\Temp\cc74zB5e.s 			page 12


 248              		.section	.text.baro_setOversampling,"ax",%progbits
 249              		.align	2
 250              		.global	baro_setOversampling
 251              		.thumb
 252              		.thumb_func
 253              		.type	baro_setOversampling, %function
 254              	baro_setOversampling:
 255              	.LFB66:
 187:..\../barometer.c ****     switch (osr)
 256              		.loc 1 187 0
 257              		.cfi_startproc
 258              		@ args = 0, pretend = 0, frame = 0
 259              		@ frame_needed = 0, uses_anonymous_args = 0
 260              		@ link register save eliminated.
 261              	.LVL28:
 188:..\../barometer.c ****     {
 262              		.loc 1 188 0
 263 0000 0828     		cmp	r0, #8
 264 0002 19D8     		bhi	.L19
 265 0004 DFE800F0 		tbb	[pc, r0]
 266              	.L21:
 267 0008 05       		.byte	(.L20-.L21)/2
 268 0009 18       		.byte	(.L19-.L21)/2
 269 000a 09       		.byte	(.L22-.L21)/2
 270 000b 18       		.byte	(.L19-.L21)/2
 271 000c 0D       		.byte	(.L23-.L21)/2
 272 000d 18       		.byte	(.L19-.L21)/2
 273 000e 11       		.byte	(.L24-.L21)/2
 274 000f 18       		.byte	(.L19-.L21)/2
 275 0010 15       		.byte	(.L25-.L21)/2
 276 0011 00       		.p2align 1
 277              	.L20:
 191:..\../barometer.c ****         break;
 278              		.loc 1 191 0
 279 0012 0122     		movs	r2, #1
 280 0014 0A4B     		ldr	r3, .L26
 281 0016 1A73     		strb	r2, [r3, #12]
 192:..\../barometer.c ****     case MS5611_LOW_POWER:
 282              		.loc 1 192 0
 283 0018 0EE0     		b	.L19
 284              	.L22:
 194:..\../barometer.c ****         break;
 285              		.loc 1 194 0
 286 001a 0222     		movs	r2, #2
 287 001c 084B     		ldr	r3, .L26
 288 001e 1A73     		strb	r2, [r3, #12]
 195:..\../barometer.c ****     case MS5611_STANDARD:
 289              		.loc 1 195 0
 290 0020 0AE0     		b	.L19
 291              	.L23:
 197:..\../barometer.c ****         break;
 292              		.loc 1 197 0
 293 0022 0322     		movs	r2, #3
 294 0024 064B     		ldr	r3, .L26
 295 0026 1A73     		strb	r2, [r3, #12]
 198:..\../barometer.c ****     case MS5611_HIGH_RES:
 296              		.loc 1 198 0
ARM GAS  C:\Users\a85495\AppData\Local\Temp\cc74zB5e.s 			page 13


 297 0028 06E0     		b	.L19
 298              	.L24:
 200:..\../barometer.c ****         break;
 299              		.loc 1 200 0
 300 002a 0522     		movs	r2, #5
 301 002c 044B     		ldr	r3, .L26
 302 002e 1A73     		strb	r2, [r3, #12]
 201:..\../barometer.c ****     case MS5611_ULTRA_HIGH_RES:
 303              		.loc 1 201 0
 304 0030 02E0     		b	.L19
 305              	.L25:
 203:..\../barometer.c ****         break;
 306              		.loc 1 203 0
 307 0032 0A22     		movs	r2, #10
 308 0034 024B     		ldr	r3, .L26
 309 0036 1A73     		strb	r2, [r3, #12]
 310              	.L19:
 207:..\../barometer.c **** }
 311              		.loc 1 207 0
 312 0038 014B     		ldr	r3, .L26
 313 003a 5873     		strb	r0, [r3, #13]
 314 003c 7047     		bx	lr
 315              	.L27:
 316 003e 00BF     		.align	2
 317              	.L26:
 318 0040 00000000 		.word	.LANCHOR0
 319              		.cfi_endproc
 320              	.LFE66:
 321              		.size	baro_setOversampling, .-baro_setOversampling
 322              		.section	.text.baro_begin,"ax",%progbits
 323              		.align	2
 324              		.global	baro_begin
 325              		.thumb
 326              		.thumb_func
 327              		.type	baro_begin, %function
 328              	baro_begin:
 329              	.LFB65:
 172:..\../barometer.c ****     //This is like a default setting
 330              		.loc 1 172 0
 331              		.cfi_startproc
 332              		@ args = 0, pretend = 0, frame = 0
 333              		@ frame_needed = 0, uses_anonymous_args = 0
 334 0000 08B5     		push	{r3, lr}
 335              		.cfi_def_cfa_offset 8
 336              		.cfi_offset 3, -8
 337              		.cfi_offset 14, -4
 338              	.LVL29:
 175:..\../barometer.c ****     baro_reset();
 339              		.loc 1 175 0
 340 0002 FFF7FEFF 		bl	Wire_begin
 341              	.LVL30:
 176:..\../barometer.c ****     baro_setOversampling(osr);
 342              		.loc 1 176 0
 343 0006 FFF7FEFF 		bl	baro_reset
 344              	.LVL31:
 177:..\../barometer.c ****     CyDelay(100);
 345              		.loc 1 177 0
ARM GAS  C:\Users\a85495\AppData\Local\Temp\cc74zB5e.s 			page 14


 346 000a 0220     		movs	r0, #2
 347 000c FFF7FEFF 		bl	baro_setOversampling
 348              	.LVL32:
 178:..\../barometer.c ****     baro_readPROM();
 349              		.loc 1 178 0
 350 0010 6420     		movs	r0, #100
 351 0012 FFF7FEFF 		bl	CyDelay
 352              	.LVL33:
 179:..\../barometer.c ****     return true;
 353              		.loc 1 179 0
 354 0016 FFF7FEFF 		bl	baro_readPROM
 355              	.LVL34:
 181:..\../barometer.c **** 
 356              		.loc 1 181 0
 357 001a 0120     		movs	r0, #1
 358 001c 08BD     		pop	{r3, pc}
 359              		.cfi_endproc
 360              	.LFE65:
 361              		.size	baro_begin, .-baro_begin
 362 001e 00BF     		.section	.text.baro_getOversampling,"ax",%progbits
 363              		.align	2
 364              		.global	baro_getOversampling
 365              		.thumb
 366              		.thumb_func
 367              		.type	baro_getOversampling, %function
 368              	baro_getOversampling:
 369              	.LFB67:
 212:..\../barometer.c ****     return (ms5611_osr_t)uosr;
 370              		.loc 1 212 0
 371              		.cfi_startproc
 372              		@ args = 0, pretend = 0, frame = 0
 373              		@ frame_needed = 0, uses_anonymous_args = 0
 374              		@ link register save eliminated.
 214:..\../barometer.c **** 
 375              		.loc 1 214 0
 376 0000 014B     		ldr	r3, .L31
 377 0002 587B     		ldrb	r0, [r3, #13]	@ zero_extendqisi2
 378 0004 7047     		bx	lr
 379              	.L32:
 380 0006 00BF     		.align	2
 381              	.L31:
 382 0008 00000000 		.word	.LANCHOR0
 383              		.cfi_endproc
 384              	.LFE67:
 385              		.size	baro_getOversampling, .-baro_getOversampling
 386              		.section	.text.baro_setCompensation,"ax",%progbits
 387              		.align	2
 388              		.global	baro_setCompensation
 389              		.thumb
 390              		.thumb_func
 391              		.type	baro_setCompensation, %function
 392              	baro_setCompensation:
 393              	.LFB68:
 216:..\../barometer.c ****     _COMPENSATION = val;
 394              		.loc 1 216 0
 395              		.cfi_startproc
 396              		@ args = 0, pretend = 0, frame = 0
ARM GAS  C:\Users\a85495\AppData\Local\Temp\cc74zB5e.s 			page 15


 397              		@ frame_needed = 0, uses_anonymous_args = 0
 398              		@ link register save eliminated.
 399              	.LVL35:
 217:..\../barometer.c **** }
 400              		.loc 1 217 0
 401 0000 014B     		ldr	r3, .L34
 402 0002 9873     		strb	r0, [r3, #14]
 403 0004 7047     		bx	lr
 404              	.L35:
 405 0006 00BF     		.align	2
 406              	.L34:
 407 0008 00000000 		.word	.LANCHOR0
 408              		.cfi_endproc
 409              	.LFE68:
 410              		.size	baro_setCompensation, .-baro_setCompensation
 411              		.section	.text.baro_readRawTemperature,"ax",%progbits
 412              		.align	2
 413              		.global	baro_readRawTemperature
 414              		.thumb
 415              		.thumb_func
 416              		.type	baro_readRawTemperature, %function
 417              	baro_readRawTemperature:
 418              	.LFB71:
 236:..\../barometer.c ****     baro_sendCommand(MS5611_CMD_CONV_D2 + uosr);
 419              		.loc 1 236 0
 420              		.cfi_startproc
 421              		@ args = 0, pretend = 0, frame = 0
 422              		@ frame_needed = 0, uses_anonymous_args = 0
 423 0000 10B5     		push	{r4, lr}
 424              		.cfi_def_cfa_offset 8
 425              		.cfi_offset 4, -8
 426              		.cfi_offset 14, -4
 237:..\../barometer.c ****     CyDelay(ct);
 427              		.loc 1 237 0
 428 0002 064C     		ldr	r4, .L38
 429 0004 607B     		ldrb	r0, [r4, #13]	@ zero_extendqisi2
 430 0006 5030     		adds	r0, r0, #80
 431 0008 C0B2     		uxtb	r0, r0
 432 000a FFF7FEFF 		bl	baro_sendCommand
 433              	.LVL36:
 238:..\../barometer.c ****     return baro_readRegister24(MS5611_CMD_ADC_READ);
 434              		.loc 1 238 0
 435 000e 207B     		ldrb	r0, [r4, #12]	@ zero_extendqisi2
 436 0010 FFF7FEFF 		bl	CyDelay
 437              	.LVL37:
 239:..\../barometer.c **** }
 438              		.loc 1 239 0
 439 0014 0020     		movs	r0, #0
 440 0016 FFF7FEFF 		bl	baro_readRegister24
 441              	.LVL38:
 240:..\../barometer.c **** 
 442              		.loc 1 240 0
 443 001a 10BD     		pop	{r4, pc}
 444              	.L39:
 445              		.align	2
 446              	.L38:
 447 001c 00000000 		.word	.LANCHOR0
ARM GAS  C:\Users\a85495\AppData\Local\Temp\cc74zB5e.s 			page 16


 448              		.cfi_endproc
 449              	.LFE71:
 450              		.size	baro_readRawTemperature, .-baro_readRawTemperature
 451              		.section	.text.baro_readRawPressure,"ax",%progbits
 452              		.align	2
 453              		.global	baro_readRawPressure
 454              		.thumb
 455              		.thumb_func
 456              		.type	baro_readRawPressure, %function
 457              	baro_readRawPressure:
 458              	.LFB72:
 243:..\../barometer.c ****     baro_sendCommand(MS5611_CMD_CONV_D2 + uosr);
 459              		.loc 1 243 0
 460              		.cfi_startproc
 461              		@ args = 0, pretend = 0, frame = 0
 462              		@ frame_needed = 0, uses_anonymous_args = 0
 463 0000 10B5     		push	{r4, lr}
 464              		.cfi_def_cfa_offset 8
 465              		.cfi_offset 4, -8
 466              		.cfi_offset 14, -4
 244:..\../barometer.c ****     CyDelay(ct);
 467              		.loc 1 244 0
 468 0002 064C     		ldr	r4, .L42
 469 0004 607B     		ldrb	r0, [r4, #13]	@ zero_extendqisi2
 470 0006 5030     		adds	r0, r0, #80
 471 0008 C0B2     		uxtb	r0, r0
 472 000a FFF7FEFF 		bl	baro_sendCommand
 473              	.LVL39:
 245:..\../barometer.c ****     return baro_readRegister24(MS5611_CMD_ADC_READ);
 474              		.loc 1 245 0
 475 000e 207B     		ldrb	r0, [r4, #12]	@ zero_extendqisi2
 476 0010 FFF7FEFF 		bl	CyDelay
 477              	.LVL40:
 246:..\../barometer.c **** }
 478              		.loc 1 246 0
 479 0014 0020     		movs	r0, #0
 480 0016 FFF7FEFF 		bl	baro_readRegister24
 481              	.LVL41:
 247:..\../barometer.c **** 
 482              		.loc 1 247 0
 483 001a 10BD     		pop	{r4, pc}
 484              	.L43:
 485              		.align	2
 486              	.L42:
 487 001c 00000000 		.word	.LANCHOR0
 488              		.cfi_endproc
 489              	.LFE72:
 490              		.size	baro_readRawPressure, .-baro_readRawPressure
 491              		.section	.text.baro_readPressure,"ax",%progbits
 492              		.align	2
 493              		.global	baro_readPressure
 494              		.thumb
 495              		.thumb_func
 496              		.type	baro_readPressure, %function
 497              	baro_readPressure:
 498              	.LFB73:
 250:..\../barometer.c ****     uint32_t D1 = baro_readRawPressure();
ARM GAS  C:\Users\a85495\AppData\Local\Temp\cc74zB5e.s 			page 17


 499              		.loc 1 250 0
 500              		.cfi_startproc
 501              		@ args = 0, pretend = 0, frame = 8
 502              		@ frame_needed = 0, uses_anonymous_args = 0
 503 0000 2DE9F04F 		push	{r4, r5, r6, r7, r8, r9, r10, fp, lr}
 504              		.cfi_def_cfa_offset 36
 505              		.cfi_offset 4, -36
 506              		.cfi_offset 5, -32
 507              		.cfi_offset 6, -28
 508              		.cfi_offset 7, -24
 509              		.cfi_offset 8, -20
 510              		.cfi_offset 9, -16
 511              		.cfi_offset 10, -12
 512              		.cfi_offset 11, -8
 513              		.cfi_offset 14, -4
 514 0004 83B0     		sub	sp, sp, #12
 515              		.cfi_def_cfa_offset 48
 251:..\../barometer.c **** 
 516              		.loc 1 251 0
 517 0006 FFF7FEFF 		bl	baro_readRawPressure
 518              	.LVL42:
 519 000a 0190     		str	r0, [sp, #4]
 520              	.LVL43:
 253:..\../barometer.c ****     int32_t dT = D2 - (uint32_t)fc[4] * 256;
 521              		.loc 1 253 0
 522 000c FFF7FEFF 		bl	baro_readRawTemperature
 523              	.LVL44:
 254:..\../barometer.c **** 
 524              		.loc 1 254 0
 525 0010 644B     		ldr	r3, .L55
 526 0012 1A89     		ldrh	r2, [r3, #8]
 527 0014 A0EB0220 		sub	r0, r0, r2, lsl #8
 528              	.LVL45:
 256:..\../barometer.c ****     int64_t SENS = (int64_t)fc[0] * 32768 + (int64_t)fc[2] * dT / 256;
 529              		.loc 1 256 0
 530 0018 5E88     		ldrh	r6, [r3, #2]
 531 001a 0025     		movs	r5, #0
 532 001c 45EA1645 		orr	r5, r5, r6, lsr #16
 533 0020 3404     		lsls	r4, r6, #16
 534 0022 DE88     		ldrh	r6, [r3, #6]
 535 0024 4FEAE07B 		asr	fp, r0, #31
 536 0028 A6FB0023 		umull	r2, r3, r6, r0
 537 002c 06FB0B33 		mla	r3, r6, fp, r3
 538 0030 1646     		mov	r6, r2
 539 0032 1F46     		mov	r7, r3
 540 0034 002A     		cmp	r2, #0
 541 0036 73F10001 		sbcs	r1, r3, #0
 542 003a 03DA     		bge	.L45
 543 003c 12F17F06 		adds	r6, r2, #127
 544 0040 43F10007 		adc	r7, r3, #0
 545              	.L45:
 546 0044 F109     		lsrs	r1, r6, #7
 547 0046 41EA4762 		orr	r2, r1, r7, lsl #25
 548 004a FB11     		asrs	r3, r7, #7
 549 004c A418     		adds	r4, r4, r2
 550 004e 5D41     		adcs	r5, r5, r3
 551              	.LVL46:
ARM GAS  C:\Users\a85495\AppData\Local\Temp\cc74zB5e.s 			page 18


 257:..\../barometer.c **** 
 552              		.loc 1 257 0
 553 0050 5449     		ldr	r1, .L55
 554 0052 0A88     		ldrh	r2, [r1]
 555 0054 0027     		movs	r7, #0
 556 0056 47EA5247 		orr	r7, r7, r2, lsr #17
 557 005a D603     		lsls	r6, r2, #15
 558 005c B1F80480 		ldrh	r8, [r1, #4]
 559 0060 A0FB0823 		umull	r2, r3, r0, r8
 560 0064 08FB0B33 		mla	r3, r8, fp, r3
 561 0068 9046     		mov	r8, r2
 562 006a 9946     		mov	r9, r3
 563 006c 002A     		cmp	r2, #0
 564 006e 73F10001 		sbcs	r1, r3, #0
 565 0072 03DA     		bge	.L46
 566 0074 12F1FF08 		adds	r8, r2, #255
 567 0078 43F10009 		adc	r9, r3, #0
 568              	.L46:
 569 007c 4FEA1821 		lsr	r1, r8, #8
 570 0080 41EA0962 		orr	r2, r1, r9, lsl #24
 571 0084 4FEA2923 		asr	r3, r9, #8
 572 0088 9219     		adds	r2, r2, r6
 573 008a 7B41     		adcs	r3, r3, r7
 574              	.LVL47:
 259:..\../barometer.c ****     {
 575              		.loc 1 259 0
 576 008c 4549     		ldr	r1, .L55
 577 008e 897B     		ldrb	r1, [r1, #14]	@ zero_extendqisi2
 578 0090 0029     		cmp	r1, #0
 579 0092 60D0     		beq	.L47
 580              	.LBB2:
 261:..\../barometer.c **** 
 581              		.loc 1 261 0
 582 0094 4349     		ldr	r1, .L55
 583 0096 4E89     		ldrh	r6, [r1, #10]
 584 0098 A0FB0601 		umull	r0, r1, r0, r6
 585              	.LVL48:
 586 009c 06FB0B11 		mla	r1, r6, fp, r1
 587 00a0 0646     		mov	r6, r0
 588 00a2 0F46     		mov	r7, r1
 589 00a4 0028     		cmp	r0, #0
 590 00a6 71F1000E 		sbcs	lr, r1, #0
 591 00aa 03DA     		bge	.L48
 592 00ac 3E4E     		ldr	r6, .L55+4
 593 00ae 0027     		movs	r7, #0
 594 00b0 3618     		adds	r6, r6, r0
 595 00b2 4F41     		adcs	r7, r7, r1
 596              	.L48:
 597 00b4 F10D     		lsrs	r1, r6, #23
 598 00b6 41EA4721 		orr	r1, r1, r7, lsl #9
 599 00ba 01F5FA61 		add	r1, r1, #2000
 600              	.LVL49:
 263:..\../barometer.c ****         SENS2 = 0;
 601              		.loc 1 263 0
 602 00be 3948     		ldr	r0, .L55
 603 00c0 0026     		movs	r6, #0
 604 00c2 0027     		movs	r7, #0
ARM GAS  C:\Users\a85495\AppData\Local\Temp\cc74zB5e.s 			page 19


 605 00c4 C0E90467 		strd	r6, [r0, #16]
 264:..\../barometer.c **** 
 606              		.loc 1 264 0
 607 00c8 C0E90667 		strd	r6, [r0, #24]
 266:..\../barometer.c ****         {
 608              		.loc 1 266 0
 609 00cc B1F5FA6F 		cmp	r1, #2000
 610 00d0 16DA     		bge	.L49
 268:..\../barometer.c ****             SENS2 = 5 * ((TEMP - 2000) * (TEMP - 2000)) / 4;
 611              		.loc 1 268 0
 612 00d2 A1F5FA60 		sub	r0, r1, #2000
 613 00d6 00FB00F0 		mul	r0, r0, r0
 614 00da 00EB8000 		add	r0, r0, r0, lsl #2
 615 00de 00EBD076 		add	r6, r0, r0, lsr #31
 616 00e2 7610     		asrs	r6, r6, #1
 617 00e4 F717     		asrs	r7, r6, #31
 618 00e6 DFF8BCE0 		ldr	lr, .L55
 619 00ea CEE90467 		strd	r6, [lr, #16]
 269:..\../barometer.c ****         }
 620              		.loc 1 269 0
 621 00ee 0646     		mov	r6, r0
 622 00f0 0028     		cmp	r0, #0
 623 00f2 00DA     		bge	.L50
 624 00f4 C61C     		adds	r6, r0, #3
 625              	.L50:
 626 00f6 B610     		asrs	r6, r6, #2
 627 00f8 F717     		asrs	r7, r6, #31
 628 00fa 2A48     		ldr	r0, .L55
 629 00fc C0E90667 		strd	r6, [r0, #24]
 630              	.L49:
 272:..\../barometer.c ****         {
 631              		.loc 1 272 0
 632 0100 2A48     		ldr	r0, .L55+8
 633 0102 8142     		cmp	r1, r0
 634 0104 1CDA     		bge	.L51
 274:..\../barometer.c ****             SENS2 = SENS2 + 11 * ((TEMP + 1500) * (TEMP + 1500)) / 2;
 635              		.loc 1 274 0
 636 0106 01F2DC56 		addw	r6, r1, #1500
 637 010a 06FB06F6 		mul	r6, r6, r6
 638 010e C6EBC60E 		rsb	lr, r6, r6, lsl #3
 639 0112 244F     		ldr	r7, .L55
 640 0114 D7E90401 		ldrd	r0, [r7, #16]
 641 0118 10EB0E00 		adds	r0, r0, lr
 642 011c 41EBEE71 		adc	r1, r1, lr, asr #31
 643              	.LVL50:
 644 0120 C7E90401 		strd	r0, [r7, #16]
 275:..\../barometer.c ****         }
 645              		.loc 1 275 0
 646 0124 06EB8601 		add	r1, r6, r6, lsl #2
 647 0128 06EB4106 		add	r6, r6, r1, lsl #1
 648 012c 06EBD676 		add	r6, r6, r6, lsr #31
 649 0130 7610     		asrs	r6, r6, #1
 650 0132 D7E90601 		ldrd	r0, [r7, #24]
 651 0136 8019     		adds	r0, r0, r6
 652 0138 41EBE671 		adc	r1, r1, r6, asr #31
 653 013c C7E90601 		strd	r0, [r7, #24]
 654              	.L51:
ARM GAS  C:\Users\a85495\AppData\Local\Temp\cc74zB5e.s 			page 20


 278:..\../barometer.c ****         SENS = SENS - SENS2;
 655              		.loc 1 278 0
 656 0140 184E     		ldr	r6, .L55
 657 0142 D6E90401 		ldrd	r0, [r6, #16]
 658 0146 241A     		subs	r4, r4, r0
 659              	.LVL51:
 660 0148 65EB0105 		sbc	r5, r5, r1
 661              	.LVL52:
 279:..\../barometer.c ****     }
 662              		.loc 1 279 0
 663 014c D6E90601 		ldrd	r0, [r6, #24]
 664 0150 121A     		subs	r2, r2, r0
 665              	.LVL53:
 666 0152 63EB0103 		sbc	r3, r3, r1
 667              	.LVL54:
 668              	.L47:
 669              	.LBE2:
 282:..\../barometer.c **** 
 670              		.loc 1 282 0
 671 0156 019E     		ldr	r6, [sp, #4]
 672 0158 A6FB0201 		umull	r0, r1, r6, r2
 673 015c 06FB0311 		mla	r1, r6, r3, r1
 674 0160 0646     		mov	r6, r0
 675 0162 0F46     		mov	r7, r1
 676 0164 0028     		cmp	r0, #0
 677 0166 71F10003 		sbcs	r3, r1, #0
 678 016a 03DA     		bge	.L52
 679 016c 104E     		ldr	r6, .L55+12
 680 016e 0027     		movs	r7, #0
 681 0170 3618     		adds	r6, r6, r0
 682 0172 4F41     		adcs	r7, r7, r1
 683              	.L52:
 684 0174 710D     		lsrs	r1, r6, #21
 685 0176 41EAC722 		orr	r2, r1, r7, lsl #11
 686              	.LVL55:
 687 017a 7B15     		asrs	r3, r7, #21
 688 017c 141B     		subs	r4, r2, r4
 689              	.LVL56:
 690 017e 63EB0505 		sbc	r5, r3, r5
 691 0182 2246     		mov	r2, r4
 692 0184 2B46     		mov	r3, r5
 693 0186 002C     		cmp	r4, #0
 694 0188 75F10001 		sbcs	r1, r5, #0
 695 018c 04DA     		bge	.L53
 696 018e 47F6FF72 		movw	r2, #32767
 697 0192 0023     		movs	r3, #0
 698 0194 1219     		adds	r2, r2, r4
 699 0196 6B41     		adcs	r3, r3, r5
 700              	.L53:
 701 0198 D00B     		lsrs	r0, r2, #15
 702              	.LVL57:
 285:..\../barometer.c **** 
 703              		.loc 1 285 0
 704 019a 40EA4340 		orr	r0, r0, r3, lsl #17
 705              	.LVL58:
 706 019e 03B0     		add	sp, sp, #12
 707              		.cfi_def_cfa_offset 36
ARM GAS  C:\Users\a85495\AppData\Local\Temp\cc74zB5e.s 			page 21


 708              		@ sp needed
 709 01a0 BDE8F08F 		pop	{r4, r5, r6, r7, r8, r9, r10, fp, pc}
 710              	.LVL59:
 711              	.L56:
 712              		.align	2
 713              	.L55:
 714 01a4 00000000 		.word	.LANCHOR0
 715 01a8 FFFF7F00 		.word	8388607
 716 01ac 24FAFFFF 		.word	-1500
 717 01b0 FFFF1F00 		.word	2097151
 718              		.cfi_endproc
 719              	.LFE73:
 720              		.size	baro_readPressure, .-baro_readPressure
 721              		.global	__aeabi_i2d
 722              		.global	__aeabi_ddiv
 723              		.section	.text.baro_readTemperature,"ax",%progbits
 724              		.align	2
 725              		.global	baro_readTemperature
 726              		.thumb
 727              		.thumb_func
 728              		.type	baro_readTemperature, %function
 729              	baro_readTemperature:
 730              	.LFB74:
 288:..\../barometer.c ****     uint32_t D2 = baro_readRawTemperature();
 731              		.loc 1 288 0
 732              		.cfi_startproc
 733              		@ args = 0, pretend = 0, frame = 0
 734              		@ frame_needed = 0, uses_anonymous_args = 0
 735 0000 F8B5     		push	{r3, r4, r5, r6, r7, lr}
 736              		.cfi_def_cfa_offset 24
 737              		.cfi_offset 3, -24
 738              		.cfi_offset 4, -20
 739              		.cfi_offset 5, -16
 740              		.cfi_offset 6, -12
 741              		.cfi_offset 7, -8
 742              		.cfi_offset 14, -4
 289:..\../barometer.c ****     int32_t dT = D2 - (uint32_t)fc[4] * 256;
 743              		.loc 1 289 0
 744 0002 FFF7FEFF 		bl	baro_readRawTemperature
 745              	.LVL60:
 290:..\../barometer.c **** 
 746              		.loc 1 290 0
 747 0006 1A4A     		ldr	r2, .L61
 748 0008 1389     		ldrh	r3, [r2, #8]
 749 000a A0EB0323 		sub	r3, r0, r3, lsl #8
 750              	.LVL61:
 292:..\../barometer.c **** 
 751              		.loc 1 292 0
 752 000e DF17     		asrs	r7, r3, #31
 753 0010 5489     		ldrh	r4, [r2, #10]
 754 0012 A3FB0401 		umull	r0, r1, r3, r4
 755              	.LVL62:
 756 0016 04FB0711 		mla	r1, r4, r7, r1
 757 001a 0446     		mov	r4, r0
 758 001c 0D46     		mov	r5, r1
 759 001e 0028     		cmp	r0, #0
 760 0020 71F10002 		sbcs	r2, r1, #0
ARM GAS  C:\Users\a85495\AppData\Local\Temp\cc74zB5e.s 			page 22


 761 0024 03DA     		bge	.L58
 762 0026 134C     		ldr	r4, .L61+4
 763 0028 0025     		movs	r5, #0
 764 002a 2418     		adds	r4, r4, r0
 765 002c 4D41     		adcs	r5, r5, r1
 766              	.L58:
 767 002e E00D     		lsrs	r0, r4, #23
 768 0030 40EA4520 		orr	r0, r0, r5, lsl #9
 769 0034 00F5FA60 		add	r0, r0, #2000
 770              	.LVL63:
 294:..\../barometer.c **** 
 771              		.loc 1 294 0
 772 0038 0D4A     		ldr	r2, .L61
 773 003a 0021     		movs	r1, #0
 774 003c 1162     		str	r1, [r2, #32]
 296:..\../barometer.c ****     {
 775              		.loc 1 296 0
 776 003e 927B     		ldrb	r2, [r2, #14]	@ zero_extendqisi2
 777 0040 5AB1     		cbz	r2, .L59
 298:..\../barometer.c ****         {
 778              		.loc 1 298 0
 779 0042 B0F5FA6F 		cmp	r0, #2000
 780 0046 08DA     		bge	.L59
 300:..\../barometer.c ****         }
 781              		.loc 1 300 0
 782 0048 03FB03F3 		mul	r3, r3, r3
 783              	.LVL64:
 784 004c B3F1004F 		cmp	r3, #-2147483648
 785 0050 14BF     		ite	ne
 786 0052 0023     		movne	r3, #0
 787 0054 0123     		moveq	r3, #1
 788 0056 064A     		ldr	r2, .L61
 789 0058 1362     		str	r3, [r2, #32]
 790              	.L59:
 304:..\../barometer.c **** 
 791              		.loc 1 304 0
 792 005a 054B     		ldr	r3, .L61
 793 005c 1B6A     		ldr	r3, [r3, #32]
 794              	.LVL65:
 306:..\../barometer.c **** }
 795              		.loc 1 306 0
 796 005e C01A     		subs	r0, r0, r3
 797              	.LVL66:
 798 0060 FFF7FEFF 		bl	__aeabi_i2d
 799              	.LVL67:
 800 0064 0022     		movs	r2, #0
 801 0066 044B     		ldr	r3, .L61+8
 802 0068 FFF7FEFF 		bl	__aeabi_ddiv
 803              	.LVL68:
 307:..\../barometer.c **** 
 804              		.loc 1 307 0
 805 006c F8BD     		pop	{r3, r4, r5, r6, r7, pc}
 806              	.L62:
 807 006e 00BF     		.align	2
 808              	.L61:
 809 0070 00000000 		.word	.LANCHOR0
 810 0074 FFFF7F00 		.word	8388607
ARM GAS  C:\Users\a85495\AppData\Local\Temp\cc74zB5e.s 			page 23


 811 0078 00005940 		.word	1079574528
 812              		.cfi_endproc
 813              	.LFE74:
 814              		.size	baro_readTemperature, .-baro_readTemperature
 815              		.global	__aeabi_dsub
 816              		.global	__aeabi_dmul
 817              		.section	.text.baro_getAbsoluteAltitude,"ax",%progbits
 818              		.align	2
 819              		.global	baro_getAbsoluteAltitude
 820              		.thumb
 821              		.thumb_func
 822              		.type	baro_getAbsoluteAltitude, %function
 823              	baro_getAbsoluteAltitude:
 824              	.LFB75:
 311:..\../barometer.c ****     double seaLevelPressure = 101325;
 825              		.loc 1 311 0
 826              		.cfi_startproc
 827              		@ args = 0, pretend = 0, frame = 0
 828              		@ frame_needed = 0, uses_anonymous_args = 0
 829              	.LVL69:
 830 0000 08B5     		push	{r3, lr}
 831              		.cfi_def_cfa_offset 8
 832              		.cfi_offset 3, -8
 833              		.cfi_offset 14, -4
 834              	.LVL70:
 313:..\../barometer.c ****     return ret;
 835              		.loc 1 313 0
 836 0002 FFF7FEFF 		bl	__aeabi_i2d
 837              	.LVL71:
 838 0006 0CA3     		adr	r3, .L65
 839 0008 D3E90023 		ldrd	r2, [r3]
 840 000c FFF7FEFF 		bl	__aeabi_ddiv
 841              	.LVL72:
 842 0010 0BA3     		adr	r3, .L65+8
 843 0012 D3E90023 		ldrd	r2, [r3]
 844 0016 FFF7FEFF 		bl	pow
 845              	.LVL73:
 846 001a 0246     		mov	r2, r0
 847 001c 0B46     		mov	r3, r1
 848 001e 0020     		movs	r0, #0
 849 0020 0B49     		ldr	r1, .L65+24
 850 0022 FFF7FEFF 		bl	__aeabi_dsub
 851              	.LVL74:
 852 0026 08A3     		adr	r3, .L65+16
 853 0028 D3E90023 		ldrd	r2, [r3]
 854 002c FFF7FEFF 		bl	__aeabi_dmul
 855              	.LVL75:
 315:..\../barometer.c **** 
 856              		.loc 1 315 0
 857 0030 08BD     		pop	{r3, pc}
 858              	.L66:
 859 0032 00BFAFF3 		.align	3
 859      0080
 860              	.L65:
 861 0038 00000000 		.word	0
 862 003c D0BCF840 		.word	1090043088
 863 0040 00000060 		.word	1610612736
ARM GAS  C:\Users\a85495\AppData\Local\Temp\cc74zB5e.s 			page 24


 864 0044 955BC83F 		.word	1070095253
 865 0048 00000000 		.word	0
 866 004c 40A5E540 		.word	1088791872
 867 0050 0000F03F 		.word	1072693248
 868              		.cfi_endproc
 869              	.LFE75:
 870              		.size	baro_getAbsoluteAltitude, .-baro_getAbsoluteAltitude
 871 0054 AFF30080 		.section	.text.baro_getRelativeAltitude,"ax",%progbits
 872              		.align	2
 873              		.global	baro_getRelativeAltitude
 874              		.thumb
 875              		.thumb_func
 876              		.type	baro_getRelativeAltitude, %function
 877              	baro_getRelativeAltitude:
 878              	.LFB76:
 319:..\../barometer.c ****     double ret = (44330.0f * (1.0f - pow(((double)pressure / (double)initialPressure), 0.1902949f))
 879              		.loc 1 319 0
 880              		.cfi_startproc
 881              		@ args = 0, pretend = 0, frame = 0
 882              		@ frame_needed = 0, uses_anonymous_args = 0
 883              	.LVL76:
 884 0000 70B5     		push	{r4, r5, r6, lr}
 885              		.cfi_def_cfa_offset 16
 886              		.cfi_offset 4, -16
 887              		.cfi_offset 5, -12
 888              		.cfi_offset 6, -8
 889              		.cfi_offset 14, -4
 890 0002 0E46     		mov	r6, r1
 320:..\../barometer.c ****     return ret;
 891              		.loc 1 320 0
 892 0004 FFF7FEFF 		bl	__aeabi_i2d
 893              	.LVL77:
 894 0008 0446     		mov	r4, r0
 895 000a 0D46     		mov	r5, r1
 896 000c 3046     		mov	r0, r6
 897 000e FFF7FEFF 		bl	__aeabi_i2d
 898              	.LVL78:
 899 0012 0246     		mov	r2, r0
 900 0014 0B46     		mov	r3, r1
 901 0016 2046     		mov	r0, r4
 902 0018 2946     		mov	r1, r5
 903 001a FFF7FEFF 		bl	__aeabi_ddiv
 904              	.LVL79:
 905 001e 08A3     		adr	r3, .L69
 906 0020 D3E90023 		ldrd	r2, [r3]
 907 0024 FFF7FEFF 		bl	pow
 908              	.LVL80:
 909 0028 0246     		mov	r2, r0
 910 002a 0B46     		mov	r3, r1
 911 002c 0020     		movs	r0, #0
 912 002e 0849     		ldr	r1, .L69+16
 913 0030 FFF7FEFF 		bl	__aeabi_dsub
 914              	.LVL81:
 915 0034 04A3     		adr	r3, .L69+8
 916 0036 D3E90023 		ldrd	r2, [r3]
 917 003a FFF7FEFF 		bl	__aeabi_dmul
 918              	.LVL82:
ARM GAS  C:\Users\a85495\AppData\Local\Temp\cc74zB5e.s 			page 25


 322:..\../barometer.c **** 
 919              		.loc 1 322 0
 920 003e 70BD     		pop	{r4, r5, r6, pc}
 921              	.LVL83:
 922              	.L70:
 923              		.align	3
 924              	.L69:
 925 0040 00000060 		.word	1610612736
 926 0044 955BC83F 		.word	1070095253
 927 0048 00000000 		.word	0
 928 004c 40A5E540 		.word	1088791872
 929 0050 0000F03F 		.word	1072693248
 930              		.cfi_endproc
 931              	.LFE76:
 932              		.size	baro_getRelativeAltitude, .-baro_getRelativeAltitude
 933              		.global	__aeabi_dcmpgt
 934 0054 AFF30080 		.section	.text.baro_initialize,"ax",%progbits
 935              		.align	2
 936              		.global	baro_initialize
 937              		.thumb
 938              		.thumb_func
 939              		.type	baro_initialize, %function
 940              	baro_initialize:
 941              	.LFB64:
 118:..\../barometer.c ****     serial_println("Initializing Barometeric Pressure and Temperature sensor:");
 942              		.loc 1 118 0
 943              		.cfi_startproc
 944              		@ args = 0, pretend = 0, frame = 0
 945              		@ frame_needed = 0, uses_anonymous_args = 0
 946 0000 10B5     		push	{r4, lr}
 947              		.cfi_def_cfa_offset 8
 948              		.cfi_offset 4, -8
 949              		.cfi_offset 14, -4
 119:..\../barometer.c ****     while (!baro_begin())
 950              		.loc 1 119 0
 951 0002 1D48     		ldr	r0, .L78
 952 0004 FFF7FEFF 		bl	serial_println
 953              	.LVL84:
 120:..\../barometer.c ****     {
 954              		.loc 1 120 0
 955 0008 02E0     		b	.L72
 956              	.L73:
 122:..\../barometer.c ****     }
 957              		.loc 1 122 0
 958 000a 1C48     		ldr	r0, .L78+4
 959 000c FFF7FEFF 		bl	serial_println
 960              	.LVL85:
 961              	.L72:
 120:..\../barometer.c ****     {
 962              		.loc 1 120 0
 963 0010 FFF7FEFF 		bl	baro_begin
 964              	.LVL86:
 965 0014 0028     		cmp	r0, #0
 966 0016 F8D0     		beq	.L73
 126:..\../barometer.c **** 
 967              		.loc 1 126 0
 968 0018 FFF7FEFF 		bl	baro_readPressure
ARM GAS  C:\Users\a85495\AppData\Local\Temp\cc74zB5e.s 			page 26


 969              	.LVL87:
 970 001c 184C     		ldr	r4, .L78+8
 971 001e 2060     		str	r0, [r4]
 129:..\../barometer.c ****     initial_raw_pressure = baro_readRawPressure();
 972              		.loc 1 129 0
 973 0020 FFF7FEFF 		bl	baro_readRawTemperature
 974              	.LVL88:
 975 0024 174B     		ldr	r3, .L78+12
 976 0026 1860     		str	r0, [r3]
 130:..\../barometer.c **** 
 977              		.loc 1 130 0
 978 0028 FFF7FEFF 		bl	baro_readRawPressure
 979              	.LVL89:
 980 002c 164B     		ldr	r3, .L78+16
 981 002e 1860     		str	r0, [r3]
 133:..\../barometer.c ****     initial_real_pressure = baro_readPressure();
 982              		.loc 1 133 0
 983 0030 FFF7FEFF 		bl	baro_readTemperature
 984              	.LVL90:
 985 0034 154B     		ldr	r3, .L78+20
 986 0036 C3E90001 		strd	r0, [r3]
 134:..\../barometer.c **** 
 987              		.loc 1 134 0
 988 003a FFF7FEFF 		bl	baro_readPressure
 989              	.LVL91:
 990 003e 144B     		ldr	r3, .L78+24
 991 0040 1860     		str	r0, [r3]
 138:..\../barometer.c ****     
 992              		.loc 1 138 0
 993 0042 2068     		ldr	r0, [r4]
 994 0044 FFF7FEFF 		bl	baro_getAbsoluteAltitude
 995              	.LVL92:
 996 0048 124B     		ldr	r3, .L78+28
 997 004a C3E90001 		strd	r0, [r3]
 140:..\../barometer.c ****     initial_relative_altitude = baro_getRelativeAltitude(check_pressure, reference_pressure);
 998              		.loc 1 140 0
 999 004e FFF7FEFF 		bl	baro_readPressure
 1000              	.LVL93:
 141:..\../barometer.c ****     
 1001              		.loc 1 141 0
 1002 0052 2168     		ldr	r1, [r4]
 1003 0054 FFF7FEFF 		bl	baro_getRelativeAltitude
 1004              	.LVL94:
 1005 0058 0F4B     		ldr	r3, .L78+32
 1006 005a C3E90001 		strd	r0, [r3]
 143:..\../barometer.c ****     {
 1007              		.loc 1 143 0
 1008 005e 0022     		movs	r2, #0
 1009 0060 0E4B     		ldr	r3, .L78+36
 1010 0062 FFF7FEFF 		bl	__aeabi_dcmpgt
 1011              	.LVL95:
 1012 0066 28B1     		cbz	r0, .L71
 145:..\../barometer.c ****         serial_println("check code or restart quadcopter and don't touch.");
 1013              		.loc 1 145 0
 1014 0068 0D48     		ldr	r0, .L78+40
 1015 006a FFF7FEFF 		bl	serial_println
 1016              	.LVL96:
ARM GAS  C:\Users\a85495\AppData\Local\Temp\cc74zB5e.s 			page 27


 146:..\../barometer.c ****     }
 1017              		.loc 1 146 0
 1018 006e 0D48     		ldr	r0, .L78+44
 1019 0070 FFF7FEFF 		bl	serial_println
 1020              	.LVL97:
 1021              	.L71:
 1022 0074 10BD     		pop	{r4, pc}
 1023              	.L79:
 1024 0076 00BF     		.align	2
 1025              	.L78:
 1026 0078 00000000 		.word	.LC0
 1027 007c 3C000000 		.word	.LC1
 1028 0080 00000000 		.word	reference_pressure
 1029 0084 00000000 		.word	initial_raw_temperature
 1030 0088 00000000 		.word	initial_raw_pressure
 1031 008c 00000000 		.word	initial_real_temprature
 1032 0090 00000000 		.word	initial_real_pressure
 1033 0094 00000000 		.word	initial_absolute_altitude
 1034 0098 00000000 		.word	initial_relative_altitude
 1035 009c 00002440 		.word	1076101120
 1036 00a0 88000000 		.word	.LC2
 1037 00a4 CC000000 		.word	.LC3
 1038              		.cfi_endproc
 1039              	.LFE64:
 1040              		.size	baro_initialize, .-baro_initialize
 1041              		.section	.text.baro_getSeaLevel,"ax",%progbits
 1042              		.align	2
 1043              		.global	baro_getSeaLevel
 1044              		.thumb
 1045              		.thumb_func
 1046              		.type	baro_getSeaLevel, %function
 1047              	baro_getSeaLevel:
 1048              	.LFB77:
 326:..\../barometer.c ****     double ret = ((double)pressure / pow((1.0) - ((double)altitude / (44330.0)), (5.255)));
 1049              		.loc 1 326 0
 1050              		.cfi_startproc
 1051              		@ args = 0, pretend = 0, frame = 0
 1052              		@ frame_needed = 0, uses_anonymous_args = 0
 1053              	.LVL98:
 1054 0000 70B5     		push	{r4, r5, r6, lr}
 1055              		.cfi_def_cfa_offset 16
 1056              		.cfi_offset 4, -16
 1057              		.cfi_offset 5, -12
 1058              		.cfi_offset 6, -8
 1059              		.cfi_offset 14, -4
 1060 0002 0E46     		mov	r6, r1
 327:..\../barometer.c ****     return ret;
 1061              		.loc 1 327 0
 1062 0004 FFF7FEFF 		bl	__aeabi_i2d
 1063              	.LVL99:
 1064 0008 0446     		mov	r4, r0
 1065 000a 0D46     		mov	r5, r1
 1066 000c 3046     		mov	r0, r6
 1067 000e FFF7FEFF 		bl	__aeabi_i2d
 1068              	.LVL100:
 1069 0012 0BA3     		adr	r3, .L82
 1070 0014 D3E90023 		ldrd	r2, [r3]
ARM GAS  C:\Users\a85495\AppData\Local\Temp\cc74zB5e.s 			page 28


 1071 0018 FFF7FEFF 		bl	__aeabi_ddiv
 1072              	.LVL101:
 1073 001c 0246     		mov	r2, r0
 1074 001e 0B46     		mov	r3, r1
 1075 0020 0020     		movs	r0, #0
 1076 0022 0B49     		ldr	r1, .L82+16
 1077 0024 FFF7FEFF 		bl	__aeabi_dsub
 1078              	.LVL102:
 1079 0028 07A3     		adr	r3, .L82+8
 1080 002a D3E90023 		ldrd	r2, [r3]
 1081 002e FFF7FEFF 		bl	pow
 1082              	.LVL103:
 1083 0032 0246     		mov	r2, r0
 1084 0034 0B46     		mov	r3, r1
 1085 0036 2046     		mov	r0, r4
 1086 0038 2946     		mov	r1, r5
 1087 003a FFF7FEFF 		bl	__aeabi_ddiv
 1088              	.LVL104:
 329:..\../barometer.c **** 
 1089              		.loc 1 329 0
 1090 003e 70BD     		pop	{r4, r5, r6, pc}
 1091              	.LVL105:
 1092              	.L83:
 1093              		.align	3
 1094              	.L82:
 1095 0040 00000000 		.word	0
 1096 0044 40A5E540 		.word	1088791872
 1097 0048 85EB51B8 		.word	-1202590843
 1098 004c 1E051540 		.word	1075119390
 1099 0050 0000F03F 		.word	1072693248
 1100              		.cfi_endproc
 1101              	.LFE77:
 1102              		.size	baro_getSeaLevel, .-baro_getSeaLevel
 1103 0054 AFF30080 		.section	.text.baro_update,"ax",%progbits
 1104              		.align	2
 1105              		.global	baro_update
 1106              		.thumb
 1107              		.thumb_func
 1108              		.type	baro_update, %function
 1109              	baro_update:
 1110              	.LFB80:
 375:..\../barometer.c **** 
 376:..\../barometer.c **** void baro_update()
 377:..\../barometer.c **** {
 1111              		.loc 1 377 0
 1112              		.cfi_startproc
 1113              		@ args = 0, pretend = 0, frame = 0
 1114              		@ frame_needed = 0, uses_anonymous_args = 0
 1115 0000 10B5     		push	{r4, lr}
 1116              		.cfi_def_cfa_offset 8
 1117              		.cfi_offset 4, -8
 1118              		.cfi_offset 14, -4
 378:..\../barometer.c ****     //update the Barometric Pressure and Temperature Sensor values
 379:..\../barometer.c ****     baro.rawTemp = baro_readRawTemperature();
 1119              		.loc 1 379 0
 1120 0002 FFF7FEFF 		bl	baro_readRawTemperature
 1121              	.LVL106:
ARM GAS  C:\Users\a85495\AppData\Local\Temp\cc74zB5e.s 			page 29


 1122 0006 0C4C     		ldr	r4, .L86
 1123 0008 2060     		str	r0, [r4]
 380:..\../barometer.c ****     baro.rawPress = baro_readRawPressure();
 1124              		.loc 1 380 0
 1125 000a FFF7FEFF 		bl	baro_readRawPressure
 1126              	.LVL107:
 1127 000e 6060     		str	r0, [r4, #4]
 381:..\../barometer.c ****     baro.temperature = baro_readTemperature();
 1128              		.loc 1 381 0
 1129 0010 FFF7FEFF 		bl	baro_readTemperature
 1130              	.LVL108:
 1131 0014 C4E90201 		strd	r0, [r4, #8]
 382:..\../barometer.c ****     baro.pressure = baro_readPressure();
 1132              		.loc 1 382 0
 1133 0018 FFF7FEFF 		bl	baro_readPressure
 1134              	.LVL109:
 1135 001c 2061     		str	r0, [r4, #16]
 383:..\../barometer.c **** 
 384:..\../barometer.c ****     baro.absAlt = baro_getAbsoluteAltitude(baro.pressure);
 1136              		.loc 1 384 0
 1137 001e FFF7FEFF 		bl	baro_getAbsoluteAltitude
 1138              	.LVL110:
 1139 0022 C4E90601 		strd	r0, [r4, #24]
 385:..\../barometer.c ****     baro.relAlt = baro_getRelativeAltitude((baro.pressure), (reference_pressure));
 1140              		.loc 1 385 0
 1141 0026 2069     		ldr	r0, [r4, #16]
 1142 0028 044B     		ldr	r3, .L86+4
 1143 002a 1968     		ldr	r1, [r3]
 1144 002c FFF7FEFF 		bl	baro_getRelativeAltitude
 1145              	.LVL111:
 1146 0030 C4E90801 		strd	r0, [r4, #32]
 1147 0034 10BD     		pop	{r4, pc}
 1148              	.L87:
 1149 0036 00BF     		.align	2
 1150              	.L86:
 1151 0038 00000000 		.word	baro
 1152 003c 00000000 		.word	reference_pressure
 1153              		.cfi_endproc
 1154              	.LFE80:
 1155              		.size	baro_update, .-baro_update
 1156              		.section	.text.baro_getRawTemp,"ax",%progbits
 1157              		.align	2
 1158              		.global	baro_getRawTemp
 1159              		.thumb
 1160              		.thumb_func
 1161              		.type	baro_getRawTemp, %function
 1162              	baro_getRawTemp:
 1163              	.LFB81:
 386:..\../barometer.c **** 
 387:..\../barometer.c **** //if the macro DEBUG is true (value is not 0)
 388:..\../barometer.c **** #if BAROMETER_DEBUG
 389:..\../barometer.c ****     //serial_print(" rawTemp = ");
 390:..\../barometer.c ****     //serial_printInt(baro_getRawTemp()); //print an integer
 391:..\../barometer.c ****     serial_print(" realTemp = ");
 392:..\../barometer.c ****     serial_printDouble(baro_getTemp()); //print a double
 393:..\../barometer.c ****     serial_print(" *C  |  ");
 394:..\../barometer.c **** 
ARM GAS  C:\Users\a85495\AppData\Local\Temp\cc74zB5e.s 			page 30


 395:..\../barometer.c ****     //serial_print(" rawPressure = ");
 396:..\../barometer.c ****     //serial_printInt(baro_getRawPress()); //print an integer
 397:..\../barometer.c ****     serial_print(" realPressure = ");
 398:..\../barometer.c ****     serial_printInt(baro_getPress()); //print an integer
 399:..\../barometer.c ****     serial_print(" Pa  |  ");
 400:..\../barometer.c **** 
 401:..\../barometer.c ****     serial_print(" absoluteAltitude = ");
 402:..\../barometer.c ****     serial_printFloat(baro_getAbsAlt()); //print a double
 403:..\../barometer.c ****     serial_print(" m, relativeAltitude = ");
 404:..\../barometer.c ****     serial_printFloat(baro_getRelAlt()); //print a double
 405:..\../barometer.c ****     serial_println(" m");
 406:..\../barometer.c ****     
 407:..\../barometer.c **** #endif
 408:..\../barometer.c **** }
 409:..\../barometer.c **** 
 410:..\../barometer.c **** /*  These functions are provided to allow the user to extract
 411:..\../barometer.c ****  *  single pieces of data from the sensor readings safely
 412:..\../barometer.c ****  *  instead of just calling the sensor variables directly
 413:..\../barometer.c **** */
 414:..\../barometer.c **** uint32_t baro_getRawTemp(void){
 1164              		.loc 1 414 0
 1165              		.cfi_startproc
 1166              		@ args = 0, pretend = 0, frame = 0
 1167              		@ frame_needed = 0, uses_anonymous_args = 0
 1168              		@ link register save eliminated.
 415:..\../barometer.c ****     return (baro.rawTemp);
 416:..\../barometer.c **** }
 1169              		.loc 1 416 0
 1170 0000 014B     		ldr	r3, .L89
 1171 0002 1868     		ldr	r0, [r3]
 1172 0004 7047     		bx	lr
 1173              	.L90:
 1174 0006 00BF     		.align	2
 1175              	.L89:
 1176 0008 00000000 		.word	baro
 1177              		.cfi_endproc
 1178              	.LFE81:
 1179              		.size	baro_getRawTemp, .-baro_getRawTemp
 1180              		.section	.text.baro_getRawPress,"ax",%progbits
 1181              		.align	2
 1182              		.global	baro_getRawPress
 1183              		.thumb
 1184              		.thumb_func
 1185              		.type	baro_getRawPress, %function
 1186              	baro_getRawPress:
 1187              	.LFB82:
 417:..\../barometer.c **** 
 418:..\../barometer.c **** uint32_t baro_getRawPress(void){
 1188              		.loc 1 418 0
 1189              		.cfi_startproc
 1190              		@ args = 0, pretend = 0, frame = 0
 1191              		@ frame_needed = 0, uses_anonymous_args = 0
 1192              		@ link register save eliminated.
 419:..\../barometer.c ****     return (baro.rawPress);
 420:..\../barometer.c **** }
 1193              		.loc 1 420 0
 1194 0000 014B     		ldr	r3, .L92
ARM GAS  C:\Users\a85495\AppData\Local\Temp\cc74zB5e.s 			page 31


 1195 0002 5868     		ldr	r0, [r3, #4]
 1196 0004 7047     		bx	lr
 1197              	.L93:
 1198 0006 00BF     		.align	2
 1199              	.L92:
 1200 0008 00000000 		.word	baro
 1201              		.cfi_endproc
 1202              	.LFE82:
 1203              		.size	baro_getRawPress, .-baro_getRawPress
 1204              		.section	.text.baro_getTemp,"ax",%progbits
 1205              		.align	2
 1206              		.global	baro_getTemp
 1207              		.thumb
 1208              		.thumb_func
 1209              		.type	baro_getTemp, %function
 1210              	baro_getTemp:
 1211              	.LFB83:
 421:..\../barometer.c **** 
 422:..\../barometer.c **** double baro_getTemp(void){
 1212              		.loc 1 422 0
 1213              		.cfi_startproc
 1214              		@ args = 0, pretend = 0, frame = 0
 1215              		@ frame_needed = 0, uses_anonymous_args = 0
 1216              		@ link register save eliminated.
 423:..\../barometer.c ****     return (baro.temperature);
 424:..\../barometer.c **** }
 1217              		.loc 1 424 0
 1218 0000 014B     		ldr	r3, .L95
 1219 0002 D3E90201 		ldrd	r0, [r3, #8]
 1220 0006 7047     		bx	lr
 1221              	.L96:
 1222              		.align	2
 1223              	.L95:
 1224 0008 00000000 		.word	baro
 1225              		.cfi_endproc
 1226              	.LFE83:
 1227              		.size	baro_getTemp, .-baro_getTemp
 1228              		.section	.text.baro_getPress,"ax",%progbits
 1229              		.align	2
 1230              		.global	baro_getPress
 1231              		.thumb
 1232              		.thumb_func
 1233              		.type	baro_getPress, %function
 1234              	baro_getPress:
 1235              	.LFB84:
 425:..\../barometer.c **** 
 426:..\../barometer.c **** int32_t baro_getPress(void){
 1236              		.loc 1 426 0
 1237              		.cfi_startproc
 1238              		@ args = 0, pretend = 0, frame = 0
 1239              		@ frame_needed = 0, uses_anonymous_args = 0
 1240              		@ link register save eliminated.
 427:..\../barometer.c ****     return (baro.pressure);
 428:..\../barometer.c **** }
 1241              		.loc 1 428 0
 1242 0000 014B     		ldr	r3, .L98
 1243 0002 1869     		ldr	r0, [r3, #16]
ARM GAS  C:\Users\a85495\AppData\Local\Temp\cc74zB5e.s 			page 32


 1244 0004 7047     		bx	lr
 1245              	.L99:
 1246 0006 00BF     		.align	2
 1247              	.L98:
 1248 0008 00000000 		.word	baro
 1249              		.cfi_endproc
 1250              	.LFE84:
 1251              		.size	baro_getPress, .-baro_getPress
 1252              		.section	.text.baro_getAbsAlt,"ax",%progbits
 1253              		.align	2
 1254              		.global	baro_getAbsAlt
 1255              		.thumb
 1256              		.thumb_func
 1257              		.type	baro_getAbsAlt, %function
 1258              	baro_getAbsAlt:
 1259              	.LFB85:
 429:..\../barometer.c **** 
 430:..\../barometer.c **** double baro_getAbsAlt(void){
 1260              		.loc 1 430 0
 1261              		.cfi_startproc
 1262              		@ args = 0, pretend = 0, frame = 0
 1263              		@ frame_needed = 0, uses_anonymous_args = 0
 1264              		@ link register save eliminated.
 431:..\../barometer.c ****     return (baro.absAlt);
 432:..\../barometer.c **** }
 1265              		.loc 1 432 0
 1266 0000 014B     		ldr	r3, .L101
 1267 0002 D3E90601 		ldrd	r0, [r3, #24]
 1268 0006 7047     		bx	lr
 1269              	.L102:
 1270              		.align	2
 1271              	.L101:
 1272 0008 00000000 		.word	baro
 1273              		.cfi_endproc
 1274              	.LFE85:
 1275              		.size	baro_getAbsAlt, .-baro_getAbsAlt
 1276              		.section	.text.baro_getRelAlt,"ax",%progbits
 1277              		.align	2
 1278              		.global	baro_getRelAlt
 1279              		.thumb
 1280              		.thumb_func
 1281              		.type	baro_getRelAlt, %function
 1282              	baro_getRelAlt:
 1283              	.LFB86:
 433:..\../barometer.c **** 
 434:..\../barometer.c **** double baro_getRelAlt(void){
 1284              		.loc 1 434 0
 1285              		.cfi_startproc
 1286              		@ args = 0, pretend = 0, frame = 0
 1287              		@ frame_needed = 0, uses_anonymous_args = 0
 1288              		@ link register save eliminated.
 435:..\../barometer.c ****     return baro.relAlt;
 436:..\../barometer.c **** }
 1289              		.loc 1 436 0
 1290 0000 014B     		ldr	r3, .L104
 1291 0002 D3E90801 		ldrd	r0, [r3, #32]
 1292 0006 7047     		bx	lr
ARM GAS  C:\Users\a85495\AppData\Local\Temp\cc74zB5e.s 			page 33


 1293              	.L105:
 1294              		.align	2
 1295              	.L104:
 1296 0008 00000000 		.word	baro
 1297              		.cfi_endproc
 1298              	.LFE86:
 1299              		.size	baro_getRelAlt, .-baro_getRelAlt
 1300              		.section	.rodata.str1.4,"aMS",%progbits,1
 1301              		.align	2
 1302              	.LC0:
 1303 0000 496E6974 		.ascii	"Initializing Barometeric Pressure and Temperature s"
 1303      69616C69 
 1303      7A696E67 
 1303      20426172 
 1303      6F6D6574 
 1304 0033 656E736F 		.ascii	"ensor:\000"
 1304      723A00
 1305 003a 0000     		.space	2
 1306              	.LC1:
 1307 003c 2F2F3D3D 		.ascii	"//=======Could not find a valid Barometric sensor, "
 1307      3D3D3D3D 
 1307      3D436F75 
 1307      6C64206E 
 1307      6F742066 
 1308 006f 63686563 		.ascii	"check wiring!=======//\000"
 1308      6B207769 
 1308      72696E67 
 1308      213D3D3D 
 1308      3D3D3D3D 
 1309 0086 0000     		.space	2
 1310              	.LC2:
 1311 0088 54686572 		.ascii	"There must be an issue with the Altitude calculatio"
 1311      65206D75 
 1311      73742062 
 1311      6520616E 
 1311      20697373 
 1312 00bb 6E206F72 		.ascii	"n or pressure\000"
 1312      20707265 
 1312      73737572 
 1312      6500
 1313 00c9 000000   		.space	3
 1314              	.LC3:
 1315 00cc 63686563 		.ascii	"check code or restart quadcopter and don't touch.\000"
 1315      6B20636F 
 1315      6465206F 
 1315      72207265 
 1315      73746172 
 1316 00fe 0000     		.bss
 1317              		.align	3
 1318              		.set	.LANCHOR0,. + 0
 1319              		.type	fc, %object
 1320              		.size	fc, 12
 1321              	fc:
 1322 0000 00000000 		.space	12
 1322      00000000 
 1322      00000000 
 1323              		.type	ct, %object
ARM GAS  C:\Users\a85495\AppData\Local\Temp\cc74zB5e.s 			page 34


 1324              		.size	ct, 1
 1325              	ct:
 1326 000c 00       		.space	1
 1327              		.type	uosr, %object
 1328              		.size	uosr, 1
 1329              	uosr:
 1330 000d 00       		.space	1
 1331              		.type	_COMPENSATION, %object
 1332              		.size	_COMPENSATION, 1
 1333              	_COMPENSATION:
 1334 000e 00       		.space	1
 1335 000f 00       		.space	1
 1336              		.type	OFF2, %object
 1337              		.size	OFF2, 8
 1338              	OFF2:
 1339 0010 00000000 		.space	8
 1339      00000000 
 1340              		.type	SENS2, %object
 1341              		.size	SENS2, 8
 1342              	SENS2:
 1343 0018 00000000 		.space	8
 1343      00000000 
 1344              		.type	TEMP2, %object
 1345              		.size	TEMP2, 4
 1346              	TEMP2:
 1347 0020 00000000 		.space	4
 1348 0024 00000000 		.text
 1349              	.Letext0:
 1350              		.file 2 "c:\\program files (x86)\\cypress\\psoc creator\\4.0\\psoc creator\\import\\gnu\\arm\\4.9.
 1351              		.file 3 "c:\\program files (x86)\\cypress\\psoc creator\\4.0\\psoc creator\\import\\gnu\\arm\\4.9.
 1352              		.file 4 "..\\..\\barometer.h"
 1353              		.file 5 "Generated_Source\\PSoC5/cytypes.h"
 1354              		.file 6 "Generated_Source\\PSoC5/core_cm3.h"
 1355              		.file 7 "..\\..\\SensorVal.h"
 1356              		.file 8 "Generated_Source\\PSoC5/I2C.h"
 1357              		.file 9 "..\\..\\twi.h"
 1358              		.file 10 "..\\..\\debSerial.h"
 1359              		.file 11 "Generated_Source\\PSoC5/CyLib.h"
 1360              		.file 12 "c:\\program files (x86)\\cypress\\psoc creator\\4.0\\psoc creator\\import\\gnu\\arm\\4.9