ARM GAS  C:\Users\a85495\AppData\Local\Temp\ccTUFg8U.s 			page 1


   1              		.syntax unified
   2              		.cpu cortex-m3
   3              		.fpu softvfp
   4              		.eabi_attribute 20, 1
   5              		.eabi_attribute 21, 1
   6              		.eabi_attribute 23, 3
   7              		.eabi_attribute 24, 1
   8              		.eabi_attribute 25, 1
   9              		.eabi_attribute 26, 1
  10              		.eabi_attribute 30, 1
  11              		.eabi_attribute 34, 1
  12              		.eabi_attribute 18, 4
  13              		.thumb
  14              		.file	"debug_Serial.c"
  15              		.text
  16              	.Ltext0:
  17              		.cfi_sections	.debug_frame
  18              		.section	.text.serial_print,"ax",%progbits
  19              		.align	2
  20              		.global	serial_print
  21              		.thumb
  22              		.thumb_func
  23              		.type	serial_print, %function
  24              	serial_print:
  25              	.LFB63:
  26              		.file 1 "..\\..\\debug_Serial.c"
   1:..\../debug_Serial.c **** /*
   2:..\../debug_Serial.c **** 
   3:..\../debug_Serial.c **** */
   4:..\../debug_Serial.c **** #include "project.h"
   5:..\../debug_Serial.c **** #include <stdint.h>
   6:..\../debug_Serial.c **** #include <stdlib.h>
   7:..\../debug_Serial.c **** #include <stdio.h>
   8:..\../debug_Serial.c **** #include <debug_Serial.h>
   9:..\../debug_Serial.c **** #include <math.h>
  10:..\../debug_Serial.c **** 
  11:..\../debug_Serial.c **** char str[100];
  12:..\../debug_Serial.c **** /*
  13:..\../debug_Serial.c **** void serial_begin(){
  14:..\../debug_Serial.c ****     debugSerial_Start();    //initialize the UART
  15:..\../debug_Serial.c ****     /*
  16:..\../debug_Serial.c ****     Description for PSoC datasheet:
  17:..\../debug_Serial.c ****         This is the preferred method to begin component operation.
  18:..\../debug_Serial.c ****         UART_Start() sets the initVar variable, calls the UART_Init()
  19:..\../debug_Serial.c ****         function, and then calls the UART_Enable() function.
  20:..\../debug_Serial.c ****     */
  21:..\../debug_Serial.c **** //}
  22:..\../debug_Serial.c **** 
  23:..\../debug_Serial.c **** void serial_print(char *string)
  24:..\../debug_Serial.c **** {
  27              		.loc 1 24 0
  28              		.cfi_startproc
  29              		@ args = 0, pretend = 0, frame = 0
  30              		@ frame_needed = 0, uses_anonymous_args = 0
  31              	.LVL0:
  32 0000 08B5     		push	{r3, lr}
  33              		.cfi_def_cfa_offset 8
ARM GAS  C:\Users\a85495\AppData\Local\Temp\ccTUFg8U.s 			page 2


  34              		.cfi_offset 3, -8
  35              		.cfi_offset 14, -4
  25:..\../debug_Serial.c ****     debugSerial_PutString(string);
  36              		.loc 1 25 0
  37 0002 FFF7FEFF 		bl	debugSerial_PutString
  38              	.LVL1:
  39 0006 08BD     		pop	{r3, pc}
  40              		.cfi_endproc
  41              	.LFE63:
  42              		.size	serial_print, .-serial_print
  43              		.section	.text.serial_println,"ax",%progbits
  44              		.align	2
  45              		.global	serial_println
  46              		.thumb
  47              		.thumb_func
  48              		.type	serial_println, %function
  49              	serial_println:
  50              	.LFB64:
  26:..\../debug_Serial.c **** }
  27:..\../debug_Serial.c **** 
  28:..\../debug_Serial.c **** void serial_println(char *string)
  29:..\../debug_Serial.c **** {
  51              		.loc 1 29 0
  52              		.cfi_startproc
  53              		@ args = 0, pretend = 0, frame = 0
  54              		@ frame_needed = 0, uses_anonymous_args = 0
  55              	.LVL2:
  56 0000 08B5     		push	{r3, lr}
  57              		.cfi_def_cfa_offset 8
  58              		.cfi_offset 3, -8
  59              		.cfi_offset 14, -4
  30:..\../debug_Serial.c ****     debugSerial_PutString(string);
  60              		.loc 1 30 0
  61 0002 FFF7FEFF 		bl	debugSerial_PutString
  62              	.LVL3:
  31:..\../debug_Serial.c ****     debugSerial_PutCRLF(' ');
  63              		.loc 1 31 0
  64 0006 2020     		movs	r0, #32
  65 0008 FFF7FEFF 		bl	debugSerial_PutCRLF
  66              	.LVL4:
  67 000c 08BD     		pop	{r3, pc}
  68              		.cfi_endproc
  69              	.LFE64:
  70              		.size	serial_println, .-serial_println
  71 000e 00BF     		.section	.text.serial_printDouble,"ax",%progbits
  72              		.align	2
  73              		.global	serial_printDouble
  74              		.thumb
  75              		.thumb_func
  76              		.type	serial_printDouble, %function
  77              	serial_printDouble:
  78              	.LFB65:
  32:..\../debug_Serial.c **** }
  33:..\../debug_Serial.c **** 
  34:..\../debug_Serial.c **** void serial_printDouble(double num){
  79              		.loc 1 34 0
  80              		.cfi_startproc
ARM GAS  C:\Users\a85495\AppData\Local\Temp\ccTUFg8U.s 			page 3


  81              		@ args = 0, pretend = 0, frame = 24
  82              		@ frame_needed = 0, uses_anonymous_args = 0
  83              	.LVL5:
  84 0000 00B5     		push	{lr}
  85              		.cfi_def_cfa_offset 4
  86              		.cfi_offset 14, -4
  87 0002 87B0     		sub	sp, sp, #28
  88              		.cfi_def_cfa_offset 32
  89 0004 0246     		mov	r2, r0
  90 0006 0B46     		mov	r3, r1
  35:..\../debug_Serial.c ****     char str[20];
  36:..\../debug_Serial.c **** 
  37:..\../debug_Serial.c ****     sprintf(str,"%f", num); 
  91              		.loc 1 37 0
  92 0008 01A8     		add	r0, sp, #4
  93              	.LVL6:
  94 000a 0449     		ldr	r1, .L7
  95 000c FFF7FEFF 		bl	sprintf
  96              	.LVL7:
  38:..\../debug_Serial.c ****     serial_print(str);
  97              		.loc 1 38 0
  98 0010 01A8     		add	r0, sp, #4
  99 0012 FFF7FEFF 		bl	serial_print
 100              	.LVL8:
  39:..\../debug_Serial.c **** }
 101              		.loc 1 39 0
 102 0016 07B0     		add	sp, sp, #28
 103              		.cfi_def_cfa_offset 4
 104              		@ sp needed
 105 0018 5DF804FB 		ldr	pc, [sp], #4
 106              	.L8:
 107              		.align	2
 108              	.L7:
 109 001c 00000000 		.word	.LC0
 110              		.cfi_endproc
 111              	.LFE65:
 112              		.size	serial_printDouble, .-serial_printDouble
 113              		.section	.text.serial_printDoubleln,"ax",%progbits
 114              		.align	2
 115              		.global	serial_printDoubleln
 116              		.thumb
 117              		.thumb_func
 118              		.type	serial_printDoubleln, %function
 119              	serial_printDoubleln:
 120              	.LFB66:
  40:..\../debug_Serial.c **** 
  41:..\../debug_Serial.c **** void serial_printDoubleln(double num){
 121              		.loc 1 41 0
 122              		.cfi_startproc
 123              		@ args = 0, pretend = 0, frame = 24
 124              		@ frame_needed = 0, uses_anonymous_args = 0
 125              	.LVL9:
 126 0000 00B5     		push	{lr}
 127              		.cfi_def_cfa_offset 4
 128              		.cfi_offset 14, -4
 129 0002 87B0     		sub	sp, sp, #28
 130              		.cfi_def_cfa_offset 32
ARM GAS  C:\Users\a85495\AppData\Local\Temp\ccTUFg8U.s 			page 4


 131 0004 0246     		mov	r2, r0
 132 0006 0B46     		mov	r3, r1
  42:..\../debug_Serial.c ****     char str[20];
  43:..\../debug_Serial.c **** 
  44:..\../debug_Serial.c ****     sprintf(str,"%f", num); 
 133              		.loc 1 44 0
 134 0008 01A8     		add	r0, sp, #4
 135              	.LVL10:
 136 000a 0449     		ldr	r1, .L11
 137 000c FFF7FEFF 		bl	sprintf
 138              	.LVL11:
  45:..\../debug_Serial.c ****     serial_println(str);
 139              		.loc 1 45 0
 140 0010 01A8     		add	r0, sp, #4
 141 0012 FFF7FEFF 		bl	serial_println
 142              	.LVL12:
  46:..\../debug_Serial.c **** }
 143              		.loc 1 46 0
 144 0016 07B0     		add	sp, sp, #28
 145              		.cfi_def_cfa_offset 4
 146              		@ sp needed
 147 0018 5DF804FB 		ldr	pc, [sp], #4
 148              	.L12:
 149              		.align	2
 150              	.L11:
 151 001c 00000000 		.word	.LC0
 152              		.cfi_endproc
 153              	.LFE66:
 154              		.size	serial_printDoubleln, .-serial_printDoubleln
 155              		.global	__aeabi_f2d
 156              		.section	.text.serial_printFloat,"ax",%progbits
 157              		.align	2
 158              		.global	serial_printFloat
 159              		.thumb
 160              		.thumb_func
 161              		.type	serial_printFloat, %function
 162              	serial_printFloat:
 163              	.LFB67:
  47:..\../debug_Serial.c **** 
  48:..\../debug_Serial.c **** void serial_printFloat(float num){
 164              		.loc 1 48 0
 165              		.cfi_startproc
 166              		@ args = 0, pretend = 0, frame = 24
 167              		@ frame_needed = 0, uses_anonymous_args = 0
 168              	.LVL13:
 169 0000 00B5     		push	{lr}
 170              		.cfi_def_cfa_offset 4
 171              		.cfi_offset 14, -4
 172 0002 87B0     		sub	sp, sp, #28
 173              		.cfi_def_cfa_offset 32
  49:..\../debug_Serial.c ****     char str[20];
  50:..\../debug_Serial.c **** 
  51:..\../debug_Serial.c ****     sprintf(str,"%f", num); 
 174              		.loc 1 51 0
 175 0004 FFF7FEFF 		bl	__aeabi_f2d
 176              	.LVL14:
 177 0008 0246     		mov	r2, r0
ARM GAS  C:\Users\a85495\AppData\Local\Temp\ccTUFg8U.s 			page 5


 178 000a 0B46     		mov	r3, r1
 179 000c 01A8     		add	r0, sp, #4
 180 000e 0449     		ldr	r1, .L15
 181 0010 FFF7FEFF 		bl	sprintf
 182              	.LVL15:
  52:..\../debug_Serial.c ****     serial_print(str);
 183              		.loc 1 52 0
 184 0014 01A8     		add	r0, sp, #4
 185 0016 FFF7FEFF 		bl	serial_print
 186              	.LVL16:
  53:..\../debug_Serial.c **** }
 187              		.loc 1 53 0
 188 001a 07B0     		add	sp, sp, #28
 189              		.cfi_def_cfa_offset 4
 190              		@ sp needed
 191 001c 5DF804FB 		ldr	pc, [sp], #4
 192              	.L16:
 193              		.align	2
 194              	.L15:
 195 0020 00000000 		.word	.LC0
 196              		.cfi_endproc
 197              	.LFE67:
 198              		.size	serial_printFloat, .-serial_printFloat
 199              		.section	.text.serial_printFloatln,"ax",%progbits
 200              		.align	2
 201              		.global	serial_printFloatln
 202              		.thumb
 203              		.thumb_func
 204              		.type	serial_printFloatln, %function
 205              	serial_printFloatln:
 206              	.LFB68:
  54:..\../debug_Serial.c **** 
  55:..\../debug_Serial.c **** void serial_printFloatln(float num){
 207              		.loc 1 55 0
 208              		.cfi_startproc
 209              		@ args = 0, pretend = 0, frame = 24
 210              		@ frame_needed = 0, uses_anonymous_args = 0
 211              	.LVL17:
 212 0000 00B5     		push	{lr}
 213              		.cfi_def_cfa_offset 4
 214              		.cfi_offset 14, -4
 215 0002 87B0     		sub	sp, sp, #28
 216              		.cfi_def_cfa_offset 32
  56:..\../debug_Serial.c ****     char str[20];
  57:..\../debug_Serial.c **** 
  58:..\../debug_Serial.c ****     sprintf(str,"%f", num); 
 217              		.loc 1 58 0
 218 0004 FFF7FEFF 		bl	__aeabi_f2d
 219              	.LVL18:
 220 0008 0246     		mov	r2, r0
 221 000a 0B46     		mov	r3, r1
 222 000c 01A8     		add	r0, sp, #4
 223 000e 0449     		ldr	r1, .L19
 224 0010 FFF7FEFF 		bl	sprintf
 225              	.LVL19:
  59:..\../debug_Serial.c ****     serial_println(str);
 226              		.loc 1 59 0
ARM GAS  C:\Users\a85495\AppData\Local\Temp\ccTUFg8U.s 			page 6


 227 0014 01A8     		add	r0, sp, #4
 228 0016 FFF7FEFF 		bl	serial_println
 229              	.LVL20:
  60:..\../debug_Serial.c **** }
 230              		.loc 1 60 0
 231 001a 07B0     		add	sp, sp, #28
 232              		.cfi_def_cfa_offset 4
 233              		@ sp needed
 234 001c 5DF804FB 		ldr	pc, [sp], #4
 235              	.L20:
 236              		.align	2
 237              	.L19:
 238 0020 00000000 		.word	.LC0
 239              		.cfi_endproc
 240              	.LFE68:
 241              		.size	serial_printFloatln, .-serial_printFloatln
 242              		.section	.text.serial_printInt,"ax",%progbits
 243              		.align	2
 244              		.global	serial_printInt
 245              		.thumb
 246              		.thumb_func
 247              		.type	serial_printInt, %function
 248              	serial_printInt:
 249              	.LFB69:
  61:..\../debug_Serial.c **** 
  62:..\../debug_Serial.c **** void serial_printInt(int num){
 250              		.loc 1 62 0
 251              		.cfi_startproc
 252              		@ args = 0, pretend = 0, frame = 24
 253              		@ frame_needed = 0, uses_anonymous_args = 0
 254              	.LVL21:
 255 0000 00B5     		push	{lr}
 256              		.cfi_def_cfa_offset 4
 257              		.cfi_offset 14, -4
 258 0002 87B0     		sub	sp, sp, #28
 259              		.cfi_def_cfa_offset 32
  63:..\../debug_Serial.c ****     char buffer[20];
  64:..\../debug_Serial.c ****     serial_print(itoa((num),buffer,10));
 260              		.loc 1 64 0
 261 0004 01A9     		add	r1, sp, #4
 262 0006 0A22     		movs	r2, #10
 263 0008 FFF7FEFF 		bl	itoa
 264              	.LVL22:
 265 000c FFF7FEFF 		bl	serial_print
 266              	.LVL23:
  65:..\../debug_Serial.c **** }
 267              		.loc 1 65 0
 268 0010 07B0     		add	sp, sp, #28
 269              		.cfi_def_cfa_offset 4
 270              		@ sp needed
 271 0012 5DF804FB 		ldr	pc, [sp], #4
 272              		.cfi_endproc
 273              	.LFE69:
 274              		.size	serial_printInt, .-serial_printInt
 275 0016 00BF     		.section	.text.serial_printIntln,"ax",%progbits
 276              		.align	2
 277              		.global	serial_printIntln
ARM GAS  C:\Users\a85495\AppData\Local\Temp\ccTUFg8U.s 			page 7


 278              		.thumb
 279              		.thumb_func
 280              		.type	serial_printIntln, %function
 281              	serial_printIntln:
 282              	.LFB70:
  66:..\../debug_Serial.c **** 
  67:..\../debug_Serial.c **** void serial_printIntln(int num){
 283              		.loc 1 67 0
 284              		.cfi_startproc
 285              		@ args = 0, pretend = 0, frame = 24
 286              		@ frame_needed = 0, uses_anonymous_args = 0
 287              	.LVL24:
 288 0000 00B5     		push	{lr}
 289              		.cfi_def_cfa_offset 4
 290              		.cfi_offset 14, -4
 291 0002 87B0     		sub	sp, sp, #28
 292              		.cfi_def_cfa_offset 32
  68:..\../debug_Serial.c ****     char buffer[20];
  69:..\../debug_Serial.c ****     //The 10 means that the number will be represented in the decimal base
  70:..\../debug_Serial.c ****     //if we wanted it in binary we would've just specified it as 2
  71:..\../debug_Serial.c ****     //16 for hex and 8 for octal
  72:..\../debug_Serial.c ****     serial_println(itoa((num),buffer,10));
 293              		.loc 1 72 0
 294 0004 01A9     		add	r1, sp, #4
 295 0006 0A22     		movs	r2, #10
 296 0008 FFF7FEFF 		bl	itoa
 297              	.LVL25:
 298 000c FFF7FEFF 		bl	serial_println
 299              	.LVL26:
  73:..\../debug_Serial.c **** }
 300              		.loc 1 73 0
 301 0010 07B0     		add	sp, sp, #28
 302              		.cfi_def_cfa_offset 4
 303              		@ sp needed
 304 0012 5DF804FB 		ldr	pc, [sp], #4
 305              		.cfi_endproc
 306              	.LFE70:
 307              		.size	serial_printIntln, .-serial_printIntln
 308              		.comm	str,100,4
 309 0016 00BF     		.section	.rodata.str1.4,"aMS",%progbits,1
 310              		.align	2
 311              	.LC0:
 312 0000 256600   		.ascii	"%f\000"
 313 0003 00       		.text
 314              	.Letext0:
 315              		.file 2 "c:\\program files (x86)\\cypress\\psoc creator\\4.0\\psoc creator\\import\\gnu\\arm\\4.9.
 316              		.file 3 "c:\\program files (x86)\\cypress\\psoc creator\\4.0\\psoc creator\\import\\gnu\\arm\\4.9.
 317              		.file 4 "Generated_Source\\PSoC5/cytypes.h"
 318              		.file 5 "Generated_Source\\PSoC5/debugSerial.h"
 319              		.file 6 "c:\\program files (x86)\\cypress\\psoc creator\\4.0\\psoc creator\\import\\gnu\\arm\\4.9.
 320              		.file 7 "Generated_Source\\PSoC5/core_cm3.h"
 321              		.file 8 "c:\\program files (x86)\\cypress\\psoc creator\\4.0\\psoc creator\\import\\gnu\\arm\\4.9.