ARM GAS  C:\Users\a85495\AppData\Local\Temp\ccsMBxak.s 			page 1


   1              		.syntax unified
   2              		.cpu cortex-m3
   3              		.fpu softvfp
   4              		.eabi_attribute 20, 1
   5              		.eabi_attribute 21, 1
   6              		.eabi_attribute 23, 3
   7              		.eabi_attribute 24, 1
   8              		.eabi_attribute 25, 1
   9              		.eabi_attribute 26, 1
  10              		.eabi_attribute 30, 1
  11              		.eabi_attribute 34, 1
  12              		.eabi_attribute 18, 4
  13              		.thumb
  14              		.file	"millis.c"
  15              		.text
  16              	.Ltext0:
  17              		.cfi_sections	.debug_frame
  18              		.section	.text.timerISR,"ax",%progbits
  19              		.align	2
  20              		.global	timerISR
  21              		.thumb
  22              		.thumb_func
  23              		.type	timerISR, %function
  24              	timerISR:
  25              	.LFB63:
  26              		.file 1 "..\\..\\millis.c"
   1:..\../millis.c **** #include "project.h"
   2:..\../millis.c **** #include "stdlib.h"
   3:..\../millis.c **** #include "math.h"
   4:..\../millis.c **** #include "millis.h"
   5:..\../millis.c **** #include <stdint.h>
   6:..\../millis.c **** 
   7:..\../millis.c **** static volatile uint32_t mscount = 0;
   8:..\../millis.c **** 
   9:..\../millis.c **** /* Declares the interrupt service routine. Every time 1 ms elapsed the mscount will count up 1
  10:..\../millis.c ****  * there are 8.64x10^7 = 86,400,000 milliseconds in a day
  11:..\../millis.c ****  * the mscount variable is 32 bit which means that it can represent 0 - 4,294,967,295 numbers
  12:..\../millis.c ****  * Which means that the counter will overflow and wrap around every 49.71 days which is way longer
  13:..\../millis.c ****  * than our purpose which means that we don't have to take care of the things that could be caused 
  14:..\../millis.c **** */
  15:..\../millis.c **** 
  16:..\../millis.c **** CY_ISR(timerISR){
  27              		.loc 1 16 0
  28              		.cfi_startproc
  29              		@ args = 0, pretend = 0, frame = 0
  30              		@ frame_needed = 0, uses_anonymous_args = 0
  31              		@ link register save eliminated.
  17:..\../millis.c ****     mscount++;    
  32              		.loc 1 17 0
  33 0000 034A     		ldr	r2, .L2
  34 0002 1368     		ldr	r3, [r2]
  35 0004 0133     		adds	r3, r3, #1
  36 0006 1360     		str	r3, [r2]
  18:..\../millis.c ****     deltaTimer_STATUS;
  37              		.loc 1 18 0
  38 0008 024B     		ldr	r3, .L2+4
  39 000a 1B78     		ldrb	r3, [r3]	@ zero_extendqisi2
ARM GAS  C:\Users\a85495\AppData\Local\Temp\ccsMBxak.s 			page 2


  40 000c 7047     		bx	lr
  41              	.L3:
  42 000e 00BF     		.align	2
  43              	.L2:
  44 0010 00000000 		.word	.LANCHOR0
  45 0014 65640040 		.word	1073767525
  46              		.cfi_endproc
  47              	.LFE63:
  48              		.size	timerISR, .-timerISR
  49              		.section	.text.millis_init,"ax",%progbits
  50              		.align	2
  51              		.global	millis_init
  52              		.thumb
  53              		.thumb_func
  54              		.type	millis_init, %function
  55              	millis_init:
  56              	.LFB64:
  19:..\../millis.c **** }
  20:..\../millis.c **** 
  21:..\../millis.c **** void millis_init(){
  57              		.loc 1 21 0
  58              		.cfi_startproc
  59              		@ args = 0, pretend = 0, frame = 0
  60              		@ frame_needed = 0, uses_anonymous_args = 0
  61 0000 08B5     		push	{r3, lr}
  62              		.cfi_def_cfa_offset 8
  63              		.cfi_offset 3, -8
  64              		.cfi_offset 14, -4
  22:..\../millis.c ****     deltaTimer_Start(); //configure and enable the timer
  65              		.loc 1 22 0
  66 0002 FFF7FEFF 		bl	deltaTimer_Start
  67              	.LVL0:
  23:..\../millis.c ****     deltTime_StartEx(timerISR);
  68              		.loc 1 23 0
  69 0006 0248     		ldr	r0, .L6
  70 0008 FFF7FEFF 		bl	deltTime_StartEx
  71              	.LVL1:
  72 000c 08BD     		pop	{r3, pc}
  73              	.L7:
  74 000e 00BF     		.align	2
  75              	.L6:
  76 0010 00000000 		.word	timerISR
  77              		.cfi_endproc
  78              	.LFE64:
  79              		.size	millis_init, .-millis_init
  80              		.section	.text.millis,"ax",%progbits
  81              		.align	2
  82              		.global	millis
  83              		.thumb
  84              		.thumb_func
  85              		.type	millis, %function
  86              	millis:
  87              	.LFB65:
  24:..\../millis.c **** }
  25:..\../millis.c **** 
  26:..\../millis.c **** uint32_t millis(){
  88              		.loc 1 26 0
ARM GAS  C:\Users\a85495\AppData\Local\Temp\ccsMBxak.s 			page 3


  89              		.cfi_startproc
  90              		@ args = 0, pretend = 0, frame = 0
  91              		@ frame_needed = 0, uses_anonymous_args = 0
  92              		@ link register save eliminated.
  27:..\../millis.c ****     return mscount;
  93              		.loc 1 27 0
  94 0000 014B     		ldr	r3, .L9
  95 0002 1868     		ldr	r0, [r3]
  28:..\../millis.c **** }
  96              		.loc 1 28 0
  97 0004 7047     		bx	lr
  98              	.L10:
  99 0006 00BF     		.align	2
 100              	.L9:
 101 0008 00000000 		.word	.LANCHOR0
 102              		.cfi_endproc
 103              	.LFE65:
 104              		.size	millis, .-millis
 105              		.bss
 106              		.align	2
 107              		.set	.LANCHOR0,. + 0
 108              		.type	mscount, %object
 109              		.size	mscount, 4
 110              	mscount:
 111 0000 00000000 		.space	4
 112              		.text
 113              	.Letext0:
 114              		.file 2 "c:\\program files (x86)\\cypress\\psoc creator\\4.0\\psoc creator\\import\\gnu\\arm\\4.9.
 115              		.file 3 "c:\\program files (x86)\\cypress\\psoc creator\\4.0\\psoc creator\\import\\gnu\\arm\\4.9.
 116              		.file 4 "Generated_Source\\PSoC5/cytypes.h"
 117              		.file 5 "Generated_Source\\PSoC5/core_cm3.h"
 118              		.file 6 "Generated_Source\\PSoC5/deltaTimer.h"
 119              		.file 7 "Generated_Source\\PSoC5/deltTime.h"