ARM GAS  C:\Users\a85495\AppData\Local\Temp\ccN645Gy.s 			page 1


   1              		.syntax unified
   2              		.cpu cortex-m3
   3              		.fpu softvfp
   4              		.eabi_attribute 20, 1
   5              		.eabi_attribute 21, 1
   6              		.eabi_attribute 23, 3
   7              		.eabi_attribute 24, 1
   8              		.eabi_attribute 25, 1
   9              		.eabi_attribute 26, 1
  10              		.eabi_attribute 30, 1
  11              		.eabi_attribute 34, 1
  12              		.eabi_attribute 18, 4
  13              		.thumb
  14              		.file	"barometer.c"
  15              		.text
  16              	.Ltext0:
  17              		.cfi_sections	.debug_frame
  18              		.section	.text.sendCommand,"ax",%progbits
  19              		.align	2
  20              		.global	sendCommand
  21              		.thumb
  22              		.thumb_func
  23              		.type	sendCommand, %function
  24              	sendCommand:
  25              	.LFB63:
  26              		.file 1 "..\\barometer.c"
   1:..\barometer.c **** 
   2:..\barometer.c **** #include <barometer.h>
   3:..\barometer.c **** #include <twi.h>
   4:..\barometer.c **** #include <stdlib.h>
   5:..\barometer.c **** #include "project.h"
   6:..\barometer.c **** 
   7:..\barometer.c **** //static variables/functions
   8:..\barometer.c **** static void reset();
   9:..\barometer.c **** 
  10:..\barometer.c **** static int32_t  _Pres;
  11:..\barometer.c **** static int32_t  _T;
  12:..\barometer.c **** static int32_t  _dT;
  13:..\barometer.c **** static uint16_t _Co[N_PROM_PARAMS];
  14:..\barometer.c **** static uint32_t _lastTime;
  15:..\barometer.c **** 
  16:..\barometer.c **** //Things we need to know
  17:..\barometer.c **** #define OSR 2 // 0-3
  18:..\barometer.c **** #define CMD_RESET 0x1E
  19:..\barometer.c **** #define CMD_ADC_READ 0x00
  20:..\barometer.c **** #define CMD_CONV_D1_BASE 0x40
  21:..\barometer.c **** #define CMD_CONV_D2_BASE 0x50
  22:..\barometer.c **** #define CONV_REG_SIZE 0x02
  23:..\barometer.c **** #define CMD_PROM_READ_BASE 0xA2
  24:..\barometer.c **** #define PROM_REG_SIZE 0x02
  25:..\barometer.c **** #define NBYTES_CONV 3
  26:..\barometer.c **** #define NBYTES_PROM 2
  27:..\barometer.c **** 
  28:..\barometer.c **** // Temperature sampling period threshold [milliseconds]
  29:..\barometer.c **** // Kindly read the comment bellow in getPressure() method
  30:..\barometer.c **** #define T_THR 1000
  31:..\barometer.c **** /*
ARM GAS  C:\Users\a85495\AppData\Local\Temp\ccN645Gy.s 			page 2


  32:..\barometer.c **** TODO:
  33:..\barometer.c **** 1) Separate OSR for temperature and pressure
  34:..\barometer.c **** 2) Timedelay empirical formula for temperature oversampling
  35:..\barometer.c **** 3) Precidion pressure calibration for high temperature
  36:..\barometer.c **** 4) Default and optional OSR
  37:..\barometer.c **** 5) Documentation
  38:..\barometer.c **** */
  39:..\barometer.c **** 
  40:..\barometer.c **** void sendCommand(uint8_t cmd)
  41:..\barometer.c **** {
  27              		.loc 1 41 0
  28              		.cfi_startproc
  29              		@ args = 0, pretend = 0, frame = 8
  30              		@ frame_needed = 0, uses_anonymous_args = 0
  31              	.LVL0:
  32 0000 00B5     		push	{lr}
  33              		.cfi_def_cfa_offset 4
  34              		.cfi_offset 14, -4
  35 0002 83B0     		sub	sp, sp, #12
  36              		.cfi_def_cfa_offset 16
  42:..\barometer.c ****     /*
  43:..\barometer.c **** 	Wire.beginTransmission(ADD_MS5611);
  44:..\barometer.c **** 	Wire.write(cmd);
  45:..\barometer.c **** 	Wire.endTransmission();
  46:..\barometer.c **** */
  47:..\barometer.c **** 
  48:..\barometer.c ****     //to write, you want to write:  (1) The address you want to write to
  49:..\barometer.c ****     //                              (2) The cmd you wish to write to the register
  50:..\barometer.c **** 
  51:..\barometer.c ****     uint8_t Write_Buf[1] = {0};
  52:..\barometer.c ****     Write_Buf[0] = (uint8_t)cmd;
  37              		.loc 1 52 0
  38 0004 02A9     		add	r1, sp, #8
  39 0006 01F8040D 		strb	r0, [r1, #-4]!
  53:..\barometer.c **** 
  54:..\barometer.c ****     I2C_MasterWriteBuf(MS5611_ADDRESS, (uint8 *)Write_Buf, sizeof(Write_Buf), I2C_MODE_COMPLETE_XFE
  40              		.loc 1 54 0
  41 000a 7720     		movs	r0, #119
  42              	.LVL1:
  43 000c 0122     		movs	r2, #1
  44 000e 0023     		movs	r3, #0
  45 0010 FFF7FEFF 		bl	I2C_MasterWriteBuf
  46              	.LVL2:
  47              	.L2:
  55:..\barometer.c ****     while ((I2C_MasterStatus() & I2C_MSTAT_WR_CMPLT) == 0)
  48              		.loc 1 55 0 discriminator 1
  49 0014 FFF7FEFF 		bl	I2C_MasterStatus
  50              	.LVL3:
  51 0018 10F0020F 		tst	r0, #2
  52 001c FAD0     		beq	.L2
  56:..\barometer.c ****     {
  57:..\barometer.c ****     }
  58:..\barometer.c **** 
  59:..\barometer.c ****     return; //return 1 if everything was successful
  60:..\barometer.c **** }
  53              		.loc 1 60 0
  54 001e 03B0     		add	sp, sp, #12
ARM GAS  C:\Users\a85495\AppData\Local\Temp\ccN645Gy.s 			page 3


  55              		.cfi_def_cfa_offset 4
  56              		@ sp needed
  57 0020 5DF804FB 		ldr	pc, [sp], #4
  58              		.cfi_endproc
  59              	.LFE63:
  60              		.size	sendCommand, .-sendCommand
  61              		.section	.text.reset,"ax",%progbits
  62              		.align	2
  63              		.thumb
  64              		.thumb_func
  65              		.type	reset, %function
  66              	reset:
  67              	.LFB65:
  61:..\barometer.c **** 
  62:..\barometer.c **** uint32_t readnBytes(uint8_t nBytes)
  63:..\barometer.c **** {
  64:..\barometer.c ****     if ((0 < nBytes) & (nBytes < 5))
  65:..\barometer.c ****     {
  66:..\barometer.c ****         uint32_t data = 0;
  67:..\barometer.c ****         uint8_t Read_Buf[5] = {0}; //create an array that will store the data read
  68:..\barometer.c **** 
  69:..\barometer.c ****         I2C_MasterReadBuf(MS5611_ADDRESS, (uint8 *)Read_Buf, nBytes, I2C_MODE_COMPLETE_XFER);
  70:..\barometer.c ****         while ((I2C_MasterStatus() & I2C_MSTAT_RD_CMPLT) == 0)
  71:..\barometer.c ****         {
  72:..\barometer.c ****         } //wait till Master status indicates read is complete
  73:..\barometer.c ****         
  74:..\barometer.c ****         int8_t k;
  75:..\barometer.c ****         for ( k = (nBytes - 1); k>=0 ; k--){
  76:..\barometer.c **** 			data |= ( (uint32_t) Read_Buf[(nBytes-1)-k] << (8*k) ); 	// concantenate bytes
  77:..\barometer.c ****         }
  78:..\barometer.c ****         return data;   
  79:..\barometer.c ****     }
  80:..\barometer.c ****     return 0;
  81:..\barometer.c **** }
  82:..\barometer.c **** 
  83:..\barometer.c **** static void reset(){
  68              		.loc 1 83 0
  69              		.cfi_startproc
  70              		@ args = 0, pretend = 0, frame = 0
  71              		@ frame_needed = 0, uses_anonymous_args = 0
  72 0000 08B5     		push	{r3, lr}
  73              		.cfi_def_cfa_offset 8
  74              		.cfi_offset 3, -8
  75              		.cfi_offset 14, -4
  84:..\barometer.c ****     sendCommand(CMD_RESET);
  76              		.loc 1 84 0
  77 0002 1E20     		movs	r0, #30
  78 0004 FFF7FEFF 		bl	sendCommand
  79              	.LVL4:
  80 0008 08BD     		pop	{r3, pc}
  81              		.cfi_endproc
  82              	.LFE65:
  83              		.size	reset, .-reset
  84 000a 00BF     		.section	.text.readnBytes,"ax",%progbits
  85              		.align	2
  86              		.global	readnBytes
  87              		.thumb
ARM GAS  C:\Users\a85495\AppData\Local\Temp\ccN645Gy.s 			page 4


  88              		.thumb_func
  89              		.type	readnBytes, %function
  90              	readnBytes:
  91              	.LFB64:
  63:..\barometer.c ****     if ((0 < nBytes) & (nBytes < 5))
  92              		.loc 1 63 0
  93              		.cfi_startproc
  94              		@ args = 0, pretend = 0, frame = 8
  95              		@ frame_needed = 0, uses_anonymous_args = 0
  96              	.LVL5:
  97 0000 30B5     		push	{r4, r5, lr}
  98              		.cfi_def_cfa_offset 12
  99              		.cfi_offset 4, -12
 100              		.cfi_offset 5, -8
 101              		.cfi_offset 14, -4
 102 0002 83B0     		sub	sp, sp, #12
 103              		.cfi_def_cfa_offset 24
  64:..\barometer.c ****     {
 104              		.loc 1 64 0
 105 0004 421E     		subs	r2, r0, #1
 106 0006 D4B2     		uxtb	r4, r2
 107 0008 032C     		cmp	r4, #3
 108 000a 21D8     		bhi	.L11
 109 000c 0546     		mov	r5, r0
 110              	.LVL6:
 111              	.LBB2:
  67:..\barometer.c **** 
 112              		.loc 1 67 0
 113 000e 0023     		movs	r3, #0
 114 0010 0093     		str	r3, [sp]
 115 0012 8DF80430 		strb	r3, [sp, #4]
  69:..\barometer.c ****         while ((I2C_MasterStatus() & I2C_MSTAT_RD_CMPLT) == 0)
 116              		.loc 1 69 0
 117 0016 7720     		movs	r0, #119
 118              	.LVL7:
 119 0018 6946     		mov	r1, sp
 120 001a 2A46     		mov	r2, r5
 121 001c FFF7FEFF 		bl	I2C_MasterReadBuf
 122              	.LVL8:
 123              	.L8:
  70:..\barometer.c ****         {
 124              		.loc 1 70 0 discriminator 1
 125 0020 FFF7FEFF 		bl	I2C_MasterStatus
 126              	.LVL9:
 127 0024 10F0010F 		tst	r0, #1
 128 0028 FAD0     		beq	.L8
  75:..\barometer.c **** 			data |= ( (uint32_t) Read_Buf[(nBytes-1)-k] << (8*k) ); 	// concantenate bytes
 129              		.loc 1 75 0
 130 002a E2B2     		uxtb	r2, r4
 131              	.LVL10:
  66:..\barometer.c ****         uint8_t Read_Buf[5] = {0}; //create an array that will store the data read
 132              		.loc 1 66 0
 133 002c 0020     		movs	r0, #0
  75:..\barometer.c **** 			data |= ( (uint32_t) Read_Buf[(nBytes-1)-k] << (8*k) ); 	// concantenate bytes
 134              		.loc 1 75 0
 135 002e 0BE0     		b	.L9
 136              	.LVL11:
ARM GAS  C:\Users\a85495\AppData\Local\Temp\ccN645Gy.s 			page 5


 137              	.L10:
  76:..\barometer.c ****         }
 138              		.loc 1 76 0 discriminator 3
 139 0030 6B1E     		subs	r3, r5, #1
 140 0032 51B2     		sxtb	r1, r2
 141 0034 5B1A     		subs	r3, r3, r1
 142 0036 02AC     		add	r4, sp, #8
 143 0038 2344     		add	r3, r3, r4
 144 003a 13F8083C 		ldrb	r3, [r3, #-8]	@ zero_extendqisi2
 145 003e C900     		lsls	r1, r1, #3
 146 0040 8B40     		lsls	r3, r3, r1
 147 0042 1843     		orrs	r0, r0, r3
 148              	.LVL12:
  75:..\barometer.c **** 			data |= ( (uint32_t) Read_Buf[(nBytes-1)-k] << (8*k) ); 	// concantenate bytes
 149              		.loc 1 75 0 discriminator 3
 150 0044 013A     		subs	r2, r2, #1
 151              	.LVL13:
 152 0046 D2B2     		uxtb	r2, r2
 153              	.LVL14:
 154              	.L9:
  75:..\barometer.c **** 			data |= ( (uint32_t) Read_Buf[(nBytes-1)-k] << (8*k) ); 	// concantenate bytes
 155              		.loc 1 75 0 is_stmt 0 discriminator 1
 156 0048 12F0800F 		tst	r2, #128
 157 004c F0D0     		beq	.L10
 158 004e 00E0     		b	.L7
 159              	.LVL15:
 160              	.L11:
 161              	.LBE2:
  80:..\barometer.c **** }
 162              		.loc 1 80 0 is_stmt 1
 163 0050 0020     		movs	r0, #0
 164              	.LVL16:
 165              	.L7:
  81:..\barometer.c **** 
 166              		.loc 1 81 0 discriminator 1
 167 0052 03B0     		add	sp, sp, #12
 168              		.cfi_def_cfa_offset 12
 169              		@ sp needed
 170 0054 30BD     		pop	{r4, r5, pc}
 171              		.cfi_endproc
 172              	.LFE64:
 173              		.size	readnBytes, .-readnBytes
 174 0056 00BF     		.section	.text.baro_getRawTemperature,"ax",%progbits
 175              		.align	2
 176              		.global	baro_getRawTemperature
 177              		.thumb
 178              		.thumb_func
 179              		.type	baro_getRawTemperature, %function
 180              	baro_getRawTemperature:
 181              	.LFB67:
  85:..\barometer.c **** }
  86:..\barometer.c **** 
  87:..\barometer.c **** void baro_begin()
  88:..\barometer.c **** {
  89:..\barometer.c ****     _T = 0;
  90:..\barometer.c ****     _Pres = 0;
  91:..\barometer.c ****     _lastTime = T_THR;
ARM GAS  C:\Users\a85495\AppData\Local\Temp\ccN645Gy.s 			page 6


  92:..\barometer.c ****     uint8_t k;
  93:..\barometer.c ****     for (k = 0; k < N_PROM_PARAMS; k++)
  94:..\barometer.c ****     {
  95:..\barometer.c ****         _Co[k] = 69;
  96:..\barometer.c ****     }
  97:..\barometer.c **** 
  98:..\barometer.c ****     Wire_begin();
  99:..\barometer.c ****     reset();
 100:..\barometer.c ****     CyDelay(100);
 101:..\barometer.c ****     baro_readCalibration();
 102:..\barometer.c **** }
 103:..\barometer.c **** 
 104:..\barometer.c **** uint32_t baro_getRawTemperature()
 105:..\barometer.c **** {
 182              		.loc 1 105 0
 183              		.cfi_startproc
 184              		@ args = 0, pretend = 0, frame = 0
 185              		@ frame_needed = 0, uses_anonymous_args = 0
 186 0000 08B5     		push	{r3, lr}
 187              		.cfi_def_cfa_offset 8
 188              		.cfi_offset 3, -8
 189              		.cfi_offset 14, -4
 106:..\barometer.c ****     sendCommand(CMD_CONV_D2_BASE + OSR * CONV_REG_SIZE); //read sensor, prepare a data
 190              		.loc 1 106 0
 191 0002 5420     		movs	r0, #84
 192 0004 FFF7FEFF 		bl	sendCommand
 193              	.LVL17:
 107:..\barometer.c ****     CyDelay(1 + 2 * OSR);                                  //wait at least 8.33us
 194              		.loc 1 107 0
 195 0008 0520     		movs	r0, #5
 196 000a FFF7FEFF 		bl	CyDelay
 197              	.LVL18:
 108:..\barometer.c ****     sendCommand(CMD_ADC_READ);                           //get ready for reading the data
 198              		.loc 1 108 0
 199 000e 0020     		movs	r0, #0
 200 0010 FFF7FEFF 		bl	sendCommand
 201              	.LVL19:
 109:..\barometer.c ****     return readnBytes(NBYTES_CONV);                      //reading the data
 202              		.loc 1 109 0
 203 0014 0320     		movs	r0, #3
 204 0016 FFF7FEFF 		bl	readnBytes
 205              	.LVL20:
 110:..\barometer.c **** }
 206              		.loc 1 110 0
 207 001a 08BD     		pop	{r3, pc}
 208              		.cfi_endproc
 209              	.LFE67:
 210              		.size	baro_getRawTemperature, .-baro_getRawTemperature
 211              		.section	.text.baro_getTemperature,"ax",%progbits
 212              		.align	2
 213              		.global	baro_getTemperature
 214              		.thumb
 215              		.thumb_func
 216              		.type	baro_getTemperature, %function
 217              	baro_getTemperature:
 218              	.LFB68:
 111:..\barometer.c **** 
ARM GAS  C:\Users\a85495\AppData\Local\Temp\ccN645Gy.s 			page 7


 112:..\barometer.c **** int32_t baro_getTemperature()
 113:..\barometer.c **** {
 219              		.loc 1 113 0
 220              		.cfi_startproc
 221              		@ args = 0, pretend = 0, frame = 0
 222              		@ frame_needed = 0, uses_anonymous_args = 0
 223 0000 38B5     		push	{r3, r4, r5, lr}
 224              		.cfi_def_cfa_offset 16
 225              		.cfi_offset 3, -16
 226              		.cfi_offset 4, -12
 227              		.cfi_offset 5, -8
 228              		.cfi_offset 14, -4
 114:..\barometer.c ****     // Code below can be uncommented for slight speedup:
 115:..\barometer.c ****     // NOTE: Be sure what you do! Notice that Delta 1C ~= Delta 2hPa
 116:..\barometer.c ****     //****************
 117:..\barometer.c ****     // if(abs(millis()-_lastTime)<T_THR)
 118:..\barometer.c ****     // 	return _T;
 119:..\barometer.c ****     //_lastTime = millis();
 120:..\barometer.c ****     //****************
 121:..\barometer.c ****     uint32_t D2;
 122:..\barometer.c ****     D2 = baro_getRawTemperature();
 229              		.loc 1 122 0
 230 0002 FFF7FEFF 		bl	baro_getRawTemperature
 231              	.LVL21:
 123:..\barometer.c ****     _dT = D2 - ((uint32_t)_Co[5 - 1] * 256); //update '_dT'
 232              		.loc 1 123 0
 233 0006 0E4A     		ldr	r2, .L18
 234 0008 1389     		ldrh	r3, [r2, #8]
 235 000a A0EB0320 		sub	r0, r0, r3, lsl #8
 236              	.LVL22:
 237 000e D060     		str	r0, [r2, #12]
 124:..\barometer.c ****     // Below, 'dT' and '_C[6-1]'' must be casted in order to prevent overflow
 125:..\barometer.c ****     // A bitwise division can not be dobe since it is unpredictible for signed integers
 126:..\barometer.c ****     _T = 2000 + ((int64_t)_dT * _Co[6 - 1]) / 8388608;
 238              		.loc 1 126 0
 239 0010 C517     		asrs	r5, r0, #31
 240 0012 5289     		ldrh	r2, [r2, #10]
 241 0014 A0FB0201 		umull	r0, r1, r0, r2
 242 0018 02FB0511 		mla	r1, r2, r5, r1
 243 001c 0246     		mov	r2, r0
 244 001e 0B46     		mov	r3, r1
 245 0020 0028     		cmp	r0, #0
 246 0022 71F10004 		sbcs	r4, r1, #0
 247 0026 03DA     		bge	.L16
 248 0028 064A     		ldr	r2, .L18+4
 249 002a 0023     		movs	r3, #0
 250 002c 1218     		adds	r2, r2, r0
 251 002e 4B41     		adcs	r3, r3, r1
 252              	.L16:
 253 0030 D00D     		lsrs	r0, r2, #23
 254 0032 40EA4320 		orr	r0, r0, r3, lsl #9
 255 0036 00F5FA60 		add	r0, r0, #2000
 256 003a 014B     		ldr	r3, .L18
 257 003c 1861     		str	r0, [r3, #16]
 127:..\barometer.c ****     return _T;
 128:..\barometer.c **** }
 258              		.loc 1 128 0
ARM GAS  C:\Users\a85495\AppData\Local\Temp\ccN645Gy.s 			page 8


 259 003e 38BD     		pop	{r3, r4, r5, pc}
 260              	.L19:
 261              		.align	2
 262              	.L18:
 263 0040 00000000 		.word	.LANCHOR0
 264 0044 FFFF7F00 		.word	8388607
 265              		.cfi_endproc
 266              	.LFE68:
 267              		.size	baro_getTemperature, .-baro_getTemperature
 268              		.section	.text.baro_getRawPressure,"ax",%progbits
 269              		.align	2
 270              		.global	baro_getRawPressure
 271              		.thumb
 272              		.thumb_func
 273              		.type	baro_getRawPressure, %function
 274              	baro_getRawPressure:
 275              	.LFB69:
 129:..\barometer.c **** 
 130:..\barometer.c **** uint32_t baro_getRawPressure() 
 131:..\barometer.c **** {
 276              		.loc 1 131 0
 277              		.cfi_startproc
 278              		@ args = 0, pretend = 0, frame = 0
 279              		@ frame_needed = 0, uses_anonymous_args = 0
 280 0000 08B5     		push	{r3, lr}
 281              		.cfi_def_cfa_offset 8
 282              		.cfi_offset 3, -8
 283              		.cfi_offset 14, -4
 132:..\barometer.c ****     sendCommand(CMD_CONV_D1_BASE+OSR*CONV_REG_SIZE);	//read sensor, prepare a data
 284              		.loc 1 132 0
 285 0002 4420     		movs	r0, #68
 286 0004 FFF7FEFF 		bl	sendCommand
 287              	.LVL23:
 133:..\barometer.c **** 	CyDelay(1+2*OSR); 									//wait at least 8.33us for full oversampling
 288              		.loc 1 133 0
 289 0008 0520     		movs	r0, #5
 290 000a FFF7FEFF 		bl	CyDelay
 291              	.LVL24:
 134:..\barometer.c **** 	sendCommand(CMD_ADC_READ); 							//get ready for reading the data
 292              		.loc 1 134 0
 293 000e 0020     		movs	r0, #0
 294 0010 FFF7FEFF 		bl	sendCommand
 295              	.LVL25:
 135:..\barometer.c **** 	return readnBytes(NBYTES_CONV);						//reading the data
 296              		.loc 1 135 0
 297 0014 0320     		movs	r0, #3
 298 0016 FFF7FEFF 		bl	readnBytes
 299              	.LVL26:
 136:..\barometer.c **** }
 300              		.loc 1 136 0
 301 001a 08BD     		pop	{r3, pc}
 302              		.cfi_endproc
 303              	.LFE69:
 304              		.size	baro_getRawPressure, .-baro_getRawPressure
 305              		.section	.text.baro_getPressure,"ax",%progbits
 306              		.align	2
 307              		.global	baro_getPressure
ARM GAS  C:\Users\a85495\AppData\Local\Temp\ccN645Gy.s 			page 9


 308              		.thumb
 309              		.thumb_func
 310              		.type	baro_getPressure, %function
 311              	baro_getPressure:
 312              	.LFB70:
 137:..\barometer.c **** 
 138:..\barometer.c **** int32_t baro_getPressure()
 139:..\barometer.c **** {
 313              		.loc 1 139 0
 314              		.cfi_startproc
 315              		@ args = 0, pretend = 0, frame = 0
 316              		@ frame_needed = 0, uses_anonymous_args = 0
 317 0000 2DE9F84F 		push	{r3, r4, r5, r6, r7, r8, r9, r10, fp, lr}
 318              		.cfi_def_cfa_offset 40
 319              		.cfi_offset 3, -40
 320              		.cfi_offset 4, -36
 321              		.cfi_offset 5, -32
 322              		.cfi_offset 6, -28
 323              		.cfi_offset 7, -24
 324              		.cfi_offset 8, -20
 325              		.cfi_offset 9, -16
 326              		.cfi_offset 10, -12
 327              		.cfi_offset 11, -8
 328              		.cfi_offset 14, -4
 140:..\barometer.c ****     baro_getTemperature(); //updates temperature _dT and _T
 329              		.loc 1 140 0
 330 0004 FFF7FEFF 		bl	baro_getTemperature
 331              	.LVL27:
 141:..\barometer.c ****     uint32_t D1 = baro_getRawPressure();
 332              		.loc 1 141 0
 333 0008 FFF7FEFF 		bl	baro_getRawPressure
 334              	.LVL28:
 142:..\barometer.c **** 
 143:..\barometer.c ****     int64_t OFF = (int64_t)_Co[2 - 1] * 65536 + (int64_t)_Co[4 - 1] * _dT / 128;
 335              		.loc 1 143 0
 336 000c 344B     		ldr	r3, .L28
 337 000e 5E88     		ldrh	r6, [r3, #2]
 338 0010 0025     		movs	r5, #0
 339 0012 45EA1645 		orr	r5, r5, r6, lsr #16
 340 0016 3404     		lsls	r4, r6, #16
 341 0018 B3F806A0 		ldrh	r10, [r3, #6]
 342 001c DB68     		ldr	r3, [r3, #12]
 343 001e 4FEAE379 		asr	r9, r3, #31
 344 0022 AAFB0367 		umull	r6, r7, r10, r3
 345 0026 0AFB0977 		mla	r7, r10, r9, r7
 346 002a B246     		mov	r10, r6
 347 002c BB46     		mov	fp, r7
 348 002e 002E     		cmp	r6, #0
 349 0030 77F10002 		sbcs	r2, r7, #0
 350 0034 03DA     		bge	.L23
 351 0036 16F17F0A 		adds	r10, r6, #127
 352 003a 47F1000B 		adc	fp, r7, #0
 353              	.L23:
 354 003e 4FEADA12 		lsr	r2, r10, #7
 355 0042 42EA4B66 		orr	r6, r2, fp, lsl #25
 356 0046 4FEAEB17 		asr	r7, fp, #7
 357 004a A419     		adds	r4, r4, r6
ARM GAS  C:\Users\a85495\AppData\Local\Temp\ccN645Gy.s 			page 10


 358 004c 7D41     		adcs	r5, r5, r7
 359              	.LVL29:
 144:..\barometer.c **** 
 145:..\barometer.c ****     int64_t SENS = (int64_t)_Co[1 - 1] * 32768 + (int64_t)_Co[3 - 1] * _dT / 256;
 360              		.loc 1 145 0
 361 004e 244A     		ldr	r2, .L28
 362 0050 B2F800A0 		ldrh	r10, [r2]
 363 0054 0027     		movs	r7, #0
 364 0056 47EA5A47 		orr	r7, r7, r10, lsr #17
 365 005a 4FEACA36 		lsl	r6, r10, #15
 366 005e B2F804A0 		ldrh	r10, [r2, #4]
 367 0062 A3FB0A23 		umull	r2, r3, r3, r10
 368 0066 0AFB0933 		mla	r3, r10, r9, r3
 369 006a 9046     		mov	r8, r2
 370 006c 9946     		mov	r9, r3
 371 006e 002A     		cmp	r2, #0
 372 0070 73F10001 		sbcs	r1, r3, #0
 373 0074 03DA     		bge	.L24
 374 0076 12F1FF08 		adds	r8, r2, #255
 375 007a 43F10009 		adc	r9, r3, #0
 376              	.L24:
 377 007e 4FEA1821 		lsr	r1, r8, #8
 378 0082 41EA0962 		orr	r2, r1, r9, lsl #24
 379 0086 4FEA2923 		asr	r3, r9, #8
 380 008a B618     		adds	r6, r6, r2
 381 008c 5F41     		adcs	r7, r7, r3
 382              	.LVL30:
 146:..\barometer.c ****     _Pres = (D1 * SENS / 2097152 - OFF) / 32768;
 383              		.loc 1 146 0
 384 008e A0FB0623 		umull	r2, r3, r0, r6
 385 0092 00FB0733 		mla	r3, r0, r7, r3
 386 0096 1046     		mov	r0, r2
 387              	.LVL31:
 388 0098 1946     		mov	r1, r3
 389 009a 002A     		cmp	r2, #0
 390 009c 73F10006 		sbcs	r6, r3, #0
 391              	.LVL32:
 392 00a0 03DA     		bge	.L25
 393 00a2 1048     		ldr	r0, .L28+4
 394 00a4 0021     		movs	r1, #0
 395 00a6 8018     		adds	r0, r0, r2
 396 00a8 5941     		adcs	r1, r1, r3
 397              	.L25:
 398 00aa 400D     		lsrs	r0, r0, #21
 399 00ac 40EAC122 		orr	r2, r0, r1, lsl #11
 400 00b0 4B15     		asrs	r3, r1, #21
 401 00b2 121B     		subs	r2, r2, r4
 402 00b4 63EB0503 		sbc	r3, r3, r5
 403 00b8 1046     		mov	r0, r2
 404 00ba 1946     		mov	r1, r3
 405 00bc 002A     		cmp	r2, #0
 406 00be 73F10004 		sbcs	r4, r3, #0
 407              	.LVL33:
 408 00c2 04DA     		bge	.L26
 409 00c4 47F6FF70 		movw	r0, #32767
 410 00c8 0021     		movs	r1, #0
 411 00ca 8018     		adds	r0, r0, r2
ARM GAS  C:\Users\a85495\AppData\Local\Temp\ccN645Gy.s 			page 11


 412 00cc 5941     		adcs	r1, r1, r3
 413              	.L26:
 414 00ce C30B     		lsrs	r3, r0, #15
 415 00d0 43EA4143 		orr	r3, r3, r1, lsl #17
 416 00d4 024A     		ldr	r2, .L28
 417 00d6 5361     		str	r3, [r2, #20]
 147:..\barometer.c ****     return _P;
 148:..\barometer.c **** }
 418              		.loc 1 148 0
 419 00d8 1020     		movs	r0, #16
 420 00da BDE8F88F 		pop	{r3, r4, r5, r6, r7, r8, r9, r10, fp, pc}
 421              	.L29:
 422 00de 00BF     		.align	2
 423              	.L28:
 424 00e0 00000000 		.word	.LANCHOR0
 425 00e4 FFFF1F00 		.word	2097151
 426              		.cfi_endproc
 427              	.LFE70:
 428              		.size	baro_getPressure, .-baro_getPressure
 429              		.section	.text.baro_readCalibration,"ax",%progbits
 430              		.align	2
 431              		.global	baro_readCalibration
 432              		.thumb
 433              		.thumb_func
 434              		.type	baro_readCalibration, %function
 435              	baro_readCalibration:
 436              	.LFB71:
 149:..\barometer.c **** 
 150:..\barometer.c **** void baro_readCalibration()
 151:..\barometer.c **** {
 437              		.loc 1 151 0
 438              		.cfi_startproc
 439              		@ args = 0, pretend = 0, frame = 0
 440              		@ frame_needed = 0, uses_anonymous_args = 0
 441 0000 10B5     		push	{r4, lr}
 442              		.cfi_def_cfa_offset 8
 443              		.cfi_offset 4, -8
 444              		.cfi_offset 14, -4
 445              	.LVL34:
 152:..\barometer.c ****     uint8_t k;
 153:..\barometer.c ****     for( k=0 ; k<6 ; k++ ){
 446              		.loc 1 153 0
 447 0002 0024     		movs	r4, #0
 448 0004 0EE0     		b	.L31
 449              	.LVL35:
 450              	.L32:
 154:..\barometer.c **** 		sendCommand(CMD_PROM_READ_BASE + k*2);
 451              		.loc 1 154 0 discriminator 3
 452 0006 04F15100 		add	r0, r4, #81
 453 000a 4000     		lsls	r0, r0, #1
 454 000c 00F0FE00 		and	r0, r0, #254
 455 0010 FFF7FEFF 		bl	sendCommand
 456              	.LVL36:
 155:..\barometer.c **** 		_Co[k] = (uint16_t) (readnBytes(NBYTES_PROM) & 0xFFFF); //masking out two LSB
 457              		.loc 1 155 0 discriminator 3
 458 0014 0220     		movs	r0, #2
 459 0016 FFF7FEFF 		bl	readnBytes
ARM GAS  C:\Users\a85495\AppData\Local\Temp\ccN645Gy.s 			page 12


 460              	.LVL37:
 461 001a 044B     		ldr	r3, .L34
 462 001c 23F81400 		strh	r0, [r3, r4, lsl #1]	@ movhi
 153:..\barometer.c **** 		sendCommand(CMD_PROM_READ_BASE + k*2);
 463              		.loc 1 153 0 discriminator 3
 464 0020 0134     		adds	r4, r4, #1
 465              	.LVL38:
 466 0022 E4B2     		uxtb	r4, r4
 467              	.LVL39:
 468              	.L31:
 153:..\barometer.c **** 		sendCommand(CMD_PROM_READ_BASE + k*2);
 469              		.loc 1 153 0 is_stmt 0 discriminator 1
 470 0024 052C     		cmp	r4, #5
 471 0026 EED9     		bls	.L32
 156:..\barometer.c **** 	}
 157:..\barometer.c **** }
 472              		.loc 1 157 0 is_stmt 1
 473 0028 10BD     		pop	{r4, pc}
 474              	.LVL40:
 475              	.L35:
 476 002a 00BF     		.align	2
 477              	.L34:
 478 002c 00000000 		.word	.LANCHOR0
 479              		.cfi_endproc
 480              	.LFE71:
 481              		.size	baro_readCalibration, .-baro_readCalibration
 482              		.section	.text.baro_begin,"ax",%progbits
 483              		.align	2
 484              		.global	baro_begin
 485              		.thumb
 486              		.thumb_func
 487              		.type	baro_begin, %function
 488              	baro_begin:
 489              	.LFB66:
  88:..\barometer.c ****     _T = 0;
 490              		.loc 1 88 0
 491              		.cfi_startproc
 492              		@ args = 0, pretend = 0, frame = 0
 493              		@ frame_needed = 0, uses_anonymous_args = 0
 494 0000 08B5     		push	{r3, lr}
 495              		.cfi_def_cfa_offset 8
 496              		.cfi_offset 3, -8
 497              		.cfi_offset 14, -4
  89:..\barometer.c ****     _Pres = 0;
 498              		.loc 1 89 0
 499 0002 0D4A     		ldr	r2, .L40
 500 0004 0023     		movs	r3, #0
 501 0006 1361     		str	r3, [r2, #16]
  90:..\barometer.c ****     _lastTime = T_THR;
 502              		.loc 1 90 0
 503 0008 5361     		str	r3, [r2, #20]
  91:..\barometer.c ****     uint8_t k;
 504              		.loc 1 91 0
 505 000a 4FF47A71 		mov	r1, #1000
 506 000e 9161     		str	r1, [r2, #24]
 507              	.LVL41:
  93:..\barometer.c ****     {
ARM GAS  C:\Users\a85495\AppData\Local\Temp\ccN645Gy.s 			page 13


 508              		.loc 1 93 0
 509 0010 05E0     		b	.L37
 510              	.LVL42:
 511              	.L38:
  95:..\barometer.c ****     }
 512              		.loc 1 95 0 discriminator 3
 513 0012 4521     		movs	r1, #69
 514 0014 084A     		ldr	r2, .L40
 515 0016 22F81310 		strh	r1, [r2, r3, lsl #1]	@ movhi
  93:..\barometer.c ****     {
 516              		.loc 1 93 0 discriminator 3
 517 001a 0133     		adds	r3, r3, #1
 518              	.LVL43:
 519 001c DBB2     		uxtb	r3, r3
 520              	.LVL44:
 521              	.L37:
  93:..\barometer.c ****     {
 522              		.loc 1 93 0 is_stmt 0 discriminator 1
 523 001e 052B     		cmp	r3, #5
 524 0020 F7D9     		bls	.L38
  98:..\barometer.c ****     reset();
 525              		.loc 1 98 0 is_stmt 1
 526 0022 FFF7FEFF 		bl	Wire_begin
 527              	.LVL45:
  99:..\barometer.c ****     CyDelay(100);
 528              		.loc 1 99 0
 529 0026 FFF7FEFF 		bl	reset
 530              	.LVL46:
 100:..\barometer.c ****     baro_readCalibration();
 531              		.loc 1 100 0
 532 002a 6420     		movs	r0, #100
 533 002c FFF7FEFF 		bl	CyDelay
 534              	.LVL47:
 101:..\barometer.c **** }
 535              		.loc 1 101 0
 536 0030 FFF7FEFF 		bl	baro_readCalibration
 537              	.LVL48:
 538 0034 08BD     		pop	{r3, pc}
 539              	.L41:
 540 0036 00BF     		.align	2
 541              	.L40:
 542 0038 00000000 		.word	.LANCHOR0
 543              		.cfi_endproc
 544              	.LFE66:
 545              		.size	baro_begin, .-baro_begin
 546              		.section	.text.baro_getCalibration,"ax",%progbits
 547              		.align	2
 548              		.global	baro_getCalibration
 549              		.thumb
 550              		.thumb_func
 551              		.type	baro_getCalibration, %function
 552              	baro_getCalibration:
 553              	.LFB72:
 158:..\barometer.c **** 
 159:..\barometer.c **** void baro_getCalibration(uint16_t *C)
 160:..\barometer.c **** {
 554              		.loc 1 160 0
ARM GAS  C:\Users\a85495\AppData\Local\Temp\ccN645Gy.s 			page 14


 555              		.cfi_startproc
 556              		@ args = 0, pretend = 0, frame = 0
 557              		@ frame_needed = 0, uses_anonymous_args = 0
 558              		@ link register save eliminated.
 559              	.LVL49:
 161:..\barometer.c ****     uint8_t k;
 162:..\barometer.c ****     for( k=0 ; k<N_PROM_PARAMS ; k++ )
 560              		.loc 1 162 0
 561 0000 0023     		movs	r3, #0
 562 0002 06E0     		b	.L43
 563              	.LVL50:
 564              	.L44:
 163:..\barometer.c **** 		C[k]=_Co[k];
 565              		.loc 1 163 0 discriminator 3
 566 0004 044A     		ldr	r2, .L45
 567 0006 32F81320 		ldrh	r2, [r2, r3, lsl #1]
 568 000a 20F81320 		strh	r2, [r0, r3, lsl #1]	@ movhi
 162:..\barometer.c **** 		C[k]=_Co[k];
 569              		.loc 1 162 0 discriminator 3
 570 000e 0133     		adds	r3, r3, #1
 571              	.LVL51:
 572 0010 DBB2     		uxtb	r3, r3
 573              	.LVL52:
 574              	.L43:
 162:..\barometer.c **** 		C[k]=_Co[k];
 575              		.loc 1 162 0 is_stmt 0 discriminator 1
 576 0012 052B     		cmp	r3, #5
 577 0014 F6D9     		bls	.L44
 164:..\barometer.c **** 	return;
 165:..\barometer.c **** }...
 578              		.loc 1 165 0 is_stmt 1
 579 0016 7047     		bx	lr
 580              	.L46:
 581              		.align	2
 582              	.L45:
 583 0018 00000000 		.word	.LANCHOR0
 584              		.cfi_endproc
 585              	.LFE72:
 586              		.size	baro_getCalibration, .-baro_getCalibration
 587              		.bss
 588              		.align	2
 589              		.set	.LANCHOR0,. + 0
 590              		.type	_Co, %object
 591              		.size	_Co, 12
 592              	_Co:
 593 0000 00000000 		.space	12
 593      00000000 
 593      00000000 
 594              		.type	_dT, %object
 595              		.size	_dT, 4
 596              	_dT:
 597 000c 00000000 		.space	4
 598              		.type	_T, %object
 599              		.size	_T, 4
 600              	_T:
 601 0010 00000000 		.space	4
 602              		.type	_Pres, %object
ARM GAS  C:\Users\a85495\AppData\Local\Temp\ccN645Gy.s 			page 15


 603              		.size	_Pres, 4
 604              	_Pres:
 605 0014 00000000 		.space	4
 606              		.type	_lastTime, %object
 607              		.size	_lastTime, 4
 608              	_lastTime:
 609 0018 00000000 		.space	4
 610              		.text
 611              	.Letext0:
 612              		.file 2 "c:\\program files (x86)\\cypress\\psoc creator\\4.0\\psoc creator\\import\\gnu\\arm\\4.9.
 613              		.file 3 "c:\\program files (x86)\\cypress\\psoc creator\\4.0\\psoc creator\\import\\gnu\\arm\\4.9.
 614              		.file 4 "Generated_Source\\PSoC5/cytypes.h"
 615              		.file 5 "Generated_Source\\PSoC5/I2C.h"
 616              		.file 6 "Generated_Source\\PSoC5/core_cm3.h"
 617              		.file 7 "Generated_Source\\PSoC5/CyLib.h"
 618              		.file 8 "../twi.h"