ARM GAS  C:\Users\A85590\AppData\Local\Temp\ccOscRLT.s 			page 1


   1              		.syntax unified
   2              		.cpu cortex-m3
   3              		.fpu softvfp
   4              		.eabi_attribute 20, 1
   5              		.eabi_attribute 21, 1
   6              		.eabi_attribute 23, 3
   7              		.eabi_attribute 24, 1
   8              		.eabi_attribute 25, 1
   9              		.eabi_attribute 26, 1
  10              		.eabi_attribute 30, 1
  11              		.eabi_attribute 34, 1
  12              		.eabi_attribute 18, 4
  13              		.thumb
  14              		.syntax unified
  15              		.file	"Madgwick.c"
  16              		.text
  17              	.Ltext0:
  18              		.cfi_sections	.debug_frame
  19              		.global	__aeabi_fmul
  20              		.global	__aeabi_fsub
  21              		.section	.text.invSqrt,"ax",%progbits
  22              		.align	2
  23              		.thumb
  24              		.thumb_func
  25              		.type	invSqrt, %function
  26              	invSqrt:
  27              	.LFB5:
  28              		.file 1 "Madgwick.c"
   1:Madgwick.c    **** 
   2:Madgwick.c    **** //=============================================================================================
   3:Madgwick.c    **** // Madgwick.c
   4:Madgwick.c    **** //=============================================================================================
   5:Madgwick.c    **** //
   6:Madgwick.c    **** // Implementation of Madgwick's IMU and AHRS algorithms.
   7:Madgwick.c    **** // See: http://www.x-io.co.uk/open-source-imu-and-ahrs-algorithms/
   8:Madgwick.c    **** //
   9:Madgwick.c    **** // From the x-io website "Open-source resources available on this website are
  10:Madgwick.c    **** // provided under the GNU General Public Licence unless an alternative licence
  11:Madgwick.c    **** // is provided in source."
  12:Madgwick.c    **** //
  13:Madgwick.c    **** // Date			Author          Notes
  14:Madgwick.c    **** // 29/09/2011	SOH Madgwick    Initial release
  15:Madgwick.c    **** // 02/10/2011	SOH Madgwick	Optimised for reduced CPU load
  16:Madgwick.c    **** // 19/02/2012	SOH Madgwick	Magnetometer measurement is normalised
  17:Madgwick.c    **** //
  18:Madgwick.c    **** //=============================================================================================
  19:Madgwick.c    **** 
  20:Madgwick.c    **** //-------------------------------------------------------------------------------------------
  21:Madgwick.c    **** // Header files
  22:Madgwick.c    **** 
  23:Madgwick.c    **** #include "Madgwick.h"
  24:Madgwick.c    **** #include <stdlib.h>
  25:Madgwick.c    **** #include <stdint.h>
  26:Madgwick.c    **** #include <stdio.h>
  27:Madgwick.c    **** #include <math.h>
  28:Madgwick.c    **** 
  29:Madgwick.c    **** //-------------------------------------------------------------------------------------------
ARM GAS  C:\Users\A85590\AppData\Local\Temp\ccOscRLT.s 			page 2


  30:Madgwick.c    **** // Definitions
  31:Madgwick.c    **** 
  32:Madgwick.c    **** #define sampleFreqDef 512.0f // sample frequency in Hz
  33:Madgwick.c    **** #define betaDef 0.1f		 // 2 * proportional gain
  34:Madgwick.c    **** 
  35:Madgwick.c    **** //--------------------------------------------------------------------------------------------
  36:Madgwick.c    **** 
  37:Madgwick.c    **** static float invSqrt(float x);
  38:Madgwick.c    **** static float beta; // algorithm gain
  39:Madgwick.c    **** static float q0;
  40:Madgwick.c    **** static float q1;
  41:Madgwick.c    **** static float q2;
  42:Madgwick.c    **** static float q3; // quaternion of sensor frame relative to auxiliary frame
  43:Madgwick.c    **** static float invSampleFreq;
  44:Madgwick.c    **** static float roll;
  45:Madgwick.c    **** static float pitch;
  46:Madgwick.c    **** static float yaw;
  47:Madgwick.c    **** static char anglesComputed;
  48:Madgwick.c    **** static void computeAngles();
  49:Madgwick.c    **** 
  50:Madgwick.c    **** //-------------------------------------------------------------------------------------------
  51:Madgwick.c    **** 
  52:Madgwick.c    **** //============================================================================================
  53:Madgwick.c    **** // Functions
  54:Madgwick.c    **** 
  55:Madgwick.c    **** //-------------------------------------------------------------------------------------------
  56:Madgwick.c    **** // AHRS algorithm update
  57:Madgwick.c    **** 
  58:Madgwick.c    **** int Madgwick() //Added "int" to avoid warning msg; hope this causes no issue - Toni
  59:Madgwick.c    **** {
  60:Madgwick.c    **** 	beta = betaDef;
  61:Madgwick.c    **** 	q0 = 1.0f;
  62:Madgwick.c    **** 	q1 = 0.0f;
  63:Madgwick.c    **** 	q2 = 0.0f;
  64:Madgwick.c    **** 	q3 = 0.0f;
  65:Madgwick.c    **** 	invSampleFreq = 1.0f / sampleFreqDef;
  66:Madgwick.c    **** 	anglesComputed = 0;
  67:Madgwick.c    **** }
  68:Madgwick.c    **** 
  69:Madgwick.c    **** void Madgwick_begin(float sampleFrequency)
  70:Madgwick.c    ****  { 
  71:Madgwick.c    **** 	 invSampleFreq = (1.0f / sampleFrequency); 
  72:Madgwick.c    **** }
  73:Madgwick.c    **** 
  74:Madgwick.c    **** void Madgwick_update(float gx, float gy, float gz, float ax, float ay, float az, float mx, float my
  75:Madgwick.c    **** {
  76:Madgwick.c    **** 	float recipNorm;
  77:Madgwick.c    **** 	float s0, s1, s2, s3;
  78:Madgwick.c    **** 	float qDot1, qDot2, qDot3, qDot4;
  79:Madgwick.c    **** 	float hx, hy;
  80:Madgwick.c    **** 	float _2q0mx, _2q0my, _2q0mz, _2q1mx, _2bx, _2bz, _4bx, _4bz, _2q0, _2q1, _2q2, _2q3, _2q0q2, _2q2
  81:Madgwick.c    **** 
  82:Madgwick.c    **** 	// Use IMU algorithm if magnetometer measurement invalid (avoids NaN in magnetometer normalisation
  83:Madgwick.c    **** 	if ((mx == 0.0f) && (my == 0.0f) && (mz == 0.0f))
  84:Madgwick.c    **** 	{
  85:Madgwick.c    **** 		Madgwick_updateIMU(gx, gy, gz, ax, ay, az);
  86:Madgwick.c    **** 		return;
ARM GAS  C:\Users\A85590\AppData\Local\Temp\ccOscRLT.s 			page 3


  87:Madgwick.c    **** 	}
  88:Madgwick.c    **** 
  89:Madgwick.c    **** 	// Convert gyroscope degrees/sec to radians/sec
  90:Madgwick.c    **** 	gx *= 0.0174533f;
  91:Madgwick.c    **** 	gy *= 0.0174533f;
  92:Madgwick.c    **** 	gz *= 0.0174533f;
  93:Madgwick.c    **** 
  94:Madgwick.c    **** 	// Rate of change of quaternion from gyroscope
  95:Madgwick.c    **** 	qDot1 = 0.5f * (-q1 * gx - q2 * gy - q3 * gz);
  96:Madgwick.c    **** 	qDot2 = 0.5f * (q0 * gx + q2 * gz - q3 * gy);
  97:Madgwick.c    **** 	qDot3 = 0.5f * (q0 * gy - q1 * gz + q3 * gx);
  98:Madgwick.c    **** 	qDot4 = 0.5f * (q0 * gz + q1 * gy - q2 * gx);
  99:Madgwick.c    **** 
 100:Madgwick.c    **** 	// Compute feedback only if accelerometer measurement valid (avoids NaN in accelerometer normalisa
 101:Madgwick.c    **** 	if (!((ax == 0.0f) && (ay == 0.0f) && (az == 0.0f)))
 102:Madgwick.c    **** 	{
 103:Madgwick.c    **** 
 104:Madgwick.c    **** 		// Normalise accelerometer measurement
 105:Madgwick.c    **** 		recipNorm = invSqrt(ax * ax + ay * ay + az * az);
 106:Madgwick.c    **** 		ax *= recipNorm;
 107:Madgwick.c    **** 		ay *= recipNorm;
 108:Madgwick.c    **** 		az *= recipNorm;
 109:Madgwick.c    **** 
 110:Madgwick.c    **** 		// Normalise magnetometer measurement
 111:Madgwick.c    **** 		recipNorm = invSqrt(mx * mx + my * my + mz * mz);
 112:Madgwick.c    **** 		mx *= recipNorm;
 113:Madgwick.c    **** 		my *= recipNorm;
 114:Madgwick.c    **** 		mz *= recipNorm;
 115:Madgwick.c    **** 
 116:Madgwick.c    **** 		// Auxiliary variables to avoid repeated arithmetic
 117:Madgwick.c    **** 		_2q0mx = 2.0f * q0 * mx;
 118:Madgwick.c    **** 		_2q0my = 2.0f * q0 * my;
 119:Madgwick.c    **** 		_2q0mz = 2.0f * q0 * mz;
 120:Madgwick.c    **** 		_2q1mx = 2.0f * q1 * mx;
 121:Madgwick.c    **** 		_2q0 = 2.0f * q0;
 122:Madgwick.c    **** 		_2q1 = 2.0f * q1;
 123:Madgwick.c    **** 		_2q2 = 2.0f * q2;
 124:Madgwick.c    **** 		_2q3 = 2.0f * q3;
 125:Madgwick.c    **** 		_2q0q2 = 2.0f * q0 * q2;
 126:Madgwick.c    **** 		_2q2q3 = 2.0f * q2 * q3;
 127:Madgwick.c    **** 		q0q0 = q0 * q0;
 128:Madgwick.c    **** 		q0q1 = q0 * q1;
 129:Madgwick.c    **** 		q0q2 = q0 * q2;
 130:Madgwick.c    **** 		q0q3 = q0 * q3;
 131:Madgwick.c    **** 		q1q1 = q1 * q1;
 132:Madgwick.c    **** 		q1q2 = q1 * q2;
 133:Madgwick.c    **** 		q1q3 = q1 * q3;
 134:Madgwick.c    **** 		q2q2 = q2 * q2;
 135:Madgwick.c    **** 		q2q3 = q2 * q3;
 136:Madgwick.c    **** 		q3q3 = q3 * q3;
 137:Madgwick.c    **** 
 138:Madgwick.c    **** 		// Reference direction of Earth's magnetic field
 139:Madgwick.c    **** 		hx = mx * q0q0 - _2q0my * q3 + _2q0mz * q2 + mx * q1q1 + _2q1 * my * q2 + _2q1 * mz * q3 - mx * q
 140:Madgwick.c    **** 		hy = _2q0mx * q3 + my * q0q0 - _2q0mz * q1 + _2q1mx * q2 - my * q1q1 + my * q2q2 + _2q2 * mz * q3
 141:Madgwick.c    **** 		_2bx = sqrtf(hx * hx + hy * hy);
 142:Madgwick.c    **** 		_2bz = -_2q0mx * q2 + _2q0my * q1 + mz * q0q0 + _2q1mx * q3 - mz * q1q1 + _2q2 * my * q3 - mz * q
 143:Madgwick.c    **** 		_4bx = 2.0f * _2bx;
ARM GAS  C:\Users\A85590\AppData\Local\Temp\ccOscRLT.s 			page 4


 144:Madgwick.c    **** 		_4bz = 2.0f * _2bz;
 145:Madgwick.c    **** 
 146:Madgwick.c    **** 		// Gradient decent algorithm corrective step
 147:Madgwick.c    **** 		s0 = -_2q2 * (2.0f * q1q3 - _2q0q2 - ax) + _2q1 * (2.0f * q0q1 + _2q2q3 - ay) - _2bz * q2 * (_2bx
 148:Madgwick.c    **** 		s1 = _2q3 * (2.0f * q1q3 - _2q0q2 - ax) + _2q0 * (2.0f * q0q1 + _2q2q3 - ay) - 4.0f * q1 * (1 - 2
 149:Madgwick.c    **** 		s2 = -_2q0 * (2.0f * q1q3 - _2q0q2 - ax) + _2q3 * (2.0f * q0q1 + _2q2q3 - ay) - 4.0f * q2 * (1 - 
 150:Madgwick.c    **** 		s3 = _2q1 * (2.0f * q1q3 - _2q0q2 - ax) + _2q2 * (2.0f * q0q1 + _2q2q3 - ay) + (-_4bx * q3 + _2bz
 151:Madgwick.c    **** 		recipNorm = invSqrt(s0 * s0 + s1 * s1 + s2 * s2 + s3 * s3); // normalise step magnitude
 152:Madgwick.c    **** 		s0 *= recipNorm;
 153:Madgwick.c    **** 		s1 *= recipNorm;
 154:Madgwick.c    **** 		s2 *= recipNorm;
 155:Madgwick.c    **** 		s3 *= recipNorm;
 156:Madgwick.c    **** 
 157:Madgwick.c    **** 		// Apply feedback step
 158:Madgwick.c    **** 		qDot1 -= beta * s0;
 159:Madgwick.c    **** 		qDot2 -= beta * s1;
 160:Madgwick.c    **** 		qDot3 -= beta * s2;
 161:Madgwick.c    **** 		qDot4 -= beta * s3;
 162:Madgwick.c    **** 	}
 163:Madgwick.c    **** 
 164:Madgwick.c    **** 	// Integrate rate of change of quaternion to yield quaternion
 165:Madgwick.c    **** 	q0 += qDot1 * invSampleFreq;
 166:Madgwick.c    **** 	q1 += qDot2 * invSampleFreq;
 167:Madgwick.c    **** 	q2 += qDot3 * invSampleFreq;
 168:Madgwick.c    **** 	q3 += qDot4 * invSampleFreq;
 169:Madgwick.c    **** 
 170:Madgwick.c    **** 	// Normalise quaternion
 171:Madgwick.c    **** 	recipNorm = invSqrt(q0 * q0 + q1 * q1 + q2 * q2 + q3 * q3);
 172:Madgwick.c    **** 	q0 *= recipNorm;
 173:Madgwick.c    **** 	q1 *= recipNorm;
 174:Madgwick.c    **** 	q2 *= recipNorm;
 175:Madgwick.c    **** 	q3 *= recipNorm;
 176:Madgwick.c    **** 	anglesComputed = 0;
 177:Madgwick.c    **** }
 178:Madgwick.c    **** 
 179:Madgwick.c    **** //-------------------------------------------------------------------------------------------
 180:Madgwick.c    **** // IMU algorithm update
 181:Madgwick.c    **** 
 182:Madgwick.c    **** void Madgwick_updateIMU(float gx, float gy, float gz, float ax, float ay, float az)
 183:Madgwick.c    **** {
 184:Madgwick.c    **** 	float recipNorm;
 185:Madgwick.c    **** 	float s0, s1, s2, s3;
 186:Madgwick.c    **** 	float qDot1, qDot2, qDot3, qDot4;
 187:Madgwick.c    **** 	float _2q0, _2q1, _2q2, _2q3, _4q0, _4q1, _4q2, _8q1, _8q2, q0q0, q1q1, q2q2, q3q3;
 188:Madgwick.c    **** 
 189:Madgwick.c    **** 	// Convert gyroscope degrees/sec to radians/sec
 190:Madgwick.c    **** 	gx *= 0.0174533f;
 191:Madgwick.c    **** 	gy *= 0.0174533f;
 192:Madgwick.c    **** 	gz *= 0.0174533f;
 193:Madgwick.c    **** 
 194:Madgwick.c    **** 	// Rate of change of quaternion from gyroscope
 195:Madgwick.c    **** 	qDot1 = 0.5f * (-q1 * gx - q2 * gy - q3 * gz);
 196:Madgwick.c    **** 	qDot2 = 0.5f * (q0 * gx + q2 * gz - q3 * gy);
 197:Madgwick.c    **** 	qDot3 = 0.5f * (q0 * gy - q1 * gz + q3 * gx);
 198:Madgwick.c    **** 	qDot4 = 0.5f * (q0 * gz + q1 * gy - q2 * gx);
 199:Madgwick.c    **** 
 200:Madgwick.c    **** 	// Compute feedback only if accelerometer measurement valid (avoids NaN in accelerometer normalisa
ARM GAS  C:\Users\A85590\AppData\Local\Temp\ccOscRLT.s 			page 5


 201:Madgwick.c    **** 	if (!((ax == 0.0f) && (ay == 0.0f) && (az == 0.0f)))
 202:Madgwick.c    **** 	{
 203:Madgwick.c    **** 
 204:Madgwick.c    **** 		// Normalise accelerometer measurement
 205:Madgwick.c    **** 		recipNorm = invSqrt(ax * ax + ay * ay + az * az);
 206:Madgwick.c    **** 		ax *= recipNorm;
 207:Madgwick.c    **** 		ay *= recipNorm;
 208:Madgwick.c    **** 		az *= recipNorm;
 209:Madgwick.c    **** 
 210:Madgwick.c    **** 		// Auxiliary variables to avoid repeated arithmetic
 211:Madgwick.c    **** 		_2q0 = 2.0f * q0;
 212:Madgwick.c    **** 		_2q1 = 2.0f * q1;
 213:Madgwick.c    **** 		_2q2 = 2.0f * q2;
 214:Madgwick.c    **** 		_2q3 = 2.0f * q3;
 215:Madgwick.c    **** 		_4q0 = 4.0f * q0;
 216:Madgwick.c    **** 		_4q1 = 4.0f * q1;
 217:Madgwick.c    **** 		_4q2 = 4.0f * q2;
 218:Madgwick.c    **** 		_8q1 = 8.0f * q1;
 219:Madgwick.c    **** 		_8q2 = 8.0f * q2;
 220:Madgwick.c    **** 		q0q0 = q0 * q0;
 221:Madgwick.c    **** 		q1q1 = q1 * q1;
 222:Madgwick.c    **** 		q2q2 = q2 * q2;
 223:Madgwick.c    **** 		q3q3 = q3 * q3;
 224:Madgwick.c    **** 
 225:Madgwick.c    **** 		// Gradient decent algorithm corrective step
 226:Madgwick.c    **** 		s0 = _4q0 * q2q2 + _2q2 * ax + _4q0 * q1q1 - _2q1 * ay;
 227:Madgwick.c    **** 		s1 = _4q1 * q3q3 - _2q3 * ax + 4.0f * q0q0 * q1 - _2q0 * ay - _4q1 + _8q1 * q1q1 + _8q1 * q2q2 + 
 228:Madgwick.c    **** 		s2 = 4.0f * q0q0 * q2 + _2q0 * ax + _4q2 * q3q3 - _2q3 * ay - _4q2 + _8q2 * q1q1 + _8q2 * q2q2 + 
 229:Madgwick.c    **** 		s3 = 4.0f * q1q1 * q3 - _2q1 * ax + 4.0f * q2q2 * q3 - _2q2 * ay;
 230:Madgwick.c    **** 		recipNorm = invSqrt(s0 * s0 + s1 * s1 + s2 * s2 + s3 * s3); // normalise step magnitude
 231:Madgwick.c    **** 		s0 *= recipNorm;
 232:Madgwick.c    **** 		s1 *= recipNorm;
 233:Madgwick.c    **** 		s2 *= recipNorm;
 234:Madgwick.c    **** 		s3 *= recipNorm;
 235:Madgwick.c    **** 
 236:Madgwick.c    **** 		// Apply feedback step
 237:Madgwick.c    **** 		qDot1 -= beta * s0;
 238:Madgwick.c    **** 		qDot2 -= beta * s1;
 239:Madgwick.c    **** 		qDot3 -= beta * s2;
 240:Madgwick.c    **** 		qDot4 -= beta * s3;
 241:Madgwick.c    **** 	}
 242:Madgwick.c    **** 
 243:Madgwick.c    **** 	// Integrate rate of change of quaternion to yield quaternion
 244:Madgwick.c    **** 	q0 += qDot1 * invSampleFreq;
 245:Madgwick.c    **** 	q1 += qDot2 * invSampleFreq;
 246:Madgwick.c    **** 	q2 += qDot3 * invSampleFreq;
 247:Madgwick.c    **** 	q3 += qDot4 * invSampleFreq;
 248:Madgwick.c    **** 
 249:Madgwick.c    **** 	// Normalise quaternion
 250:Madgwick.c    **** 	recipNorm = invSqrt(q0 * q0 + q1 * q1 + q2 * q2 + q3 * q3);
 251:Madgwick.c    **** 	q0 *= recipNorm;
 252:Madgwick.c    **** 	q1 *= recipNorm;
 253:Madgwick.c    **** 	q2 *= recipNorm;
 254:Madgwick.c    **** 	q3 *= recipNorm;
 255:Madgwick.c    **** 	anglesComputed = 0;
 256:Madgwick.c    **** }
 257:Madgwick.c    **** 
ARM GAS  C:\Users\A85590\AppData\Local\Temp\ccOscRLT.s 			page 6


 258:Madgwick.c    **** //-------------------------------------------------------------------------------------------
 259:Madgwick.c    **** // Fast inverse square-root
 260:Madgwick.c    **** // See: http://en.wikipedia.org/wiki/Fast_inverse_square_root
 261:Madgwick.c    **** 
 262:Madgwick.c    **** float invSqrt(float x)
 263:Madgwick.c    **** {
  29              		.loc 1 263 0
  30              		.cfi_startproc
  31              		@ args = 0, pretend = 0, frame = 0
  32              		@ frame_needed = 0, uses_anonymous_args = 0
  33              	.LVL0:
  34 0000 38B5     		push	{r3, r4, r5, lr}
  35              		.cfi_def_cfa_offset 16
  36              		.cfi_offset 3, -16
  37              		.cfi_offset 4, -12
  38              		.cfi_offset 5, -8
  39              		.cfi_offset 14, -4
  40 0002 0446     		mov	r4, r0
 264:Madgwick.c    **** 	float halfx = 0.5f * x;
  41              		.loc 1 264 0
  42 0004 4FF07C51 		mov	r1, #1056964608
  43 0008 FFF7FEFF 		bl	__aeabi_fmul
  44              	.LVL1:
  45 000c 0546     		mov	r5, r0
  46              	.LVL2:
 265:Madgwick.c    **** 	float y = x;
 266:Madgwick.c    **** 	long i = *(long *)&y;
 267:Madgwick.c    **** 	i = 0x5f3759df - (i >> 1);
 268:Madgwick.c    **** 	y = *(float *)&i;
  47              		.loc 1 268 0
  48 000e 134B     		ldr	r3, .L3
  49 0010 A3EB6404 		sub	r4, r3, r4, asr #1
  50              	.LVL3:
 269:Madgwick.c    **** 	y = y * (1.5f - (halfx * y * y));
  51              		.loc 1 269 0
  52 0014 2146     		mov	r1, r4
  53 0016 FFF7FEFF 		bl	__aeabi_fmul
  54              	.LVL4:
  55 001a 0146     		mov	r1, r0
  56 001c 2046     		mov	r0, r4
  57 001e FFF7FEFF 		bl	__aeabi_fmul
  58              	.LVL5:
  59 0022 0146     		mov	r1, r0
  60 0024 4FF07F50 		mov	r0, #1069547520
  61 0028 FFF7FEFF 		bl	__aeabi_fsub
  62              	.LVL6:
  63 002c 0146     		mov	r1, r0
  64 002e 2046     		mov	r0, r4
  65 0030 FFF7FEFF 		bl	__aeabi_fmul
  66              	.LVL7:
  67 0034 0446     		mov	r4, r0
  68              	.LVL8:
 270:Madgwick.c    **** 	y = y * (1.5f - (halfx * y * y));
  69              		.loc 1 270 0
  70 0036 0146     		mov	r1, r0
  71 0038 2846     		mov	r0, r5
  72              	.LVL9:
ARM GAS  C:\Users\A85590\AppData\Local\Temp\ccOscRLT.s 			page 7


  73 003a FFF7FEFF 		bl	__aeabi_fmul
  74              	.LVL10:
  75 003e 0146     		mov	r1, r0
  76 0040 2046     		mov	r0, r4
  77 0042 FFF7FEFF 		bl	__aeabi_fmul
  78              	.LVL11:
  79 0046 0146     		mov	r1, r0
  80 0048 4FF07F50 		mov	r0, #1069547520
  81 004c FFF7FEFF 		bl	__aeabi_fsub
  82              	.LVL12:
  83 0050 0146     		mov	r1, r0
  84 0052 2046     		mov	r0, r4
  85 0054 FFF7FEFF 		bl	__aeabi_fmul
  86              	.LVL13:
 271:Madgwick.c    **** 	return y;
 272:Madgwick.c    **** }
  87              		.loc 1 272 0
  88 0058 38BD     		pop	{r3, r4, r5, pc}
  89              	.LVL14:
  90              	.L4:
  91 005a 00BF     		.align	2
  92              	.L3:
  93 005c DF59375F 		.word	1597463007
  94              		.cfi_endproc
  95              	.LFE5:
  96              		.size	invSqrt, .-invSqrt
  97              		.global	__aeabi_fadd
  98              		.section	.text.computeAngles,"ax",%progbits
  99              		.align	2
 100              		.thumb
 101              		.thumb_func
 102              		.type	computeAngles, %function
 103              	computeAngles:
 104              	.LFB6:
 273:Madgwick.c    **** 
 274:Madgwick.c    **** //-------------------------------------------------------------------------------------------
 275:Madgwick.c    **** 
 276:Madgwick.c    **** void computeAngles()
 277:Madgwick.c    **** {
 105              		.loc 1 277 0
 106              		.cfi_startproc
 107              		@ args = 0, pretend = 0, frame = 0
 108              		@ frame_needed = 0, uses_anonymous_args = 0
 109 0000 2DE9F041 		push	{r4, r5, r6, r7, r8, lr}
 110              		.cfi_def_cfa_offset 24
 111              		.cfi_offset 4, -24
 112              		.cfi_offset 5, -20
 113              		.cfi_offset 6, -16
 114              		.cfi_offset 7, -12
 115              		.cfi_offset 8, -8
 116              		.cfi_offset 14, -4
 278:Madgwick.c    **** 	roll = atan2f(q0 * q1 + q2 * q3, 0.5f - q1 * q1 - q2 * q2);
 117              		.loc 1 278 0
 118 0004 334C     		ldr	r4, .L7
 119 0006 2668     		ldr	r6, [r4]	@ float
 120 0008 6168     		ldr	r1, [r4, #4]	@ float
 121 000a 3046     		mov	r0, r6
ARM GAS  C:\Users\A85590\AppData\Local\Temp\ccOscRLT.s 			page 8


 122 000c FFF7FEFF 		bl	__aeabi_fmul
 123              	.LVL15:
 124 0010 0746     		mov	r7, r0
 125 0012 A568     		ldr	r5, [r4, #8]	@ float
 126 0014 E168     		ldr	r1, [r4, #12]	@ float
 127 0016 2846     		mov	r0, r5
 128 0018 FFF7FEFF 		bl	__aeabi_fmul
 129              	.LVL16:
 130 001c 8046     		mov	r8, r0
 131 001e 3146     		mov	r1, r6
 132 0020 3046     		mov	r0, r6
 133 0022 FFF7FEFF 		bl	__aeabi_fmul
 134              	.LVL17:
 135 0026 0146     		mov	r1, r0
 136 0028 4FF07C50 		mov	r0, #1056964608
 137 002c FFF7FEFF 		bl	__aeabi_fsub
 138              	.LVL18:
 139 0030 0646     		mov	r6, r0
 140 0032 2946     		mov	r1, r5
 141 0034 2846     		mov	r0, r5
 142 0036 FFF7FEFF 		bl	__aeabi_fmul
 143              	.LVL19:
 144 003a 0146     		mov	r1, r0
 145 003c 3046     		mov	r0, r6
 146 003e FFF7FEFF 		bl	__aeabi_fsub
 147              	.LVL20:
 148 0042 0546     		mov	r5, r0
 149 0044 4146     		mov	r1, r8
 150 0046 3846     		mov	r0, r7
 151 0048 FFF7FEFF 		bl	__aeabi_fadd
 152              	.LVL21:
 153 004c 2946     		mov	r1, r5
 154 004e FFF7FEFF 		bl	atan2f
 155              	.LVL22:
 156 0052 2061     		str	r0, [r4, #16]	@ float
 279:Madgwick.c    **** 	pitch = asinf(-2.0f * (q1 * q3 - q0 * q2));
 157              		.loc 1 279 0
 158 0054 E168     		ldr	r1, [r4, #12]	@ float
 159 0056 2068     		ldr	r0, [r4]	@ float
 160 0058 FFF7FEFF 		bl	__aeabi_fmul
 161              	.LVL23:
 162 005c 0546     		mov	r5, r0
 163 005e A168     		ldr	r1, [r4, #8]	@ float
 164 0060 6068     		ldr	r0, [r4, #4]	@ float
 165 0062 FFF7FEFF 		bl	__aeabi_fmul
 166              	.LVL24:
 167 0066 0146     		mov	r1, r0
 168 0068 2846     		mov	r0, r5
 169 006a FFF7FEFF 		bl	__aeabi_fsub
 170              	.LVL25:
 171 006e 4FF04041 		mov	r1, #-1073741824
 172 0072 FFF7FEFF 		bl	__aeabi_fmul
 173              	.LVL26:
 174 0076 FFF7FEFF 		bl	asinf
 175              	.LVL27:
 176 007a 6061     		str	r0, [r4, #20]	@ float
 280:Madgwick.c    **** 	yaw = atan2f(q1 * q2 + q0 * q3, 0.5f - q2 * q2 - q3 * q3);
ARM GAS  C:\Users\A85590\AppData\Local\Temp\ccOscRLT.s 			page 9


 177              		.loc 1 280 0
 178 007c A668     		ldr	r6, [r4, #8]	@ float
 179 007e 2168     		ldr	r1, [r4]	@ float
 180 0080 3046     		mov	r0, r6
 181 0082 FFF7FEFF 		bl	__aeabi_fmul
 182              	.LVL28:
 183 0086 0746     		mov	r7, r0
 184 0088 E568     		ldr	r5, [r4, #12]	@ float
 185 008a 6168     		ldr	r1, [r4, #4]	@ float
 186 008c 2846     		mov	r0, r5
 187 008e FFF7FEFF 		bl	__aeabi_fmul
 188              	.LVL29:
 189 0092 8046     		mov	r8, r0
 190 0094 3146     		mov	r1, r6
 191 0096 3046     		mov	r0, r6
 192 0098 FFF7FEFF 		bl	__aeabi_fmul
 193              	.LVL30:
 194 009c 0146     		mov	r1, r0
 195 009e 4FF07C50 		mov	r0, #1056964608
 196 00a2 FFF7FEFF 		bl	__aeabi_fsub
 197              	.LVL31:
 198 00a6 0646     		mov	r6, r0
 199 00a8 2946     		mov	r1, r5
 200 00aa 2846     		mov	r0, r5
 201 00ac FFF7FEFF 		bl	__aeabi_fmul
 202              	.LVL32:
 203 00b0 0146     		mov	r1, r0
 204 00b2 3046     		mov	r0, r6
 205 00b4 FFF7FEFF 		bl	__aeabi_fsub
 206              	.LVL33:
 207 00b8 0546     		mov	r5, r0
 208 00ba 4146     		mov	r1, r8
 209 00bc 3846     		mov	r0, r7
 210 00be FFF7FEFF 		bl	__aeabi_fadd
 211              	.LVL34:
 212 00c2 2946     		mov	r1, r5
 213 00c4 FFF7FEFF 		bl	atan2f
 214              	.LVL35:
 215 00c8 A061     		str	r0, [r4, #24]	@ float
 281:Madgwick.c    **** 	anglesComputed = 1;
 216              		.loc 1 281 0
 217 00ca 0123     		movs	r3, #1
 218 00cc 2377     		strb	r3, [r4, #28]
 219 00ce BDE8F081 		pop	{r4, r5, r6, r7, r8, pc}
 220              	.L8:
 221 00d2 00BF     		.align	2
 222              	.L7:
 223 00d4 00000000 		.word	.LANCHOR0
 224              		.cfi_endproc
 225              	.LFE6:
 226              		.size	computeAngles, .-computeAngles
 227              		.section	.text.Madgwick,"ax",%progbits
 228              		.align	2
 229              		.global	Madgwick
 230              		.thumb
 231              		.thumb_func
 232              		.type	Madgwick, %function
ARM GAS  C:\Users\A85590\AppData\Local\Temp\ccOscRLT.s 			page 10


 233              	Madgwick:
 234              	.LFB1:
  59:Madgwick.c    **** 	beta = betaDef;
 235              		.loc 1 59 0
 236              		.cfi_startproc
 237              		@ args = 0, pretend = 0, frame = 0
 238              		@ frame_needed = 0, uses_anonymous_args = 0
 239              		@ link register save eliminated.
  60:Madgwick.c    **** 	q0 = 1.0f;
 240              		.loc 1 60 0
 241 0000 074B     		ldr	r3, .L10
 242 0002 084A     		ldr	r2, .L10+4
 243 0004 1A62     		str	r2, [r3, #32]	@ float
  61:Madgwick.c    **** 	q1 = 0.0f;
 244              		.loc 1 61 0
 245 0006 4FF07E52 		mov	r2, #1065353216
 246 000a 5A60     		str	r2, [r3, #4]	@ float
  62:Madgwick.c    **** 	q2 = 0.0f;
 247              		.loc 1 62 0
 248 000c 0022     		movs	r2, #0
 249 000e 1A60     		str	r2, [r3]	@ float
  63:Madgwick.c    **** 	q3 = 0.0f;
 250              		.loc 1 63 0
 251 0010 9A60     		str	r2, [r3, #8]	@ float
  64:Madgwick.c    **** 	invSampleFreq = 1.0f / sampleFreqDef;
 252              		.loc 1 64 0
 253 0012 DA60     		str	r2, [r3, #12]	@ float
  65:Madgwick.c    **** 	anglesComputed = 0;
 254              		.loc 1 65 0
 255 0014 4FF06C52 		mov	r2, #989855744
 256 0018 5A62     		str	r2, [r3, #36]	@ float
  66:Madgwick.c    **** }
 257              		.loc 1 66 0
 258 001a 0022     		movs	r2, #0
 259 001c 1A77     		strb	r2, [r3, #28]
  67:Madgwick.c    **** 
 260              		.loc 1 67 0
 261 001e 7047     		bx	lr
 262              	.L11:
 263              		.align	2
 264              	.L10:
 265 0020 00000000 		.word	.LANCHOR0
 266 0024 CDCCCC3D 		.word	1036831949
 267              		.cfi_endproc
 268              	.LFE1:
 269              		.size	Madgwick, .-Madgwick
 270              		.global	__aeabi_fdiv
 271              		.section	.text.Madgwick_begin,"ax",%progbits
 272              		.align	2
 273              		.global	Madgwick_begin
 274              		.thumb
 275              		.thumb_func
 276              		.type	Madgwick_begin, %function
 277              	Madgwick_begin:
 278              	.LFB2:
  70:Madgwick.c    **** 	 invSampleFreq = (1.0f / sampleFrequency); 
 279              		.loc 1 70 0
ARM GAS  C:\Users\A85590\AppData\Local\Temp\ccOscRLT.s 			page 11


 280              		.cfi_startproc
 281              		@ args = 0, pretend = 0, frame = 0
 282              		@ frame_needed = 0, uses_anonymous_args = 0
 283              	.LVL36:
 284 0000 08B5     		push	{r3, lr}
 285              		.cfi_def_cfa_offset 8
 286              		.cfi_offset 3, -8
 287              		.cfi_offset 14, -4
  71:Madgwick.c    **** }
 288              		.loc 1 71 0
 289 0002 0146     		mov	r1, r0
 290 0004 4FF07E50 		mov	r0, #1065353216
 291              	.LVL37:
 292 0008 FFF7FEFF 		bl	__aeabi_fdiv
 293              	.LVL38:
 294 000c 014B     		ldr	r3, .L14
 295 000e 5862     		str	r0, [r3, #36]	@ float
 296 0010 08BD     		pop	{r3, pc}
 297              	.L15:
 298 0012 00BF     		.align	2
 299              	.L14:
 300 0014 00000000 		.word	.LANCHOR0
 301              		.cfi_endproc
 302              	.LFE2:
 303              		.size	Madgwick_begin, .-Madgwick_begin
 304              		.global	__aeabi_fcmpeq
 305              		.section	.text.Madgwick_updateIMU,"ax",%progbits
 306              		.align	2
 307              		.global	Madgwick_updateIMU
 308              		.thumb
 309              		.thumb_func
 310              		.type	Madgwick_updateIMU, %function
 311              	Madgwick_updateIMU:
 312              	.LFB4:
 183:Madgwick.c    **** 	float recipNorm;
 313              		.loc 1 183 0
 314              		.cfi_startproc
 315              		@ args = 8, pretend = 0, frame = 72
 316              		@ frame_needed = 0, uses_anonymous_args = 0
 317              	.LVL39:
 318 0000 2DE9F04F 		push	{r4, r5, r6, r7, r8, r9, r10, fp, lr}
 319              		.cfi_def_cfa_offset 36
 320              		.cfi_offset 4, -36
 321              		.cfi_offset 5, -32
 322              		.cfi_offset 6, -28
 323              		.cfi_offset 7, -24
 324              		.cfi_offset 8, -20
 325              		.cfi_offset 9, -16
 326              		.cfi_offset 10, -12
 327              		.cfi_offset 11, -8
 328              		.cfi_offset 14, -4
 329 0004 93B0     		sub	sp, sp, #76
 330              		.cfi_def_cfa_offset 112
 331 0006 0D46     		mov	r5, r1
 332 0008 1446     		mov	r4, r2
 333 000a 0093     		str	r3, [sp]	@ float
 190:Madgwick.c    **** 	gy *= 0.0174533f;
ARM GAS  C:\Users\A85590\AppData\Local\Temp\ccOscRLT.s 			page 12


 334              		.loc 1 190 0
 335 000c 4B49     		ldr	r1, .L21
 336              	.LVL40:
 337 000e FFF7FEFF 		bl	__aeabi_fmul
 338              	.LVL41:
 339 0012 0646     		mov	r6, r0
 340              	.LVL42:
 191:Madgwick.c    **** 	gz *= 0.0174533f;
 341              		.loc 1 191 0
 342 0014 4949     		ldr	r1, .L21
 343 0016 2846     		mov	r0, r5
 344              	.LVL43:
 345 0018 FFF7FEFF 		bl	__aeabi_fmul
 346              	.LVL44:
 347 001c 0746     		mov	r7, r0
 348              	.LVL45:
 192:Madgwick.c    **** 
 349              		.loc 1 192 0
 350 001e 4749     		ldr	r1, .L21
 351 0020 2046     		mov	r0, r4
 352              	.LVL46:
 353 0022 FFF7FEFF 		bl	__aeabi_fmul
 354              	.LVL47:
 355 0026 8046     		mov	r8, r0
 356              	.LVL48:
 195:Madgwick.c    **** 	qDot2 = 0.5f * (q0 * gx + q2 * gz - q3 * gy);
 357              		.loc 1 195 0
 358 0028 DFF81491 		ldr	r9, .L21+4
 359 002c D9F80050 		ldr	r5, [r9]	@ float
 360 0030 05F10041 		add	r1, r5, #-2147483648
 361 0034 3046     		mov	r0, r6
 362              	.LVL49:
 363 0036 FFF7FEFF 		bl	__aeabi_fmul
 364              	.LVL50:
 365 003a 8346     		mov	fp, r0
 366 003c D9F80840 		ldr	r4, [r9, #8]	@ float
 367 0040 2146     		mov	r1, r4
 368 0042 3846     		mov	r0, r7
 369 0044 FFF7FEFF 		bl	__aeabi_fmul
 370              	.LVL51:
 371 0048 0146     		mov	r1, r0
 372 004a 5846     		mov	r0, fp
 373 004c FFF7FEFF 		bl	__aeabi_fsub
 374              	.LVL52:
 375 0050 8346     		mov	fp, r0
 376 0052 D9F80CA0 		ldr	r10, [r9, #12]	@ float
 377 0056 5146     		mov	r1, r10
 378 0058 4046     		mov	r0, r8
 379 005a FFF7FEFF 		bl	__aeabi_fmul
 380              	.LVL53:
 381 005e 0146     		mov	r1, r0
 382 0060 5846     		mov	r0, fp
 383 0062 FFF7FEFF 		bl	__aeabi_fsub
 384              	.LVL54:
 385 0066 4FF07C51 		mov	r1, #1056964608
 386 006a FFF7FEFF 		bl	__aeabi_fmul
 387              	.LVL55:
ARM GAS  C:\Users\A85590\AppData\Local\Temp\ccOscRLT.s 			page 13


 388 006e 0290     		str	r0, [sp, #8]	@ float
 389              	.LVL56:
 196:Madgwick.c    **** 	qDot3 = 0.5f * (q0 * gy - q1 * gz + q3 * gx);
 390              		.loc 1 196 0
 391 0070 D9F804B0 		ldr	fp, [r9, #4]	@ float
 392 0074 5946     		mov	r1, fp
 393 0076 3046     		mov	r0, r6
 394              	.LVL57:
 395 0078 FFF7FEFF 		bl	__aeabi_fmul
 396              	.LVL58:
 397 007c 8146     		mov	r9, r0
 398 007e 2146     		mov	r1, r4
 399 0080 4046     		mov	r0, r8
 400 0082 FFF7FEFF 		bl	__aeabi_fmul
 401              	.LVL59:
 402 0086 0146     		mov	r1, r0
 403 0088 4846     		mov	r0, r9
 404 008a FFF7FEFF 		bl	__aeabi_fadd
 405              	.LVL60:
 406 008e 8146     		mov	r9, r0
 407 0090 5146     		mov	r1, r10
 408 0092 3846     		mov	r0, r7
 409 0094 FFF7FEFF 		bl	__aeabi_fmul
 410              	.LVL61:
 411 0098 0146     		mov	r1, r0
 412 009a 4846     		mov	r0, r9
 413 009c FFF7FEFF 		bl	__aeabi_fsub
 414              	.LVL62:
 415 00a0 4FF07C51 		mov	r1, #1056964608
 416 00a4 FFF7FEFF 		bl	__aeabi_fmul
 417              	.LVL63:
 418 00a8 0390     		str	r0, [sp, #12]	@ float
 419              	.LVL64:
 197:Madgwick.c    **** 	qDot4 = 0.5f * (q0 * gz + q1 * gy - q2 * gx);
 420              		.loc 1 197 0
 421 00aa 5946     		mov	r1, fp
 422 00ac 3846     		mov	r0, r7
 423              	.LVL65:
 424 00ae FFF7FEFF 		bl	__aeabi_fmul
 425              	.LVL66:
 426 00b2 8146     		mov	r9, r0
 427 00b4 2946     		mov	r1, r5
 428 00b6 4046     		mov	r0, r8
 429 00b8 FFF7FEFF 		bl	__aeabi_fmul
 430              	.LVL67:
 431 00bc 0146     		mov	r1, r0
 432 00be 4846     		mov	r0, r9
 433 00c0 FFF7FEFF 		bl	__aeabi_fsub
 434              	.LVL68:
 435 00c4 8146     		mov	r9, r0
 436 00c6 5146     		mov	r1, r10
 437 00c8 3046     		mov	r0, r6
 438 00ca FFF7FEFF 		bl	__aeabi_fmul
 439              	.LVL69:
 440 00ce 0146     		mov	r1, r0
 441 00d0 4846     		mov	r0, r9
 442 00d2 FFF7FEFF 		bl	__aeabi_fadd
ARM GAS  C:\Users\A85590\AppData\Local\Temp\ccOscRLT.s 			page 14


 443              	.LVL70:
 444 00d6 4FF07C51 		mov	r1, #1056964608
 445 00da FFF7FEFF 		bl	__aeabi_fmul
 446              	.LVL71:
 447 00de 0490     		str	r0, [sp, #16]	@ float
 448              	.LVL72:
 198:Madgwick.c    **** 
 449              		.loc 1 198 0
 450 00e0 5946     		mov	r1, fp
 451 00e2 4046     		mov	r0, r8
 452              	.LVL73:
 453 00e4 FFF7FEFF 		bl	__aeabi_fmul
 454              	.LVL74:
 455 00e8 8046     		mov	r8, r0
 456              	.LVL75:
 457 00ea 2946     		mov	r1, r5
 458 00ec 3846     		mov	r0, r7
 459 00ee FFF7FEFF 		bl	__aeabi_fmul
 460              	.LVL76:
 461 00f2 0146     		mov	r1, r0
 462 00f4 4046     		mov	r0, r8
 463 00f6 FFF7FEFF 		bl	__aeabi_fadd
 464              	.LVL77:
 465 00fa 0746     		mov	r7, r0
 466              	.LVL78:
 467 00fc 2146     		mov	r1, r4
 468 00fe 3046     		mov	r0, r6
 469 0100 FFF7FEFF 		bl	__aeabi_fmul
 470              	.LVL79:
 471 0104 0146     		mov	r1, r0
 472 0106 3846     		mov	r0, r7
 473 0108 FFF7FEFF 		bl	__aeabi_fsub
 474              	.LVL80:
 475 010c 4FF07C51 		mov	r1, #1056964608
 476 0110 FFF7FEFF 		bl	__aeabi_fmul
 477              	.LVL81:
 478 0114 0590     		str	r0, [sp, #20]	@ float
 479              	.LVL82:
 201:Madgwick.c    **** 	{
 480              		.loc 1 201 0
 481 0116 0021     		movs	r1, #0
 482 0118 0098     		ldr	r0, [sp]	@ float
 483              	.LVL83:
 484 011a FFF7FEFF 		bl	__aeabi_fcmpeq
 485              	.LVL84:
 486 011e 88B1     		cbz	r0, .L17
 201:Madgwick.c    **** 	{
 487              		.loc 1 201 0 is_stmt 0 discriminator 1
 488 0120 0021     		movs	r1, #0
 489 0122 1C98     		ldr	r0, [sp, #112]	@ float
 490 0124 FFF7FEFF 		bl	__aeabi_fcmpeq
 491              	.LVL85:
 492 0128 60B1     		cbz	r0, .L17
 201:Madgwick.c    **** 	{
 493              		.loc 1 201 0 discriminator 2
 494 012a 0021     		movs	r1, #0
 495 012c 1D98     		ldr	r0, [sp, #116]	@ float
ARM GAS  C:\Users\A85590\AppData\Local\Temp\ccOscRLT.s 			page 15


 496 012e FFF7FEFF 		bl	__aeabi_fcmpeq
 497              	.LVL86:
 498 0132 0028     		cmp	r0, #0
 499 0134 40F0A181 		bne	.L18
 500 0138 04E0     		b	.L22
 501              	.L23:
 502 013a 00BF     		.align	2
 503              	.L21:
 504 013c 39FA8E3C 		.word	1016003129
 505 0140 00000000 		.word	.LANCHOR0
 506              	.L22:
 507              	.L17:
 205:Madgwick.c    **** 		ax *= recipNorm;
 508              		.loc 1 205 0 is_stmt 1
 509 0144 009F     		ldr	r7, [sp]	@ float
 510 0146 3946     		mov	r1, r7
 511 0148 3846     		mov	r0, r7
 512 014a FFF7FEFF 		bl	__aeabi_fmul
 513              	.LVL87:
 514 014e 0646     		mov	r6, r0
 515              	.LVL88:
 516 0150 1C99     		ldr	r1, [sp, #112]	@ float
 517 0152 0846     		mov	r0, r1
 518 0154 FFF7FEFF 		bl	__aeabi_fmul
 519              	.LVL89:
 520 0158 0146     		mov	r1, r0
 521 015a 3046     		mov	r0, r6
 522 015c FFF7FEFF 		bl	__aeabi_fadd
 523              	.LVL90:
 524 0160 0646     		mov	r6, r0
 525 0162 1D99     		ldr	r1, [sp, #116]	@ float
 526 0164 0846     		mov	r0, r1
 527 0166 FFF7FEFF 		bl	__aeabi_fmul
 528              	.LVL91:
 529 016a 0146     		mov	r1, r0
 530 016c 3046     		mov	r0, r6
 531 016e FFF7FEFF 		bl	__aeabi_fadd
 532              	.LVL92:
 533 0172 FFF7FEFF 		bl	invSqrt
 534              	.LVL93:
 535 0176 0646     		mov	r6, r0
 536              	.LVL94:
 206:Madgwick.c    **** 		ay *= recipNorm;
 537              		.loc 1 206 0
 538 0178 0146     		mov	r1, r0
 539 017a 3846     		mov	r0, r7
 540              	.LVL95:
 541 017c FFF7FEFF 		bl	__aeabi_fmul
 542              	.LVL96:
 543 0180 0090     		str	r0, [sp]	@ float
 544              	.LVL97:
 207:Madgwick.c    **** 		az *= recipNorm;
 545              		.loc 1 207 0
 546 0182 3146     		mov	r1, r6
 547 0184 1C98     		ldr	r0, [sp, #112]	@ float
 548              	.LVL98:
 549 0186 FFF7FEFF 		bl	__aeabi_fmul
ARM GAS  C:\Users\A85590\AppData\Local\Temp\ccOscRLT.s 			page 16


 550              	.LVL99:
 551 018a 8146     		mov	r9, r0
 552              	.LVL100:
 208:Madgwick.c    **** 
 553              		.loc 1 208 0
 554 018c 3146     		mov	r1, r6
 555 018e 1D98     		ldr	r0, [sp, #116]	@ float
 556              	.LVL101:
 557 0190 FFF7FEFF 		bl	__aeabi_fmul
 558              	.LVL102:
 559 0194 0990     		str	r0, [sp, #36]	@ float
 560              	.LVL103:
 211:Madgwick.c    **** 		_2q1 = 2.0f * q1;
 561              		.loc 1 211 0
 562 0196 5946     		mov	r1, fp
 563 0198 5846     		mov	r0, fp
 564              	.LVL104:
 565 019a FFF7FEFF 		bl	__aeabi_fadd
 566              	.LVL105:
 567 019e 0A90     		str	r0, [sp, #40]	@ float
 568              	.LVL106:
 212:Madgwick.c    **** 		_2q2 = 2.0f * q2;
 569              		.loc 1 212 0
 570 01a0 2946     		mov	r1, r5
 571 01a2 2846     		mov	r0, r5
 572              	.LVL107:
 573 01a4 FFF7FEFF 		bl	__aeabi_fadd
 574              	.LVL108:
 575 01a8 0B90     		str	r0, [sp, #44]	@ float
 576              	.LVL109:
 213:Madgwick.c    **** 		_2q3 = 2.0f * q3;
 577              		.loc 1 213 0
 578 01aa 2146     		mov	r1, r4
 579 01ac 2046     		mov	r0, r4
 580              	.LVL110:
 581 01ae FFF7FEFF 		bl	__aeabi_fadd
 582              	.LVL111:
 583 01b2 0C90     		str	r0, [sp, #48]	@ float
 584              	.LVL112:
 214:Madgwick.c    **** 		_4q0 = 4.0f * q0;
 585              		.loc 1 214 0
 586 01b4 5146     		mov	r1, r10
 587 01b6 5046     		mov	r0, r10
 588              	.LVL113:
 589 01b8 FFF7FEFF 		bl	__aeabi_fadd
 590              	.LVL114:
 591 01bc 0D90     		str	r0, [sp, #52]	@ float
 592              	.LVL115:
 215:Madgwick.c    **** 		_4q1 = 4.0f * q1;
 593              		.loc 1 215 0
 594 01be 4FF08141 		mov	r1, #1082130432
 595 01c2 5846     		mov	r0, fp
 596              	.LVL116:
 597 01c4 FFF7FEFF 		bl	__aeabi_fmul
 598              	.LVL117:
 599 01c8 0646     		mov	r6, r0
 600              	.LVL118:
ARM GAS  C:\Users\A85590\AppData\Local\Temp\ccOscRLT.s 			page 17


 216:Madgwick.c    **** 		_4q2 = 4.0f * q2;
 601              		.loc 1 216 0
 602 01ca 4FF08141 		mov	r1, #1082130432
 603 01ce 2846     		mov	r0, r5
 604              	.LVL119:
 605 01d0 FFF7FEFF 		bl	__aeabi_fmul
 606              	.LVL120:
 607 01d4 0690     		str	r0, [sp, #24]	@ float
 608              	.LVL121:
 217:Madgwick.c    **** 		_8q1 = 8.0f * q1;
 609              		.loc 1 217 0
 610 01d6 4FF08141 		mov	r1, #1082130432
 611 01da 2046     		mov	r0, r4
 612              	.LVL122:
 613 01dc FFF7FEFF 		bl	__aeabi_fmul
 614              	.LVL123:
 615 01e0 1090     		str	r0, [sp, #64]	@ float
 616              	.LVL124:
 218:Madgwick.c    **** 		_8q2 = 8.0f * q2;
 617              		.loc 1 218 0
 618 01e2 4FF08241 		mov	r1, #1090519040
 619 01e6 2846     		mov	r0, r5
 620              	.LVL125:
 621 01e8 FFF7FEFF 		bl	__aeabi_fmul
 622              	.LVL126:
 623 01ec 0746     		mov	r7, r0
 624              	.LVL127:
 219:Madgwick.c    **** 		q0q0 = q0 * q0;
 625              		.loc 1 219 0
 626 01ee 4FF08241 		mov	r1, #1090519040
 627 01f2 2046     		mov	r0, r4
 628              	.LVL128:
 629 01f4 FFF7FEFF 		bl	__aeabi_fmul
 630              	.LVL129:
 631 01f8 0E90     		str	r0, [sp, #56]	@ float
 632              	.LVL130:
 220:Madgwick.c    **** 		q1q1 = q1 * q1;
 633              		.loc 1 220 0
 634 01fa 5946     		mov	r1, fp
 635 01fc 5846     		mov	r0, fp
 636              	.LVL131:
 637 01fe FFF7FEFF 		bl	__aeabi_fmul
 638              	.LVL132:
 639 0202 1190     		str	r0, [sp, #68]	@ float
 640              	.LVL133:
 221:Madgwick.c    **** 		q2q2 = q2 * q2;
 641              		.loc 1 221 0
 642 0204 2946     		mov	r1, r5
 643 0206 2846     		mov	r0, r5
 644              	.LVL134:
 645 0208 FFF7FEFF 		bl	__aeabi_fmul
 646              	.LVL135:
 647 020c 0190     		str	r0, [sp, #4]	@ float
 648              	.LVL136:
 222:Madgwick.c    **** 		q3q3 = q3 * q3;
 649              		.loc 1 222 0
 650 020e 2146     		mov	r1, r4
ARM GAS  C:\Users\A85590\AppData\Local\Temp\ccOscRLT.s 			page 18


 651 0210 2046     		mov	r0, r4
 652              	.LVL137:
 653 0212 FFF7FEFF 		bl	__aeabi_fmul
 654              	.LVL138:
 655 0216 8046     		mov	r8, r0
 656              	.LVL139:
 223:Madgwick.c    **** 
 657              		.loc 1 223 0
 658 0218 5146     		mov	r1, r10
 659 021a 5046     		mov	r0, r10
 660              	.LVL140:
 661 021c FFF7FEFF 		bl	__aeabi_fmul
 662              	.LVL141:
 663 0220 0F90     		str	r0, [sp, #60]	@ float
 664              	.LVL142:
 226:Madgwick.c    **** 		s1 = _4q1 * q3q3 - _2q3 * ax + 4.0f * q0q0 * q1 - _2q0 * ay - _4q1 + _8q1 * q1q1 + _8q1 * q2q2 + 
 665              		.loc 1 226 0
 666 0222 CDF81C80 		str	r8, [sp, #28]	@ float
 667 0226 4146     		mov	r1, r8
 668 0228 3046     		mov	r0, r6
 669              	.LVL143:
 670 022a FFF7FEFF 		bl	__aeabi_fmul
 671              	.LVL144:
 672 022e 8046     		mov	r8, r0
 673              	.LVL145:
 674 0230 0C99     		ldr	r1, [sp, #48]	@ float
 675 0232 0098     		ldr	r0, [sp]	@ float
 676 0234 FFF7FEFF 		bl	__aeabi_fmul
 677              	.LVL146:
 678 0238 0146     		mov	r1, r0
 679 023a 4046     		mov	r0, r8
 680 023c FFF7FEFF 		bl	__aeabi_fadd
 681              	.LVL147:
 682 0240 8046     		mov	r8, r0
 683 0242 0199     		ldr	r1, [sp, #4]	@ float
 684 0244 3046     		mov	r0, r6
 685 0246 FFF7FEFF 		bl	__aeabi_fmul
 686              	.LVL148:
 687 024a 0146     		mov	r1, r0
 688 024c 4046     		mov	r0, r8
 689 024e FFF7FEFF 		bl	__aeabi_fadd
 690              	.LVL149:
 691 0252 0646     		mov	r6, r0
 692              	.LVL150:
 693 0254 0B99     		ldr	r1, [sp, #44]	@ float
 694 0256 4846     		mov	r0, r9
 695 0258 FFF7FEFF 		bl	__aeabi_fmul
 696              	.LVL151:
 697 025c 0146     		mov	r1, r0
 698 025e 3046     		mov	r0, r6
 699 0260 FFF7FEFF 		bl	__aeabi_fsub
 700              	.LVL152:
 701 0264 0890     		str	r0, [sp, #32]	@ float
 702              	.LVL153:
 227:Madgwick.c    **** 		s2 = 4.0f * q0q0 * q2 + _2q0 * ax + _4q2 * q3q3 - _2q3 * ay - _4q2 + _8q2 * q1q1 + _8q2 * q2q2 + 
 703              		.loc 1 227 0
 704 0266 0F99     		ldr	r1, [sp, #60]	@ float
ARM GAS  C:\Users\A85590\AppData\Local\Temp\ccOscRLT.s 			page 19


 705 0268 0698     		ldr	r0, [sp, #24]	@ float
 706              	.LVL154:
 707 026a FFF7FEFF 		bl	__aeabi_fmul
 708              	.LVL155:
 709 026e 0646     		mov	r6, r0
 710 0270 0D99     		ldr	r1, [sp, #52]	@ float
 711 0272 0098     		ldr	r0, [sp]	@ float
 712 0274 FFF7FEFF 		bl	__aeabi_fmul
 713              	.LVL156:
 714 0278 0146     		mov	r1, r0
 715 027a 3046     		mov	r0, r6
 716 027c FFF7FEFF 		bl	__aeabi_fsub
 717              	.LVL157:
 718 0280 8046     		mov	r8, r0
 719 0282 4FF08141 		mov	r1, #1082130432
 720 0286 1198     		ldr	r0, [sp, #68]	@ float
 721 0288 FFF7FEFF 		bl	__aeabi_fmul
 722              	.LVL158:
 723 028c 0646     		mov	r6, r0
 724 028e 0146     		mov	r1, r0
 725 0290 2846     		mov	r0, r5
 726 0292 FFF7FEFF 		bl	__aeabi_fmul
 727              	.LVL159:
 728 0296 0146     		mov	r1, r0
 729 0298 4046     		mov	r0, r8
 730 029a FFF7FEFF 		bl	__aeabi_fadd
 731              	.LVL160:
 732 029e 8046     		mov	r8, r0
 733 02a0 0A99     		ldr	r1, [sp, #40]	@ float
 734 02a2 4846     		mov	r0, r9
 735 02a4 FFF7FEFF 		bl	__aeabi_fmul
 736              	.LVL161:
 737 02a8 0146     		mov	r1, r0
 738 02aa 4046     		mov	r0, r8
 739 02ac FFF7FEFF 		bl	__aeabi_fsub
 740              	.LVL162:
 741 02b0 0699     		ldr	r1, [sp, #24]	@ float
 742 02b2 FFF7FEFF 		bl	__aeabi_fsub
 743              	.LVL163:
 744 02b6 8046     		mov	r8, r0
 745 02b8 0199     		ldr	r1, [sp, #4]	@ float
 746 02ba 3846     		mov	r0, r7
 747 02bc FFF7FEFF 		bl	__aeabi_fmul
 748              	.LVL164:
 749 02c0 0146     		mov	r1, r0
 750 02c2 4046     		mov	r0, r8
 751 02c4 FFF7FEFF 		bl	__aeabi_fadd
 752              	.LVL165:
 753 02c8 8046     		mov	r8, r0
 754 02ca 0799     		ldr	r1, [sp, #28]	@ float
 755 02cc 3846     		mov	r0, r7
 756 02ce FFF7FEFF 		bl	__aeabi_fmul
 757              	.LVL166:
 758 02d2 0146     		mov	r1, r0
 759 02d4 4046     		mov	r0, r8
 760 02d6 FFF7FEFF 		bl	__aeabi_fadd
 761              	.LVL167:
ARM GAS  C:\Users\A85590\AppData\Local\Temp\ccOscRLT.s 			page 20


 762 02da 0746     		mov	r7, r0
 763              	.LVL168:
 764 02dc 0699     		ldr	r1, [sp, #24]	@ float
 765 02de 0998     		ldr	r0, [sp, #36]	@ float
 766 02e0 FFF7FEFF 		bl	__aeabi_fmul
 767              	.LVL169:
 768 02e4 0146     		mov	r1, r0
 769 02e6 3846     		mov	r0, r7
 770 02e8 FFF7FEFF 		bl	__aeabi_fadd
 771              	.LVL170:
 772 02ec 8046     		mov	r8, r0
 773              	.LVL171:
 228:Madgwick.c    **** 		s3 = 4.0f * q1q1 * q3 - _2q1 * ax + 4.0f * q2q2 * q3 - _2q2 * ay;
 774              		.loc 1 228 0
 775 02ee 3146     		mov	r1, r6
 776 02f0 2046     		mov	r0, r4
 777              	.LVL172:
 778 02f2 FFF7FEFF 		bl	__aeabi_fmul
 779              	.LVL173:
 780 02f6 0646     		mov	r6, r0
 781 02f8 0A99     		ldr	r1, [sp, #40]	@ float
 782 02fa 0098     		ldr	r0, [sp]	@ float
 783 02fc FFF7FEFF 		bl	__aeabi_fmul
 784              	.LVL174:
 785 0300 0146     		mov	r1, r0
 786 0302 3046     		mov	r0, r6
 787 0304 FFF7FEFF 		bl	__aeabi_fadd
 788              	.LVL175:
 789 0308 0646     		mov	r6, r0
 790 030a 0F99     		ldr	r1, [sp, #60]	@ float
 791 030c 109F     		ldr	r7, [sp, #64]	@ float
 792 030e 3846     		mov	r0, r7
 793 0310 FFF7FEFF 		bl	__aeabi_fmul
 794              	.LVL176:
 795 0314 0146     		mov	r1, r0
 796 0316 3046     		mov	r0, r6
 797 0318 FFF7FEFF 		bl	__aeabi_fadd
 798              	.LVL177:
 799 031c 0646     		mov	r6, r0
 800 031e 0D99     		ldr	r1, [sp, #52]	@ float
 801 0320 4846     		mov	r0, r9
 802 0322 FFF7FEFF 		bl	__aeabi_fmul
 803              	.LVL178:
 804 0326 0146     		mov	r1, r0
 805 0328 3046     		mov	r0, r6
 806 032a FFF7FEFF 		bl	__aeabi_fsub
 807              	.LVL179:
 808 032e 3946     		mov	r1, r7
 809 0330 FFF7FEFF 		bl	__aeabi_fsub
 810              	.LVL180:
 811 0334 0646     		mov	r6, r0
 812 0336 0199     		ldr	r1, [sp, #4]	@ float
 813 0338 0E98     		ldr	r0, [sp, #56]	@ float
 814 033a FFF7FEFF 		bl	__aeabi_fmul
 815              	.LVL181:
 816 033e 0146     		mov	r1, r0
 817 0340 3046     		mov	r0, r6
ARM GAS  C:\Users\A85590\AppData\Local\Temp\ccOscRLT.s 			page 21


 818 0342 FFF7FEFF 		bl	__aeabi_fadd
 819              	.LVL182:
 820 0346 0646     		mov	r6, r0
 821 0348 0799     		ldr	r1, [sp, #28]	@ float
 822 034a 0E98     		ldr	r0, [sp, #56]	@ float
 823 034c FFF7FEFF 		bl	__aeabi_fmul
 824              	.LVL183:
 825 0350 0146     		mov	r1, r0
 826 0352 3046     		mov	r0, r6
 827 0354 FFF7FEFF 		bl	__aeabi_fadd
 828              	.LVL184:
 829 0358 0646     		mov	r6, r0
 830 035a 3946     		mov	r1, r7
 831 035c 0998     		ldr	r0, [sp, #36]	@ float
 832 035e FFF7FEFF 		bl	__aeabi_fmul
 833              	.LVL185:
 834 0362 0146     		mov	r1, r0
 835 0364 3046     		mov	r0, r6
 836 0366 FFF7FEFF 		bl	__aeabi_fadd
 837              	.LVL186:
 838 036a 0746     		mov	r7, r0
 839              	.LVL187:
 229:Madgwick.c    **** 		recipNorm = invSqrt(s0 * s0 + s1 * s1 + s2 * s2 + s3 * s3); // normalise step magnitude
 840              		.loc 1 229 0
 841 036c 4FF08141 		mov	r1, #1082130432
 842 0370 0198     		ldr	r0, [sp, #4]	@ float
 843              	.LVL188:
 844 0372 FFF7FEFF 		bl	__aeabi_fmul
 845              	.LVL189:
 846 0376 0146     		mov	r1, r0
 847 0378 5046     		mov	r0, r10
 848 037a FFF7FEFF 		bl	__aeabi_fmul
 849              	.LVL190:
 850 037e 0646     		mov	r6, r0
 851 0380 0B99     		ldr	r1, [sp, #44]	@ float
 852 0382 0098     		ldr	r0, [sp]	@ float
 853 0384 FFF7FEFF 		bl	__aeabi_fmul
 854              	.LVL191:
 855 0388 0146     		mov	r1, r0
 856 038a 3046     		mov	r0, r6
 857 038c FFF7FEFF 		bl	__aeabi_fsub
 858              	.LVL192:
 859 0390 0646     		mov	r6, r0
 860 0392 4FF08141 		mov	r1, #1082130432
 861 0396 0798     		ldr	r0, [sp, #28]	@ float
 862 0398 FFF7FEFF 		bl	__aeabi_fmul
 863              	.LVL193:
 864 039c 0146     		mov	r1, r0
 865 039e 5046     		mov	r0, r10
 866 03a0 FFF7FEFF 		bl	__aeabi_fmul
 867              	.LVL194:
 868 03a4 0146     		mov	r1, r0
 869 03a6 3046     		mov	r0, r6
 870 03a8 FFF7FEFF 		bl	__aeabi_fadd
 871              	.LVL195:
 872 03ac 0646     		mov	r6, r0
 873 03ae 0C99     		ldr	r1, [sp, #48]	@ float
ARM GAS  C:\Users\A85590\AppData\Local\Temp\ccOscRLT.s 			page 22


 874 03b0 4846     		mov	r0, r9
 875 03b2 FFF7FEFF 		bl	__aeabi_fmul
 876              	.LVL196:
 877 03b6 0146     		mov	r1, r0
 878 03b8 3046     		mov	r0, r6
 879 03ba FFF7FEFF 		bl	__aeabi_fsub
 880              	.LVL197:
 881 03be 8146     		mov	r9, r0
 882              	.LVL198:
 230:Madgwick.c    **** 		s0 *= recipNorm;
 883              		.loc 1 230 0
 884 03c0 089B     		ldr	r3, [sp, #32]	@ float
 885 03c2 1946     		mov	r1, r3
 886 03c4 1846     		mov	r0, r3
 887              	.LVL199:
 888 03c6 FFF7FEFF 		bl	__aeabi_fmul
 889              	.LVL200:
 890 03ca 0646     		mov	r6, r0
 891 03cc 4146     		mov	r1, r8
 892 03ce 4046     		mov	r0, r8
 893 03d0 FFF7FEFF 		bl	__aeabi_fmul
 894              	.LVL201:
 895 03d4 0146     		mov	r1, r0
 896 03d6 3046     		mov	r0, r6
 897 03d8 FFF7FEFF 		bl	__aeabi_fadd
 898              	.LVL202:
 899 03dc 0646     		mov	r6, r0
 900 03de 3946     		mov	r1, r7
 901 03e0 3846     		mov	r0, r7
 902 03e2 FFF7FEFF 		bl	__aeabi_fmul
 903              	.LVL203:
 904 03e6 0146     		mov	r1, r0
 905 03e8 3046     		mov	r0, r6
 906 03ea FFF7FEFF 		bl	__aeabi_fadd
 907              	.LVL204:
 908 03ee 0646     		mov	r6, r0
 909 03f0 4946     		mov	r1, r9
 910 03f2 4846     		mov	r0, r9
 911 03f4 FFF7FEFF 		bl	__aeabi_fmul
 912              	.LVL205:
 913 03f8 0146     		mov	r1, r0
 914 03fa 3046     		mov	r0, r6
 915 03fc FFF7FEFF 		bl	__aeabi_fadd
 916              	.LVL206:
 917 0400 FFF7FEFF 		bl	invSqrt
 918              	.LVL207:
 919 0404 0646     		mov	r6, r0
 920              	.LVL208:
 231:Madgwick.c    **** 		s1 *= recipNorm;
 921              		.loc 1 231 0
 922 0406 0146     		mov	r1, r0
 923 0408 0898     		ldr	r0, [sp, #32]	@ float
 924              	.LVL209:
 925 040a FFF7FEFF 		bl	__aeabi_fmul
 926              	.LVL210:
 927 040e 0090     		str	r0, [sp]	@ float
 928              	.LVL211:
ARM GAS  C:\Users\A85590\AppData\Local\Temp\ccOscRLT.s 			page 23


 232:Madgwick.c    **** 		s2 *= recipNorm;
 929              		.loc 1 232 0
 930 0410 3146     		mov	r1, r6
 931 0412 4046     		mov	r0, r8
 932              	.LVL212:
 933 0414 FFF7FEFF 		bl	__aeabi_fmul
 934              	.LVL213:
 935 0418 8046     		mov	r8, r0
 936              	.LVL214:
 233:Madgwick.c    **** 		s3 *= recipNorm;
 937              		.loc 1 233 0
 938 041a 3146     		mov	r1, r6
 939 041c 3846     		mov	r0, r7
 940              	.LVL215:
 941 041e FFF7FEFF 		bl	__aeabi_fmul
 942              	.LVL216:
 943 0422 0746     		mov	r7, r0
 944              	.LVL217:
 234:Madgwick.c    **** 
 945              		.loc 1 234 0
 946 0424 3146     		mov	r1, r6
 947 0426 4846     		mov	r0, r9
 948              	.LVL218:
 949 0428 FFF7FEFF 		bl	__aeabi_fmul
 950              	.LVL219:
 951 042c 8146     		mov	r9, r0
 952              	.LVL220:
 237:Madgwick.c    **** 		qDot2 -= beta * s1;
 953              		.loc 1 237 0
 954 042e 434B     		ldr	r3, .L24
 955 0430 1E6A     		ldr	r6, [r3, #32]	@ float
 956              	.LVL221:
 957 0432 3146     		mov	r1, r6
 958 0434 0098     		ldr	r0, [sp]	@ float
 959              	.LVL222:
 960 0436 FFF7FEFF 		bl	__aeabi_fmul
 961              	.LVL223:
 962 043a 0146     		mov	r1, r0
 963 043c 0298     		ldr	r0, [sp, #8]	@ float
 964 043e FFF7FEFF 		bl	__aeabi_fsub
 965              	.LVL224:
 966 0442 0290     		str	r0, [sp, #8]	@ float
 967              	.LVL225:
 238:Madgwick.c    **** 		qDot3 -= beta * s2;
 968              		.loc 1 238 0
 969 0444 3146     		mov	r1, r6
 970 0446 4046     		mov	r0, r8
 971              	.LVL226:
 972 0448 FFF7FEFF 		bl	__aeabi_fmul
 973              	.LVL227:
 974 044c 0146     		mov	r1, r0
 975 044e 0398     		ldr	r0, [sp, #12]	@ float
 976 0450 FFF7FEFF 		bl	__aeabi_fsub
 977              	.LVL228:
 978 0454 0390     		str	r0, [sp, #12]	@ float
 979              	.LVL229:
 239:Madgwick.c    **** 		qDot4 -= beta * s3;
ARM GAS  C:\Users\A85590\AppData\Local\Temp\ccOscRLT.s 			page 24


 980              		.loc 1 239 0
 981 0456 3146     		mov	r1, r6
 982 0458 3846     		mov	r0, r7
 983              	.LVL230:
 984 045a FFF7FEFF 		bl	__aeabi_fmul
 985              	.LVL231:
 986 045e 0146     		mov	r1, r0
 987 0460 0498     		ldr	r0, [sp, #16]	@ float
 988 0462 FFF7FEFF 		bl	__aeabi_fsub
 989              	.LVL232:
 990 0466 0490     		str	r0, [sp, #16]	@ float
 991              	.LVL233:
 240:Madgwick.c    **** 	}
 992              		.loc 1 240 0
 993 0468 3146     		mov	r1, r6
 994 046a 4846     		mov	r0, r9
 995              	.LVL234:
 996 046c FFF7FEFF 		bl	__aeabi_fmul
 997              	.LVL235:
 998 0470 0146     		mov	r1, r0
 999 0472 0598     		ldr	r0, [sp, #20]	@ float
 1000 0474 FFF7FEFF 		bl	__aeabi_fsub
 1001              	.LVL236:
 1002 0478 0590     		str	r0, [sp, #20]	@ float
 1003              	.LVL237:
 1004              	.L18:
 244:Madgwick.c    **** 	q1 += qDot2 * invSampleFreq;
 1005              		.loc 1 244 0
 1006 047a 304E     		ldr	r6, .L24
 1007 047c 776A     		ldr	r7, [r6, #36]	@ float
 1008 047e 3946     		mov	r1, r7
 1009 0480 0298     		ldr	r0, [sp, #8]	@ float
 1010 0482 FFF7FEFF 		bl	__aeabi_fmul
 1011              	.LVL238:
 1012 0486 0146     		mov	r1, r0
 1013 0488 5846     		mov	r0, fp
 1014 048a FFF7FEFF 		bl	__aeabi_fadd
 1015              	.LVL239:
 1016 048e 8046     		mov	r8, r0
 245:Madgwick.c    **** 	q2 += qDot3 * invSampleFreq;
 1017              		.loc 1 245 0
 1018 0490 3946     		mov	r1, r7
 1019 0492 0398     		ldr	r0, [sp, #12]	@ float
 1020 0494 FFF7FEFF 		bl	__aeabi_fmul
 1021              	.LVL240:
 1022 0498 0146     		mov	r1, r0
 1023 049a 2846     		mov	r0, r5
 1024 049c FFF7FEFF 		bl	__aeabi_fadd
 1025              	.LVL241:
 1026 04a0 0546     		mov	r5, r0
 246:Madgwick.c    **** 	q3 += qDot4 * invSampleFreq;
 1027              		.loc 1 246 0
 1028 04a2 3946     		mov	r1, r7
 1029 04a4 0498     		ldr	r0, [sp, #16]	@ float
 1030 04a6 FFF7FEFF 		bl	__aeabi_fmul
 1031              	.LVL242:
 1032 04aa 0146     		mov	r1, r0
ARM GAS  C:\Users\A85590\AppData\Local\Temp\ccOscRLT.s 			page 25


 1033 04ac 2046     		mov	r0, r4
 1034 04ae FFF7FEFF 		bl	__aeabi_fadd
 1035              	.LVL243:
 1036 04b2 8146     		mov	r9, r0
 247:Madgwick.c    **** 
 1037              		.loc 1 247 0
 1038 04b4 3946     		mov	r1, r7
 1039 04b6 0598     		ldr	r0, [sp, #20]	@ float
 1040 04b8 FFF7FEFF 		bl	__aeabi_fmul
 1041              	.LVL244:
 1042 04bc 0146     		mov	r1, r0
 1043 04be 5046     		mov	r0, r10
 1044 04c0 FFF7FEFF 		bl	__aeabi_fadd
 1045              	.LVL245:
 1046 04c4 0746     		mov	r7, r0
 250:Madgwick.c    **** 	q0 *= recipNorm;
 1047              		.loc 1 250 0
 1048 04c6 4146     		mov	r1, r8
 1049 04c8 4046     		mov	r0, r8
 1050 04ca FFF7FEFF 		bl	__aeabi_fmul
 1051              	.LVL246:
 1052 04ce 0446     		mov	r4, r0
 1053 04d0 2946     		mov	r1, r5
 1054 04d2 2846     		mov	r0, r5
 1055 04d4 FFF7FEFF 		bl	__aeabi_fmul
 1056              	.LVL247:
 1057 04d8 0146     		mov	r1, r0
 1058 04da 2046     		mov	r0, r4
 1059 04dc FFF7FEFF 		bl	__aeabi_fadd
 1060              	.LVL248:
 1061 04e0 0446     		mov	r4, r0
 1062 04e2 4946     		mov	r1, r9
 1063 04e4 4846     		mov	r0, r9
 1064 04e6 FFF7FEFF 		bl	__aeabi_fmul
 1065              	.LVL249:
 1066 04ea 0146     		mov	r1, r0
 1067 04ec 2046     		mov	r0, r4
 1068 04ee FFF7FEFF 		bl	__aeabi_fadd
 1069              	.LVL250:
 1070 04f2 0446     		mov	r4, r0
 1071 04f4 3946     		mov	r1, r7
 1072 04f6 3846     		mov	r0, r7
 1073 04f8 FFF7FEFF 		bl	__aeabi_fmul
 1074              	.LVL251:
 1075 04fc 0146     		mov	r1, r0
 1076 04fe 2046     		mov	r0, r4
 1077 0500 FFF7FEFF 		bl	__aeabi_fadd
 1078              	.LVL252:
 1079 0504 FFF7FEFF 		bl	invSqrt
 1080              	.LVL253:
 1081 0508 0446     		mov	r4, r0
 1082              	.LVL254:
 251:Madgwick.c    **** 	q1 *= recipNorm;
 1083              		.loc 1 251 0
 1084 050a 0146     		mov	r1, r0
 1085 050c 4046     		mov	r0, r8
 1086              	.LVL255:
ARM GAS  C:\Users\A85590\AppData\Local\Temp\ccOscRLT.s 			page 26


 1087 050e FFF7FEFF 		bl	__aeabi_fmul
 1088              	.LVL256:
 1089 0512 7060     		str	r0, [r6, #4]	@ float
 252:Madgwick.c    **** 	q2 *= recipNorm;
 1090              		.loc 1 252 0
 1091 0514 2146     		mov	r1, r4
 1092 0516 2846     		mov	r0, r5
 1093 0518 FFF7FEFF 		bl	__aeabi_fmul
 1094              	.LVL257:
 1095 051c 3060     		str	r0, [r6]	@ float
 253:Madgwick.c    **** 	q3 *= recipNorm;
 1096              		.loc 1 253 0
 1097 051e 2146     		mov	r1, r4
 1098 0520 4846     		mov	r0, r9
 1099 0522 FFF7FEFF 		bl	__aeabi_fmul
 1100              	.LVL258:
 1101 0526 B060     		str	r0, [r6, #8]	@ float
 254:Madgwick.c    **** 	anglesComputed = 0;
 1102              		.loc 1 254 0
 1103 0528 2146     		mov	r1, r4
 1104 052a 3846     		mov	r0, r7
 1105 052c FFF7FEFF 		bl	__aeabi_fmul
 1106              	.LVL259:
 1107 0530 F060     		str	r0, [r6, #12]	@ float
 255:Madgwick.c    **** }
 1108              		.loc 1 255 0
 1109 0532 0023     		movs	r3, #0
 1110 0534 3377     		strb	r3, [r6, #28]
 256:Madgwick.c    **** 
 1111              		.loc 1 256 0
 1112 0536 13B0     		add	sp, sp, #76
 1113              		.cfi_def_cfa_offset 36
 1114              		@ sp needed
 1115 0538 BDE8F08F 		pop	{r4, r5, r6, r7, r8, r9, r10, fp, pc}
 1116              	.LVL260:
 1117              	.L25:
 1118              		.align	2
 1119              	.L24:
 1120 053c 00000000 		.word	.LANCHOR0
 1121              		.cfi_endproc
 1122              	.LFE4:
 1123              		.size	Madgwick_updateIMU, .-Madgwick_updateIMU
 1124              		.section	.text.Madgwick_update,"ax",%progbits
 1125              		.align	2
 1126              		.global	Madgwick_update
 1127              		.thumb
 1128              		.thumb_func
 1129              		.type	Madgwick_update, %function
 1130              	Madgwick_update:
 1131              	.LFB3:
  75:Madgwick.c    **** 	float recipNorm;
 1132              		.loc 1 75 0
 1133              		.cfi_startproc
 1134              		@ args = 20, pretend = 0, frame = 120
 1135              		@ frame_needed = 0, uses_anonymous_args = 0
 1136              	.LVL261:
 1137 0000 2DE9F04F 		push	{r4, r5, r6, r7, r8, r9, r10, fp, lr}
ARM GAS  C:\Users\A85590\AppData\Local\Temp\ccOscRLT.s 			page 27


 1138              		.cfi_def_cfa_offset 36
 1139              		.cfi_offset 4, -36
 1140              		.cfi_offset 5, -32
 1141              		.cfi_offset 6, -28
 1142              		.cfi_offset 7, -24
 1143              		.cfi_offset 8, -20
 1144              		.cfi_offset 9, -16
 1145              		.cfi_offset 10, -12
 1146              		.cfi_offset 11, -8
 1147              		.cfi_offset 14, -4
 1148 0004 A1B0     		sub	sp, sp, #132
 1149              		.cfi_def_cfa_offset 168
 1150 0006 0646     		mov	r6, r0
 1151 0008 0D46     		mov	r5, r1
 1152 000a 1446     		mov	r4, r2
 1153 000c 0393     		str	r3, [sp, #12]	@ float
  83:Madgwick.c    **** 	{
 1154              		.loc 1 83 0
 1155 000e 0021     		movs	r1, #0
 1156              	.LVL262:
 1157 0010 2C98     		ldr	r0, [sp, #176]	@ float
 1158              	.LVL263:
 1159 0012 FFF7FEFF 		bl	__aeabi_fcmpeq
 1160              	.LVL264:
 1161 0016 A8B1     		cbz	r0, .L27
  83:Madgwick.c    **** 	{
 1162              		.loc 1 83 0 is_stmt 0 discriminator 1
 1163 0018 0021     		movs	r1, #0
 1164 001a 2D98     		ldr	r0, [sp, #180]	@ float
 1165 001c FFF7FEFF 		bl	__aeabi_fcmpeq
 1166              	.LVL265:
 1167 0020 80B1     		cbz	r0, .L27
  83:Madgwick.c    **** 	{
 1168              		.loc 1 83 0 discriminator 2
 1169 0022 0021     		movs	r1, #0
 1170 0024 2E98     		ldr	r0, [sp, #184]	@ float
 1171 0026 FFF7FEFF 		bl	__aeabi_fcmpeq
 1172              	.LVL266:
 1173 002a 58B1     		cbz	r0, .L27
  85:Madgwick.c    **** 		return;
 1174              		.loc 1 85 0 is_stmt 1
 1175 002c 2B9B     		ldr	r3, [sp, #172]	@ float
 1176 002e 0193     		str	r3, [sp, #4]	@ float
 1177 0030 2A9B     		ldr	r3, [sp, #168]	@ float
 1178 0032 0093     		str	r3, [sp]	@ float
 1179 0034 039B     		ldr	r3, [sp, #12]	@ float
 1180 0036 2246     		mov	r2, r4
 1181 0038 2946     		mov	r1, r5
 1182 003a 3046     		mov	r0, r6
 1183 003c FFF7FEFF 		bl	Madgwick_updateIMU
 1184              	.LVL267:
  86:Madgwick.c    **** 	}
 1185              		.loc 1 86 0
 1186 0040 00F0C2BC 		b	.L26
 1187              	.L27:
  90:Madgwick.c    **** 	gy *= 0.0174533f;
 1188              		.loc 1 90 0
ARM GAS  C:\Users\A85590\AppData\Local\Temp\ccOscRLT.s 			page 28


 1189 0044 4949     		ldr	r1, .L39
 1190 0046 3046     		mov	r0, r6
 1191 0048 FFF7FEFF 		bl	__aeabi_fmul
 1192              	.LVL268:
 1193 004c 0746     		mov	r7, r0
 1194              	.LVL269:
  91:Madgwick.c    **** 	gz *= 0.0174533f;
 1195              		.loc 1 91 0
 1196 004e 4749     		ldr	r1, .L39
 1197 0050 2846     		mov	r0, r5
 1198              	.LVL270:
 1199 0052 FFF7FEFF 		bl	__aeabi_fmul
 1200              	.LVL271:
 1201 0056 8046     		mov	r8, r0
 1202              	.LVL272:
  92:Madgwick.c    **** 
 1203              		.loc 1 92 0
 1204 0058 4449     		ldr	r1, .L39
 1205 005a 2046     		mov	r0, r4
 1206              	.LVL273:
 1207 005c FFF7FEFF 		bl	__aeabi_fmul
 1208              	.LVL274:
 1209 0060 8146     		mov	r9, r0
 1210              	.LVL275:
  95:Madgwick.c    **** 	qDot2 = 0.5f * (q0 * gx + q2 * gz - q3 * gy);
 1211              		.loc 1 95 0
 1212 0062 434E     		ldr	r6, .L39+4
 1213 0064 3568     		ldr	r5, [r6]	@ float
 1214 0066 05F10041 		add	r1, r5, #-2147483648
 1215 006a 3846     		mov	r0, r7
 1216              	.LVL276:
 1217 006c FFF7FEFF 		bl	__aeabi_fmul
 1218              	.LVL277:
 1219 0070 8346     		mov	fp, r0
 1220 0072 B468     		ldr	r4, [r6, #8]	@ float
 1221 0074 2146     		mov	r1, r4
 1222 0076 4046     		mov	r0, r8
 1223 0078 FFF7FEFF 		bl	__aeabi_fmul
 1224              	.LVL278:
 1225 007c 0146     		mov	r1, r0
 1226 007e 5846     		mov	r0, fp
 1227 0080 FFF7FEFF 		bl	__aeabi_fsub
 1228              	.LVL279:
 1229 0084 8346     		mov	fp, r0
 1230 0086 D6F80CA0 		ldr	r10, [r6, #12]	@ float
 1231 008a 5146     		mov	r1, r10
 1232 008c 4846     		mov	r0, r9
 1233 008e FFF7FEFF 		bl	__aeabi_fmul
 1234              	.LVL280:
 1235 0092 0146     		mov	r1, r0
 1236 0094 5846     		mov	r0, fp
 1237 0096 FFF7FEFF 		bl	__aeabi_fsub
 1238              	.LVL281:
 1239 009a 4FF07C51 		mov	r1, #1056964608
 1240 009e FFF7FEFF 		bl	__aeabi_fmul
 1241              	.LVL282:
 1242 00a2 0D90     		str	r0, [sp, #52]	@ float
ARM GAS  C:\Users\A85590\AppData\Local\Temp\ccOscRLT.s 			page 29


 1243              	.LVL283:
  96:Madgwick.c    **** 	qDot3 = 0.5f * (q0 * gy - q1 * gz + q3 * gx);
 1244              		.loc 1 96 0
 1245 00a4 7668     		ldr	r6, [r6, #4]	@ float
 1246 00a6 3146     		mov	r1, r6
 1247 00a8 3846     		mov	r0, r7
 1248              	.LVL284:
 1249 00aa FFF7FEFF 		bl	__aeabi_fmul
 1250              	.LVL285:
 1251 00ae 8346     		mov	fp, r0
 1252 00b0 2146     		mov	r1, r4
 1253 00b2 4846     		mov	r0, r9
 1254 00b4 FFF7FEFF 		bl	__aeabi_fmul
 1255              	.LVL286:
 1256 00b8 0146     		mov	r1, r0
 1257 00ba 5846     		mov	r0, fp
 1258 00bc FFF7FEFF 		bl	__aeabi_fadd
 1259              	.LVL287:
 1260 00c0 8346     		mov	fp, r0
 1261 00c2 5146     		mov	r1, r10
 1262 00c4 4046     		mov	r0, r8
 1263 00c6 FFF7FEFF 		bl	__aeabi_fmul
 1264              	.LVL288:
 1265 00ca 0146     		mov	r1, r0
 1266 00cc 5846     		mov	r0, fp
 1267 00ce FFF7FEFF 		bl	__aeabi_fsub
 1268              	.LVL289:
 1269 00d2 4FF07C51 		mov	r1, #1056964608
 1270 00d6 FFF7FEFF 		bl	__aeabi_fmul
 1271              	.LVL290:
 1272 00da 0E90     		str	r0, [sp, #56]	@ float
 1273              	.LVL291:
  97:Madgwick.c    **** 	qDot4 = 0.5f * (q0 * gz + q1 * gy - q2 * gx);
 1274              		.loc 1 97 0
 1275 00dc 3146     		mov	r1, r6
 1276 00de 4046     		mov	r0, r8
 1277              	.LVL292:
 1278 00e0 FFF7FEFF 		bl	__aeabi_fmul
 1279              	.LVL293:
 1280 00e4 8346     		mov	fp, r0
 1281 00e6 2946     		mov	r1, r5
 1282 00e8 4846     		mov	r0, r9
 1283 00ea FFF7FEFF 		bl	__aeabi_fmul
 1284              	.LVL294:
 1285 00ee 0146     		mov	r1, r0
 1286 00f0 5846     		mov	r0, fp
 1287 00f2 FFF7FEFF 		bl	__aeabi_fsub
 1288              	.LVL295:
 1289 00f6 8346     		mov	fp, r0
 1290 00f8 5146     		mov	r1, r10
 1291 00fa 3846     		mov	r0, r7
 1292 00fc FFF7FEFF 		bl	__aeabi_fmul
 1293              	.LVL296:
 1294 0100 0146     		mov	r1, r0
 1295 0102 5846     		mov	r0, fp
 1296 0104 FFF7FEFF 		bl	__aeabi_fadd
 1297              	.LVL297:
ARM GAS  C:\Users\A85590\AppData\Local\Temp\ccOscRLT.s 			page 30


 1298 0108 4FF07C51 		mov	r1, #1056964608
 1299 010c FFF7FEFF 		bl	__aeabi_fmul
 1300              	.LVL298:
 1301 0110 0F90     		str	r0, [sp, #60]	@ float
 1302              	.LVL299:
  98:Madgwick.c    **** 
 1303              		.loc 1 98 0
 1304 0112 3146     		mov	r1, r6
 1305 0114 4846     		mov	r0, r9
 1306              	.LVL300:
 1307 0116 FFF7FEFF 		bl	__aeabi_fmul
 1308              	.LVL301:
 1309 011a 8146     		mov	r9, r0
 1310              	.LVL302:
 1311 011c 2946     		mov	r1, r5
 1312 011e 4046     		mov	r0, r8
 1313 0120 FFF7FEFF 		bl	__aeabi_fmul
 1314              	.LVL303:
 1315 0124 0146     		mov	r1, r0
 1316 0126 4846     		mov	r0, r9
 1317 0128 FFF7FEFF 		bl	__aeabi_fadd
 1318              	.LVL304:
 1319 012c 8046     		mov	r8, r0
 1320              	.LVL305:
 1321 012e 2146     		mov	r1, r4
 1322 0130 3846     		mov	r0, r7
 1323 0132 FFF7FEFF 		bl	__aeabi_fmul
 1324              	.LVL306:
 1325 0136 0146     		mov	r1, r0
 1326 0138 4046     		mov	r0, r8
 1327 013a FFF7FEFF 		bl	__aeabi_fsub
 1328              	.LVL307:
 1329 013e 4FF07C51 		mov	r1, #1056964608
 1330 0142 FFF7FEFF 		bl	__aeabi_fmul
 1331              	.LVL308:
 1332 0146 1090     		str	r0, [sp, #64]	@ float
 1333              	.LVL309:
 101:Madgwick.c    **** 	{
 1334              		.loc 1 101 0
 1335 0148 0021     		movs	r1, #0
 1336 014a 0398     		ldr	r0, [sp, #12]	@ float
 1337              	.LVL310:
 1338 014c FFF7FEFF 		bl	__aeabi_fcmpeq
 1339              	.LVL311:
 1340 0150 80B1     		cbz	r0, .L32
 101:Madgwick.c    **** 	{
 1341              		.loc 1 101 0 is_stmt 0 discriminator 1
 1342 0152 0021     		movs	r1, #0
 1343 0154 2A98     		ldr	r0, [sp, #168]	@ float
 1344 0156 FFF7FEFF 		bl	__aeabi_fcmpeq
 1345              	.LVL312:
 1346 015a 58B1     		cbz	r0, .L32
 101:Madgwick.c    **** 	{
 1347              		.loc 1 101 0 discriminator 2
 1348 015c 0021     		movs	r1, #0
 1349 015e 2B98     		ldr	r0, [sp, #172]	@ float
 1350 0160 FFF7FEFF 		bl	__aeabi_fcmpeq
ARM GAS  C:\Users\A85590\AppData\Local\Temp\ccOscRLT.s 			page 31


 1351              	.LVL313:
 1352 0164 0028     		cmp	r0, #0
 1353 0166 40F0D583 		bne	.L33
 1354 016a 03E0     		b	.L40
 1355              	.L41:
 1356              		.align	2
 1357              	.L39:
 1358 016c 39FA8E3C 		.word	1016003129
 1359 0170 00000000 		.word	.LANCHOR0
 1360              	.L40:
 1361              	.L32:
 105:Madgwick.c    **** 		ax *= recipNorm;
 1362              		.loc 1 105 0 is_stmt 1
 1363 0174 DDF80C80 		ldr	r8, [sp, #12]	@ float
 1364 0178 4146     		mov	r1, r8
 1365 017a 4046     		mov	r0, r8
 1366 017c FFF7FEFF 		bl	__aeabi_fmul
 1367              	.LVL314:
 1368 0180 0746     		mov	r7, r0
 1369              	.LVL315:
 1370 0182 2A99     		ldr	r1, [sp, #168]	@ float
 1371 0184 0846     		mov	r0, r1
 1372 0186 FFF7FEFF 		bl	__aeabi_fmul
 1373              	.LVL316:
 1374 018a 0146     		mov	r1, r0
 1375 018c 3846     		mov	r0, r7
 1376 018e FFF7FEFF 		bl	__aeabi_fadd
 1377              	.LVL317:
 1378 0192 0746     		mov	r7, r0
 1379 0194 2B99     		ldr	r1, [sp, #172]	@ float
 1380 0196 0846     		mov	r0, r1
 1381 0198 FFF7FEFF 		bl	__aeabi_fmul
 1382              	.LVL318:
 1383 019c 0146     		mov	r1, r0
 1384 019e 3846     		mov	r0, r7
 1385 01a0 FFF7FEFF 		bl	__aeabi_fadd
 1386              	.LVL319:
 1387 01a4 FFF7FEFF 		bl	invSqrt
 1388              	.LVL320:
 1389 01a8 0746     		mov	r7, r0
 1390              	.LVL321:
 106:Madgwick.c    **** 		ay *= recipNorm;
 1391              		.loc 1 106 0
 1392 01aa 0146     		mov	r1, r0
 1393 01ac 4046     		mov	r0, r8
 1394              	.LVL322:
 1395 01ae FFF7FEFF 		bl	__aeabi_fmul
 1396              	.LVL323:
 1397 01b2 1790     		str	r0, [sp, #92]	@ float
 1398              	.LVL324:
 107:Madgwick.c    **** 		az *= recipNorm;
 1399              		.loc 1 107 0
 1400 01b4 3946     		mov	r1, r7
 1401 01b6 2A98     		ldr	r0, [sp, #168]	@ float
 1402              	.LVL325:
 1403 01b8 FFF7FEFF 		bl	__aeabi_fmul
 1404              	.LVL326:
ARM GAS  C:\Users\A85590\AppData\Local\Temp\ccOscRLT.s 			page 32


 1405 01bc 1890     		str	r0, [sp, #96]	@ float
 1406              	.LVL327:
 108:Madgwick.c    **** 
 1407              		.loc 1 108 0
 1408 01be 3946     		mov	r1, r7
 1409 01c0 2B98     		ldr	r0, [sp, #172]	@ float
 1410              	.LVL328:
 1411 01c2 FFF7FEFF 		bl	__aeabi_fmul
 1412              	.LVL329:
 1413 01c6 1990     		str	r0, [sp, #100]	@ float
 1414              	.LVL330:
 111:Madgwick.c    **** 		mx *= recipNorm;
 1415              		.loc 1 111 0
 1416 01c8 2C99     		ldr	r1, [sp, #176]	@ float
 1417 01ca 0846     		mov	r0, r1
 1418              	.LVL331:
 1419 01cc FFF7FEFF 		bl	__aeabi_fmul
 1420              	.LVL332:
 1421 01d0 0746     		mov	r7, r0
 1422              	.LVL333:
 1423 01d2 2D99     		ldr	r1, [sp, #180]	@ float
 1424 01d4 0846     		mov	r0, r1
 1425 01d6 FFF7FEFF 		bl	__aeabi_fmul
 1426              	.LVL334:
 1427 01da 0146     		mov	r1, r0
 1428 01dc 3846     		mov	r0, r7
 1429 01de FFF7FEFF 		bl	__aeabi_fadd
 1430              	.LVL335:
 1431 01e2 0746     		mov	r7, r0
 1432 01e4 2E99     		ldr	r1, [sp, #184]	@ float
 1433 01e6 0846     		mov	r0, r1
 1434 01e8 FFF7FEFF 		bl	__aeabi_fmul
 1435              	.LVL336:
 1436 01ec 0146     		mov	r1, r0
 1437 01ee 3846     		mov	r0, r7
 1438 01f0 FFF7FEFF 		bl	__aeabi_fadd
 1439              	.LVL337:
 1440 01f4 FFF7FEFF 		bl	invSqrt
 1441              	.LVL338:
 1442 01f8 0746     		mov	r7, r0
 1443              	.LVL339:
 112:Madgwick.c    **** 		my *= recipNorm;
 1444              		.loc 1 112 0
 1445 01fa 0146     		mov	r1, r0
 1446 01fc 2C98     		ldr	r0, [sp, #176]	@ float
 1447              	.LVL340:
 1448 01fe FFF7FEFF 		bl	__aeabi_fmul
 1449              	.LVL341:
 1450 0202 8046     		mov	r8, r0
 1451              	.LVL342:
 113:Madgwick.c    **** 		mz *= recipNorm;
 1452              		.loc 1 113 0
 1453 0204 3946     		mov	r1, r7
 1454 0206 2D98     		ldr	r0, [sp, #180]	@ float
 1455              	.LVL343:
 1456 0208 FFF7FEFF 		bl	__aeabi_fmul
 1457              	.LVL344:
ARM GAS  C:\Users\A85590\AppData\Local\Temp\ccOscRLT.s 			page 33


 1458 020c 0390     		str	r0, [sp, #12]	@ float
 1459              	.LVL345:
 114:Madgwick.c    **** 
 1460              		.loc 1 114 0
 1461 020e 3946     		mov	r1, r7
 1462 0210 2E98     		ldr	r0, [sp, #184]	@ float
 1463              	.LVL346:
 1464 0212 FFF7FEFF 		bl	__aeabi_fmul
 1465              	.LVL347:
 1466 0216 8346     		mov	fp, r0
 1467              	.LVL348:
 117:Madgwick.c    **** 		_2q0my = 2.0f * q0 * my;
 1468              		.loc 1 117 0
 1469 0218 3146     		mov	r1, r6
 1470 021a 3046     		mov	r0, r6
 1471              	.LVL349:
 1472 021c FFF7FEFF 		bl	__aeabi_fadd
 1473              	.LVL350:
 1474 0220 8146     		mov	r9, r0
 1475 0222 0146     		mov	r1, r0
 1476 0224 4046     		mov	r0, r8
 1477 0226 FFF7FEFF 		bl	__aeabi_fmul
 1478              	.LVL351:
 1479 022a 0746     		mov	r7, r0
 1480              	.LVL352:
 118:Madgwick.c    **** 		_2q0mz = 2.0f * q0 * mz;
 1481              		.loc 1 118 0
 1482 022c 4946     		mov	r1, r9
 1483 022e 0398     		ldr	r0, [sp, #12]	@ float
 1484              	.LVL353:
 1485 0230 FFF7FEFF 		bl	__aeabi_fmul
 1486              	.LVL354:
 1487 0234 1290     		str	r0, [sp, #72]	@ float
 1488              	.LVL355:
 119:Madgwick.c    **** 		_2q1mx = 2.0f * q1 * mx;
 1489              		.loc 1 119 0
 1490 0236 4946     		mov	r1, r9
 1491 0238 5846     		mov	r0, fp
 1492              	.LVL356:
 1493 023a FFF7FEFF 		bl	__aeabi_fmul
 1494              	.LVL357:
 1495 023e 0590     		str	r0, [sp, #20]	@ float
 1496              	.LVL358:
 120:Madgwick.c    **** 		_2q0 = 2.0f * q0;
 1497              		.loc 1 120 0
 1498 0240 2946     		mov	r1, r5
 1499 0242 2846     		mov	r0, r5
 1500              	.LVL359:
 1501 0244 FFF7FEFF 		bl	__aeabi_fadd
 1502              	.LVL360:
 1503 0248 0A90     		str	r0, [sp, #40]	@ float
 1504 024a 0146     		mov	r1, r0
 1505 024c 4046     		mov	r0, r8
 1506 024e FFF7FEFF 		bl	__aeabi_fmul
 1507              	.LVL361:
 1508 0252 1390     		str	r0, [sp, #76]	@ float
 1509              	.LVL362:
ARM GAS  C:\Users\A85590\AppData\Local\Temp\ccOscRLT.s 			page 34


 123:Madgwick.c    **** 		_2q3 = 2.0f * q3;
 1510              		.loc 1 123 0
 1511 0254 2146     		mov	r1, r4
 1512 0256 2046     		mov	r0, r4
 1513              	.LVL363:
 1514 0258 FFF7FEFF 		bl	__aeabi_fadd
 1515              	.LVL364:
 1516 025c 0690     		str	r0, [sp, #24]	@ float
 1517              	.LVL365:
 124:Madgwick.c    **** 		_2q0q2 = 2.0f * q0 * q2;
 1518              		.loc 1 124 0
 1519 025e 5146     		mov	r1, r10
 1520 0260 5046     		mov	r0, r10
 1521              	.LVL366:
 1522 0262 FFF7FEFF 		bl	__aeabi_fadd
 1523              	.LVL367:
 1524 0266 1490     		str	r0, [sp, #80]	@ float
 1525              	.LVL368:
 125:Madgwick.c    **** 		_2q2q3 = 2.0f * q2 * q3;
 1526              		.loc 1 125 0
 1527 0268 4946     		mov	r1, r9
 1528 026a 2046     		mov	r0, r4
 1529              	.LVL369:
 1530 026c FFF7FEFF 		bl	__aeabi_fmul
 1531              	.LVL370:
 1532 0270 1A90     		str	r0, [sp, #104]	@ float
 1533              	.LVL371:
 126:Madgwick.c    **** 		q0q0 = q0 * q0;
 1534              		.loc 1 126 0
 1535 0272 0699     		ldr	r1, [sp, #24]	@ float
 1536 0274 5046     		mov	r0, r10
 1537              	.LVL372:
 1538 0276 FFF7FEFF 		bl	__aeabi_fmul
 1539              	.LVL373:
 1540 027a 1B90     		str	r0, [sp, #108]	@ float
 1541              	.LVL374:
 127:Madgwick.c    **** 		q0q1 = q0 * q1;
 1542              		.loc 1 127 0
 1543 027c 3146     		mov	r1, r6
 1544 027e 3046     		mov	r0, r6
 1545              	.LVL375:
 1546 0280 FFF7FEFF 		bl	__aeabi_fmul
 1547              	.LVL376:
 1548 0284 0990     		str	r0, [sp, #36]	@ float
 1549              	.LVL377:
 128:Madgwick.c    **** 		q0q2 = q0 * q2;
 1550              		.loc 1 128 0
 1551 0286 3146     		mov	r1, r6
 1552 0288 2846     		mov	r0, r5
 1553              	.LVL378:
 1554 028a FFF7FEFF 		bl	__aeabi_fmul
 1555              	.LVL379:
 1556 028e 1190     		str	r0, [sp, #68]	@ float
 1557              	.LVL380:
 129:Madgwick.c    **** 		q0q3 = q0 * q3;
 1558              		.loc 1 129 0
 1559 0290 3146     		mov	r1, r6
ARM GAS  C:\Users\A85590\AppData\Local\Temp\ccOscRLT.s 			page 35


 1560 0292 2046     		mov	r0, r4
 1561              	.LVL381:
 1562 0294 FFF7FEFF 		bl	__aeabi_fmul
 1563              	.LVL382:
 1564 0298 1590     		str	r0, [sp, #84]	@ float
 1565              	.LVL383:
 130:Madgwick.c    **** 		q1q1 = q1 * q1;
 1566              		.loc 1 130 0
 1567 029a 3146     		mov	r1, r6
 1568 029c 5046     		mov	r0, r10
 1569              	.LVL384:
 1570 029e FFF7FEFF 		bl	__aeabi_fmul
 1571              	.LVL385:
 1572 02a2 1C90     		str	r0, [sp, #112]	@ float
 1573              	.LVL386:
 131:Madgwick.c    **** 		q1q2 = q1 * q2;
 1574              		.loc 1 131 0
 1575 02a4 2946     		mov	r1, r5
 1576 02a6 2846     		mov	r0, r5
 1577              	.LVL387:
 1578 02a8 FFF7FEFF 		bl	__aeabi_fmul
 1579              	.LVL388:
 1580 02ac 0790     		str	r0, [sp, #28]	@ float
 1581              	.LVL389:
 132:Madgwick.c    **** 		q1q3 = q1 * q3;
 1582              		.loc 1 132 0
 1583 02ae 2146     		mov	r1, r4
 1584 02b0 2846     		mov	r0, r5
 1585              	.LVL390:
 1586 02b2 FFF7FEFF 		bl	__aeabi_fmul
 1587              	.LVL391:
 1588 02b6 1D90     		str	r0, [sp, #116]	@ float
 1589              	.LVL392:
 133:Madgwick.c    **** 		q2q2 = q2 * q2;
 1590              		.loc 1 133 0
 1591 02b8 5146     		mov	r1, r10
 1592 02ba 2846     		mov	r0, r5
 1593              	.LVL393:
 1594 02bc FFF7FEFF 		bl	__aeabi_fmul
 1595              	.LVL394:
 1596 02c0 0B90     		str	r0, [sp, #44]	@ float
 1597              	.LVL395:
 134:Madgwick.c    **** 		q2q3 = q2 * q3;
 1598              		.loc 1 134 0
 1599 02c2 2146     		mov	r1, r4
 1600 02c4 2046     		mov	r0, r4
 1601              	.LVL396:
 1602 02c6 FFF7FEFF 		bl	__aeabi_fmul
 1603              	.LVL397:
 1604 02ca 0490     		str	r0, [sp, #16]	@ float
 1605              	.LVL398:
 135:Madgwick.c    **** 		q3q3 = q3 * q3;
 1606              		.loc 1 135 0
 1607 02cc 5146     		mov	r1, r10
 1608 02ce 2046     		mov	r0, r4
 1609              	.LVL399:
 1610 02d0 FFF7FEFF 		bl	__aeabi_fmul
ARM GAS  C:\Users\A85590\AppData\Local\Temp\ccOscRLT.s 			page 36


 1611              	.LVL400:
 1612 02d4 1E90     		str	r0, [sp, #120]	@ float
 1613              	.LVL401:
 136:Madgwick.c    **** 
 1614              		.loc 1 136 0
 1615 02d6 5146     		mov	r1, r10
 1616 02d8 5046     		mov	r0, r10
 1617              	.LVL402:
 1618 02da FFF7FEFF 		bl	__aeabi_fmul
 1619              	.LVL403:
 1620 02de 0C90     		str	r0, [sp, #48]	@ float
 1621              	.LVL404:
 139:Madgwick.c    **** 		hy = _2q0mx * q3 + my * q0q0 - _2q0mz * q1 + _2q1mx * q2 - my * q1q1 + my * q2q2 + _2q2 * mz * q3
 1622              		.loc 1 139 0
 1623 02e0 0999     		ldr	r1, [sp, #36]	@ float
 1624 02e2 4046     		mov	r0, r8
 1625              	.LVL405:
 1626 02e4 FFF7FEFF 		bl	__aeabi_fmul
 1627              	.LVL406:
 1628 02e8 0646     		mov	r6, r0
 1629 02ea 1299     		ldr	r1, [sp, #72]	@ float
 1630 02ec 5046     		mov	r0, r10
 1631 02ee FFF7FEFF 		bl	__aeabi_fmul
 1632              	.LVL407:
 1633 02f2 0146     		mov	r1, r0
 1634 02f4 3046     		mov	r0, r6
 1635 02f6 FFF7FEFF 		bl	__aeabi_fsub
 1636              	.LVL408:
 1637 02fa 0646     		mov	r6, r0
 1638 02fc 0599     		ldr	r1, [sp, #20]	@ float
 1639 02fe 2046     		mov	r0, r4
 1640 0300 FFF7FEFF 		bl	__aeabi_fmul
 1641              	.LVL409:
 1642 0304 0146     		mov	r1, r0
 1643 0306 3046     		mov	r0, r6
 1644 0308 FFF7FEFF 		bl	__aeabi_fadd
 1645              	.LVL410:
 1646 030c 0646     		mov	r6, r0
 1647 030e 0799     		ldr	r1, [sp, #28]	@ float
 1648 0310 4046     		mov	r0, r8
 1649 0312 FFF7FEFF 		bl	__aeabi_fmul
 1650              	.LVL411:
 1651 0316 0146     		mov	r1, r0
 1652 0318 3046     		mov	r0, r6
 1653 031a FFF7FEFF 		bl	__aeabi_fadd
 1654              	.LVL412:
 1655 031e 0646     		mov	r6, r0
 1656 0320 0A99     		ldr	r1, [sp, #40]	@ float
 1657 0322 0398     		ldr	r0, [sp, #12]	@ float
 1658 0324 FFF7FEFF 		bl	__aeabi_fmul
 1659              	.LVL413:
 1660 0328 0146     		mov	r1, r0
 1661 032a 2046     		mov	r0, r4
 1662 032c FFF7FEFF 		bl	__aeabi_fmul
 1663              	.LVL414:
 1664 0330 0146     		mov	r1, r0
 1665 0332 3046     		mov	r0, r6
ARM GAS  C:\Users\A85590\AppData\Local\Temp\ccOscRLT.s 			page 37


 1666 0334 FFF7FEFF 		bl	__aeabi_fadd
 1667              	.LVL415:
 1668 0338 0646     		mov	r6, r0
 1669 033a 0A99     		ldr	r1, [sp, #40]	@ float
 1670 033c 5846     		mov	r0, fp
 1671 033e FFF7FEFF 		bl	__aeabi_fmul
 1672              	.LVL416:
 1673 0342 0146     		mov	r1, r0
 1674 0344 5046     		mov	r0, r10
 1675 0346 FFF7FEFF 		bl	__aeabi_fmul
 1676              	.LVL417:
 1677 034a 0146     		mov	r1, r0
 1678 034c 3046     		mov	r0, r6
 1679 034e FFF7FEFF 		bl	__aeabi_fadd
 1680              	.LVL418:
 1681 0352 0646     		mov	r6, r0
 1682 0354 0499     		ldr	r1, [sp, #16]	@ float
 1683 0356 4046     		mov	r0, r8
 1684 0358 FFF7FEFF 		bl	__aeabi_fmul
 1685              	.LVL419:
 1686 035c 0146     		mov	r1, r0
 1687 035e 3046     		mov	r0, r6
 1688 0360 FFF7FEFF 		bl	__aeabi_fsub
 1689              	.LVL420:
 1690 0364 0646     		mov	r6, r0
 1691 0366 0C99     		ldr	r1, [sp, #48]	@ float
 1692 0368 4046     		mov	r0, r8
 1693 036a FFF7FEFF 		bl	__aeabi_fmul
 1694              	.LVL421:
 1695 036e 0146     		mov	r1, r0
 1696 0370 3046     		mov	r0, r6
 1697 0372 FFF7FEFF 		bl	__aeabi_fsub
 1698              	.LVL422:
 1699 0376 0646     		mov	r6, r0
 1700              	.LVL423:
 140:Madgwick.c    **** 		_2bx = sqrtf(hx * hx + hy * hy);
 1701              		.loc 1 140 0
 1702 0378 3946     		mov	r1, r7
 1703 037a 5046     		mov	r0, r10
 1704              	.LVL424:
 1705 037c FFF7FEFF 		bl	__aeabi_fmul
 1706              	.LVL425:
 1707 0380 0890     		str	r0, [sp, #32]	@ float
 1708 0382 0999     		ldr	r1, [sp, #36]	@ float
 1709 0384 0398     		ldr	r0, [sp, #12]	@ float
 1710 0386 FFF7FEFF 		bl	__aeabi_fmul
 1711              	.LVL426:
 1712 038a 0146     		mov	r1, r0
 1713 038c 0898     		ldr	r0, [sp, #32]	@ float
 1714 038e FFF7FEFF 		bl	__aeabi_fadd
 1715              	.LVL427:
 1716 0392 0890     		str	r0, [sp, #32]	@ float
 1717 0394 0599     		ldr	r1, [sp, #20]	@ float
 1718 0396 2846     		mov	r0, r5
 1719 0398 FFF7FEFF 		bl	__aeabi_fmul
 1720              	.LVL428:
 1721 039c 0146     		mov	r1, r0
ARM GAS  C:\Users\A85590\AppData\Local\Temp\ccOscRLT.s 			page 38


 1722 039e 0898     		ldr	r0, [sp, #32]	@ float
 1723 03a0 FFF7FEFF 		bl	__aeabi_fsub
 1724              	.LVL429:
 1725 03a4 0546     		mov	r5, r0
 1726 03a6 1399     		ldr	r1, [sp, #76]	@ float
 1727 03a8 2046     		mov	r0, r4
 1728 03aa FFF7FEFF 		bl	__aeabi_fmul
 1729              	.LVL430:
 1730 03ae 0146     		mov	r1, r0
 1731 03b0 2846     		mov	r0, r5
 1732 03b2 FFF7FEFF 		bl	__aeabi_fadd
 1733              	.LVL431:
 1734 03b6 0446     		mov	r4, r0
 1735 03b8 0799     		ldr	r1, [sp, #28]	@ float
 1736 03ba 039D     		ldr	r5, [sp, #12]	@ float
 1737 03bc 2846     		mov	r0, r5
 1738 03be FFF7FEFF 		bl	__aeabi_fmul
 1739              	.LVL432:
 1740 03c2 0146     		mov	r1, r0
 1741 03c4 2046     		mov	r0, r4
 1742 03c6 FFF7FEFF 		bl	__aeabi_fsub
 1743              	.LVL433:
 1744 03ca 0446     		mov	r4, r0
 1745 03cc 0499     		ldr	r1, [sp, #16]	@ float
 1746 03ce 2846     		mov	r0, r5
 1747 03d0 FFF7FEFF 		bl	__aeabi_fmul
 1748              	.LVL434:
 1749 03d4 0146     		mov	r1, r0
 1750 03d6 2046     		mov	r0, r4
 1751 03d8 FFF7FEFF 		bl	__aeabi_fadd
 1752              	.LVL435:
 1753 03dc 0446     		mov	r4, r0
 1754 03de 0699     		ldr	r1, [sp, #24]	@ float
 1755 03e0 5846     		mov	r0, fp
 1756 03e2 FFF7FEFF 		bl	__aeabi_fmul
 1757              	.LVL436:
 1758 03e6 0146     		mov	r1, r0
 1759 03e8 5046     		mov	r0, r10
 1760 03ea FFF7FEFF 		bl	__aeabi_fmul
 1761              	.LVL437:
 1762 03ee 0146     		mov	r1, r0
 1763 03f0 2046     		mov	r0, r4
 1764 03f2 FFF7FEFF 		bl	__aeabi_fadd
 1765              	.LVL438:
 1766 03f6 0446     		mov	r4, r0
 1767 03f8 0C99     		ldr	r1, [sp, #48]	@ float
 1768 03fa AA46     		mov	r10, r5
 1769 03fc 2846     		mov	r0, r5
 1770 03fe FFF7FEFF 		bl	__aeabi_fmul
 1771              	.LVL439:
 1772 0402 0146     		mov	r1, r0
 1773 0404 2046     		mov	r0, r4
 1774 0406 FFF7FEFF 		bl	__aeabi_fsub
 1775              	.LVL440:
 1776 040a 0446     		mov	r4, r0
 1777              	.LVL441:
 141:Madgwick.c    **** 		_2bz = -_2q0mx * q2 + _2q0my * q1 + mz * q0q0 + _2q1mx * q3 - mz * q1q1 + _2q2 * my * q3 - mz * q
ARM GAS  C:\Users\A85590\AppData\Local\Temp\ccOscRLT.s 			page 39


 1778              		.loc 1 141 0
 1779 040c 3146     		mov	r1, r6
 1780 040e 3046     		mov	r0, r6
 1781              	.LVL442:
 1782 0410 FFF7FEFF 		bl	__aeabi_fmul
 1783              	.LVL443:
 1784 0414 0546     		mov	r5, r0
 1785 0416 2146     		mov	r1, r4
 1786 0418 2046     		mov	r0, r4
 1787 041a FFF7FEFF 		bl	__aeabi_fmul
 1788              	.LVL444:
 1789 041e 0146     		mov	r1, r0
 1790 0420 2846     		mov	r0, r5
 1791 0422 FFF7FEFF 		bl	__aeabi_fadd
 1792              	.LVL445:
 1793 0426 FFF7FEFF 		bl	sqrtf
 1794              	.LVL446:
 1795 042a 0446     		mov	r4, r0
 1796              	.LVL447:
 142:Madgwick.c    **** 		_4bx = 2.0f * _2bx;
 1797              		.loc 1 142 0
 1798 042c 07F10040 		add	r0, r7, #-2147483648
 1799              	.LVL448:
 1800 0430 A74F     		ldr	r7, .L42
 1801              	.LVL449:
 1802 0432 BA68     		ldr	r2, [r7, #8]	@ float
 1803 0434 0592     		str	r2, [sp, #20]	@ float
 1804              	.LVL450:
 1805 0436 1146     		mov	r1, r2
 1806 0438 FFF7FEFF 		bl	__aeabi_fmul
 1807              	.LVL451:
 1808 043c 0546     		mov	r5, r0
 1809 043e 3E68     		ldr	r6, [r7]	@ float
 1810              	.LVL452:
 1811 0440 0896     		str	r6, [sp, #32]	@ float
 1812 0442 3146     		mov	r1, r6
 1813 0444 1298     		ldr	r0, [sp, #72]	@ float
 1814 0446 FFF7FEFF 		bl	__aeabi_fmul
 1815              	.LVL453:
 1816 044a 0146     		mov	r1, r0
 1817 044c 2846     		mov	r0, r5
 1818 044e FFF7FEFF 		bl	__aeabi_fadd
 1819              	.LVL454:
 1820 0452 0546     		mov	r5, r0
 1821 0454 0999     		ldr	r1, [sp, #36]	@ float
 1822 0456 5846     		mov	r0, fp
 1823 0458 FFF7FEFF 		bl	__aeabi_fmul
 1824              	.LVL455:
 1825 045c 0146     		mov	r1, r0
 1826 045e 2846     		mov	r0, r5
 1827 0460 FFF7FEFF 		bl	__aeabi_fadd
 1828              	.LVL456:
 1829 0464 0546     		mov	r5, r0
 1830 0466 FE68     		ldr	r6, [r7, #12]	@ float
 1831 0468 3146     		mov	r1, r6
 1832 046a 1398     		ldr	r0, [sp, #76]	@ float
 1833 046c FFF7FEFF 		bl	__aeabi_fmul
ARM GAS  C:\Users\A85590\AppData\Local\Temp\ccOscRLT.s 			page 40


 1834              	.LVL457:
 1835 0470 0146     		mov	r1, r0
 1836 0472 2846     		mov	r0, r5
 1837 0474 FFF7FEFF 		bl	__aeabi_fadd
 1838              	.LVL458:
 1839 0478 0546     		mov	r5, r0
 1840 047a 0799     		ldr	r1, [sp, #28]	@ float
 1841 047c 5846     		mov	r0, fp
 1842 047e FFF7FEFF 		bl	__aeabi_fmul
 1843              	.LVL459:
 1844 0482 0146     		mov	r1, r0
 1845 0484 2846     		mov	r0, r5
 1846 0486 FFF7FEFF 		bl	__aeabi_fsub
 1847              	.LVL460:
 1848 048a 0546     		mov	r5, r0
 1849 048c 0699     		ldr	r1, [sp, #24]	@ float
 1850 048e CDF80CA0 		str	r10, [sp, #12]	@ float
 1851              	.LVL461:
 1852 0492 5046     		mov	r0, r10
 1853 0494 FFF7FEFF 		bl	__aeabi_fmul
 1854              	.LVL462:
 1855 0498 0146     		mov	r1, r0
 1856 049a 0996     		str	r6, [sp, #36]	@ float
 1857              	.LVL463:
 1858 049c 3046     		mov	r0, r6
 1859 049e FFF7FEFF 		bl	__aeabi_fmul
 1860              	.LVL464:
 1861 04a2 0146     		mov	r1, r0
 1862 04a4 2846     		mov	r0, r5
 1863 04a6 FFF7FEFF 		bl	__aeabi_fadd
 1864              	.LVL465:
 1865 04aa 0546     		mov	r5, r0
 1866 04ac DDF810A0 		ldr	r10, [sp, #16]	@ float
 1867              	.LVL466:
 1868 04b0 5146     		mov	r1, r10
 1869 04b2 5846     		mov	r0, fp
 1870 04b4 FFF7FEFF 		bl	__aeabi_fmul
 1871              	.LVL467:
 1872 04b8 0146     		mov	r1, r0
 1873 04ba 2846     		mov	r0, r5
 1874 04bc FFF7FEFF 		bl	__aeabi_fsub
 1875              	.LVL468:
 1876 04c0 0546     		mov	r5, r0
 1877 04c2 0C99     		ldr	r1, [sp, #48]	@ float
 1878 04c4 5846     		mov	r0, fp
 1879 04c6 FFF7FEFF 		bl	__aeabi_fmul
 1880              	.LVL469:
 1881 04ca 0146     		mov	r1, r0
 1882 04cc 2846     		mov	r0, r5
 1883 04ce FFF7FEFF 		bl	__aeabi_fadd
 1884              	.LVL470:
 1885 04d2 0546     		mov	r5, r0
 1886              	.LVL471:
 143:Madgwick.c    **** 		_4bz = 2.0f * _2bz;
 1887              		.loc 1 143 0
 1888 04d4 2146     		mov	r1, r4
 1889 04d6 2046     		mov	r0, r4
ARM GAS  C:\Users\A85590\AppData\Local\Temp\ccOscRLT.s 			page 41


 1890              	.LVL472:
 1891 04d8 FFF7FEFF 		bl	__aeabi_fadd
 1892              	.LVL473:
 1893 04dc 1F90     		str	r0, [sp, #124]	@ float
 1894              	.LVL474:
 144:Madgwick.c    **** 
 1895              		.loc 1 144 0
 1896 04de 2946     		mov	r1, r5
 1897 04e0 2846     		mov	r0, r5
 1898              	.LVL475:
 1899 04e2 FFF7FEFF 		bl	__aeabi_fadd
 1900              	.LVL476:
 1901 04e6 1690     		str	r0, [sp, #88]	@ float
 1902              	.LVL477:
 147:Madgwick.c    **** 		s1 = _2q3 * (2.0f * q1q3 - _2q0q2 - ax) + _2q0 * (2.0f * q0q1 + _2q2q3 - ay) - 4.0f * q1 * (1 - 2
 1903              		.loc 1 147 0
 1904 04e8 069B     		ldr	r3, [sp, #24]
 1905 04ea 03F10046 		add	r6, r3, #-2147483648
 1906 04ee DDF82CC0 		ldr	ip, [sp, #44]	@ float
 1907 04f2 6146     		mov	r1, ip
 1908 04f4 6046     		mov	r0, ip
 1909              	.LVL478:
 1910 04f6 FFF7FEFF 		bl	__aeabi_fadd
 1911              	.LVL479:
 1912 04fa 1A99     		ldr	r1, [sp, #104]	@ float
 1913 04fc FFF7FEFF 		bl	__aeabi_fsub
 1914              	.LVL480:
 1915 0500 1799     		ldr	r1, [sp, #92]	@ float
 1916 0502 FFF7FEFF 		bl	__aeabi_fsub
 1917              	.LVL481:
 1918 0506 1290     		str	r0, [sp, #72]	@ float
 1919              	.LVL482:
 1920 0508 0146     		mov	r1, r0
 1921 050a 3046     		mov	r0, r6
 1922 050c FFF7FEFF 		bl	__aeabi_fmul
 1923              	.LVL483:
 1924 0510 0646     		mov	r6, r0
 1925 0512 119B     		ldr	r3, [sp, #68]	@ float
 1926 0514 1946     		mov	r1, r3
 1927 0516 1846     		mov	r0, r3
 1928 0518 FFF7FEFF 		bl	__aeabi_fadd
 1929              	.LVL484:
 1930 051c 0146     		mov	r1, r0
 1931 051e 1B98     		ldr	r0, [sp, #108]	@ float
 1932 0520 FFF7FEFF 		bl	__aeabi_fadd
 1933              	.LVL485:
 1934 0524 1899     		ldr	r1, [sp, #96]	@ float
 1935 0526 FFF7FEFF 		bl	__aeabi_fsub
 1936              	.LVL486:
 1937 052a 1390     		str	r0, [sp, #76]	@ float
 1938              	.LVL487:
 1939 052c 0146     		mov	r1, r0
 1940 052e 0A98     		ldr	r0, [sp, #40]	@ float
 1941 0530 FFF7FEFF 		bl	__aeabi_fmul
 1942              	.LVL488:
 1943 0534 0146     		mov	r1, r0
 1944 0536 3046     		mov	r0, r6
ARM GAS  C:\Users\A85590\AppData\Local\Temp\ccOscRLT.s 			page 42


 1945 0538 FFF7FEFF 		bl	__aeabi_fadd
 1946              	.LVL489:
 1947 053c 0646     		mov	r6, r0
 1948 053e 2946     		mov	r1, r5
 1949 0540 0598     		ldr	r0, [sp, #20]	@ float
 1950 0542 FFF7FEFF 		bl	__aeabi_fmul
 1951              	.LVL490:
 1952 0546 1790     		str	r0, [sp, #92]	@ float
 1953              	.LVL491:
 1954 0548 CDF810A0 		str	r10, [sp, #16]	@ float
 1955              	.LVL492:
 1956 054c 5146     		mov	r1, r10
 1957 054e 4FF07C50 		mov	r0, #1056964608
 1958 0552 FFF7FEFF 		bl	__aeabi_fsub
 1959              	.LVL493:
 1960 0556 0C99     		ldr	r1, [sp, #48]	@ float
 1961 0558 FFF7FEFF 		bl	__aeabi_fsub
 1962              	.LVL494:
 1963 055c 0146     		mov	r1, r0
 1964 055e 2046     		mov	r0, r4
 1965 0560 FFF7FEFF 		bl	__aeabi_fmul
 1966              	.LVL495:
 1967 0564 8246     		mov	r10, r0
 1968 0566 1599     		ldr	r1, [sp, #84]	@ float
 1969 0568 0B98     		ldr	r0, [sp, #44]	@ float
 1970 056a FFF7FEFF 		bl	__aeabi_fsub
 1971              	.LVL496:
 1972 056e 0146     		mov	r1, r0
 1973 0570 2846     		mov	r0, r5
 1974 0572 FFF7FEFF 		bl	__aeabi_fmul
 1975              	.LVL497:
 1976 0576 0146     		mov	r1, r0
 1977 0578 5046     		mov	r0, r10
 1978 057a FFF7FEFF 		bl	__aeabi_fadd
 1979              	.LVL498:
 1980 057e 4146     		mov	r1, r8
 1981 0580 FFF7FEFF 		bl	__aeabi_fsub
 1982              	.LVL499:
 1983 0584 0C90     		str	r0, [sp, #48]	@ float
 1984              	.LVL500:
 1985 0586 0146     		mov	r1, r0
 1986 0588 1798     		ldr	r0, [sp, #92]	@ float
 1987 058a FFF7FEFF 		bl	__aeabi_fmul
 1988              	.LVL501:
 1989 058e 0146     		mov	r1, r0
 1990 0590 3046     		mov	r0, r6
 1991 0592 FFF7FEFF 		bl	__aeabi_fsub
 1992              	.LVL502:
 1993 0596 8246     		mov	r10, r0
 1994 0598 04F10046 		add	r6, r4, #-2147483648
 1995 059c 3146     		mov	r1, r6
 1996 059e 0998     		ldr	r0, [sp, #36]	@ float
 1997 05a0 FFF7FEFF 		bl	__aeabi_fmul
 1998              	.LVL503:
 1999 05a4 8046     		mov	r8, r0
 2000              	.LVL504:
 2001 05a6 2946     		mov	r1, r5
ARM GAS  C:\Users\A85590\AppData\Local\Temp\ccOscRLT.s 			page 43


 2002 05a8 0898     		ldr	r0, [sp, #32]	@ float
 2003 05aa FFF7FEFF 		bl	__aeabi_fmul
 2004              	.LVL505:
 2005 05ae 1890     		str	r0, [sp, #96]	@ float
 2006              	.LVL506:
 2007 05b0 0146     		mov	r1, r0
 2008 05b2 4046     		mov	r0, r8
 2009 05b4 FFF7FEFF 		bl	__aeabi_fadd
 2010              	.LVL507:
 2011 05b8 8046     		mov	r8, r0
 2012 05ba 1C99     		ldr	r1, [sp, #112]	@ float
 2013 05bc 1D98     		ldr	r0, [sp, #116]	@ float
 2014 05be FFF7FEFF 		bl	__aeabi_fsub
 2015              	.LVL508:
 2016 05c2 0146     		mov	r1, r0
 2017 05c4 2046     		mov	r0, r4
 2018 05c6 FFF7FEFF 		bl	__aeabi_fmul
 2019              	.LVL509:
 2020 05ca 1A90     		str	r0, [sp, #104]	@ float
 2021              	.LVL510:
 2022 05cc 1E99     		ldr	r1, [sp, #120]	@ float
 2023 05ce 1198     		ldr	r0, [sp, #68]	@ float
 2024 05d0 FFF7FEFF 		bl	__aeabi_fadd
 2025              	.LVL511:
 2026 05d4 0146     		mov	r1, r0
 2027 05d6 2846     		mov	r0, r5
 2028 05d8 FFF7FEFF 		bl	__aeabi_fmul
 2029              	.LVL512:
 2030 05dc 0146     		mov	r1, r0
 2031 05de 1A98     		ldr	r0, [sp, #104]	@ float
 2032 05e0 FFF7FEFF 		bl	__aeabi_fadd
 2033              	.LVL513:
 2034 05e4 0399     		ldr	r1, [sp, #12]	@ float
 2035 05e6 FFF7FEFF 		bl	__aeabi_fsub
 2036              	.LVL514:
 2037 05ea 0390     		str	r0, [sp, #12]	@ float
 2038              	.LVL515:
 2039 05ec 0146     		mov	r1, r0
 2040 05ee 4046     		mov	r0, r8
 2041 05f0 FFF7FEFF 		bl	__aeabi_fmul
 2042              	.LVL516:
 2043 05f4 0146     		mov	r1, r0
 2044 05f6 5046     		mov	r0, r10
 2045 05f8 FFF7FEFF 		bl	__aeabi_fadd
 2046              	.LVL517:
 2047 05fc 8046     		mov	r8, r0
 2048 05fe 0599     		ldr	r1, [sp, #20]	@ float
 2049 0600 2046     		mov	r0, r4
 2050 0602 FFF7FEFF 		bl	__aeabi_fmul
 2051              	.LVL518:
 2052 0606 8246     		mov	r10, r0
 2053 0608 0B99     		ldr	r1, [sp, #44]	@ float
 2054 060a 1598     		ldr	r0, [sp, #84]	@ float
 2055 060c FFF7FEFF 		bl	__aeabi_fadd
 2056              	.LVL519:
 2057 0610 0146     		mov	r1, r0
 2058 0612 2046     		mov	r0, r4
ARM GAS  C:\Users\A85590\AppData\Local\Temp\ccOscRLT.s 			page 44


 2059 0614 FFF7FEFF 		bl	__aeabi_fmul
 2060              	.LVL520:
 2061 0618 0B90     		str	r0, [sp, #44]	@ float
 2062              	.LVL521:
 2063 061a 0799     		ldr	r1, [sp, #28]	@ float
 2064 061c 4FF07C50 		mov	r0, #1056964608
 2065 0620 FFF7FEFF 		bl	__aeabi_fsub
 2066              	.LVL522:
 2067 0624 0499     		ldr	r1, [sp, #16]	@ float
 2068 0626 FFF7FEFF 		bl	__aeabi_fsub
 2069              	.LVL523:
 2070 062a 0146     		mov	r1, r0
 2071 062c 2846     		mov	r0, r5
 2072 062e FFF7FEFF 		bl	__aeabi_fmul
 2073              	.LVL524:
 2074 0632 0146     		mov	r1, r0
 2075 0634 0B98     		ldr	r0, [sp, #44]	@ float
 2076 0636 FFF7FEFF 		bl	__aeabi_fadd
 2077              	.LVL525:
 2078 063a 5946     		mov	r1, fp
 2079 063c FFF7FEFF 		bl	__aeabi_fsub
 2080              	.LVL526:
 2081 0640 0B90     		str	r0, [sp, #44]	@ float
 2082 0642 0146     		mov	r1, r0
 2083 0644 5046     		mov	r0, r10
 2084 0646 FFF7FEFF 		bl	__aeabi_fmul
 2085              	.LVL527:
 2086 064a 0146     		mov	r1, r0
 2087 064c 4046     		mov	r0, r8
 2088 064e FFF7FEFF 		bl	__aeabi_fadd
 2089              	.LVL528:
 2090 0652 1190     		str	r0, [sp, #68]	@ float
 2091              	.LVL529:
 148:Madgwick.c    **** 		s2 = -_2q0 * (2.0f * q1q3 - _2q0q2 - ax) + _2q3 * (2.0f * q0q1 + _2q2q3 - ay) - 4.0f * q2 * (1 - 
 2092              		.loc 1 148 0
 2093 0654 1299     		ldr	r1, [sp, #72]	@ float
 2094 0656 1498     		ldr	r0, [sp, #80]	@ float
 2095              	.LVL530:
 2096 0658 FFF7FEFF 		bl	__aeabi_fmul
 2097              	.LVL531:
 2098 065c 8046     		mov	r8, r0
 2099 065e 1399     		ldr	r1, [sp, #76]	@ float
 2100 0660 4846     		mov	r0, r9
 2101 0662 FFF7FEFF 		bl	__aeabi_fmul
 2102              	.LVL532:
 2103 0666 0146     		mov	r1, r0
 2104 0668 4046     		mov	r0, r8
 2105 066a FFF7FEFF 		bl	__aeabi_fadd
 2106              	.LVL533:
 2107 066e 8046     		mov	r8, r0
 2108 0670 4FF08141 		mov	r1, #1082130432
 2109 0674 0898     		ldr	r0, [sp, #32]	@ float
 2110 0676 FFF7FEFF 		bl	__aeabi_fmul
 2111              	.LVL534:
 2112 067a 8346     		mov	fp, r0
 2113              	.LVL535:
 2114 067c DDF81CE0 		ldr	lr, [sp, #28]	@ float
ARM GAS  C:\Users\A85590\AppData\Local\Temp\ccOscRLT.s 			page 45


 2115 0680 7146     		mov	r1, lr
 2116 0682 7046     		mov	r0, lr
 2117 0684 FFF7FEFF 		bl	__aeabi_fadd
 2118              	.LVL536:
 2119 0688 0146     		mov	r1, r0
 2120 068a 4FF07E50 		mov	r0, #1065353216
 2121 068e FFF7FEFF 		bl	__aeabi_fsub
 2122              	.LVL537:
 2123 0692 0790     		str	r0, [sp, #28]	@ float
 2124              	.LVL538:
 2125 0694 049B     		ldr	r3, [sp, #16]	@ float
 2126 0696 1946     		mov	r1, r3
 2127 0698 1846     		mov	r0, r3
 2128 069a FFF7FEFF 		bl	__aeabi_fadd
 2129              	.LVL539:
 2130 069e 0146     		mov	r1, r0
 2131 06a0 0798     		ldr	r0, [sp, #28]	@ float
 2132 06a2 FFF7FEFF 		bl	__aeabi_fsub
 2133              	.LVL540:
 2134 06a6 1999     		ldr	r1, [sp, #100]	@ float
 2135 06a8 FFF7FEFF 		bl	__aeabi_fsub
 2136              	.LVL541:
 2137 06ac 0146     		mov	r1, r0
 2138 06ae 0490     		str	r0, [sp, #16]	@ float
 2139 06b0 5846     		mov	r0, fp
 2140 06b2 FFF7FEFF 		bl	__aeabi_fmul
 2141              	.LVL542:
 2142 06b6 0146     		mov	r1, r0
 2143 06b8 4046     		mov	r0, r8
 2144 06ba FFF7FEFF 		bl	__aeabi_fsub
 2145              	.LVL543:
 2146 06be 8346     		mov	fp, r0
 2147 06c0 2946     		mov	r1, r5
 2148 06c2 0998     		ldr	r0, [sp, #36]	@ float
 2149 06c4 FFF7FEFF 		bl	__aeabi_fmul
 2150              	.LVL544:
 2151 06c8 8046     		mov	r8, r0
 2152 06ca 0146     		mov	r1, r0
 2153 06cc 0C98     		ldr	r0, [sp, #48]	@ float
 2154 06ce 01E0     		b	.L43
 2155              	.L44:
 2156              		.align	2
 2157              	.L42:
 2158 06d0 00000000 		.word	.LANCHOR0
 2159              	.L43:
 2160 06d4 FFF7FEFF 		bl	__aeabi_fmul
 2161              	.LVL545:
 2162 06d8 0146     		mov	r1, r0
 2163 06da 5846     		mov	r0, fp
 2164 06dc FFF7FEFF 		bl	__aeabi_fadd
 2165              	.LVL546:
 2166 06e0 8346     		mov	fp, r0
 2167 06e2 7F68     		ldr	r7, [r7, #4]	@ float
 2168 06e4 3946     		mov	r1, r7
 2169 06e6 2846     		mov	r0, r5
 2170 06e8 FFF7FEFF 		bl	__aeabi_fmul
 2171              	.LVL547:
ARM GAS  C:\Users\A85590\AppData\Local\Temp\ccOscRLT.s 			page 46


 2172 06ec 0546     		mov	r5, r0
 2173              	.LVL548:
 2174 06ee 0146     		mov	r1, r0
 2175 06f0 5046     		mov	r0, r10
 2176 06f2 FFF7FEFF 		bl	__aeabi_fadd
 2177              	.LVL549:
 2178 06f6 0146     		mov	r1, r0
 2179 06f8 0398     		ldr	r0, [sp, #12]	@ float
 2180 06fa FFF7FEFF 		bl	__aeabi_fmul
 2181              	.LVL550:
 2182 06fe 0146     		mov	r1, r0
 2183 0700 5846     		mov	r0, fp
 2184 0702 FFF7FEFF 		bl	__aeabi_fadd
 2185              	.LVL551:
 2186 0706 8246     		mov	r10, r0
 2187 0708 0999     		ldr	r1, [sp, #36]	@ float
 2188 070a 2046     		mov	r0, r4
 2189 070c FFF7FEFF 		bl	__aeabi_fmul
 2190              	.LVL552:
 2191 0710 8346     		mov	fp, r0
 2192 0712 1699     		ldr	r1, [sp, #88]	@ float
 2193 0714 0898     		ldr	r0, [sp, #32]	@ float
 2194 0716 FFF7FEFF 		bl	__aeabi_fmul
 2195              	.LVL553:
 2196 071a 0146     		mov	r1, r0
 2197 071c 5846     		mov	r0, fp
 2198 071e FFF7FEFF 		bl	__aeabi_fsub
 2199              	.LVL554:
 2200 0722 0146     		mov	r1, r0
 2201 0724 0B98     		ldr	r0, [sp, #44]	@ float
 2202 0726 FFF7FEFF 		bl	__aeabi_fmul
 2203              	.LVL555:
 2204 072a 0146     		mov	r1, r0
 2205 072c 5046     		mov	r0, r10
 2206 072e FFF7FEFF 		bl	__aeabi_fadd
 2207              	.LVL556:
 2208 0732 8246     		mov	r10, r0
 2209              	.LVL557:
 149:Madgwick.c    **** 		s3 = _2q1 * (2.0f * q1q3 - _2q0q2 - ax) + _2q2 * (2.0f * q0q1 + _2q2q3 - ay) + (-_4bx * q3 + _2bz
 2210              		.loc 1 149 0
 2211 0734 09F10041 		add	r1, r9, #-2147483648
 2212 0738 1298     		ldr	r0, [sp, #72]	@ float
 2213              	.LVL558:
 2214 073a FFF7FEFF 		bl	__aeabi_fmul
 2215              	.LVL559:
 2216 073e 8346     		mov	fp, r0
 2217 0740 1399     		ldr	r1, [sp, #76]	@ float
 2218 0742 1498     		ldr	r0, [sp, #80]	@ float
 2219 0744 FFF7FEFF 		bl	__aeabi_fmul
 2220              	.LVL560:
 2221 0748 0146     		mov	r1, r0
 2222 074a 5846     		mov	r0, fp
 2223 074c FFF7FEFF 		bl	__aeabi_fadd
 2224              	.LVL561:
 2225 0750 8346     		mov	fp, r0
 2226 0752 4FF08141 		mov	r1, #1082130432
 2227 0756 0598     		ldr	r0, [sp, #20]	@ float
ARM GAS  C:\Users\A85590\AppData\Local\Temp\ccOscRLT.s 			page 47


 2228 0758 FFF7FEFF 		bl	__aeabi_fmul
 2229              	.LVL562:
 2230 075c 0146     		mov	r1, r0
 2231 075e 0498     		ldr	r0, [sp, #16]	@ float
 2232 0760 FFF7FEFF 		bl	__aeabi_fmul
 2233              	.LVL563:
 2234 0764 0146     		mov	r1, r0
 2235 0766 5846     		mov	r0, fp
 2236 0768 FFF7FEFF 		bl	__aeabi_fsub
 2237              	.LVL564:
 2238 076c 8346     		mov	fp, r0
 2239 076e 1F9B     		ldr	r3, [sp, #124]
 2240 0770 03F10049 		add	r9, r3, #-2147483648
 2241              	.LVL565:
 2242 0774 4946     		mov	r1, r9
 2243 0776 0598     		ldr	r0, [sp, #20]	@ float
 2244 0778 FFF7FEFF 		bl	__aeabi_fmul
 2245              	.LVL566:
 2246 077c 2946     		mov	r1, r5
 2247 077e FFF7FEFF 		bl	__aeabi_fsub
 2248              	.LVL567:
 2249 0782 0146     		mov	r1, r0
 2250 0784 0C98     		ldr	r0, [sp, #48]	@ float
 2251 0786 FFF7FEFF 		bl	__aeabi_fmul
 2252              	.LVL568:
 2253 078a 0146     		mov	r1, r0
 2254 078c 5846     		mov	r0, fp
 2255 078e FFF7FEFF 		bl	__aeabi_fadd
 2256              	.LVL569:
 2257 0792 8346     		mov	fp, r0
 2258 0794 0899     		ldr	r1, [sp, #32]	@ float
 2259 0796 2046     		mov	r0, r4
 2260 0798 FFF7FEFF 		bl	__aeabi_fmul
 2261              	.LVL570:
 2262 079c 0546     		mov	r5, r0
 2263 079e 0146     		mov	r1, r0
 2264 07a0 4046     		mov	r0, r8
 2265 07a2 FFF7FEFF 		bl	__aeabi_fadd
 2266              	.LVL571:
 2267 07a6 0146     		mov	r1, r0
 2268 07a8 0398     		ldr	r0, [sp, #12]	@ float
 2269 07aa FFF7FEFF 		bl	__aeabi_fmul
 2270              	.LVL572:
 2271 07ae 0146     		mov	r1, r0
 2272 07b0 5846     		mov	r0, fp
 2273 07b2 FFF7FEFF 		bl	__aeabi_fadd
 2274              	.LVL573:
 2275 07b6 8046     		mov	r8, r0
 2276 07b8 3946     		mov	r1, r7
 2277 07ba 2046     		mov	r0, r4
 2278 07bc FFF7FEFF 		bl	__aeabi_fmul
 2279              	.LVL574:
 2280 07c0 0446     		mov	r4, r0
 2281              	.LVL575:
 2282 07c2 1699     		ldr	r1, [sp, #88]	@ float
 2283 07c4 0598     		ldr	r0, [sp, #20]	@ float
 2284 07c6 FFF7FEFF 		bl	__aeabi_fmul
ARM GAS  C:\Users\A85590\AppData\Local\Temp\ccOscRLT.s 			page 48


 2285              	.LVL576:
 2286 07ca 0146     		mov	r1, r0
 2287 07cc 2046     		mov	r0, r4
 2288 07ce FFF7FEFF 		bl	__aeabi_fsub
 2289              	.LVL577:
 2290 07d2 0146     		mov	r1, r0
 2291 07d4 DDF82CB0 		ldr	fp, [sp, #44]	@ float
 2292 07d8 5846     		mov	r0, fp
 2293 07da FFF7FEFF 		bl	__aeabi_fmul
 2294              	.LVL578:
 2295 07de 0146     		mov	r1, r0
 2296 07e0 4046     		mov	r0, r8
 2297 07e2 FFF7FEFF 		bl	__aeabi_fadd
 2298              	.LVL579:
 2299 07e6 0446     		mov	r4, r0
 2300              	.LVL580:
 150:Madgwick.c    **** 		recipNorm = invSqrt(s0 * s0 + s1 * s1 + s2 * s2 + s3 * s3); // normalise step magnitude
 2301              		.loc 1 150 0
 2302 07e8 1299     		ldr	r1, [sp, #72]	@ float
 2303 07ea 0A98     		ldr	r0, [sp, #40]	@ float
 2304              	.LVL581:
 2305 07ec FFF7FEFF 		bl	__aeabi_fmul
 2306              	.LVL582:
 2307 07f0 8046     		mov	r8, r0
 2308 07f2 1399     		ldr	r1, [sp, #76]	@ float
 2309 07f4 0698     		ldr	r0, [sp, #24]	@ float
 2310 07f6 FFF7FEFF 		bl	__aeabi_fmul
 2311              	.LVL583:
 2312 07fa 0146     		mov	r1, r0
 2313 07fc 4046     		mov	r0, r8
 2314 07fe FFF7FEFF 		bl	__aeabi_fadd
 2315              	.LVL584:
 2316 0802 8046     		mov	r8, r0
 2317 0804 4946     		mov	r1, r9
 2318 0806 0998     		ldr	r0, [sp, #36]	@ float
 2319 0808 FFF7FEFF 		bl	__aeabi_fmul
 2320              	.LVL585:
 2321 080c 0146     		mov	r1, r0
 2322 080e 1898     		ldr	r0, [sp, #96]	@ float
 2323 0810 FFF7FEFF 		bl	__aeabi_fadd
 2324              	.LVL586:
 2325 0814 0146     		mov	r1, r0
 2326 0816 0C98     		ldr	r0, [sp, #48]	@ float
 2327 0818 FFF7FEFF 		bl	__aeabi_fmul
 2328              	.LVL587:
 2329 081c 0146     		mov	r1, r0
 2330 081e 4046     		mov	r0, r8
 2331 0820 FFF7FEFF 		bl	__aeabi_fadd
 2332              	.LVL588:
 2333 0824 8046     		mov	r8, r0
 2334 0826 3946     		mov	r1, r7
 2335 0828 3046     		mov	r0, r6
 2336 082a FFF7FEFF 		bl	__aeabi_fmul
 2337              	.LVL589:
 2338 082e 0146     		mov	r1, r0
 2339 0830 1798     		ldr	r0, [sp, #92]	@ float
 2340 0832 FFF7FEFF 		bl	__aeabi_fadd
ARM GAS  C:\Users\A85590\AppData\Local\Temp\ccOscRLT.s 			page 49


 2341              	.LVL590:
 2342 0836 0146     		mov	r1, r0
 2343 0838 0398     		ldr	r0, [sp, #12]	@ float
 2344 083a FFF7FEFF 		bl	__aeabi_fmul
 2345              	.LVL591:
 2346 083e 0146     		mov	r1, r0
 2347 0840 4046     		mov	r0, r8
 2348 0842 FFF7FEFF 		bl	__aeabi_fadd
 2349              	.LVL592:
 2350 0846 0746     		mov	r7, r0
 2351 0848 2946     		mov	r1, r5
 2352 084a 5846     		mov	r0, fp
 2353 084c FFF7FEFF 		bl	__aeabi_fmul
 2354              	.LVL593:
 2355 0850 0146     		mov	r1, r0
 2356 0852 3846     		mov	r0, r7
 2357 0854 FFF7FEFF 		bl	__aeabi_fadd
 2358              	.LVL594:
 2359 0858 0646     		mov	r6, r0
 2360              	.LVL595:
 151:Madgwick.c    **** 		s0 *= recipNorm;
 2361              		.loc 1 151 0
 2362 085a 119F     		ldr	r7, [sp, #68]	@ float
 2363 085c 3946     		mov	r1, r7
 2364 085e 3846     		mov	r0, r7
 2365              	.LVL596:
 2366 0860 FFF7FEFF 		bl	__aeabi_fmul
 2367              	.LVL597:
 2368 0864 0546     		mov	r5, r0
 2369 0866 5146     		mov	r1, r10
 2370 0868 5046     		mov	r0, r10
 2371 086a FFF7FEFF 		bl	__aeabi_fmul
 2372              	.LVL598:
 2373 086e 0146     		mov	r1, r0
 2374 0870 2846     		mov	r0, r5
 2375 0872 FFF7FEFF 		bl	__aeabi_fadd
 2376              	.LVL599:
 2377 0876 0546     		mov	r5, r0
 2378 0878 2146     		mov	r1, r4
 2379 087a 2046     		mov	r0, r4
 2380 087c FFF7FEFF 		bl	__aeabi_fmul
 2381              	.LVL600:
 2382 0880 0146     		mov	r1, r0
 2383 0882 2846     		mov	r0, r5
 2384 0884 FFF7FEFF 		bl	__aeabi_fadd
 2385              	.LVL601:
 2386 0888 0546     		mov	r5, r0
 2387 088a 3146     		mov	r1, r6
 2388 088c 3046     		mov	r0, r6
 2389 088e FFF7FEFF 		bl	__aeabi_fmul
 2390              	.LVL602:
 2391 0892 0146     		mov	r1, r0
 2392 0894 2846     		mov	r0, r5
 2393 0896 FFF7FEFF 		bl	__aeabi_fadd
 2394              	.LVL603:
 2395 089a FFF7FEFF 		bl	invSqrt
 2396              	.LVL604:
ARM GAS  C:\Users\A85590\AppData\Local\Temp\ccOscRLT.s 			page 50


 2397 089e 0546     		mov	r5, r0
 2398              	.LVL605:
 152:Madgwick.c    **** 		s1 *= recipNorm;
 2399              		.loc 1 152 0
 2400 08a0 0146     		mov	r1, r0
 2401 08a2 3846     		mov	r0, r7
 2402              	.LVL606:
 2403 08a4 FFF7FEFF 		bl	__aeabi_fmul
 2404              	.LVL607:
 2405 08a8 0746     		mov	r7, r0
 2406              	.LVL608:
 153:Madgwick.c    **** 		s2 *= recipNorm;
 2407              		.loc 1 153 0
 2408 08aa 2946     		mov	r1, r5
 2409 08ac 5046     		mov	r0, r10
 2410              	.LVL609:
 2411 08ae FFF7FEFF 		bl	__aeabi_fmul
 2412              	.LVL610:
 2413 08b2 8046     		mov	r8, r0
 2414              	.LVL611:
 154:Madgwick.c    **** 		s3 *= recipNorm;
 2415              		.loc 1 154 0
 2416 08b4 2946     		mov	r1, r5
 2417 08b6 2046     		mov	r0, r4
 2418              	.LVL612:
 2419 08b8 FFF7FEFF 		bl	__aeabi_fmul
 2420              	.LVL613:
 2421 08bc 0446     		mov	r4, r0
 2422              	.LVL614:
 155:Madgwick.c    **** 
 2423              		.loc 1 155 0
 2424 08be 2946     		mov	r1, r5
 2425 08c0 3046     		mov	r0, r6
 2426              	.LVL615:
 2427 08c2 FFF7FEFF 		bl	__aeabi_fmul
 2428              	.LVL616:
 2429 08c6 0646     		mov	r6, r0
 2430              	.LVL617:
 158:Madgwick.c    **** 		qDot2 -= beta * s1;
 2431              		.loc 1 158 0
 2432 08c8 414B     		ldr	r3, .L45
 2433 08ca 1D6A     		ldr	r5, [r3, #32]	@ float
 2434              	.LVL618:
 2435 08cc 2946     		mov	r1, r5
 2436 08ce 3846     		mov	r0, r7
 2437              	.LVL619:
 2438 08d0 FFF7FEFF 		bl	__aeabi_fmul
 2439              	.LVL620:
 2440 08d4 0146     		mov	r1, r0
 2441 08d6 0D98     		ldr	r0, [sp, #52]	@ float
 2442 08d8 FFF7FEFF 		bl	__aeabi_fsub
 2443              	.LVL621:
 2444 08dc 0D90     		str	r0, [sp, #52]	@ float
 2445              	.LVL622:
 159:Madgwick.c    **** 		qDot3 -= beta * s2;
 2446              		.loc 1 159 0
 2447 08de 2946     		mov	r1, r5
ARM GAS  C:\Users\A85590\AppData\Local\Temp\ccOscRLT.s 			page 51


 2448 08e0 4046     		mov	r0, r8
 2449              	.LVL623:
 2450 08e2 FFF7FEFF 		bl	__aeabi_fmul
 2451              	.LVL624:
 2452 08e6 0146     		mov	r1, r0
 2453 08e8 0E98     		ldr	r0, [sp, #56]	@ float
 2454 08ea FFF7FEFF 		bl	__aeabi_fsub
 2455              	.LVL625:
 2456 08ee 0E90     		str	r0, [sp, #56]	@ float
 2457              	.LVL626:
 160:Madgwick.c    **** 		qDot4 -= beta * s3;
 2458              		.loc 1 160 0
 2459 08f0 2946     		mov	r1, r5
 2460 08f2 2046     		mov	r0, r4
 2461              	.LVL627:
 2462 08f4 FFF7FEFF 		bl	__aeabi_fmul
 2463              	.LVL628:
 2464 08f8 0146     		mov	r1, r0
 2465 08fa 0F98     		ldr	r0, [sp, #60]	@ float
 2466 08fc FFF7FEFF 		bl	__aeabi_fsub
 2467              	.LVL629:
 2468 0900 0F90     		str	r0, [sp, #60]	@ float
 2469              	.LVL630:
 161:Madgwick.c    **** 	}
 2470              		.loc 1 161 0
 2471 0902 2946     		mov	r1, r5
 2472 0904 3046     		mov	r0, r6
 2473              	.LVL631:
 2474 0906 FFF7FEFF 		bl	__aeabi_fmul
 2475              	.LVL632:
 2476 090a 0146     		mov	r1, r0
 2477 090c 1098     		ldr	r0, [sp, #64]	@ float
 2478 090e FFF7FEFF 		bl	__aeabi_fsub
 2479              	.LVL633:
 2480 0912 1090     		str	r0, [sp, #64]	@ float
 2481              	.LVL634:
 2482              	.L33:
 165:Madgwick.c    **** 	q1 += qDot2 * invSampleFreq;
 2483              		.loc 1 165 0
 2484 0914 2E4C     		ldr	r4, .L45
 2485 0916 656A     		ldr	r5, [r4, #36]	@ float
 2486 0918 2946     		mov	r1, r5
 2487 091a 0D98     		ldr	r0, [sp, #52]	@ float
 2488 091c FFF7FEFF 		bl	__aeabi_fmul
 2489              	.LVL635:
 2490 0920 6168     		ldr	r1, [r4, #4]	@ float
 2491 0922 FFF7FEFF 		bl	__aeabi_fadd
 2492              	.LVL636:
 2493 0926 0746     		mov	r7, r0
 166:Madgwick.c    **** 	q2 += qDot3 * invSampleFreq;
 2494              		.loc 1 166 0
 2495 0928 2946     		mov	r1, r5
 2496 092a 0E98     		ldr	r0, [sp, #56]	@ float
 2497 092c FFF7FEFF 		bl	__aeabi_fmul
 2498              	.LVL637:
 2499 0930 2168     		ldr	r1, [r4]	@ float
 2500 0932 FFF7FEFF 		bl	__aeabi_fadd
ARM GAS  C:\Users\A85590\AppData\Local\Temp\ccOscRLT.s 			page 52


 2501              	.LVL638:
 2502 0936 8046     		mov	r8, r0
 167:Madgwick.c    **** 	q3 += qDot4 * invSampleFreq;
 2503              		.loc 1 167 0
 2504 0938 2946     		mov	r1, r5
 2505 093a 0F98     		ldr	r0, [sp, #60]	@ float
 2506 093c FFF7FEFF 		bl	__aeabi_fmul
 2507              	.LVL639:
 2508 0940 A168     		ldr	r1, [r4, #8]	@ float
 2509 0942 FFF7FEFF 		bl	__aeabi_fadd
 2510              	.LVL640:
 2511 0946 8146     		mov	r9, r0
 168:Madgwick.c    **** 
 2512              		.loc 1 168 0
 2513 0948 2946     		mov	r1, r5
 2514 094a 1098     		ldr	r0, [sp, #64]	@ float
 2515 094c FFF7FEFF 		bl	__aeabi_fmul
 2516              	.LVL641:
 2517 0950 E168     		ldr	r1, [r4, #12]	@ float
 2518 0952 FFF7FEFF 		bl	__aeabi_fadd
 2519              	.LVL642:
 2520 0956 0646     		mov	r6, r0
 171:Madgwick.c    **** 	q0 *= recipNorm;
 2521              		.loc 1 171 0
 2522 0958 3946     		mov	r1, r7
 2523 095a 3846     		mov	r0, r7
 2524 095c FFF7FEFF 		bl	__aeabi_fmul
 2525              	.LVL643:
 2526 0960 0546     		mov	r5, r0
 2527 0962 4146     		mov	r1, r8
 2528 0964 4046     		mov	r0, r8
 2529 0966 FFF7FEFF 		bl	__aeabi_fmul
 2530              	.LVL644:
 2531 096a 0146     		mov	r1, r0
 2532 096c 2846     		mov	r0, r5
 2533 096e FFF7FEFF 		bl	__aeabi_fadd
 2534              	.LVL645:
 2535 0972 0546     		mov	r5, r0
 2536 0974 4946     		mov	r1, r9
 2537 0976 4846     		mov	r0, r9
 2538 0978 FFF7FEFF 		bl	__aeabi_fmul
 2539              	.LVL646:
 2540 097c 0146     		mov	r1, r0
 2541 097e 2846     		mov	r0, r5
 2542 0980 FFF7FEFF 		bl	__aeabi_fadd
 2543              	.LVL647:
 2544 0984 0546     		mov	r5, r0
 2545 0986 3146     		mov	r1, r6
 2546 0988 3046     		mov	r0, r6
 2547 098a FFF7FEFF 		bl	__aeabi_fmul
 2548              	.LVL648:
 2549 098e 0146     		mov	r1, r0
 2550 0990 2846     		mov	r0, r5
 2551 0992 FFF7FEFF 		bl	__aeabi_fadd
 2552              	.LVL649:
 2553 0996 FFF7FEFF 		bl	invSqrt
 2554              	.LVL650:
ARM GAS  C:\Users\A85590\AppData\Local\Temp\ccOscRLT.s 			page 53


 2555 099a 0546     		mov	r5, r0
 2556              	.LVL651:
 172:Madgwick.c    **** 	q1 *= recipNorm;
 2557              		.loc 1 172 0
 2558 099c 0146     		mov	r1, r0
 2559 099e 3846     		mov	r0, r7
 2560              	.LVL652:
 2561 09a0 FFF7FEFF 		bl	__aeabi_fmul
 2562              	.LVL653:
 2563 09a4 6060     		str	r0, [r4, #4]	@ float
 173:Madgwick.c    **** 	q2 *= recipNorm;
 2564              		.loc 1 173 0
 2565 09a6 2946     		mov	r1, r5
 2566 09a8 4046     		mov	r0, r8
 2567 09aa FFF7FEFF 		bl	__aeabi_fmul
 2568              	.LVL654:
 2569 09ae 2060     		str	r0, [r4]	@ float
 174:Madgwick.c    **** 	q3 *= recipNorm;
 2570              		.loc 1 174 0
 2571 09b0 2946     		mov	r1, r5
 2572 09b2 4846     		mov	r0, r9
 2573 09b4 FFF7FEFF 		bl	__aeabi_fmul
 2574              	.LVL655:
 2575 09b8 A060     		str	r0, [r4, #8]	@ float
 175:Madgwick.c    **** 	anglesComputed = 0;
 2576              		.loc 1 175 0
 2577 09ba 2946     		mov	r1, r5
 2578 09bc 3046     		mov	r0, r6
 2579 09be FFF7FEFF 		bl	__aeabi_fmul
 2580              	.LVL656:
 2581 09c2 E060     		str	r0, [r4, #12]	@ float
 176:Madgwick.c    **** }
 2582              		.loc 1 176 0
 2583 09c4 0023     		movs	r3, #0
 2584 09c6 2377     		strb	r3, [r4, #28]
 2585              	.LVL657:
 2586              	.L26:
 177:Madgwick.c    **** 
 2587              		.loc 1 177 0
 2588 09c8 21B0     		add	sp, sp, #132
 2589              		.cfi_def_cfa_offset 36
 2590              		@ sp needed
 2591 09ca BDE8F08F 		pop	{r4, r5, r6, r7, r8, r9, r10, fp, pc}
 2592              	.L46:
 2593 09ce 00BF     		.align	2
 2594              	.L45:
 2595 09d0 00000000 		.word	.LANCHOR0
 2596              		.cfi_endproc
 2597              	.LFE3:
 2598              		.size	Madgwick_update, .-Madgwick_update
 2599              		.section	.text.getRoll,"ax",%progbits
 2600              		.align	2
 2601              		.global	getRoll
 2602              		.thumb
 2603              		.thumb_func
 2604              		.type	getRoll, %function
 2605              	getRoll:
ARM GAS  C:\Users\A85590\AppData\Local\Temp\ccOscRLT.s 			page 54


 2606              	.LFB7:
 282:Madgwick.c    **** }
 283:Madgwick.c    **** 
 284:Madgwick.c    ****     //float getPitch(){return atan2f(2.0f * q2 * q3 - 2.0f * q0 * q1, 2.0f * q0 * q0 + 2.0f * q3 * 
 285:Madgwick.c    ****     //float getRoll(){return -1.0f * asinf(2.0f * q1 * q3 + 2.0f * q0 * q2);};
 286:Madgwick.c    ****     //float getYaw(){return atan2f(2.0f * q1 * q2 - 2.0f * q0 * q3, 2.0f * q0 * q0 + 2.0f * q1 * q1
 287:Madgwick.c    ****     float getRoll() {
 2607              		.loc 1 287 0
 2608              		.cfi_startproc
 2609              		@ args = 0, pretend = 0, frame = 0
 2610              		@ frame_needed = 0, uses_anonymous_args = 0
 2611 0000 08B5     		push	{r3, lr}
 2612              		.cfi_def_cfa_offset 8
 2613              		.cfi_offset 3, -8
 2614              		.cfi_offset 14, -4
 288:Madgwick.c    ****         if (!anglesComputed) computeAngles();
 2615              		.loc 1 288 0
 2616 0002 054B     		ldr	r3, .L50
 2617 0004 1B7F     		ldrb	r3, [r3, #28]	@ zero_extendqisi2
 2618 0006 0BB9     		cbnz	r3, .L48
 2619              		.loc 1 288 0 is_stmt 0 discriminator 1
 2620 0008 FFF7FEFF 		bl	computeAngles
 2621              	.LVL658:
 2622              	.L48:
 289:Madgwick.c    ****         return roll * 57.29578f;
 2623              		.loc 1 289 0 is_stmt 1
 2624 000c 0349     		ldr	r1, .L50+4
 2625 000e 024B     		ldr	r3, .L50
 2626 0010 1869     		ldr	r0, [r3, #16]	@ float
 2627 0012 FFF7FEFF 		bl	__aeabi_fmul
 2628              	.LVL659:
 290:Madgwick.c    ****     }
 2629              		.loc 1 290 0
 2630 0016 08BD     		pop	{r3, pc}
 2631              	.L51:
 2632              		.align	2
 2633              	.L50:
 2634 0018 00000000 		.word	.LANCHOR0
 2635 001c E12E6542 		.word	1113927393
 2636              		.cfi_endproc
 2637              	.LFE7:
 2638              		.size	getRoll, .-getRoll
 2639              		.section	.text.getPitch,"ax",%progbits
 2640              		.align	2
 2641              		.global	getPitch
 2642              		.thumb
 2643              		.thumb_func
 2644              		.type	getPitch, %function
 2645              	getPitch:
 2646              	.LFB8:
 291:Madgwick.c    ****     float getPitch() {
 2647              		.loc 1 291 0
 2648              		.cfi_startproc
 2649              		@ args = 0, pretend = 0, frame = 0
 2650              		@ frame_needed = 0, uses_anonymous_args = 0
 2651 0000 08B5     		push	{r3, lr}
 2652              		.cfi_def_cfa_offset 8
ARM GAS  C:\Users\A85590\AppData\Local\Temp\ccOscRLT.s 			page 55


 2653              		.cfi_offset 3, -8
 2654              		.cfi_offset 14, -4
 292:Madgwick.c    ****         if (!anglesComputed) computeAngles();
 2655              		.loc 1 292 0
 2656 0002 054B     		ldr	r3, .L55
 2657 0004 1B7F     		ldrb	r3, [r3, #28]	@ zero_extendqisi2
 2658 0006 0BB9     		cbnz	r3, .L53
 2659              		.loc 1 292 0 is_stmt 0 discriminator 1
 2660 0008 FFF7FEFF 		bl	computeAngles
 2661              	.LVL660:
 2662              	.L53:
 293:Madgwick.c    ****         return pitch * 57.29578f;
 2663              		.loc 1 293 0 is_stmt 1
 2664 000c 0349     		ldr	r1, .L55+4
 2665 000e 024B     		ldr	r3, .L55
 2666 0010 5869     		ldr	r0, [r3, #20]	@ float
 2667 0012 FFF7FEFF 		bl	__aeabi_fmul
 2668              	.LVL661:
 294:Madgwick.c    ****     }
 2669              		.loc 1 294 0
 2670 0016 08BD     		pop	{r3, pc}
 2671              	.L56:
 2672              		.align	2
 2673              	.L55:
 2674 0018 00000000 		.word	.LANCHOR0
 2675 001c E12E6542 		.word	1113927393
 2676              		.cfi_endproc
 2677              	.LFE8:
 2678              		.size	getPitch, .-getPitch
 2679              		.section	.text.getYaw,"ax",%progbits
 2680              		.align	2
 2681              		.global	getYaw
 2682              		.thumb
 2683              		.thumb_func
 2684              		.type	getYaw, %function
 2685              	getYaw:
 2686              	.LFB9:
 295:Madgwick.c    ****     float getYaw() {
 2687              		.loc 1 295 0
 2688              		.cfi_startproc
 2689              		@ args = 0, pretend = 0, frame = 0
 2690              		@ frame_needed = 0, uses_anonymous_args = 0
 2691 0000 08B5     		push	{r3, lr}
 2692              		.cfi_def_cfa_offset 8
 2693              		.cfi_offset 3, -8
 2694              		.cfi_offset 14, -4
 296:Madgwick.c    ****         if (!anglesComputed) computeAngles();
 2695              		.loc 1 296 0
 2696 0002 074B     		ldr	r3, .L60
 2697 0004 1B7F     		ldrb	r3, [r3, #28]	@ zero_extendqisi2
 2698 0006 0BB9     		cbnz	r3, .L58
 2699              		.loc 1 296 0 is_stmt 0 discriminator 1
 2700 0008 FFF7FEFF 		bl	computeAngles
 2701              	.LVL662:
 2702              	.L58:
 297:Madgwick.c    ****         return yaw * 57.29578f + 180.0f;
 2703              		.loc 1 297 0 is_stmt 1
ARM GAS  C:\Users\A85590\AppData\Local\Temp\ccOscRLT.s 			page 56


 2704 000c 0549     		ldr	r1, .L60+4
 2705 000e 044B     		ldr	r3, .L60
 2706 0010 9869     		ldr	r0, [r3, #24]	@ float
 2707 0012 FFF7FEFF 		bl	__aeabi_fmul
 2708              	.LVL663:
 2709 0016 0449     		ldr	r1, .L60+8
 2710 0018 FFF7FEFF 		bl	__aeabi_fadd
 2711              	.LVL664:
 298:Madgwick.c    ****     }
 2712              		.loc 1 298 0
 2713 001c 08BD     		pop	{r3, pc}
 2714              	.L61:
 2715 001e 00BF     		.align	2
 2716              	.L60:
 2717 0020 00000000 		.word	.LANCHOR0
 2718 0024 E12E6542 		.word	1113927393
 2719 0028 00003443 		.word	1127481344
 2720              		.cfi_endproc
 2721              	.LFE9:
 2722              		.size	getYaw, .-getYaw
 2723              		.section	.text.getRollRadians,"ax",%progbits
 2724              		.align	2
 2725              		.global	getRollRadians
 2726              		.thumb
 2727              		.thumb_func
 2728              		.type	getRollRadians, %function
 2729              	getRollRadians:
 2730              	.LFB10:
 299:Madgwick.c    ****     float getRollRadians() {
 2731              		.loc 1 299 0
 2732              		.cfi_startproc
 2733              		@ args = 0, pretend = 0, frame = 0
 2734              		@ frame_needed = 0, uses_anonymous_args = 0
 2735 0000 08B5     		push	{r3, lr}
 2736              		.cfi_def_cfa_offset 8
 2737              		.cfi_offset 3, -8
 2738              		.cfi_offset 14, -4
 300:Madgwick.c    ****         if (!anglesComputed) computeAngles();
 2739              		.loc 1 300 0
 2740 0002 044B     		ldr	r3, .L65
 2741 0004 1B7F     		ldrb	r3, [r3, #28]	@ zero_extendqisi2
 2742 0006 0BB9     		cbnz	r3, .L63
 2743              		.loc 1 300 0 is_stmt 0 discriminator 1
 2744 0008 FFF7FEFF 		bl	computeAngles
 2745              	.LVL665:
 2746              	.L63:
 301:Madgwick.c    ****         return roll;
 302:Madgwick.c    ****     }
 2747              		.loc 1 302 0 is_stmt 1
 2748 000c 014B     		ldr	r3, .L65
 2749 000e 1869     		ldr	r0, [r3, #16]	@ float
 2750 0010 08BD     		pop	{r3, pc}
 2751              	.L66:
 2752 0012 00BF     		.align	2
 2753              	.L65:
 2754 0014 00000000 		.word	.LANCHOR0
 2755              		.cfi_endproc
ARM GAS  C:\Users\A85590\AppData\Local\Temp\ccOscRLT.s 			page 57


 2756              	.LFE10:
 2757              		.size	getRollRadians, .-getRollRadians
 2758              		.section	.text.getPitchRadians,"ax",%progbits
 2759              		.align	2
 2760              		.global	getPitchRadians
 2761              		.thumb
 2762              		.thumb_func
 2763              		.type	getPitchRadians, %function
 2764              	getPitchRadians:
 2765              	.LFB11:
 303:Madgwick.c    ****     float getPitchRadians() {
 2766              		.loc 1 303 0
 2767              		.cfi_startproc
 2768              		@ args = 0, pretend = 0, frame = 0
 2769              		@ frame_needed = 0, uses_anonymous_args = 0
 2770 0000 08B5     		push	{r3, lr}
 2771              		.cfi_def_cfa_offset 8
 2772              		.cfi_offset 3, -8
 2773              		.cfi_offset 14, -4
 304:Madgwick.c    ****         if (!anglesComputed) computeAngles();
 2774              		.loc 1 304 0
 2775 0002 044B     		ldr	r3, .L70
 2776 0004 1B7F     		ldrb	r3, [r3, #28]	@ zero_extendqisi2
 2777 0006 0BB9     		cbnz	r3, .L68
 2778              		.loc 1 304 0 is_stmt 0 discriminator 1
 2779 0008 FFF7FEFF 		bl	computeAngles
 2780              	.LVL666:
 2781              	.L68:
 305:Madgwick.c    ****         return pitch;
 306:Madgwick.c    ****     }
 2782              		.loc 1 306 0 is_stmt 1
 2783 000c 014B     		ldr	r3, .L70
 2784 000e 5869     		ldr	r0, [r3, #20]	@ float
 2785 0010 08BD     		pop	{r3, pc}
 2786              	.L71:
 2787 0012 00BF     		.align	2
 2788              	.L70:
 2789 0014 00000000 		.word	.LANCHOR0
 2790              		.cfi_endproc
 2791              	.LFE11:
 2792              		.size	getPitchRadians, .-getPitchRadians
 2793              		.section	.text.getYawRadians,"ax",%progbits
 2794              		.align	2
 2795              		.global	getYawRadians
 2796              		.thumb
 2797              		.thumb_func
 2798              		.type	getYawRadians, %function
 2799              	getYawRadians:
 2800              	.LFB12:
 307:Madgwick.c    ****     float getYawRadians() {
 2801              		.loc 1 307 0
 2802              		.cfi_startproc
 2803              		@ args = 0, pretend = 0, frame = 0
 2804              		@ frame_needed = 0, uses_anonymous_args = 0
 2805 0000 08B5     		push	{r3, lr}
 2806              		.cfi_def_cfa_offset 8
 2807              		.cfi_offset 3, -8
ARM GAS  C:\Users\A85590\AppData\Local\Temp\ccOscRLT.s 			page 58


 2808              		.cfi_offset 14, -4
 308:Madgwick.c    ****         if (!anglesComputed) computeAngles();
 2809              		.loc 1 308 0
 2810 0002 044B     		ldr	r3, .L75
 2811 0004 1B7F     		ldrb	r3, [r3, #28]	@ zero_extendqisi2
 2812 0006 0BB9     		cbnz	r3, .L73
 2813              		.loc 1 308 0 is_stmt 0 discriminator 1
 2814 0008 FFF7FEFF 		bl	computeAngles
 2815              	.LVL667:
 2816              	.L73:
 309:Madgwick.c    ****         return yaw;
 310:Madgwick.c    ****     }
 2817              		.loc 1 310 0 is_stmt 1
 2818 000c 014B     		ldr	r3, .L75
 2819 000e 9869     		ldr	r0, [r3, #24]	@ float
 2820 0010 08BD     		pop	{r3, pc}
 2821              	.L76:
 2822 0012 00BF     		.align	2
 2823              	.L75:
 2824 0014 00000000 		.word	.LANCHOR0
 2825              		.cfi_endproc
 2826              	.LFE12:
 2827              		.size	getYawRadians, .-getYawRadians
 2828              		.section	.text.getQuaternion,"ax",%progbits
 2829              		.align	2
 2830              		.global	getQuaternion
 2831              		.thumb
 2832              		.thumb_func
 2833              		.type	getQuaternion, %function
 2834              	getQuaternion:
 2835              	.LFB13:
 311:Madgwick.c    **** 	void getQuaternion(float *w, float *x, float *y, float *z) {
 2836              		.loc 1 311 0
 2837              		.cfi_startproc
 2838              		@ args = 0, pretend = 0, frame = 0
 2839              		@ frame_needed = 0, uses_anonymous_args = 0
 2840              		@ link register save eliminated.
 2841              	.LVL668:
 2842 0000 30B4     		push	{r4, r5}
 2843              		.cfi_def_cfa_offset 8
 2844              		.cfi_offset 4, -8
 2845              		.cfi_offset 5, -4
 312:Madgwick.c    ****        *w = q0;
 2846              		.loc 1 312 0
 2847 0002 054C     		ldr	r4, .L79
 2848 0004 6568     		ldr	r5, [r4, #4]	@ float
 2849 0006 0560     		str	r5, [r0]	@ float
 313:Madgwick.c    ****        *x = q1;
 2850              		.loc 1 313 0
 2851 0008 2068     		ldr	r0, [r4]	@ float
 2852              	.LVL669:
 2853 000a 0860     		str	r0, [r1]	@ float
 314:Madgwick.c    ****        *y = q2;
 2854              		.loc 1 314 0
 2855 000c A168     		ldr	r1, [r4, #8]	@ float
 2856              	.LVL670:
 2857 000e 1160     		str	r1, [r2]	@ float
ARM GAS  C:\Users\A85590\AppData\Local\Temp\ccOscRLT.s 			page 59


 315:Madgwick.c    ****        *z = q3;
 2858              		.loc 1 315 0
 2859 0010 E268     		ldr	r2, [r4, #12]	@ float
 2860              	.LVL671:
 2861 0012 1A60     		str	r2, [r3]	@ float
 316:Madgwick.c    ****    }...
 2862              		.loc 1 316 0
 2863 0014 30BC     		pop	{r4, r5}
 2864              		.cfi_restore 5
 2865              		.cfi_restore 4
 2866              		.cfi_def_cfa_offset 0
 2867 0016 7047     		bx	lr
 2868              	.L80:
 2869              		.align	2
 2870              	.L79:
 2871 0018 00000000 		.word	.LANCHOR0
 2872              		.cfi_endproc
 2873              	.LFE13:
 2874              		.size	getQuaternion, .-getQuaternion
 2875              		.bss
 2876              		.align	2
 2877              		.set	.LANCHOR0,. + 0
 2878              		.type	q1, %object
 2879              		.size	q1, 4
 2880              	q1:
 2881 0000 00000000 		.space	4
 2882              		.type	q0, %object
 2883              		.size	q0, 4
 2884              	q0:
 2885 0004 00000000 		.space	4
 2886              		.type	q2, %object
 2887              		.size	q2, 4
 2888              	q2:
 2889 0008 00000000 		.space	4
 2890              		.type	q3, %object
 2891              		.size	q3, 4
 2892              	q3:
 2893 000c 00000000 		.space	4
 2894              		.type	roll, %object
 2895              		.size	roll, 4
 2896              	roll:
 2897 0010 00000000 		.space	4
 2898              		.type	pitch, %object
 2899              		.size	pitch, 4
 2900              	pitch:
 2901 0014 00000000 		.space	4
 2902              		.type	yaw, %object
 2903              		.size	yaw, 4
 2904              	yaw:
 2905 0018 00000000 		.space	4
 2906              		.type	anglesComputed, %object
 2907              		.size	anglesComputed, 1
 2908              	anglesComputed:
 2909 001c 00       		.space	1
 2910 001d 000000   		.space	3
 2911              		.type	beta, %object
 2912              		.size	beta, 4
ARM GAS  C:\Users\A85590\AppData\Local\Temp\ccOscRLT.s 			page 60


 2913              	beta:
 2914 0020 00000000 		.space	4
 2915              		.type	invSampleFreq, %object
 2916              		.size	invSampleFreq, 4
 2917              	invSampleFreq:
 2918 0024 00000000 		.space	4
 2919              		.text
 2920              	.Letext0:
 2921              		.file 2 "c:\\program files (x86)\\cypress\\psoc creator\\4.1\\psoc creator\\import\\gnu\\arm\\5.4.