ARM GAS  C:\Users\A85590\AppData\Local\Temp\ccOscRLT.s 			page 1


   1              		.syntax unified
   2              		.cpu cortex-m3
   3              		.fpu softvfp
   4              		.eabi_attribute 20, 1
   5              		.eabi_attribute 21, 1
   6              		.eabi_attribute 23, 3
   7              		.eabi_attribute 24, 1
   8              		.eabi_attribute 25, 1
   9              		.eabi_attribute 26, 1
  10              		.eabi_attribute 30, 1
  11              		.eabi_attribute 34, 1
  12              		.eabi_attribute 18, 4
  13              		.thumb
  14              		.syntax unified
  15              		.file	"Madgwick.c"
  16              		.text
  17              	.Ltext0:
  18              		.cfi_sections	.debug_frame
  19              		.global	__aeabi_fmul
  20              		.global	__aeabi_fsub
  21              		.section	.text.invSqrt,"ax",%progbits
  22              		.align	2
  23              		.thumb
  24              		.thumb_func
  25              		.type	invSqrt, %function
  26              	invSqrt:
  27              	.LFB5:
  28              		.file 1 "Madgwick.c"
   1:Madgwick.c    **** 
   2:Madgwick.c    **** //=============================================================================================
   3:Madgwick.c    **** // Madgwick.c
   4:Madgwick.c    **** //=============================================================================================
   5:Madgwick.c    **** //
   6:Madgwick.c    **** // Implementation of Madgwick's IMU and AHRS algorithms.
   7:Madgwick.c    **** // See: http://www.x-io.co.uk/open-source-imu-and-ahrs-algorithms/
   8:Madgwick.c    **** //
   9:Madgwick.c    **** // From the x-io website "Open-source resources available on this website are
  10:Madgwick.c    **** // provided under the GNU General Public Licence unless an alternative licence
  11:Madgwick.c    **** // is provided in source."
  12:Madgwick.c    **** //
  13:Madgwick.c    **** // Date			Author          Notes
  14:Madgwick.c    **** // 29/09/2011	SOH Madgwick    Initial release
  15:Madgwick.c    **** // 02/10/2011	SOH Madgwick	Optimised for reduced CPU load
  16:Madgwick.c    **** // 19/02/2012	SOH Madgwick	Magnetometer measurement is normalised
  17:Madgwick.c    **** //
  18:Madgwick.c    **** //=============================================================================================
  19:Madgwick.c    **** 
  20:Madgwick.c    **** //-------------------------------------------------------------------------------------------
  21:Madgwick.c    **** // Header files
  22:Madgwick.c    **** 
  23:Madgwick.c    **** #include "Madgwick.h"
  24:Madgwick.c    **** #include <stdlib.h>
  25:Madgwick.c    **** #include <stdint.h>
  26:Madgwick.c    **** #include <stdio.h>
  27:Madgwick.c    **** #include <math.h>
  28:Madgwick.c    **** 
  29:Madgwick.c    **** //-------------------------------------------------------------------------------------------
ARM GAS  C:\Users\A85590\AppData\Local\Temp\ccOscRLT.s 			page 2


  30:Madgwick.c    **** // Definitions
  31:Madgwick.c    **** 
  32:Madgwick.c    **** #define sampleFreqDef 512.0f // sample frequency in Hz
  33:Madgwick.c    **** #define betaDef 0.1f		 // 2 * proportional gain
  34:Madgwick.c    **** 
  35:Madgwick.c    **** //--------------------------------------------------------------------------------------------
  36:Madgwick.c    **** 
  37:Madgwick.c    **** static float invSqrt(float x);
  38:Madgwick.c    **** static float beta; // algorithm gain
  39:Madgwick.c    **** static float q0;
  40:Madgwick.c    **** static float q1;
  41:Madgwick.c    **** static float q2;
  42:Madgwick.c    **** static float q3; // quaternion of sensor frame relative to auxiliary frame
  43:Madgwick.c    **** static float invSampleFreq;
  44:Madgwick.c    **** static float roll;
  45:Madgwick.c    **** static float pitch;
  46:Madgwick.c    **** static float yaw;
  47:Madgwick.c    **** static char anglesComputed;
  48:Madgwick.c    **** static void computeAngles();
  49:Madgwick.c    **** 
  50:Madgwick.c    **** //-------------------------------------------------------------------------------------------
  51:Madgwick.c    **** 
  52:Madgwick.c    **** //============================================================================================
  53:Madgwick.c    **** // Functions
  54:Madgwick.c    **** 
  55:Madgwick.c    **** //-------------------------------------------------------------------------------------------
  56:Madgwick.c    **** // AHRS algorithm update
  57:Madgwick.c    **** 
  58:Madgwick.c    **** int Madgwick() //Added "int" to avoid warning msg; hope this causes no issue - Toni
  59:Madgwick.c    **** {
  60:Madgwick.c    **** 	beta = betaDef;
  61:Madgwick.c    **** 	q0 = 1.0f;
  62:Madgwick.c    **** 	q1 = 0.0f;
  63:Madgwick.c    **** 	q2 = 0.0f;
  64:Madgwick.c    **** 	q3 = 0.0f;
  65:Madgwick.c    **** 	invSampleFreq = 1.0f / sampleFreqDef;
  66:Madgwick.c    **** 	anglesComputed = 0;
  67:Madgwick.c    **** }
  68:Madgwick.c    **** 
  69:Madgwick.c    **** void Madgwick_begin(float sampleFrequency)
  70:Madgwick.c    ****  { 
  71:Madgwick.c    **** 	 invSampleFreq = (1.0f / sampleFrequency); 
  72:Madgwick.c    **** }
  73:Madgwick.c    **** 
  74:Madgwick.c    **** void Madgwick_update(float gx, float gy, float gz, float ax, float ay, float az, float mx, float my
  75:Madgwick.c    **** {
  76:Madgwick.c    **** 	float recipNorm;
  77:Madgwick.c    **** 	float s0, s1, s2, s3;
  78:Madgwick.c    **** 	float qDot1, qDot2, qDot3, qDot4;
  79:Madgwick.c    **** 	float hx, hy;
  80:Madgwick.c    **** 	float _2q0mx, _2q0my, _2q0mz, _2q1mx, _2bx, _2bz, _4bx, _4bz, _2q0, _2q1, _2q2, _2q3, _2q0q2, _2q2
  81:Madgwick.c    **** 
  82:Madgwick.c    **** 	// Use IMU algorithm if magnetometer measurement invalid (avoids NaN in magnetometer normalisation
  83:Madgwick.c    **** 	if ((mx == 0.0f) && (my == 0.0f) && (mz == 0.0f))
  84:Madgwick.c    **** 	{
  85:Madgwick.c    **** 		Madgwick_updateIMU(gx, gy, gz, ax, ay, az);
  86:Madgwick.c    **** 		return;
ARM GAS  C:\Users\A85590\AppData\Local\Temp\ccOscRLT.s 			page 3


  87:Madgwick.c    **** 	}
  88:Madgwick.c    **** 
  89:Madgwick.c    **** 	// Convert gyroscope degrees/sec to radians/sec
  90:Madgwick.c    **** 	gx *= 0.0174533f;
  91:Madgwick.c    **** 	gy *= 0.0174533f;
  92:Madgwick.c    **** 	gz *= 0.0174533f;
  93:Madgwick.c    **** 
  94:Madgwick.c    **** 	// Rate of change of quaternion from gyroscope
  95:Madgwick.c    **** 	qDot1 = 0.5f * (-q1 * gx - q2 * gy - q3 * gz);
  96:Madgwick.c    **** 	qDot2 = 0.5f * (q0 * gx + q2 * gz - q3 * gy);
  97:Madgwick.c    **** 	qDot3 = 0.5f * (q0 * gy - q1 * gz + q3 * gx);
  98:Madgwick.c    **** 	qDot4 = 0.5f * (q0 * gz + q1 * gy - q2 * gx);
  99:Madgwick.c    **** 
 100:Madgwick.c    **** 	// Compute feedback only if accelerometer measurement valid (avoids NaN in accelerometer normalisa
 101:Madgwick.c    **** 	if (!((ax == 0.0f) && (ay == 0.0f) && (az == 0.0f)))
 102:Madgwick.c    **** 	{
 103:Madgwick.c    **** 
 104:Madgwick.c    **** 		// Normalise accelerometer measurement
 105:Madgwick.c    **** 		recipNorm = invSqrt(ax * ax + ay * ay + az * az);
 106:Madgwick.c    **** 		ax *= recipNorm;
 107:Madgwick.c    **** 		ay *= recipNorm;
 108:Madgwick.c    **** 		az *= recipNorm;
 109:Madgwick.c    **** 
 110:Madgwick.c    **** 		// Normalise magnetometer measurement
 111:Madgwick.c    **** 		recipNorm = invSqrt(mx * mx + my * my + mz * mz);
 112:Madgwick.c    **** 		mx *= recipNorm;
 113:Madgwick.c    **** 		my *= recipNorm;
 114:Madgwick.c    **** 		mz *= recipNorm;
 115:Madgwick.c    **** 
 116:Madgwick.c    **** 		// Auxiliary variables to avoid repeated arithmetic
 117:Madgwick.c    **** 		_2q0mx = 2.0f * q0 * mx;
 118:Madgwick.c    **** 		_2q0my = 2.0f * q0 * my;
 119:Madgwick.c    **** 		_2q0mz = 2.0f * q0 * mz;
 120:Madgwick.c    **** 		_2q1mx = 2.0f * q1 * mx;
 121:Madgwick.c    **** 		_2q0 = 2.0f * q0;
 122:Madgwick.c    **** 		_2q1 = 2.0f * q1;
 123:Madgwick.c    **** 		_2q2 = 2.0f * q2;
 124:Madgwick.c    **** 		_2q3 = 2.0f * q3;
 125:Madgwick.c    **** 		_2q0q2 = 2.0f * q0 * q2;
 126:Madgwick.c    **** 		_2q2q3 = 2.0f * q2 * q3;
 127:Madgwick.c    **** 		q0q0 = q0 * q0;
 128:Madgwick.c    **** 		q0q1 = q0 * q1;
 129:Madgwick.c    **** 		q0q2 = q0 * q2;
 130:Madgwick.c    **** 		q0q3 = q0 * q3;
 131:Madgwick.c    **** 		q1q1 = q1 * q1;
 132:Madgwick.c    **** 		q1q2 = q1 * q2;
 133:Madgwick.c    **** 		q1q3 = q1 * q3;
 134:Madgwick.c    **** 		q2q2 = q2 * q2;
 135:Madgwick.c    **** 		q2q3 = q2 * q3;
 136:Madgwick.c    **** 		q3q3 = q3 * q3;
 137:Madgwick.c    **** 
 138:Madgwick.c    **** 		// Reference direction of Earth's magnetic field
 139:Madgwick.c    **** 		hx = mx * q0q0 - _2q0my * q3 + _2q0mz * q2 + mx * q1q1 + _2q1 * my * q2 + _2q1 * mz * q3 - mx * q
 140:Madgwick.c    **** 		hy = _2q0mx * q3 + my * q0q0 - _2q0mz * q1 + _2q1mx * q2 - my * q1q1 + my * q2q2 + _2q2 * mz * q3
 141:Madgwick.c    **** 		_2bx = sqrtf(hx * hx + hy * hy);
 142:Madgwick.c    **** 		_2bz = -_2q0mx * q2 + _2q0my * q1 + mz * q0q0 + _2q1mx * q3 - mz * q1q1 + _2q2 * my * q3 - mz * q
 143:Madgwick.c    **** 		_4bx = 2.0f * _2bx;
ARM GAS  C:\Users\A85590\AppData\Local\Temp\ccOscRLT.s 			page 4


 144:Madgwick.c    **** 		_4bz = 2.0f * _2bz;
 145:Madgwick.c    **** 
 146:Madgwick.c    **** 		// Gradient decent algorithm corrective step
 147:Madgwick.c    **** 		s0 = -_2q2 * (2.0f * q1q3 - _2q0q2 - ax) + _2q1 * (2.0f * q0q1 + _2q2q3 - ay) - _2bz * q2 * (_2bx
 148:Madgwick.c    **** 		s1 = _2q3 * (2.0f * q1q3 - _2q0q2 - ax) + _2q0 * (2.0f * q0q1 + _2q2q3 - ay) - 4.0f * q1 * (1 - 2
 149:Madgwick.c    **** 		s2 = -_2q0 * (2.0f * q1q3 - _2q0q2 - ax) + _2q3 * (2.0f * q0q1 + _2q2q3 - ay) - 4.0f * q2 * (1 - 
 150:Madgwick.c    **** 		s3 = _2q1 * (2.0f * q1q3 - _2q0q2 - ax) + _2q2 * (2.0f * q0q1 + _2q2q3 - ay) + (-_4bx * q3 + _2bz
 151:Madgwick.c    **** 		recipNorm = invSqrt(s0 * s0 + s1 * s1 + s2 * s2 + s3 * s3); // normalise step magnitude
 152:Madgwick.c    **** 		s0 *= recipNorm;
 153:Madgwick.c    **** 		s1 *= recipNorm;
 154:Madgwick.c    **** 		s2 *= recipNorm;
 155:Madgwick.c    **** 		s3 *= recipNorm;
 156:Madgwick.c    **** 
 157:Madgwick.c    **** 		// Apply feedback step
 158:Madgwick.c    **** 		qDot1 -= beta * s0;
 159:Madgwick.c    **** 		qDot2 -= beta * s1;
 160:Madgwick.c    **** 		qDot3 -= beta * s2;
 161:Madgwick.c    **** 		qDot4 -= beta * s3;
 162:Madgwick.c    **** 	}
 163:Madgwick.c    **** 
 164:Madgwick.c    **** 	// Integrate rate of change of quaternion to yield quaternion
 165:Madgwick.c    **** 	q0 += qDot1 * invSampleFreq;
 166:Madgwick.c    **** 	q1 += qDot2 * invSampleFreq;
 167:Madgwick.c    **** 	q2 += qDot3 * invSampleFreq;
 168:Madgwick.c    **** 	q3 += qDot4 * invSampleFreq;
 169:Madgwick.c    **** 
 170:Madgwick.c    **** 	// Normalise quaternion
 171:Madgwick.c    **** 	recipNorm = invSqrt(q0 * q0 + q1 * q1 + q2 * q2 + q3 * q3);
 172:Madgwick.c    **** 	q0 *= recipNorm;
 173:Madgwick.c    **** 	q1 *= recipNorm;
 174:Madgwick.c    **** 	q2 *= recipNorm;
 175:Madgwick.c    **** 	q3 *= recipNorm;
 176:Madgwick.c    **** 	anglesComputed = 0;
 177:Madgwick.c    **** }
 178:Madgwick.c    **** 
 179:Madgwick.c    **** //-------------------------------------------------------------------------------------------
 180:Madgwick.c    **** // IMU algorithm update
 181:Madgwick.c    **** 
 182:Madgwick.c    **** void Madgwick_updateIMU(float gx, float gy, float gz, float ax, float ay, float az)
 183:Madgwick.c    **** {
 184:Madgwick.c    **** 	float recipNorm;
 185:Madgwick.c    **** 	float s0, s1, s2, s3;
 186:Madgwick.c    **** 	float qDot1, qDot2, qDot3, qDot4;
 187:Madgwick.c    **** 	float _2q0, _2q1, _2q2, _2q3, _4q0, _4q1, _4q2, _8q1, _8q2, q0q0, q1q1, q2q2, q3q3;
 188:Madgwick.c    **** 
 189:Madgwick.c    **** 	// Convert gyroscope degrees/sec to radians/sec
 190:Madgwick.c    **** 	gx *= 0.0174533f;
 191:Madgwick.c    **** 	gy *= 0.0174533f;
 192:Madgwick.c    **** 	gz *= 0.0174533f;
 193:Madgwick.c    **** 
 194:Madgwick.c    **** 	// Rate of change of quaternion from gyroscope
 195:Madgwick.c    **** 	qDot1 = 0.5f * (-q1 * gx - q2 * gy - q3 * gz);
 196:Madgwick.c    **** 	qDot2 = 0.5f * (q0 * gx + q2 * gz - q3 * gy);
 197:Madgwick.c    **** 	qDot3 = 0.5f * (q0 * gy - q1 * gz + q3 * gx);
 198:Madgwick.c    **** 	qDot4 = 0.5f * (q0 * gz + q1 * gy - q2 * gx);
 199:Madgwick.c    **** 
 200:Madgwick.c    **** 	// Compute feedback only if accelerometer measurement valid (avoids NaN in accelerometer normalisa
ARM GAS  C:\Users\A85590\AppData\Local\Temp\ccOscRLT.s 			page 5


 201:Madgwick.c    **** 	if (!((ax == 0.0f) && (ay == 0.0f) && (az == 0.0f)))
 202:Madgwick.c    **** 	{
 203:Madgwick.c    **** 
 204:Madgwick.c    **** 		// Normalise accelerometer measurement
 205:Madgwick.c    **** 		recipNorm = invSqrt(ax * ax + ay * ay + az * az);
 206:Madgwick.c    **** 		ax *= recipNorm;
 207:Madgwick.c    **** 		ay *= recipNorm;
 208:Madgwick.c    **** 		az *= recipNorm;
 209:Madgwick.c    **** 
 210:Madgwick.c    **** 		// Auxiliary variables to avoid repeated arithmetic
 211:Madgwick.c    **** 		_2q0 = 2.0f * q0;
 212:Madgwick.c    **** 		_2q1 = 2.0f * q1;
 213:Madgwick.c    **** 		_2q2 = 2.0f * q2;
 214:Madgwick.c    **** 		_2q3 = 2.0f * q3;
 215:Madgwick.c    **** 		_4q0 = 4.0f * q0;
 216:Madgwick.c    **** 		_4q1 = 4.0f * q1;
 217:Madgwick.c    **** 		_4q2 = 4.0f * q2;
 218:Madgwick.c    **** 		_8q1 = 8.0f * q1;
 219:Madgwick.c    **** 		_8q2 = 8.0f * q2;
 220:Madgwick.c    **** 		q0q0 = q0 * q0;
 221:Madgwick.c    **** 		q1q1 = q1 * q1;
 222:Madgwick.c    **** 		q2q2 = q2 * q2;
 223:Madgwick.c    **** 		q3q3 = q3 * q3;
 224:Madgwick.c    **** 
 225:Madgwick.c    **** 		// Gradient decent algorithm corrective step
 226:Madgwick.c    **** 		s0 = _4q0 * q2q2 + _2q2 * ax + _4q0 * q1q1 - _2q1 * ay;
 227:Madgwick.c    **** 		s1 = _4q1 * q3q3 - _2q3 * ax + 4.0f * q0q0 * q1 - _2q0 * ay - _4q1 + _8q1 * q1q1 + _8q1 * q2q2 + 
 228:Madgwick.c    **** 		s2 = 4.0f * q0q0 * q2 + _2q0 * ax + _4q2 * q3q3 - _2q3 * ay - _4q2 + _8q2 * q1q1 + _8q2 * q2q2 + 
 229:Madgwick.c    **** 		s3 = 4.0f * q1q1 * q3 - _2q1 * ax + 4.0f * q2q2 * q3 - _2q2 * ay;
 230:Madgwick.c    **** 		recipNorm = invSqrt(s0 * s0 + s1 * s1 + s2 * s2 + s3 * s3); // normalise step magnitude
 231:Madgwick.c    **** 		s0 *= recipNorm;
 232:Madgwick.c    **** 		s1 *= recipNorm;
 233:Madgwick.c    **** 		s2 *= recipNorm;
 234:Madgwick.c    **** 		s3 *= recipNorm;
 235:Madgwick.c    **** 
 236:Madgwick.c    **** 		// Apply feedback step
 237:Madgwick.c    **** 		qDot1 -= beta * s0;
 238:Madgwick.c    **** 		qDot2 -= beta * s1;
 239:Madgwick.c    **** 		qDot3 -= beta * s2;
 240:Madgwick.c    **** 		qDot4 -= beta * s3;
 241:Madgwick.c    **** 	}
 242:Madgwick.c    **** 
 243:Madgwick.c    **** 	// Integrate rate of change of quaternion to yield quaternion
 244:Madgwick.c    **** 	q0 += qDot1 * invSampleFreq;
 245:Madgwick.c    **** 	q1 += qDot2 * invSampleFreq;
 246:Madgwick.c    **** 	q2 += qDot3 * invSampleFreq;
 247:Madgwick.c    **** 	q3 += qDot4 * invSampleFreq;
 248:Madgwick.c    **** 
 249:Madgwick.c    **** 	// Normalise quaternion
 250:Madgwick.c    **** 	recipNorm = invSqrt(q0 * q0 + q1 * q1 + q2 * q2 + q3 * q3);
 251:Madgwick.c    **** 	q0 *= recipNorm;
 252:Madgwick.c    **** 	q1 *= recipNorm;
 253:Madgwick.c    **** 	q2 *= recipNorm;
 254:Madgwick.c    **** 	q3 *= recipNorm;
 255:Madgwick.c    **** 	anglesComputed = 0;
 256:Madgwick.c    **** }
 257:Madgwick.c    **** 
ARM GAS  C:\Users\A85590\AppData\Local\Temp\ccOscRLT.s 			page 6


 258:Madgwick.c    **** //-------------------------------------------------------------------------------------------
 259:Madgwick.c    **** // Fast inverse square-root
 260:Madgwick.c    **** // See: http://en.wikipedia.org/wiki/Fast_inverse_square_root
 261:Madgwick.c    **** 
 262:Madgwick.c    **** float invSqrt(float x)
 263:Madgwick.c    **** {
  29              		.loc 1 263 0
  30              		.cfi_startproc
  31              		@ args = 0, pretend = 0, frame = 0
  32              		@ frame_needed = 0, uses_anonymous_args = 0
  33              	.LVL0:
  34 0000 38B5     		push	{r3, r4, r5, lr}
  35              		.cfi_def_cfa_offset 16
  36              		.cfi_offset 3, -16
  37              		.cfi_offset 4, -12
  38              		.cfi_offset 5, -8
  39              		.cfi_offset 14, -4
  40 0002 0446     		mov	r4, r0
 264:Madgwick.c    **** 	float halfx = 0.5f * x;
  41              		.loc 1 264 0
  42 0004 4FF07C51 		mov	r1, #1056964608
  43 0008 FFF7FEFF 		bl	__aeabi_fmul
  44              	.LVL1:
  45 000c 0546     		mov	r5, r0
  46              	.LVL2:
 265:Madgwick.c    **** 	float y = x;
 266:Madgwick.c    **** 	long i = *(long *)&y;
 267:Madgwick.c    **** 	i = 0x5f3759df - (i >> 1);
 268:Madgwick.c    **** 	y = *(float *)&i;
  47              		.loc 1 268 0
  48 000e 134B     		ldr	r3, .L3
  49 0010 A3EB6404 		sub	r4, r3, r4, asr #1
  50              	.LVL3:
 269:Madgwick.c    **** 	y = y * (1.5f - (halfx * y * y));
  51              		.loc 1 269 0
  52 0014 2146     		mov	r1, r4
  53 0016 FFF7FEFF 		bl	__aeabi_fmul
  54              	.LVL4:
  55 001a 0146     		mov	r1, r0
  56 001c 2046     		mov	r0, r4
  57 001e FFF7FEFF 		bl	__aeabi_fmul
  58              	.LVL5:
  59 0022 0146     		mov	r1, r0
  60 0024 4FF07F50 		mov	r0, #1069547520
  61 0028 FFF7FEFF 		bl	__aeabi_fsub
  62              	.LVL6:
  63 002c 0146     		mov	r1, r0
  64 002e 2046     		mov	r0, r4
  65 0030 FFF7FEFF 		bl	__aeabi_fmul
  66              	.LVL7:
  67 0034 0446     		mov	r4, r0
  68              	.LVL8:
 270:Madgwick.c    **** 	y = y * (1.5f - (halfx * y * y));
  69              		.loc 1 270 0
  70 0036 0146     		mov	r1, r0
  71 0038 2846     		mov	r0, r5
  72              	.LVL9:
ARM GAS  C:\Users\A85590\AppData\Local\Temp\ccOscRLT.s 			page 7


  73 003a FFF7FEFF 		bl	__aeabi_fmul
  74              	.LVL10:
  75 003e 0146     		mov	r1, r0
  76 0040 2046     		mov	r0, r4
  77 0042 FFF7FEFF 		bl	__aeabi_fmul
  78              	.LVL11:
  79 0046 0146     		mov	r1, r0
  80 0048 4FF07F50 		mov	r0, #1069547520
  81 004c FFF7FEFF 		bl	__aeabi_fsub
  82              	.LVL12:
  83 0050 0146     		mov	r1, r0
  84 0052 2046     		mov	r0, r4
  85 0054 FFF7FEFF 		bl	__aeabi_fmul
  86              	.LVL13:
 271:Madgwick.c    **** 	return y;
 272:Madgwick.c    **** }
  87              		.loc 1 272 0
  88 0058 38BD     		pop	{r3, r4, r5, pc}
  89              	.LVL14:
  90              	.L4:
  91 005a 00BF     		.align	2
  92              	.L3:
  93 005c DF59375F 		.word	1597463007
  94              		.cfi_endproc
  95              	.LFE5:
  96              		.size	invSqrt, .-invSqrt
  97              		.global	__aeabi_fadd
  98              		.section	.text.computeAngles,"ax",%progbits
  99              		.align	2
 100              		.thumb
 101              		.thumb_func
 102              		.type	computeAngles, %function
 103              	computeAngles:
 104              	.LFB6:
 273:Madgwick.c    **** 
 274:Madgwick.c    **** //-------------------------------------------------------------------------------------------
 275:Madgwick.c    **** 
 276:Madgwick.c    **** void computeAngles()
 277:Madgwick.c    **** {
 105              		.loc 1 277 0
 106              		.cfi_startproc
 107              		@ args = 0, pretend = 0, frame = 0
 108              		@ frame_needed = 0, uses_anonymous_args = 0
 109 0000 2DE9F041 		push	{r4, r5, r6, r7, r8, lr}
 110              		.cfi_def_cfa_offset 24
 111              		.cfi_offset 4, -24
 112              		.cfi_offset 5, -20
 113              		.cfi_offset 6, -16
 114              		.cfi_offset 7, -12
 115              		.cfi_offset 8, -8
 116              		.cfi_offset 14, -4
 278:Madgwick.c    **** 	roll = atan2f(q0 * q1 + q2 * q3, 0.5f - q1 * q1 - q2 * q2);
 117              		.loc 1 278 0
 118 0004 334C     		ldr	r4, .L7
 119 0006 2668     		ldr	r6, [r4]	@ float
 120 0008 6168     		ldr	r1, [r4, #4]	@ float
 121 000a 3046     		mov	r0, r6
ARM GAS  C:\Users\A85590\AppData\Local\Temp\ccOscRLT.s 			page 8


 122 000c FFF7FEFF 		bl	__aeabi_fmul
 123              	.LVL15:
 124 0010 0746     		mov	r7, r0
 125 0012 A568     		ldr	r5, [r4, #8]	@ float
 126 0014 E168     		ldr	r1, [r4, #12]	@ float
 127 0016 2846     		mov	r0, r5
 128 0018 FFF7FEFF 		bl	__aeabi_fmul
 129              	.LVL16:
 130 001c 8046     		mov	r8, r0
 131 001e 3146     		mov	r1, r6
 132 0020 3046     		mov	r0, r6
 133 0022 FFF7FEFF 		bl	__aeabi_fmul
 134              	.LVL17:
 135 0026 0146     		mov	r1, r0
 136 0028 4FF07C50 		mov	r0, #1056964608
 137 002c FFF7FEFF 		bl	__aeabi_fsub
 138              	.LVL18:
 139 0030 0646     		mov	r6, r0
 140 0032 2946     		mov	r1, r5
 141 0034 2846     		mov	r0, r5
 142 0036 FFF7FEFF 		bl	__aeabi_fmul
 143              	.LVL19:
 144 003a 0146     		mov	r1, r0
 145 003c 3046     		mov	r0, r6
 146 003e FFF7FEFF 		bl	__aeabi_fsub
 147              	.LVL20:
 148 0042 0546     		mov	r5, r0
 149 0044 4146     		mov	r1, r8
 150 0046 3846     		mov	r0, r7
 151 0048 FFF7FEFF 		bl	__aeabi_fadd
 152              	.LVL21:
 153 004c 2946     		mov	r1, r5
 154 004e FFF7FEFF 		bl	atan2f
 155              	.LVL22:
 156 0052 2061     		str	r0, [r4, #16]	@ float
 279:Madgwick.c    **** 	pitch = asinf(-2.0f * (q1 * q3 - q0 * q2));
 157              		.loc 1 279 0
 158 0054 E168     		ldr	r1, [r4, #12]	@ float
 159 0056 2068     		ldr	r0, [r4]	@ float
 160 0058 FFF7FEFF 		bl	__aeabi_fmul
 161              	.LVL23:
 162 005c 0546     		mov	r5, r0
 163 005e A168     		ldr	r1, [r4, #8]	@ float
 164 0060 6068     		ldr	r0, [r4, #4]	@ float
 165 0062 FFF7FEFF 		bl	__aeabi_fmul
 166              	.LVL24:
 167 0066 0146     		mov	r1, r0
 168 0068 2846     		mov	r0, r5
 169 006a FFF7FEFF 		bl	__aeabi_fsub
 170              	.LVL25:
 171 006e 4FF04041 		mov	r1, #-1073741824
 172 0072 FFF7FEFF 		bl	__aeabi_fmul
 173              	.LVL26:
 174 0076 FFF7FEFF 		bl	asinf
 175              	.LVL27:
 176 007a 6061     		str	r0, [r4, #20]	@ float
 280:Madgwick.c    **** 	yaw = atan2f(q1 * q2 + q0 * q3, 0.5f - q2 * q2 - q3 * q3);
ARM GAS  C:\Users\A85590\AppData\Local\Temp\ccOscRLT.s 			page 9


 177              		.loc 1 280 0
 178 007c A668     		ldr	r6, [r4, #8]	@ float
 179 007e 2168     		ldr	r1, [r4]	@ float
 180 0080 3046     		mov	r0, r6
 181 0082 FFF7FEFF 		bl	__aeabi_fmul
 182              	.LVL28:
 183 0086 0746     		mov	r7, r0
 184 0088 E568     		ldr	r5, [r4, #12]	@ float
 185 008a 6168     		ldr	r1, [r4, #4]	@ float
 186 008c 2846     		mov	r0, r5
 187 008e FFF7FEFF 		bl	__aeabi_fmul
 188              	.LVL29:
 189 0092 8046     		mov	r8, r0
 190 0094 3146     		mov	r1, r6
 191 0096 3046     		mov	r0, r6
 192 0098 FFF7FEFF 		bl	__aeabi_fmul
 193              	.LVL30:
 194 009c 0146     		mov	r1, r0
 195 009e 4FF07C50 		mov	r0, #1056964608
 196 00a2 FFF7FEFF 		bl	__aeabi_fsub
 197              	.LVL31:
 198 00a6 0646     		mov	r6, r0
 199 00a8 2946     		mov	r1, r5
 200 00aa 2846     		mov	r0, r5
 201 00ac FFF7FEFF 		bl	__aeabi_fmul
 202              	.LVL32:
 203 00b0 0146     		mov	r1, r0
 204 00b2 3046     		mov	r0, r6
 205 00b4 FFF7FEFF 		bl	__aeabi_fsub
 206              	.LVL33:
 207 00b8 0546     		mov	r5, r0
 208 00ba 4146     		mov	r1, r8
 209 00bc 3846     		mov	r0, r7
 210 00be FFF7FEFF 		bl	__aeabi_fadd
 211              	.LVL34:
 212 00c2 2946     		mov	r1, r5
 213 00c4 FFF7FEFF 		bl	atan2f
 214              	.LVL35:
 215 00c8 A061     		str	r0, [r4, #24]	@ float
 281:Madgwick.c    **** 	anglesComputed = 1;
 216              		.loc 1 281 0
 217 00ca 0123     		movs	r3, #1
 218 00cc 2377     		strb	r3, [r4, #28]
 219 00ce BDE8F081 		pop	{r4, r5, r6, r7, r8, pc}
 220              	.L8:
 221 00d2 00BF     		.align	2
 222              	.L7:
 223 00d4 00000000 		.word	.LANCHOR0
 224              		.cfi_endproc
 225              	.LFE6:
 226              		.size	computeAngles, .-computeAngles
 227              		.section	.text.Madgwick,"ax",%progbits
 228              		.align	2
 229              		.global	Madgwick
 230              		.thumb
 231              		.thumb_func
 232              		.type	Madgwick, %function
ARM GAS  C:\Users\A85590\AppData\Local\Temp\ccOscRLT.s 			page 10


 233              	Madgwick:
 234              	.LFB1:
  59:Madgwick.c    **** 	beta = betaDef;
 235              		.loc 1 59 0
 236              		.cfi_startproc
 237              		@ args = 0, pretend = 0, frame = 0
 238              		@ frame_needed = 0, uses_anonymous_args = 0
 239              		@ link register save eliminated.
  60:Madgwick.c    **** 	q0 = 1.0f;
 240              		.loc 1 60 0
 241 0000 074B     		ldr	r3, .L10
 242 0002 084A     		ldr	r2, .L10+4
 243 0004 1A62     		str	r2, [r3, #32]	@ float
  61:Madgwick.c    **** 	q1 = 0.0f;
 244              		.loc 1 61 0
 245 0006 4FF07E52 		mov	r2, #1065353216
 246 000a 5A60     		str	r2, [r3, #4]	@ float
  62:Madgwick.c    **** 	q2 = 0.0f;
 247              		.loc 1 62 0
 248 000c 0022     		movs	r2, #0
 249 000e 1A60     		str	r2, [r3]	@ float
  63:Madgwick.c    **** 	q3 = 0.0f;
 250              		.loc 1 63 0
 251 0010 9A60     		str	r2, [r3, #8]	@ float
  64:Madgwick.c    **** 	invSampleFreq = 1.0f / sampleFreqDef;
 252              		.loc 1 64 0
 253 0012 DA60     		str	r2, [r3, #12]	@ float
  65:Madgwick.c    **** 	anglesComputed = 0;
 254              		.loc 1 65 0
 255 0014 4FF06C52 		mov	r2, #989855744
 256 0018 5A62     		str	r2, [r3, #36]	@ float
  66:Madgwick.c    **** }
 257              		.loc 1 66 0
 258 001a 0022     		movs	r2, #0
 259 001c 1A77     		strb	r2, [r3, #28]
  67:Madgwick.c    **** 
 260              		.loc 1 67 0
 261 001e 7047     		bx	lr
 262              	.L11:
 263              		.align	2
 264              	.L10:
 265 0020 00000000 		.word	.LANCHOR0
 266 0024 CDCCCC3D 		.word	1036831949
 267              		.cfi_endproc
 268              	.LFE1:
 269              		.size	Madgwick, .-Madgwick
 270              		.global	__aeabi_fdiv
 271              		.section	.text.Madgwick_begin,"ax",%progbits
 272              		.align	2
 273              		.global	Madgwick_begin
 274              		.thumb
 275              		.thumb_func
 276              		.type	Madgwick_begin, %function
 277              	Madgwick_begin:
 278              	.LFB2:
  70:Madgwick.c    **** 	 invSampleFreq = (1.0f / sampleFrequency); 
 279              		.loc 1 70 0
ARM GAS  C:\Users\A85590\AppData\Local\Temp\ccOscRLT.s 			page 11


 280              		.cfi_startproc
 281              		@ args = 0, pretend = 0, frame = 0
 282              		@ frame_needed = 0, uses_anonymous_args = 0
 283              	.LVL36:
 284 0000 08B5     		push	{r3, lr}
 285              		.cfi_def_cfa_offset 8
 286              		.cfi_offset 3, -8
 287              		.cfi_offset 14, -4
  71:Madgwick.c    **** }
 288              		.loc 1 71 0
 289 0002 0146     		mov	r1, r0
 290 0004 4FF07E50 		mov	r0, #1065353216
 291              	.LVL37:
 292 0008 FFF7FEFF 		bl	__aeabi_fdiv
 293              	.LVL38:
 294 000c 014B     		ldr	r3, .L14
 295 000e 5862     		str	r0, [r3, #36]	@ float
 296 0010 08BD     		pop	{r3, pc}
 297              	.L15:
 298 0012 00BF     		.align	2
 299              	.L14:
 300 0014 00000000 		.word	.LANCHOR0
 301              		.cfi_endproc
 302              	.LFE2:
 303              		.size	Madgwick_begin, .-Madgwick_begin
 304              		.global	__aeabi_fcmpeq
 305              		.section	.text.Madgwick_updateIMU,"ax",%progbits
 306              		.align	2
 307              		.global	Madgwick_updateIMU
 308              		.thumb
 309              		.thumb_func
 310              		.type	Madgwick_updateIMU, %function
 311              	Madgwick_updateIMU:
 312              	.LFB4:
 183:Madgwick.c    **** 	float recipNorm;
 313              		.loc 1 183 0
 314              		.cfi_startproc
 315              		@ args = 8, pretend = 0, frame = 72
 316              		@ frame_needed = 0, uses_anonymous_args = 0
 317              	.LVL39:
 318 0000 2DE9F04F 		push	{r4, r5, r6, r7, r8, r9, r10, fp, lr}
 319              		.cfi_def_cfa_offset 36
 320              		.cfi_offset 4, -36
 321              		.cfi_offset 5, -32
 322              		.cfi_offset 6, -28
 323              		.cfi_offset 7, -24
 324              		.cfi_offset 8, -20
 325              		.cfi_offset 9, -16
 326              		.cfi_offset 10, -12
 327              		.cfi_offset 11, -8
 328              		.cfi_offset 14, -4
 329 0004 93B0     		sub	sp, sp, #76
 330              		.cfi_def_cfa_offset 112
 331 0006 0D46     		mov	r5, r1
 332 0008 1446     		mov	r4, r2
 333 000a 0093     		str	r3, [sp]	@ float
 190:Madgwick.c    **** 	gy *= 0.0174533f;
ARM GAS  C:\Users\A85590\AppData\Local\Temp\ccOscRLT.s 			page 12


 334              		.loc 1 190 0
 335 000c 4B49     		ldr	r1, .L21
 336              	.LVL40:
 337 000e FFF7FEFF 		bl	__aeabi_fmul
 338              	.LVL41:
 339 0012 0646     		mov	r6, r0
 340              	.LVL42:
 191:Madgwick.c    **** 	gz *= 0.0174533f;
 341              		.loc 1 191 0
 342 0014 4949     		ldr	r1, .L21
 343 0016 2846     		mov	r0, r5
 344              	.LVL43:
 345 0018 FFF7FEFF 		bl	__aeabi_fmul
 346              	.LVL44:
 347 001c 0746     		mov	r7, r0
 348              	.LVL45:
 192:Madgwick.c    **** 
 349              		.loc 1 192 0
 350 001e 4749     		ldr	r1, .L21
 351 0020 2046     		mov	r0, r4
 352              	.LVL46:
 353 0022 FFF7FEFF 		bl	__aeabi_fmul
 354              	.LVL47:
 355 0026 8046     		mov	r8, r0
 356              	.LVL48:
 195:Madgwick.c    **** 	qDot2 = 0.5f * (q0 * gx + q2 * gz - q3 * gy);
 357              		.loc 1 195 0
 358 0028 DFF81491 		ldr	r9, .L21+4
 359 002c D9F80050 		ldr	r5, [r9]	@ float
 360 0030 05F10041 		add	r1, r5, #-2147483648
 361 0034 3046     		mov	r0, r6
 362              	.LVL49:
 363 0036 FFF7FEFF 		bl	__aeabi_fmul
 364              	.LVL50:
 365 003a 8346     		mov	fp, r0
 366 003c D9F80840 		ldr	r4, [r9, #8]	@ float
 367 0040 2146     		mov	r1, r4
 368 0042 3846     		mov	r0, r7
 369 0044 FFF7FEFF 		bl	__aeabi_fmul
 370              	.LVL51:
 371 0048 0146     		mov	r1, r0
 372 004a 5846     		mov	r0, fp
 373 004c FFF7FEFF 		bl	__aeabi_fsub
 374              	.LVL52:
 375 0050 8346     		mov	fp, r0
 376 0052 D9F80CA0 		ldr	r10, [r9, #12]	@ float
 377 0056 5146     		mov	r1, r10
 378 0058 4046     		mov	r0, r8
 379 005a FFF7FEFF 		bl	__aeabi_fmul
 380              	.LVL53:
 381 005e 0146     		mov	r1, r0
 382 0060 5846     		mov	r0, fp
 383 0062 FFF7FEFF 		bl	__aeabi_fsub
 384              	.LVL54:
 385 0066 4FF07C51 		mov	r1, #1056964608
 386 006a FFF7FEFF 		bl	__aeabi_fmul
 387              	.LVL55:
ARM GAS  C:\Users\A85590\AppData\Local\Temp\ccOscRLT.s 			page 13


 388 006e 0290     		str	r0, [sp, #8]	@ float
 389              	.LVL56:
 196:Madgwick.c    **** 	qDot3 = 0.5f * (q0 * gy - q1 * gz + q3 * gx);
 390              		.loc 1 196 0
 391 0070 D9F804B0 		ldr	fp, [r9, #4]	@ float
 392 0074 5946     		mov	r1, fp
 393 0076 3046     		mov	r0, r6
 394              	.LVL57:
 395 0078 FFF7FEFF 		bl	__aeabi_fmul
 396              	.LVL58:
 397 007c 8146     		mov	r9, r0
 398 007e 2146     		mov	r1, r4
 399 0080 4046     		mov	r0, r8
 400 0082 FFF7FEFF 		bl	__aeabi_fmul
 401              	.LVL59:
 402 0086 0146     		mov	r1, r0
 403 0088 4846     		mov	r0, r9
 404 008a FFF7FEFF 		bl	__aeabi_fadd
 405              	.LVL60:
 406 008e 8146     		mov	r9, r0
 407 0090 5146     		mov	r1, r10
 408 0092 3846     		mov	r0, r7
 409 0094 FFF7FEFF 		bl	__aeabi_fmul
 410              	.LVL61:
 411 0098 0146     		mov	r1, r0
 412 009a 4846     		mov	r0, r9
 413 009c FFF7FEFF 		bl	__aeabi_fsub
 414              	.LVL62:
 415 00a0 4FF07C51 		mov	r1, #1056964608
 416 00a4 FFF7FEFF 		bl	__aeabi_fmul
 417              	.LVL63:
 418 00a8 0390     		str	r0, [sp, #12]	@ float
 419              	.LVL64:
 197:Madgwick.c    **** 	qDot4 = 0.5f * (q0 * gz + q1 * gy - q2 * gx);
 420              		.loc 1 197 0
 421 00aa 5946     		mov	r1, fp
 422 00ac 3846     		mov	r0, r7
 423              	.LVL65:
 424 00ae FFF7FEFF 		bl	__aeabi_fmul
 425              	.LVL66:
 426 00b2 8146     		mov	r9, r0
 427 00b4 2946     		mov	r1, r5
 428 00b6 4046     		mov	r0, r8
 429 00b8 FFF7FEFF 		bl	__aeabi_fmul
 430              	.LVL67:
 431 00bc 0146     		mov	r1, r0
 432 00be 4846     		mov	r0, r9
 433 00c0 FFF7FEFF 		bl	__aeabi_fsub
 434              	.LVL68:
 435 00c4 8146     		mov	r9, r0
 436 00c6 5146     		mov	r1, r10
 437 00c8 3046     		mov	r0, r6
 438 00ca FFF7FEFF 		bl	__aeabi_fmul
 439              	.LVL69:
 440 00ce 0146     		mov	r1, r0
 441 00d0 4846     		mov	r0, r9
 442 00d2 FFF7FEFF 		bl	__aeabi_fadd
ARM GAS  C:\Users\A85590\AppData\Local\Temp\ccOscRLT.s 			page 14


 443              	.LVL70:
 444 00d6 4FF07C51 		mov	r1, #1056964608
 445 00da FFF7FEFF 		bl	__aeabi_fmul
 446              	.LVL71:
 447 00de 0490     		str	r0, [sp, #16]	@ float
 448              	.LVL72:
 198:Madgwick.c    **** 
 449              		.loc 1 198 0
 450 00e0 5946     		mov	r1, fp
 451 00e2 4046     		mov	r0, r8
 452              	.LVL73:
 453 00e4 FFF7FEFF 		bl	__aeabi_fmul
 454              	.LVL74:
 455 00e8 8046     		mov	r8, r0
 456              	.LVL75:
 457 00ea 2946     		mov	r1, r5
 458 00ec 3846     		mov	r0, r7
 459 00ee FFF7FEFF 		bl	__aeabi_fmul
 460              	.LVL76:
 461 00f2 0146     		mov	r1, r0
 462 00f4 4046     		mov	r0, r8
 463 00f6 FFF7FEFF 		bl	__aeabi_fadd
 464              	.LVL77:
 465 00fa 0746     		mov	r7, r0
 466              	.LVL78:
 467 00fc 2146     		mov	r1, r4
 468 00fe 3046     		mov	r0, r6
 469 0100 FFF7FEFF 		bl	__aeabi_fmul
 470              	.LVL79:
 471 0104 0146     		mov	r1, r0
 472 0106 3846     		mov	r0, r7
 473 0108 FFF7FEFF 		bl	__aeabi_fsub
 474              	.LVL80:
 475 010c 4FF07C51 		mov	r1, #1056964608
 476 0110 FFF7FEFF 		bl	__aeabi_fmul
 477              	.LVL81:
 478 0114 0590     		str	r0, [sp, #20]	@ float
 479              	.LVL82:
 201:Madgwick.c    **** 	{
 480              		.loc 1 201 0
 481 0116 0021     		movs	r1, #0
 482 0118 0098     		ldr	r0, [sp]	@ float
 483              	.LVL83:
 484 011a FFF7FEFF 		bl	__aeabi_fcmpeq
 485              	.LVL84:
 486 011e 88B1     		cbz	r0, .L17
 201:Madgwick.c    **** 	{
 487              		.loc 1 201 0 is_stmt 0 discriminator 1
 488 0120 0021     		movs	r1, #0
 489 0122 1C98     		ldr	r0, [sp, #112]	@ float
 490 0124 FFF7FEFF 		bl	__aeabi_fcmpeq
 491              	.LVL85:
 492 0128 60B1     		cbz	r0, .L17
 201:Madgwick.c    **** 	{
 493              		.loc 1 201 0 discriminator 2
 494 012a 0021     		movs	r1, #0
 495 012c 1D98     		ldr	r0, [sp, #116]	@ float
ARM GAS  C:\Users\A85590\AppData\Local\Temp\ccOscRLT.s 			page 15


 496 012e FFF7FEFF 		bl	__aeabi_fcmpeq
 497              	.LVL86:
 498 0132 0028     		cmp	r0, #0
 499 0134 40F0A181 		bne	.L18
 500 0138 04E0     		b	.L22
 501              	.L23:
 502 013a 00BF     		.align	2
 503              	.L21:
 504 013c 39FA8E3C 		.word	1016003129
 505 0140 00000000 		.word	.LANCHOR0
 506              	.L22:
 507              	.L17:
 205:Madgwick.c    **** 		ax *= recipNorm;
 508              		.loc 1 205 0 is_stmt 1
 509 0144 009F     		ldr	r7, [sp]	@ float
 510 0146 3946     		mov	r1, r7
 511 0148 3846     		mov	r0, r7
 512 014a FFF7FEFF 		bl	__aeabi_fmul
 513              	.LVL87:
 514 014e 0646     		mov	r6, r0
 515              	.LVL88:
 516 0150 1C99     		ldr	r1, [sp, #112]	@ float
 517 0152 0846     		mov	r0, r1
 518 0154 FFF7FEFF 		bl	__aeabi_fmul
 519              	.LVL89:
 520 0158 0146     		mov	r1, r0
 521 015a 3046     		mov	r0, r6
 522 015c FFF7FEFF 		bl	__aeabi_fadd
 523              	.LVL90:
 524 0160 0646     		mov	r6, r0
 525 0162 1D99     		ldr	r1, [sp, #116]	@ float
 526 0164 0846     		mov	r0, r1
 527 0166 FFF7FEFF 		bl	__aeabi_fmul
 528              	.LVL91:
 529 016a 0146     		mov	r1, r0
 530 016c 3046     		mov	r0, r6
 531 016e FFF7FEFF 		bl	__aeabi_fadd
 532              	.LVL92:
 533 0172 FFF7FEFF 		bl	invSqrt
 534              	.LVL93:
 535 0176 0646     		mov	r6, r0
 536              	.LVL94:
 206:Madgwick.c    **** 		ay *= recipNorm;
 537              		.loc 1 206 0
 538 0178 0146     		mov	r1, r0
 539 017a 3846     		mov	r0, r7
 540              	.LVL95:
 541 017c FFF7FEFF 		bl	__aeabi_fmul
 542              	.LVL96:
 543 0180 0090     		str	r0, [sp]	@ float
 544              	.LVL97:
 207:Madgwick.c    **** 		az *= recipNorm;
 545              		.loc 1 207 0
 546 0182 3146     		mov	r1, r6
 547 0184 1C98     		ldr	r0, [sp, #112]	@ float
 548              	.LVL98:
 549 0186 FFF7FEFF 		bl	__aeabi_fmul
ARM GAS  C:\Users\A85590\AppData\Local\Temp\ccOscRLT.s 			page 16


 550              	.LVL99:
 551 018a 8146     		mov	r9, r0
 552              	.LVL100:
 208:Madgwick.c    **** 
 553              		.loc 1 208 0
 554 018c 3146     		mov	r1, r6
 555 018e 1D98     		ldr	r0, [sp, #116]	@ float
 556              	.LVL101:
 557 0190 FFF7FEFF 		bl	__aeabi_fmul
 558              	.LVL102:
 559 0194 0990     		str	r0, [sp, #36]	@ float
 560              	.LVL103:
 211:Madgwick.c    **** 		_2q1 = 2.0f * q1;
 561              		.loc 1 211 0
 562 0196 5946     		mov	r1, fp
 563 0198 5846     		mov	r0, fp
 564              	.LVL104:
 565 019a FFF7FEFF 		bl	__aeabi_fadd
 566              	.LVL105:
 567 019e 0A90     		str	r0, [sp, #40]	@ float
 568              	.LVL106:
 212:Madgwick.c    **** 		_2q2 = 2.0f * q2;
 569              		.loc 1 212 0
 570 01a0 2946     		mov	r1, r5
 571 01a2 2846     		mov	r0, r5
 572              	.LVL107:
 573 01a4 FFF7FEFF 		bl	__aeabi_fadd
 574              	.LVL108:
 575 01a8 0B90     		str	r0, [sp, #44]	@ float
 576              	.LVL109:
 213:Madgwick.c    **** 		_2q3 = 2.0f * q3;
 577              		.loc 1 213 0
 578 01aa 2146     		mov	r1, r4
 579 01ac 2046     		mov	r0, r4
 580              	.LVL110:
 581 01ae FFF7FEFF 		bl	__aeabi_fadd
 582              	.LVL111:
 583 01b2 0C90     		str	r0, [sp, #48]	@ float
 584              	.LVL112:
 214:Madgwick.c    **** 		_4q0 = 4.0f * q0;
 585              		.loc 1 214 0
 586 01b4 5146     		mov	r1, r10
 587 01b6 5046     		mov	r0, r10
 588              	.LVL113:
 589 01b8 FFF7FEFF 		bl	__aeabi_fadd
 590              	.LVL114:
 591 01bc 0D90     		str	r0, [sp, #52]	@ float
 592              	.LVL115:
 215:Madgwick.c    **** 		_4q1 = 4.0f * q1;
 593              		.loc 1 215 0
 594 01be 4FF08141 		mov	r1, #1082130432
 595 01c2 5846     		mov	r0, fp
 596              	.LVL116:
 597 01c4 FFF7FEFF 		bl	__aeabi_fmul
 598              	.LVL117:
 599 01c8 0646     		mov	r6, r0
 600              	.LVL118:
ARM GAS  C:\Users\A85590\AppData\Local\Temp\ccOscRLT.s 			page 17


 216:Madgwick.c    **** 		_4q2 = 4.0f * q2;
 601              		.loc 1 216 0
 602 01ca 4FF08141 		mov	r1, #1082130432
 603 01ce 2846     		mov	r0, r5
 604              	.LVL119:
 605 01d0 FFF7FEFF 		bl	__aeabi_fmul
 606              	.LVL120:
 607 01d4 0690     		str	r0, [sp, #24]	@ float
 608              	.LVL121:
 217:Madgwick.c    **** 		_8q1 = 8.0f * q1;
 609              		.loc 1 217 0
 610 01d6 4FF08141 		mov	r1, #1082130432
 611 01da 2046     		mov	r0, r4
 612              	.LVL122:
 613 01dc FFF7FEFF 		bl	__aeabi_fmul
 614              	.LVL123:
 615 01e0 1090     		str	r0, [sp, #64]	@ float
 616              	.LVL124:
 218:Madgwick.c    **** 		_8q2 = 8.0f * q2;
 617              		.loc 1 218 0
 618 01e2 4FF08241 		mov	r1, #1090519040
 619 01e6 2846     		mov	r0, r5
 620              	.LVL125:
 621 01e8 FFF7FEFF 		bl	__aeabi_fmul
 622              	.LVL126:
 623 01ec 0746     		mov	r7, r0
 624              	.LVL127:
 219:Madgwick.c    **** 		q0q0 = q0 * q0;
 625              		.loc 1 219 0
 626 01ee 4FF08241 		mov	r1, #1090519040
 627 01f2 2046     		mov	r0, r4
 628              	.LVL128:
 629 01f4 FFF7FEFF 		bl	__aeabi_fmul
 630              	.LVL129:
 631 01f8 0E90     		str	r0, [sp, #56]	@ float
 632              	.LVL130:
 220:Madgwick.c    **** 		q1q1 = q1 * q1;
 633              		.loc 1 220 0
 634 01fa 5946     		mov	r1, fp
 635 01fc 5846     		mov	r0, fp
 636              	.LVL131:
 637 01fe FFF7FEFF 		bl	__aeabi_fmul
 638              	.LVL132:
 639 0202 1190     		str	r0, [sp, #68]	@ float
 640              	.LVL133:
 221:Madgwick.c    **** 		q2q2 = q2 * q2;
 641              		.loc 1 221 0
 642 0204 2946     		mov	r1, r5
 643 0206 2846     		mov	r0, r5
 644              	.LVL134:
 645 0208 FFF7FEFF 		bl	__aeabi_fmul
 646              	.LVL135:
 647 020c 0190     		str	r0, [sp, #4]	@ float
 648              	.LVL136:
 222:Madgwick.c    **** 		q3q3 = q3 * q3;
 649              		.loc 1 222 0
 650 020e 2146     		mov	r1, r4
ARM GAS  C:\Users\A85590\AppData\Local\Temp\ccOscRLT.s 			page 18


 651 0210 2046     		mov	r0, r4
 652              	.LVL137:
 653 0212 FFF7FEFF 		bl	__aeabi_fmul
 654              	.LVL138:
 655 0216 8046     		mov	r8, r0
 656              	.LVL139:
 223:Madgwick.c    **** 
 657              		.loc 1 223 0
 658 0218 5146     		mov	r1, r10
 659 021a 5046     		mov	r0, r10
 660              	.LVL140:
 661 021c FFF7FEFF 		bl	__aeabi_fmul
 662              	.LVL141:
 663 0220 0F90     		str	r0, [sp, #60]	@ float
 664              	.LVL142:
 226:Madgwick.c    **** 		s1 = _4q1 * q3q3 - _2q3 * ax + 4.0f * q0q0 * q1 - _2q0 * ay - _4q1 + _8q1 * q1q1 + _8q1 * q2q2 + 
 665              		.loc 1 226 0
 666 0222 CDF81C80 		str	r8, [sp, #28]	@ float
 667 0226 4146     		mov	r1, r8
 668 0228 3046     		mov	r0, r6
 669              	.LVL143:
 670 022a FFF7FEFF 		bl	__aeabi_fmul
 671              	.LVL144:
 672 022e 8046     		mov	r8, r0
 673              	.LVL145:
 674 0230 0C99     		ldr	r1, [sp, #48]	@ float
 675 0232 0098     		ldr	r0, [sp]	@ float
 676 0234 FFF7FEFF 		bl	__aeabi_fmul
 677              	.LVL146:
 678 0238 0146     		mov	r1, r0
 679 023a 4046     		mov	r0, r8
 680 023c FFF7FEFF 		bl	__aeabi_fadd
 681              	.LVL147:
 682 0240 8046     		mov	r8, r0
 683 0242 0199     		ldr	r1, [sp, #4]	@ float
 684 0244 3046     		mov	r0, r6
 685 0246 FFF7FEFF 		bl	__aeabi_fmul
 686              	.LVL148:
 687 024a 0146     		mov	r1, r0
 688 024c 4046     		mov	r0, r8
 689 024e FFF7FEFF 		bl	__aeabi_fadd
 690              	.LVL149:
 691 0252 0646     		mov	r6, r0
 692              	.LVL150:
 693 0254 0B99     		ldr	r1, [sp, #44]	@ float
 694 0256 4846     		mov	r0, r9
 695 0258 FFF7FEFF 		bl	__aeabi_fmul
 696              	.LVL151:
 697 025c 0146     		mov	r1, r0
 698 025e 3046     		mov	r0, r6
 699 0260 FFF7FEFF 		bl	__aeabi_fsub
 700              	.LVL152:
 701 0264 0890     		str	r0, [sp, #32]	@ float
 702              	.LVL153:
 227:Madgwick.c    **** 		s2 = 4.0f * q0q0 * q2 + _2q0 * ax + _4q2 * q3q3 - _2q3 * ay - _4q2 + _8q2 * q1q1 + _8q2 * q2q2 + 
 703              		.loc 1 227 0
 704 0266 0F99     		ldr	r1, [sp, #60]	@ float
ARM GAS  C:\Users\A85590\AppData\Local\Temp\ccOscRLT.s 			page 19


 705 0268 0698     		ldr	r0, [sp, #24]	@ float
 706              	.LVL154:
 707 026a FFF7FEFF 		bl	__aeabi_fmul
 708              	.LVL155:
 709 026e 0646     		mov	r6, r0
 710 0270 0D99     		ldr	r1, [sp, #52]	@ float
 711 0272 0098     		ldr	r0, [sp]	@ float
 712 0274 FFF7FEFF 		bl	__aeabi_fmul
 713              	.LVL156:
 714 0278 0146     		mov	r1, r0
 715 027a 3046     		mov	r0, r6
 716 027c FFF7FEFF 		bl	__aeabi_fsub
 717              	.LVL157:
 718 0280 8046     		mov	r8, r0
 719 0282 4FF08141 		mov	r1, #1082130432
 720 0286 1198     		ldr	r0, [sp, #68]	@ float
 721 0288 FFF7FEFF 		bl	__aeabi_fmul
 722              	.LVL158:
 723 028c 0646     		mov	r6, r0
 724 028e 0146     		mov	r1, r0
 725 0290 2846     		mov	r0, r5
 726 0292 FFF7FEFF 		bl	__aeabi_fmul
 727              	.LVL159:
 728 0296 0146     		mov	r1, r0
 729 0298 4046     		mov	r0, r8
 730 029a FFF7FEFF 		bl	__aeabi_fadd
 731              	.LVL160:
 732 029e 8046     		mov	r8, r0
 733 02a0 0A99     		ldr	r1, [sp, #40]	@ float
 734 02a2 4846     		mov	r0, r9
 735 02a4 FFF7FEFF 		bl	__aeabi_fmul
 736              	.LVL161:
 737 02a8 0146     		mov	r1, r0
 738 02aa 4046     		mov	r0, r8
 739 02ac FFF7FEFF 		bl	__aeabi_fsub
 740              	.LVL162:
 741 02b0 0699     		ldr	r1, [sp, #24]	@ float
 742 02b2 FFF7FEFF 		bl	__aeabi_fsub
 743              	.LVL163:
 744 02b6 8046     		mov	r8, r0
 745 02b8 0199     		ldr	r1, [sp, #4]	@ float
 746 02ba 3846     		mov	r0, r7
 747 02bc FFF7FEFF 		bl	__aeabi_fmul
 748              	.LVL164:
 749 02c0 0146     		mov	r1, r0
 750 02c2 4046     		mov	r0, r8
 751 02c4 FFF7FEFF 		bl	__aeabi_fadd
 752              	.LVL165:
 753 02c8 8046     		mov	r8, r0
 754 02ca 0799     		ldr	r1, [sp, #28]	@ float
 755 02cc 3846     		mov	r0, r7
 756 02ce FFF7FEFF 		bl	__aeabi_fmul
 757              	.LVL166:
 758 02d2 0146     		mov	r1, r0
 759 02d4 4046     		mov	r0, r8
 760 02d6 FFF7FEFF 		bl	__aeabi_fadd
 761              	.LVL167:
ARM GAS  C:\Users\A85590\AppData\Local\Temp\ccOscRLT.s 			page 20


 762 02da 0746     		mov	r7, r0
 763              	.LVL168:
 764 02dc 0699     		ldr	r1, [sp, #24]	@ float
 765 02de 0998     		ldr	r0, [sp, #36]	@ float
 766 02e0 FFF7FEFF 		bl	__aeabi_fmul
 767              	.LVL169:
 768 02e4 0146     		mov	r1, r0
 769 02e6 3846     		mov	r0, r7
 770 02e8 FFF7FEFF 		bl	__aeabi_fadd
 771              	.LVL170:
 772 02ec 8046     		mov	r8, r0
 773              	.LVL171:
 228:Madgwick.c    **** 		s3 = 4.0f * q1q1 * q3 - _2q1 * ax + 4.0f * q2q2 * q3 - _2q2 * ay;
 774              		.loc 1 228 0
 775 02ee 3146     		mov	r1, r6
 776 02f0 2046     		mov	r0, r4
 777              	.LVL172:
 778 02f2 FFF7FEFF 		bl	__aeabi_fmul
 779              	.LVL173:
 780 02f6 0646     		mov	r6, r0
 781 02f8 0A99     		ldr	r1, [sp, #40]	@ float
 782 02fa 0098     		ldr	r0, [sp]	@ float
 783 02fc FFF7FEFF 		bl	__aeabi_fmul
 784              	.LVL174:
 785 0300 0146     		mov	r1, r0
 786 0302 3046     		mov	r0, r6
 787 0304 FFF7FEFF 		bl	__aeabi_fadd
 788              	.LVL175:
 789 0308 0646     		mov	r6, r0
 790 030a 0F99     		ldr	r1, [sp, #60]	@ float
 791 030c 109F     		ldr	r7, [sp, #64]	@ float
 792 030e 3846     		mov	r0, r7
 793 0310 FFF7FEFF 		bl	__aeabi_fmul
 794              	.LVL176:
 795 0314 0146     		mov	r1, r0
 796 0316 3046     		mov	r0, r6
 797 0318 FFF7FEFF 		bl	__aeabi_fadd
 798              	.LVL177:
 799 031c 0646     		mov	r6, r0
 800 031e 0D99     		ldr	r1, [sp, #52]	@ float
 801 0320 4846     		mov	r0, r9
 802 0322 FFF7FEFF 		bl	__aeabi_fmul
 803              	.LVL178:
 804 0326 0146     		mov	r1, r0
 805 0328 3046     		mov	r0, r6
 806 032a FFF7FEFF 		bl	__aeabi_fsub
 807              	.LVL179:
 808 032e 3946     		mov	r1, r7
 809 0330 FFF7FEFF 		bl	__aeabi_fsub
 810              	.LVL180:
 811 0334 0646     		mov	r6, r0
 812 0336 0199     		ldr	r1, [sp, #4]	@ float
 813 0338 0E98     		ldr	r0, [sp, #56]	@ float
 814 033a FFF7FEFF 		bl	__aeabi_fmul
 815              	.LVL181:
 816 033e 0146     		mov	r1, r0
 817 0340 3046     		mov	r0, r6
ARM GAS  C:\Users\A85590\AppData\Local\Temp\ccOscRLT.s 			page 21


 818 0342 FFF7FEFF 		bl	__aeabi_fadd
 819              	.LVL182:
 820 0346 0646     		mov	r6, r0
 821 0348 0799     		ldr	r1, [sp, #28]	@ float
 822 034a 0E98     		ldr	r0, [sp, #56]	@ float
 823 034c FFF7FEFF 		bl	__aeabi_fmul
 824              	.LVL183:
 825 0350 0146     		mov	r1, r0
 826 0352 3046     		mov	r0, r6
 827 0354 FFF7FEFF 		bl	__aeabi_fadd
 828              	.LVL184:
 829 0358 0646     		mov	r6, r0
 830 035a 3946     		mov	r1, r7
 831 035c 0998     		ldr	r0, [sp, #36]	@ float
 832 035e FFF7FEFF 		bl	__aeabi_fmul
 833              	.LVL185:
 834 0362 0146     		mov	r1, r0
 835 0364 3046     		mov	r0, r6
 836 0366 FFF7FEFF 		bl	__aeabi_fadd
 837              	.LVL186:
 838 036a 0746     		mov	r7, r0
 839              	.LVL187:
 229:Madgwick.c    **** 		recipNorm = invSqrt(s0 * s0 + s1 * s1 + s2 * s2 + s3 * s3); // normalise step magnitude
 840              		.loc 1 229 0
 841 036c 4FF08141 		mov	r1, #1082130432
 842 0370 0198     		ldr	r0, [sp, #4]	@ float
 843              	.LVL188:
 844 0372 FFF7FEFF 		bl	__aeabi_fmul
 845              	.LVL189:
 846 0376 0146     		mov	r1, r0
 847 0378 5046     		mov	r0, r10
 848 037a FFF7FEFF 		bl	__aeabi_fmul
 849              	.LVL190:
 850 037e 0646     		mov	r6, r0
 851 0380 0B99     		ldr	r1, [sp, #44]	@ float
 852 0382 0098     		ldr	r0, [sp]	@ float
 853 0384 FFF7FEFF 		bl	__aeabi_fmul
 854              	.LVL191:
 855 0388 0146     		mov	r1, r0
 856 038a 3046     		mov	r0, r6
 857 038c FFF7FEFF 		bl	__aeabi_fsub
 858              	.LVL192:
 859 0390 0646     		mov	r6, r0
 860 0392 4FF08141 		mov	r1, #1082130432
 861 0396 0798     		ldr	r0, [sp, #28]	@ float
 862 0398 FFF7FEFF 		bl	__aeabi_fmul
 863              	.LVL193:
 864 039c 0146     		mov	r1, r0
 865 039e 5046     		mov	r0, r10
 866 03a0 FFF7FEFF 		bl	__aeabi_fmul
 867              	.LVL194:
 868 03a4 0146     		mov	r1, r0
 869 03a6 3046     		mov	r0, r6
 870 03a8 FFF7FEFF 		bl	__aeabi_fadd
 871              	.LVL195:
 872 03ac 0646     		mov	r6, r0
 873 03ae 0C99     		ldr	r1, [sp, #48]	@ float
ARM GAS  C:\Users\A85590\AppData\Local\Temp\ccOscRLT.s 			page 22


 874 03b0 4846     		mov	r0, r9
 875 03b2 FFF7FEFF 		bl	__aeabi_fmul
 876              	.LVL196:
 877 03b6 0146     		mov	r1, r0
 878 03b8 3046     		mov	r0, r6
 879 03ba FFF7FEFF 		bl	__aeabi_fsub
 880              	.LVL197:
 881 03be 8146     		mov	r9, r0
 882              	.LVL198:
 230:Madgwick.c    **** 		s0 *= recipNorm;
 883              		.loc 1 230 0
 884 03c0 089B     		ldr	r3, [sp, #32]	@ float
 885 03c2 1946     		mov	r1, r3
 886 03c4 1846     		mov	r0, r3
 887              	.LVL199:
 888 03c6 FFF7FEFF 		bl	__aeabi_fmul
 889              	.LVL200:
 890 03ca 0646     		mov	r6, r0
 891 03cc 4146     		mov	r1, r8
 892 03ce 4046     		mov	r0, r8
 893 03d0 FFF7FEFF 		bl	__aeabi_fmul
 894              	.LVL201:
 895 03d4 0146     		mov	r1, r0
 896 03d6 3046     		mov	r0, r6
 897 03d8 FFF7FEFF 		bl	__aeabi_fadd
 898              	.LVL202:
 899 03dc 0646     		mov	r6, r0
 900 03de 3946     		mov	r1, r7
 901 03e0 3846     		mov	r0, r7
 902 03e2 FFF7FEFF 		bl	__aeabi_fmul
 903              	.LVL203:
 904 03e6 0146     		mov	r1, r0
 905 03e8 3046     		mov	r0, r6
 906 03ea FFF7FEFF 		bl	__aeabi_fadd
 907              	.LVL204:
 908 03ee 0646     		mov	r6, r0
 909 03f0 4946     		mov	r1, r9
 910 03f2 4846     		mov	r0, r9
 911 03f4 FFF7FEFF 		bl	__aeabi_fmul
 912              	.LVL205:
 913 03f8 0146     		mov	r1, r0
 914 03fa 3046     		mov	r0, r6
 915 03fc FFF7FEFF 		bl	__aeabi_fadd
 916              	.LVL206:
 917 0400 FFF7FEFF 		bl	invSqrt
 918              	.LVL207:
 919 0404 0646     		mov	r6, r0
 920              	.LVL208:
 231:Madgwick.c    **** 		s1 *= recipNorm;
 921              		.loc 1 231 0
 922 0406 0146     		mov	r1, r0
 923 0408 0898     		ldr	r0, [sp, #32]	@ float
 924              	.LVL209:
 925 040a FFF7FEFF 		bl	__aeabi_fmul
 926              	.LVL210:
 927 040e 0090     		str	r0, [sp]	@ float
 928              	.LVL211:
ARM GAS  C:\Users\A85590\AppData\Local\Temp\ccOscRLT.s 			page 23


 232:Madgwick.c    **** 		s2 *= recipNorm;
 929              		.loc 1 232 0
 930 0410 3146     		mov	r1, r6
 931 0412 4046     		mov	r0, r8
 932              	.LVL212:
 933 0414 FFF7FEFF 		bl	__aeabi_fmul
 934              	.LVL213:
 935 0418 8046     		mov	r8, r0
 936              	.LVL214:
 233:Madgwick.c    **** 		s3 *= recipNorm;
 937              		.loc 1 233 0
 938 041a 3146     		mov	r1, r6
 939 041c 3846     		mov	r0, r7
 940              	.LVL215:
 941 041e FFF7FEFF 		bl	__aeabi_fmul
 942              	.LVL216:
 943 0422 0746     		mov	r7, r0
 944              	.LVL217:
 234:Madgwick.c    **** 
 945              		.loc 1 234 0
 946 0424 3146     		mov	r1, r6
 947 0426 4846     		mov	r0, r9
 948              	.LVL218:
 949 0428 FFF7FEFF 		bl	__aeabi_fmul
 950              	.LVL219:
 951 042c 8146     		mov	r9, r0
 952              	.LVL220:
 237:Madgwick.c    **** 		qDot2 -= beta * s1;
 953              		.loc 1 237 0
 954 042e 434B     		ldr	r3, .L24
 955 0430 1E6A     		ldr	r6, [r3, #32]	@ float
 956              	.LVL221:
 957 0432 3146     		mov	r1, r6
 958 0434 0098     		ldr	r0, [sp]	@ float
 959              	.LVL222:
 960 0436 FFF7FEFF 		bl	__aeabi_fmul
 961              	.LVL223:
 962 043a 0146     		mov	r1, r0
 963 043c 0298     		ldr	r0, [sp, #8]	@ float
 964 043e FFF7FEFF 		bl	__aeabi_fsub
 965              	.LVL224:
 966 0442 0290     		str	r0, [sp, #8]	@ float
 967              	.LVL225:
 238:Madgwick.c    **** 		qDot3 -= beta * s2;
 968              		.loc 1 238 0
 969 0444 3146     		mov	r1, r6
 970 0446 4046     		mov	r0, r8
 971              	.LVL226:
 972 0448 FFF7FEFF 		bl	__aeabi_fmul
 973              	.LVL227:
 974 044c 0146     		mov	r1, r0
 975 044e 0398     		ldr	r0, [sp, #12]	@ float
 976 0450 FFF7FEFF 		bl	__aeabi_fsub
 977              	.LVL228:
 978 0454 0390     		str	r0, [sp, #12]	@ float
 979              	.LVL229:
 239:Madgwick.c    **** 		qDot4 -= beta * s3;
ARM GAS  C:\Users\A85590\AppData\Local\Temp\ccOscRLT.s 			page 24


 980              		.loc 1 239 0
 981 0456 3146     		mov	r1, r6
 982 0458 3846     		mov	r0, r7
 983              	.LVL230:
 984 045a FFF7FEFF 		bl	__aeabi_fmul
 985              	.LVL231:
 986 045e 0146     		mov	r1, r0
 987 0460 0498     		ldr	r0, [sp, #16]	@ float
 988 0462 FFF7FEFF 		bl	__aeabi_fsub
 989              	.LVL232:
 990 0466 0490     		str	r0, [sp, #16]	@ float
 991              	.LVL233:
 240:Madgwick.c    **** 	}
 992              		.loc 1 240 0
 993 0468 3146     		mov	r1, r6
 994 046a 4846     		mov	r0, r9
 995              	.LVL234:
 996 046c FFF7FEFF 		bl	__aeabi_fmul
 997              	.LVL235:
 998 0470 0146     		mov	r1, r0
 999 0472 0598     		ldr	r0, [sp, #20]	@ float
 1000 0474 FFF7FEFF 		bl	__aeabi_fsub
 1001              	.LVL236:
 1002 0478 0590     		str	r0, [sp, #20]	@ float
 1003              	.LVL237:
 1004              	.L18:
 244:Madgwick.c    **** 	q1 += qDot2 * invSampleFreq;
 1005              		.loc 1 244 0
 1006 047a 304E     		ldr	r6, .L24
 1007 047c 776A     		ldr	r7, [r6, #36]	@ float
 1008 047e 3946     		mov	r1, r7
 1009 0480 0298     		ldr	r0, [sp, #8]	@ float
 1010 0482 FFF7FEFF 		bl	__aeabi_fmul
 1011              	.LVL238:
 1012 0486 0146     		mov	r1, r0
 1013 0488 5846     		mov	r0, fp
 1014 048a FFF7FEFF 		bl	__aeabi_fadd
 1015              	.LVL239:
 1016 048e 8046     		mov	r8, r0
 245:Madgwick.c    **** 	q2 += qDot3 * invSampleFreq;
 1017              		.loc 1 245 0
 1018 0490 3946     		mov	r1, r7
 1019 0492 0398     		ldr	r0, [sp, #12]	@ float
 1020 0494 FFF7FEFF 		bl	__aeabi_fmul
 1021              	.LVL240:
 1022 0498 0146     		mov	r1, r0
 1023 049a 2846     		mov	r0, r5
 1024 049c FFF7FEFF 		bl	__aeabi_fadd
 1025              	.LVL241:
 1026 04a0 0546     		mov	r5, r0
 246:Madgwick.c    **** 	q3 += qDot4 * invSampleFreq;
 1027              		.loc 1 246 0
 1028 04a2 3946     		mov	r1, r7
 1029 04a4 0498     		ldr	r0, [sp, #16]	@ float
 1030 04a6 FFF7FEFF 		bl	__aeabi_fmul
 1031              	.LVL242:
 1032 04aa 0146     		mov	r1, r0
ARM GAS  C:\Users\A85590\AppData\Local\Temp\ccOscRLT.s 			page 25


 1033 04ac 2046     		mov	r0, r4
 1034 04ae FFF7FEFF 		bl	__aeabi_fadd
 1035              	.LVL243:
 1036 04b2 8146     		mov	r9, r0
 247:Madgwick.c    **** 
 1037              		.loc 1 247 0
 1038 04b4 3946     		mov	r1, r7
 1039 04b6 0598     		ldr	r0, [sp, #20]	@ float
 1040 04b8 FFF7FEFF 		bl	__aeabi_fmul
 1041              	.LVL244:
 1042 04bc 0146     		mov	r1, r0
 1043 04be 5046     		mov	r0, r10
 1044 04c0 FFF7FEFF 		bl	__aeabi_fadd
 1045              	.LVL245:
 1046 04c4 0746     		mov	r7, r0
 250:Madgwick.c    **** 	q0 *= recipNorm;
 1047              		.loc 1 250 0
 1048 04c6 4146     		mov	r1, r8
 1049 04c8 4046     		mov	r0, r8
 1050 04ca FFF7FEFF 		bl	__aeabi_fmul
 1051              	.LVL246:
 1052 04ce 0446     		mov	r4, r0
 1053 04d0 2946     		mov	r1, r5
 1054 04d2 2846     		mov	r0, r5
 1055 04d4 FFF7FEFF 		bl	__aeabi_fmul
 1056              	.LVL247:
 1057 04d8 0146     		mov	r1, r0
 1058 04da 2046     		mov	r0, r4
 1059 04dc FFF7FEFF 		bl	__aeabi_fadd
 1060              	.LVL248:
 1061 04e0 0446     		mov	r4, r0
 1062 04e2 4946     		mov	r1, r9
 1063 04e4 4846     		mov	r0, r9
 1064 04e6 FFF7FEFF 		bl	__aeabi_fmul
 1065              	.LVL249:
 1066 04ea 0146     		mov	r1, r0
 1067 04ec 2046     		mov	r0, r4
 1068 04ee FFF7FEFF 		bl	__aeabi_fadd
 1069              	.LVL250:
 1070 04f2 0446     		mov	r4, r0
 1071 04f4 3946     		mov	r1, r7
 1072 04f6 3846     		mov	r0, r7
 1073 04f8 FFF7FEFF 		bl	__aeabi_fmul
 1074              	.LVL251:
 1075 04fc 0146     		mov	r1, r0
 1076 04fe 2046     		mov	r0, r4
 1077 0500 FFF7FEFF 		bl	__aeabi_fadd
 1078              	.LVL252:
 1079 0504 FFF7FEFF 		bl	invSqrt
 1080              	.LVL253:
 1081 0508 0446     		mov	r4, r0
 1082              	.LVL254:
 251:Madgwick.c    **** 	q1 *= recipNorm;
 1083              		.loc 1 251 0
 1084 050a 0146     		mov	r1, r0
 1085 050c 4046     		mov	r0, r8
 1086              	.LVL255:
ARM GAS  C:\Users\A85590\AppData\Local\Temp\ccOscRLT.s 			page 26


 1087 050e FFF7FEFF 		bl	__aeabi_fmul
 1088              	.LVL256:
 1089 0512 7060     		str	r0, [r6, #4]	@ float
 252:Madgwick.c    **** 	q2 *= recipNorm;
 1090              		.loc 1 252 0
 1091 0514 2146     		mov	r1, r4
 1092 0516 2846     		mov	r0, r5
 1093 0518 FFF7FEFF 		bl	__aeabi_fmul
 1094              	.LVL257:
 1095 051c 3060     		str	r0, [r6]	@ float
 253:Madgwick.c    **** 	q3 *= recipNorm;
 1096              		.loc 1 253 0
 1097 051e 2146     		mov	r1, r4
 1098 0520 4846     		mov	r0, r9
 1099 0522 FFF7FEFF 		bl	__aeabi_fmul
 1100              	.LVL258:
 1101 0526 B060     		str	r0, [r6, #8]	@ float
 254:Madgwick.c    **** 	anglesComputed = 0;
 1102              		.loc 1 254 0
 1103 0528 2146     		mov	r1, r4
 1104 052a 3846     		mov	r0, r7
 1105 052c FFF7FEFF 		bl	__aeabi_fmul
 1106              	.LVL259:
 1107 0530 F060     		str	r0, [r6, #12]	@ float
 255:Madgwick.c    **** }
 1108              		.loc 1 255 0
 1109 0532 0023     		movs	r3, #0
 1110 0534 3377     		strb	r3, [r6, #28]
 256:Madgwick.c    **** 
 1111              		.loc 1 256 0
 1112 0536 13B0     		add	sp, sp, #76
 1113              		.cfi_def_cfa_offset 36
 1114              		@ sp needed
 1115 0538 BDE8F08F 		pop	{r4, r5, r6, r7, r8, r9, r10, fp, pc}
 1116              	.LVL260:
 1117              	.L25:
 1118              		.align	2
 1119              	.L24:
 1120 053c 00000000 		.word	.LANCHOR0
 1121              		.cfi_endproc
 1122              	.LFE4:
 1123              		.size	Madgwick_updateIMU, .-Madgwick_updateIMU
 1124              		.section	.text.Madgwick_update,"ax",%progbits
 1125              		.align	2
 1126              		.global	Madgwick_update
 1127              		.thumb
 1128              		.thumb_func
 1129              		.type	Madgwick_update, %function
 1130              	Madgwick_update:
 1131              	.LFB3:
  75:Madgwick.c    **** 	float recipNorm;
 1132              		.loc 1 75 0
 1133              		.cfi_startproc
 1134              		@ args = 20, pretend = 0, frame = 120
 1135              		@ frame_needed = 0, uses_anonymous_args = 0
 1136              	.LVL261:
 1137 0000 2DE9F04F 		push	{r4, r5, r6, r7, r8, r9, r10, fp, lr}
ARM GAS  C:\Users\A85590\AppData\Local\Temp\ccOscRLT.s 			page 27


 1138              		.cfi_def_cfa_offset 36
 1139              		.cfi_offset 4, -36
 1140              		.cfi_offset 5, -32
 1141              		.cfi_offset 6, -28
 1142              		.cfi_offset 7, -24
 1143              		.cfi_offset 8, -20
 1144              		.cfi_offset 9, -16
 1145              		.cfi_offset 10, -12
 1146              		.cfi_offset 11, -8
 1147              		.cfi_offset 14, -4
 1148 0004 A1B0     		sub	sp, sp, #132
 1149              		.cfi_def_cfa_offset 168
 1150 0006 0646     		mov	r6, r0
 1151 0008 0D46     		mov	r5, r1
 1152 000a 1446     		mov	r4, r2
 1153 000c 0393     		str	r3, [sp, #12]	@ float
  83:Madgwick.c    **** 	{
 1154              		.loc 1 83 0
 1155 000e 0021     		movs	r1, #0
 1156              	.LVL262:
 1157 0010 2C98     		ldr	r0, [sp, #176]	@ float
 1158              	.LVL263:
 1159 0012 FFF7FEFF 		bl	__aeabi_fcmpeq
 1160              	.LVL264:
 1161 0016 A8B1     		cbz	r0, .L27
  83:Madgwick.c    **** 	{
 1162              		.loc 1 83 0 is_stmt 0 discriminator 1
 1163 0018 0021     		movs	r1, #0
 1164 001a 2D98     		ldr	r0, [sp, #180]	@ float
 1165 001c FFF7FEFF 		bl	__aeabi_fcmpeq
 1166              	.LVL265:
 1167 0020 80B1     		cbz	r0, .L27
  83:Madgwick.c    **** 	{
 1168              		.loc 1 83 0 discriminator 2
 1169 0022 0021     		movs	r1, #0
 1170 0024 2E98     		ldr	r0, [sp, #184]	@ float
 1171 0026 FFF7FEFF 		bl	__aeabi_fcmpeq
 1172              	.LVL266:
 1173 002a 58B1     		cbz	r0, .L27
  85:Madgwick.c    **** 		return;
 1174              		.loc 1 85 0 is_stmt 1
 1175 002c 2B9B     		ldr	r3, [sp, #172]	@ float
 1176 002e 0193     		str	r3, [sp, #4]	@ float
 1177 0030 2A9B     		ldr	r3, [sp, #168]	@ float
 1178 0032 0093     		str	r3, [sp]	@ float
 1179 0034 039B     		ldr	r3, [sp, #12]	@ float
 1180 0036 2246     		mov	r2, r4
 1181 0038 2946     		mov	r1, r5
 1182 003a 3046     		mov	r0, r6
 1183 003c FFF7FEFF 		bl	Madgwick_updateIMU
 1184              	.LVL267:
  86:Madgwick.c    **** 	}
 1185              		.loc 1 86 0
 1186 0040 00F0C2BC 		b	.L26
 1187              	.L27:
  90:Madgwick.c    **** 	gy *= 0.0174533f;
 1188              		.loc 1 90 0
ARM GAS  C:\Users\A85590\AppData\Local\Temp\ccOscRLT.s 			page 28


 1189 0044 4949     		ldr	r1, .L39
 1190 0046 3046     		mov	r0, r6
 1191 0048 FFF7FEFF 		bl	__aeabi_fmul
 1192              	.LVL268:
 1193 004c 0746     		mov	r7, r0
 1194              	.LVL269:
  91:Madgwick.c    **** 	gz *= 0.0174533f;
 1195              		.loc 1 91 0
 1196 004e 4749     		ldr	r1, .L39
 1197 0050 2846     		mov	r0, r5
 1198              	.LVL270:
 1199 0052 FFF7FEFF 		bl	__aeabi_fmul
 1200              	.LVL271:
 1201 0056 8046     		mov	r8, r0
 1202              	.LVL272:
  92:Madgwick.c    **** 
 1203              		.loc 1 92 0
 1204 0058 4449     		ldr	r1, .L39
 1205 005a 2046     		mov	r0, r4
 1206              	.LVL273:
 1207 005c FFF7FEFF 		bl	__aeabi_fmul
 1208              	.LVL274:
 1209 0060 8146     		mov	r9, r0
 1210              	.LVL275:
  95:Madgwick.c    **** 	qDot2 = 0.5f * (q0 * gx + q2 * gz - q3 * gy);
 1211              		.loc 1 95 0
 1212 0062 434E     		ldr	r6, .L39+4
 1213 0064 3568     		ldr	r5, [r6]	@ float
 1214 0066 05F10041 		add	r1, r5, #-2147483648
 1215 006a 3846     		mov	r0, r7
 1216              	.LVL276:
 1217 006c FFF7FEFF 		bl	__aeabi_fmul
 1218              	.LVL277:
 1219 0070 8346     		mov	fp, r0
 1220 0072 B468     		ldr	r4, [r6, #8]	@ float
 1221 0074 2146     		mov	r1, r4
 1222 0076 4046     		mov	r0, r8
 1223 0078 FFF7FEFF 		bl	__aeabi_fmul
 1224              	.LVL278:
 1225 007c 0146     		mov	r1, r0
 1226 007e 5846     		mov	r0, fp
 1227 0080 FFF7FEFF 		bl	__aeabi_fsub
 1228              	.LVL279:
 1229 0084 8346     		mov	fp, r0
 1230 0086 D6F80CA0 		ldr	r10, [r6, #12]	@ float
 1231 008a 5146     		mov	r1, r10
 1232 008c 4846     		mov	r0, r9
 1233 008e FFF7FEFF 		bl	__aeabi_fmul
 1234              	.LVL280:
 1235 0092 0146     		mov	r1, r0
 1236 0094 5846     		mov	r0, fp
 1237 0096 FFF7FEFF 		bl	__aeabi_fsub
 1238              	.LVL281:
 1239 009a 4FF07C51 		mov	r1, #1056964608
 1240 009e FFF7FEFF 		bl	__aeabi_fmul
 1241              	.LVL282:
 1242 00a2 0D90     		str	r0, [sp, #52]	@ float
ARM GAS  C:\Users\A85590\AppData\Local\Temp\ccOscRLT.s 			page 29


 1243              	.LVL283:
  96:Madgwick.c    **** 	qDot3 = 0.5f * (q0 * gy - q1 * gz + q3 * gx);
 1244              		.loc 1 96 0
 1245 00a4 7668     		ldr	r6, [r6, #4]	@ float
 1246 00a6 3146     		mov	r1, r6
 1247 00a8 3846     		mov	r0, r7
 1248              	.LVL284:
 1249 00aa FFF7FEFF 		bl	__aeabi_fmul
 1250              	.LVL285:
 1251 00ae 8346     		mov	fp, r0
 1252 00b0 2146     		mov	r1, r4
 1253 00b2 4846     		mov	r0, r9
 1254 00b4 FFF7FEFF 		bl	__aeabi_fmul
 1255              	.LVL286:
 1256 00b8 0146     		mov	r1, r0
 1257 00ba 5846     		mov	r0, fp
 1258 00bc FFF7FEFF 		bl	__aeabi_fadd
 1259              	.LVL287:
 1260 00c0 8346     		mov	fp, r0
 1261 00c2 5146     		mov	r1, r10
 1262 00c4 4046     		mov	r0, r8
 1263 00c6 FFF7FEFF 		bl	__aeabi_fmul
 1264              	.LVL288:
 1265 00ca 0146     		mov	r1, r0
 1266 00cc 5846     		mov	r0, fp
 1267 00ce FFF7FEFF 		bl	__aeabi_fsub
 1268              	.LVL289:
 1269 00d2 4FF07C51 		mov	r1, #1056964608
 1270 00d6 FFF7FEFF 		bl	__aeabi_fmul
 1271              	.LVL290:
 1272 00da 0E90     		str	r0, [sp, #56]	@ float
 1273              	.LVL291:
  97:Madgwick.c    **** 	qDot4 = 0.5f * (q0 * gz + q1 * gy - q2 * gx);
 1274              		.loc 1 97 0
 1275 00dc 3146     		mov	r1, r6
 1276 00de 4046     		mov	r0, r8
 1277              	.LVL292:
 1278 00e0 FFF7FEFF 		bl	__aeabi_fmul
 1279              	.LVL293:
 1280 00e4 8346     		mov	fp, r0
 1281 00e6 2946     		mov	r1, r5
 1282 00e8 4846     		mov	r0, r9
 1283 00ea FFF7FEFF 		bl	__aeabi_fmul
 1284              	.LVL294:
 1285 00ee 0146     		mov	r1, r0
 1286 00f0 5846     		mov	r0, fp
 1287 00f2 FFF7FEFF 		bl	__aeabi_fsub
 1288              	.LVL295:
 1289 00f6 8346     		mov	fp, r0
 1290 00f8 5146     		mov	r1, r10
 1291 00fa 3846     		mov	r0, r7
 1292 00fc FFF7FEFF 		bl	__aeabi_fmul
 1293              	.LVL296:
 1294 0100 0146     		mov	r1, r0
 1295 0102 5846     		mov	r0, fp
 1296 0104 FFF7FEFF 		bl	__aeabi_fadd
 1297              	.LVL297:
ARM GAS  C:\Users\A85590\AppData\Local\Temp\ccOscRLT.s 			page 30


 1298 0108 4FF07C51 		mov	r1, #1056964608
 1299 010c FFF7FEFF 		bl	__aeabi_fmul
 1300              	.LVL298:
 1301 0110 0F90     		str	r0, [sp, #60]	@ float
 1302              	.LVL299:
  98:Madgwick.c    **** 
 1303              		.loc 1 98 0
 1304 0112 3146     		mov	r1, r6
 1305 0114 4846     		mov	r0, r9
 1306              	.LVL300:
 1307 0116 FFF7FEFF 		bl	__aeabi_fmul
 1308              	.LVL301:
 1309 011a 8146     		mov	r9, r0
 1310              	.LVL302:
 1311 011c 2946     		mov	r1, r5
 1312 011e 4046     		mov	r0, r8
 1313 0120 FFF7FEFF 		bl	__aeabi_fmul
 1314              	.LVL303:
 1315 0124 0146     		mov	r1, r0
 1316 0126 4846     		mov	r0, r9
 1317 0128 FFF7FEFF 		bl	__aeabi_fadd
 1318              	.LVL304:
 1319 012c 8046     		mov	r8, r0
 1320              	.LVL305:
 1321 012e 2146     		mov	r1, r4
 1322 0130 3846     		mov	r0, r7
 1323 0132 FFF7FEFF 		bl	__aeabi_fmul
 1324              	.LVL306:
 1325 0136 0146     		mov	r1, r0
 1326 0138 4046     		mov	r0, r8
 1327 013a FFF7FEFF 		bl	__aeabi_fsub
 1328              	.LVL307:
 1329 013e 4FF07C51 		mov	r1, #1056964608
 1330 0142 FFF7FEFF 		bl	__aeabi_fmul
 1331              	.LVL308:
 1332 0146 1090     		str	r0, [sp, #64]	@ float
 1333              	.LVL309:
 101:Madgwick.c    **** 	{
 1334              		.loc 1 101 0
 1335 0148 0021     		movs	r1, #0
 1336 014a 0398     		ldr	r0, [sp, #12]	@ float
 1337              	.LVL310:
 1338 014c FFF7FEFF 		bl	__aeabi_fcmpeq
 1339              	.LVL311:
 1340 0150 80B1     		cbz	r0, .L32
 101:Madgwick.c    **** 	{
 1341              		.loc 1 101 0 is_stmt 0 discriminator 1
 1342 0152 0021     		movs	r1, #0
 1343 0154 2A98     		ldr	r0, [sp, #168]	@ float
 1344 0156 FFF7FEFF 		bl	__aeabi_fcmpeq
 1345              	.LVL312:
 1346 015a 58B1     		cbz	r0, .L32
 101:Madgwick.c    **** 	{
 1347              		.loc 1 101 0 discriminator 2
 1348 015c 0021     		movs	r1, #0
 1349 015e 2B98     		ldr	r0, [sp, #172]	@ float
 1350 0160 FFF7FEFF 		bl	__aeabi_fcmpeq
ARM GAS  C:\Users\A85590\AppData\Local\Temp\ccOscRLT.s 			page 31


 1351              	.LVL313:
 1352 0164 0028     		cmp	r0, #0
 1353 0166 40F0D583 		bne	.L33
 1354 016a 03E0     		b	.L40
 1355              	.L41:
 1356              		.align	2
 1357              	.L39:
 1358 016c 39FA8E3C 		.word	1016003129
 1359 0170 00000000 		.word	.LANCHOR0
 1360              	.L40:
 1361              	.L32:
 105:Madgwick.c    **** 		ax *= recipNorm;
 1362              		.loc 1 105 0 is_stmt 1
 1363 0174 DDF80C80 		ldr	r8, [sp, #12]	@ float
 1364 0178 4146     		mov	r1, r8
 1365 017a 4046     		mov	r0, r8
 1366 017c FFF7FEFF 		bl	__aeabi_fmul
 1367              	.LVL314:
 1368 0180 0746     		mov	r7, r0
 1369              	.LVL315:
 1370 0182 2A99     		ldr	r1, [sp, #168]	@ float
 1371 0184 0846     		mov	r0, r1
 1372 0186 FFF7FEFF 		bl	__aeabi_fmul
 1373              	.LVL316:
 1374 018a 0146     		mov	r1, r0
 1375 018c 3846     		mov	r0, r7
 1376 018e FFF7FEFF 		bl	__aeabi_fadd
 1377              	.LVL317:
 1378 0192 0746     		mov	r7, r0
 1379 0194 2B99     		ldr	r1, [sp, #172]	@ float
 1380 0196 0846     		mov	r0, r1
 1381 0198 FFF7FEFF 		bl	__aeabi_fmul
 1382              	.LVL318:
 1383 019c 0146     		mov	r1, r0
 1384 019e 3846     		mov	r0, r7
 1385 01a0 FFF7FEFF 		bl	__aeabi_fadd
 1386              	.LVL319:
 1387 01a4 FFF7FEFF 		bl	invSqrt
 1388              	.LVL320:
 1389 01a8 0746     		mov	r7, r0
 1390              	.LVL321:
 106:Madgwick.c    **** 		ay *= recipNorm;
 1391              		.loc 1 106 0
 1392 01aa 0146     		mov	r1, r0
 1393 01ac 4046     		mov	r0, r8
 1394              	.LVL322:
 1395 01ae FFF7FEFF 		bl	__aeabi_fmul
 1396              	.LVL323:
 1397 01b2 1790     		str	r0, [sp, #92]	@ float
 1398              	.LVL324:
 107:Madgwick.c    **** 		az *= recipNorm;
 1399              		.loc 1 107 0
 1400 01b4 3946     		mov	r1, r7
 1401 01b6 2A98     		ldr	r0, [sp, #168]	@ float
 1402              	.LVL325:
 1403 01b8 FFF7FEFF 		bl	__aeabi_fmul
 1404              	.LVL326:
ARM GAS  C:\Users\A85590\AppData\Local\Temp\ccOscRLT.s 			page 32


 1405 01bc 1890     		str	r0, [sp, #96]	@ float
 1406              	.LVL327:
 108:Madgwick.c    **** 
 1407              		.loc 1 108 0
 1408 01be 3946     		mov	r1, r7
 1409 01c0 2B98     		ldr	r0, [sp, #172]	@ float
 1410              	.LVL328:
 1411 01c2 FFF7FEFF 		bl	__aeabi_fmul
 1412              	.LVL329:
 1413 01c6 1990     		str	r0, [sp, #100]	@ float
 1414              	.LVL330:
 111:Madgwick.c    **** 		mx *= recipNorm;
 1415              		.loc 1 111 0
 1416 01c8 2C99     		ldr	r1, [sp, #176]	@ float
 1417 01ca 0846     		mov	r0, r1
 1418              	.LVL331:
 1419 01cc FFF7FEFF 		bl	__aeabi_fmul
 1420              	.LVL332:
 1421 01d0 0746     		mov	r7, r0
 1422              	.LVL333:
 1423 01d2 2D99     		ldr	r1, [sp, #180]	@ float
 1424 01d4 0846     		mov	r0, r1
 1425 01d6 FFF7FEFF 		bl	__aeabi_fmul
 1426              	.LVL334:
 1427 01da 0146     		mov	r1, r0
 1428 01dc 3846     		mov	r0, r7
 1429 01de FFF7FEFF 		bl	__aeabi_fadd
 1430              	.LVL335:
 1431 01e2 0746     		mov	r7, r0
 1432 01e4 2E99     		ldr	r1, [sp, #184]	@ float
 1433 01e6 0846     		mov	r0, r1
 1434 01e8 FFF7FEFF 		bl	__aeabi_fmul
 1435              	.LVL336:
 1436 01ec 0146     		mov	r1, r0
 1437 01ee 3846     		mov	r0, r7
 1438 01f0 FFF7FEFF 		bl	__aeabi_fadd
 1439              	.LVL337:
 1440 01f4 FFF7FEFF 		bl	invSqrt
 1441              	.LVL338:
 1442 01f8 0746     		mov	r7, r0
 1443              	.LVL339:
 112:Madgwick.c    **** 		my *= recipNorm;
 1444              		.loc 1 112 0
 1445 01fa 0146     		mov	r1, r0
 1446 01fc 2C98     		ldr	r0, [sp, #176]	@ float
 1447              	.LVL340:
 1448 01fe FFF7FEFF 		bl	__aeabi_fmul
 1449              	.LVL341:
 1450 0202 8046     		mov	r8, r0
 1451              	.LVL342:
 113:Madgwick.c    **** 		mz *= recipNorm;
 1452              		.loc 1 113 0
 1453 0204 3946     		mov	r1, r7
 1454 0206 2D98     		ldr	r0, [sp, #180]	@ float
 1455              	.LVL343:
 1456 0208 FFF7FEFF 		bl	__aeabi_fmul
 1457              	.LVL344:
ARM GAS  C:\Users\A85590\AppData\Local\Temp\ccOscRLT.s 			page 33


 1458 020c 0390     		str	r0, [sp, #12]	@ float
 1459              	.LVL345:
 114:Madgwick.c    **** 
 1460              		.loc 1 114 0
 1461 020e 3946     		mov	r1, r7
 1462 0210 2E98     		ldr	r0, [sp, #184]	@ float
 1463              	.LVL346:
 1464 0212 FFF7FEFF 		bl	__aeabi_fmul
 1465              	.LVL347:
 1466 0216 8346     		mov	fp, r0
 1467              	.LVL348:
 117:Madgwick.c    **** 		_2q0my = 2.0f * q0 * my;
 1468              		.loc 1 117 0
 1469 0218 3146     		mov	r1, r6
 1470 021a 3046     		mov	r0, r6
 1471              	.LVL349:
 1472 021c FFF7FEFF 		bl	__aeabi_fadd
 1473              	.LVL350:
 1474 0220 8146     		mov	r9, r0
 1475 0222 0146     		mov	r1, r0
 1476 0224 4046     		mov	r0, r8
 1477 0226 FFF7FEFF 		bl	__aeabi_fmul
 1478              	.LVL351:
 1479 022a 0746     		mov	r7, r0
 1480              	.LVL352:
 118:Madgwick.c    **** 		_2q0mz = 2.0f * q0 * mz;
 1481              		.loc 1 118 0
 1482 022c 4946     		mov	r1, r9
 1483 022e 0398     		ldr	r0, [sp, #12]	@ float
 1484              	.LVL353:
 1485 0230 FFF7FEFF 		bl	__aeabi_fmul
 1486              	.LVL354:
 1487 0234 1290     		str	r0, [sp, #72]	@ float
 1488              	.LVL355:
 119:Madgwick.c    **** 		_2q1mx = 2.0f * q1 * mx;
 1489              		.loc 1 119 0
 1490 0236 4946     		mov	r1, r9
 1491 0238 5846     		mov	r0, fp
 1492              	.LVL356:
 1493 023a FFF7FEFF 		bl	__aeabi_fmul
 1494              	.LVL357:
 1495 023e 0590     		str	r0, [sp, #20]	@ float
 1496              	.LVL358:
 120:Madgwick.c    **** 		_2q0 = 2.0f * q0;
 1497              		.loc 1 120 0
 1498 0240 2946     		mov	r1, r5
 1499 0242 2846     		mov	r0, r5
 1500              	.LVL359:
 1501 0244 FFF7FEFF 		bl	__aeabi_fadd
 1502              	.LVL360:
 1503 0248 0A90     		str	r0, [sp, #40]	@ float
 1504 024a 0146     		mov	r1, r0
 1505 024c 4046     		mov	r0, r8
 1506 024e FFF7FEFF 		bl	__aeabi_fmul
 1507              	.LVL361:
 1508 0252 1390     		str	r0, [sp, #76]	@ float
 1509              	.LVL362:
ARM GAS  C:\Users\A85590\AppData\Local\Temp\ccOscRLT.s 			page 34


 123:Madgwick.c    **** 		_2q3 = 2.0f * q3;
 1510              		.loc 1 123 0
 1511 0254 2146     		mov	r1, r4
 1512 0256 2046     		mov	r0, r4
 1513              	.LVL363:
 1514 0258 FFF7FEFF 		bl	__aeabi_fadd
 1515              	.LVL364:
 1516 025c 0690     		str	r0, [sp, #24]	@ float
 1517              	.LVL365:
 124:Madgwick.c    **** 		_2q0q2 = 2.0f * q0 * q2;
 1518              		.loc 1 124 0
 1519 025e 5146     		mov	r1, r10
 1520 0260 5046     		mov	r0, r10
 1521              	.LVL366:
 1522 0262 FFF7FEFF 		bl	__aeabi_fadd
 1523              	.LVL367:
 1524 0266 1490     		str	r0, [sp, #80]	@ float
 1525              	.LVL368:
 125:Madgwick.c    **** 		_2q2q3 = 2.0f * q2 * q3;
 1526              		.loc 1 125 0
 1527 0268 4946     		mov	r1, r9
 1528 026a 2046     		mov	r0, r4
 1529              	.LVL369:
 1530 026c FFF7FEFF 		bl	__aeabi_fmul
 1531              	.LVL370:
 1532 0270 1A90     		str	r0, [sp, #104]	@ float
 1533              	.LVL371:
 126:Madgwick.c    **** 		q0q0 = q0 * q0;
 1534              		.loc 1 126 0
 1535 0272 0699     		ldr	r1, [sp, #24]	@ float
 1536 0274 5046     		mov	r0, r10
 1537              	.LVL372:
 1538 0276 FFF7FEFF 		bl	__aeabi_fmul
 1539              	.LVL373:
 1540 027a 1B90     		str	r0, [sp, #108]	@ float
 1541              	.LVL374:
 127:Madgwick.c    **** 		q0q1 = q0 * q1;
 1542              		.loc 1 127 0
 1543 027c 3146     		mov	r1, r6
 1544 027e 3046     		mov	r0, r6
 1545              	.LVL375:
 1546 0280 FFF7FEFF 		bl	__aeabi_fmul
 1547              	.LVL376:
 1548 0284 0990     		str	r0, [sp, #36]	@ float
 1549              	.LVL377:
 128:Madgwick.c    **** 		q0q2 = q0 * q2;
 1550              		.loc 1 128 0
 1551 0286 3146     		mov	r1, r6
 1552 0288 2846     		mov	r0, r5
 1553              	.LVL378:
 1554 028a FFF7FEFF 		bl	__aeabi_fmul
 1555              	.LVL379:
 1556 028e 1190     		str	r0, [sp, #68]	@ float
 1557              	.LVL380:
 129:Madgwick.c    **** 		q0q3 = q0 * q3;
 1558              		.loc 1 129 0
 1559 0290 3146     		mov	r1, r6
ARM GAS  C:\Users\A85590\AppData\Local\Temp\ccOscRLT.s 			page 35


 1560 0292 2046     		mov	r0, r4
 1561              	.LVL381:
 1562 0294 FFF7FEFF 		bl	__aeabi_fmul
 1563              	.LVL382:
 1564 0298 1590     		str	r0, [sp, #84]	@ float
 1565              	.LVL383:
 130:Madgwick.c    **** 		q1q1 = q1 * q1;
 1566              		.loc 1 130 0
 1567 029a 3146     		mov	r1, r6
 1568 029c 5046     		mov	r0, r10
 1569              	.LVL384:
 1570 029e FFF7FEFF 		bl	__aeabi_fmul
 1571              	.LVL385:
 1572 02a2 1C90     		str	r0, [sp, #112]	@ float
 1573              	.LVL386:
 131:Madgwick.c    **** 		q1q2 = q1 * q2;
 1574              		.loc 1 131 0
 1575 02a4 2946     		mov	r1, r5
 1576 02a6 2846     		mov	r0, r5
 1577              	.LVL387:
 1578 02a8 FFF7FEFF 		bl	__aeabi_fmul
 1579              	.LVL388:
 1580 02ac 0790     		str	r0, [sp, #28]	@ float
 1581              	.LVL389:
 132:Madgwick.c    **** 		q1q3 = q1 * q3;
 1582              		.loc 1 132 0
 1583 02ae 2146     		mov	r1, r4
 1584 02b0 2846     		mov	r0, r5
 1585              	.LVL390:
 1586 02b2 FFF7FEFF 		bl	__aeabi_fmul
 1587              	.LVL391:
 1588 02b6 1D90     		str	r0, [sp, #116]	@ float
 1589              	.LVL392:
 133:Madgwick.c    **** 		q2q2 = q2 * q2;
 1590              		.loc 1 133 0
 1591 02b8 5146     		mov	r1, r10
 1592 02ba 2846     		mov	r0, r5
 1593              	.LVL393:
 1594 02bc FFF7FEFF 		bl	__aeabi_fmul
 1595              	.LVL394:
 1596 02c0 0B90     		str	r0, [sp, #44]	@ float
 1597              	.LVL395:
 134:Madgwick.c    **** 		q2q3 = q2 * q3;
 1598              		.loc 1 134 0
 1599 02c2 2146     		mov	r1, r4
 1600 02c4 2046     		mov	r0, r4
 1601              	.LVL396:
 1602 02c6 FFF7FEFF 		bl	__aeabi_fmul
 1603              	.LVL397:
 1604 02ca 0490     		str	r0, [sp, #16]	@ float
 1605              	.LVL398:
 135:Madgwick.c    **** 		q3q3 = q3 * q3;
 1606              		.loc 1 135 0
 1607 02cc 5146     		mov	r1, r10
 1608 02ce 2046     		mov	r0, r4
 1609              	.LVL399:
 1610 02d0 FFF7FEFF 		bl	__aeabi_fmul
ARM GAS  C:\Users\A85590\AppData\Local\Temp\ccOscRLT.s 			page 36


 1611              	.LVL400:
 1612 02d4 1E90     		str	r0, [sp, #120]	@ float
 1613              	.LVL401:
 136:Madgwick.c    **** 
 1614              		.loc 1 136 0
 1615 02d6 5146     		mov	r1, r10
 1616 02d8 5046     		mov	r0, r10
 1617              	.LVL402:
 1618 02da FFF7FEFF 		bl	__aeabi_fmul
 1619              	.LVL403:
 1620 02de 0C90     		str	r0, [sp, #48]	@ float
 1621              	.LVL404:
 139:Madgwick.c    **** 		hy = _2q0mx * q3 + my * q0q0 - _2q0mz * q1 + _2q1mx * q2 - my * q1q1 + my * q2q2 + _2q2 * mz * q3
 1622              		.loc 1 139 0
 1623 02e0 0999     		ldr	r1, [sp, #36]	@ float
 1624 02e2 4046     		mov	r0, r8
 1625              	.LVL405:
 1626 02e4 FFF7FEFF 		bl	__aeabi_fmul
 1627              	.LVL406:
 1628 02e8 0646     		mov	r6, r0
 1629 02ea 1299     		ldr	r1, [sp, #72]	@ float
 1630 02ec 5046     		mov	r0, r10
 1631 02ee FFF7FEFF 		bl	__aeabi_fmul
 1632              	.LVL407:
 1633 02f2 0146     		mov	r1, r0
 1634 02f4 3046     		mov	r0, r6
 1635 02f6 FFF7FEFF 		bl	__aeabi_fsub
 1636              	.LVL408:
 1637 02fa 0646     		mov	r6, r0
 1638 02fc 0599     		ldr	r1, [sp, #20]	@ float
 1639 02fe 2046     		mov	r0, r4
 1640 0300 FFF7FEFF 		bl	__aeabi_fmul
 1641              	.LVL409:
 1642 0304 0146     		mov	r1, r0
 1643 0306 3046     		mov	r0, r6
 1644 0308 FFF7FEFF 		bl	__aeabi_fadd
 1645              	.LVL410:
 1646 030c 0646     		mov	r6, r0
 1647 030e 0799     		ldr	r1, [sp, #28]	@ float
 1648 0310 4046     		mov	r0, r8
 1649 0312 FFF7FEFF 		bl	__aeabi_fmul
 1650              	.LVL411:
 1651 0316 0146     		mov	r1, r0
 1652 0318 3046     		mov	r0, r6
 1653 031a FFF7FEFF 		bl	__aeabi_fadd
 1654              	.LVL412:
 1655 031e 0646     		mov	r6, r0
 1656 0320 0A99     		ldr	r1, [sp, #40]	@ float
 1657 0322 0398     		ldr	r0, [sp, #12]	@ float
 1658 0324 FFF7FEFF 		bl	__aeabi_fmul
 1659              	.LVL413:
 1660 0328 0146     		mov	r1, r0
 1661 032a 2046     		mov	r0, r4
 1662 032c FFF7FEFF 		bl	__aeabi_fmul
 1663              	.LVL414:
 1664 0330 0146     		mov	r1, r0
 1665 0332 3046     		mov	r0, r6
ARM GAS  C:\Users\A85590\AppData\Local\Temp\ccOscRLT.s 			page 37


 1666 0334 FFF7FEFF 		bl	__aeabi_fadd
 1667              	.LVL415:
 1668 0338 0646     		mov	r6, r0
 1669 033a 0A99     		ldr	r1, [sp, #40]	@ float
 1670 033c 5846     		mov	r0, fp
 1671 033e FFF7FEFF 		bl	__aeabi_fmul
 1672              	.LVL416:
 1673 0342 0146     		mov	r1, r0
 1674 0344 5046     		mov	r0, r10
 1675 0346 FFF7FEFF 		bl	__aeabi_fmul
 1676              	.LVL417:
 1677 034a 0146     		mov	r1, r0
 1678 034c 3046     		mov	r0, r6
 1679 034e FFF7FEFF 		bl	__aeabi_fadd
 1680              	.LVL418:
 1681 0352 0646     		mov	r6, r0
 1682 0354 0499     		ldr	r1, [sp, #16]	@ float
 1683 0356 4046     		mov	r0, r8
 1684 0358 FFF7FEFF 		bl	__aeabi_fmul
 1685              	.LVL419:
 1686 035c 0146     		mov	r1, r0
 1687 035e 3046     		mov	r0, r6
 1688 0360 FFF7FEFF 		bl	__aeabi_fsub
 1689              	.LVL420:
 1690 0364 0646     		mov	r6, r0
 1691 0366 0C99     		ldr	r1, [sp, #48]	@ float
 1692 0368 4046     		mov	r0, r8
 1693 036a FFF7FEFF 		bl	__aeabi_fmul
 1694              	.LVL421:
 1695 036e 0146     		mov	r1, r0
 1696 0370 3046     		mov	r0, r6
 1697 0372 FFF7FEFF 		bl	__aeabi_fsub
 1698              	.LVL422:
 1699 0376 0646     		mov	r6, r0
 1700              	.LVL423:
 140:Madgwick.c    **** 		_2bx = sqrtf(hx * hx + hy * hy);
 1701              		.loc 1 140 0
 1702 0378 3946     		mov	r1, r7
 1703 037a 5046     		mov	r0, r10
 1704              	.LVL424:
 1705 037c FFF7FEFF 		bl	__aeabi_fmul
 1706              	.LVL425:
 1707 0380 0890     		str	r0, [sp, #32]	@ float
 1708 0382 0999     		ldr	r1, [sp, #36]	@ float
 1709 0384 0398     		ldr	r0, [sp, #12]	@ float
 1710 0386 FFF7FEFF 		bl	__aeabi_fmul
 1711              	.LVL426:
 1712 038a 0146     		mov	r1, r0
 1713 038c 0898     		ldr	r0, [sp, #32]	@ float
 1714 038e FFF7FEFF 		bl	__aeabi_fadd
 1715              	.LVL427:
 1716 0392 0890     		str	r0, [sp, #32]	@ float
 1717 0394 0599     		ldr	r1, [sp, #20]	@ float
 1718 0396 2846     		mov	r0, r5
 1719 0398 FFF7FEFF 		bl	__aeabi_fmul
 1720              	.LVL428:
 1721 039c 0146     		mov	r1, r0
ARM GAS  C:\Users\A85590\AppData\Local\Temp\ccOscRLT.s 			page 38


 1722 039e 0898     		ldr	r0, [sp, #32]	@ float
 1723 03a0 FFF7FEFF 		bl	__aeabi_fsub
 1724              	.LVL429:
 1725 03a4 0546     		mov	r5, r0
 1726 03a6 1399     		ldr	r1, [sp, #76]	@ float
 1727 03a8 2046     		mov	r0, r4
 1728 03aa FFF7FEFF 		bl	__aeabi_fmul
 1729              	.LVL430:
 1730 03ae 0146     		mov	r1, r0
 1731 03b0 2846     		mov	r0, r5
 1732 03b2 FFF7FEFF 		bl	__aeabi_fadd
 1733              	.LVL431:
 1734 03b6 0446     		mov	r4, r0
 1735 03b8 0799     		ldr	r1, [sp, #28]	@ float
 1736 03ba 039D     		ldr	r5, [sp, #12]	@ float
 1737 03bc 2846     		mov	r0, r5
 1738 03be FFF7FEFF 		bl	__aeabi_fmul
 1739              	.LVL432:
 1740 03c2 0146     		mov	r1, r0
 1741 03c4 2046     		mov	r0, r4
 1742 03c6 FFF7FEFF 		bl	__aeabi_fsub
 1743              	.LVL433:
 1744 03ca 0446     		mov	r4, r0
 1745 03cc 0499     		ldr	r1, [sp, #16]	@ float
 1746 03ce 2846     		mov	r0, r5
 1747 03d0 FFF7FEFF 		bl	__aeabi_fmul
 1748              	.LVL434:
 1749 03d4 0146     		mov	r1, r0
 1750 03d6 2046     		mov	r0, r4
 1751 03d8 FFF7FEFF 		bl	__aeabi_fadd
 1752              	.LVL435:
 1753 03dc 0446     		mov	r4, r0
 1754 03de 0699     		ldr	r1, [sp, #24]	@ float
 1755 03e0 5846     		mov	r0, fp
 1756 03e2 FFF7FEFF 		bl	__aeabi_fmul
 1757              	.LVL436:
 1758 03e6 0146     		mov	r1, r0
 1759 03e8 5046     		mov	r0, r10
 1760 03ea FFF7FEFF 		bl	__aeabi_fmul
 1761              	.LVL437:
 1762 03ee 0146     		mov	r1, r0
 1763 03f0 2046     		mov	r0, r4
 1764 03f2 FFF7FEFF 		bl	__aeabi_fadd
 1765              	.LVL438:
 1766 03f6 0446     		mov	r4, r0
 1767 03f8 0C99     		ldr	r1, [sp, #48]	@ float
 1768 03fa AA46     		mov	r10, r5
 1769 03fc 2846     		mov	r0, r5
 1770 03fe FFF7FEFF 		bl	__aeabi_fmul
 1771              	.LVL439:
 1772 0402 0146     		mov	r1, r0
 1773 0404 2046     		mov	r0, r4
 1774 0406 FFF7FEFF 		bl	__aeabi_fsub
 1775              	.LVL440:
 1776 040a 0446     		mov	r4, r0
 1777              	.LVL441:
 141:Madgwick.c    **** 		_2bz = -_2q0mx * q2 + _2q0my * q1 + mz * q0q0 + _2q1mx * q3 - mz * q1q1 + _2q2 * my * q3 - mz * q
ARM GAS  C:\Users\A85590\AppData\Local\Temp\ccOscRLT.s 			page 39


 1778              		.loc 1 141 0
 1779 040c 3146     		mov	r1, r6
 1780 040e 3046     		mov	r0, r6
 1781              	.LVL442:
 1782 0410 FFF7FEFF 		bl	__aeabi_fmul
 1783              	.LVL443:
 1784 0414 0546     		mov	r5, r0
 1785 0416 2146     		mov	r1, r4
 1786 0418 2046     		mov	r0, r4
 1787 041a FFF7FEFF 		bl	__aeabi_fmul
 1788              	.LVL444:
 1789 041e 0146     		mov	r1, r0
 1790 0420 2846     		mov	r0, r5
 1791 0422 FFF7FEFF 		bl	__aeabi_fadd
 1792              	.LVL445:
 1793 0426 FFF7FEFF 		bl	sqrtf
 1794              	.LVL446:
 1795 042a 0446     		mov	r4, r0
 1796              	.LVL447:
 142:Madgwick.c    **** 		_4bx = 2.0f * _2bx;
 1797              		.loc 1 142 0
 1798 042c 07F10040 		add	r0, r7, #-2147483648
 1799              	.LVL448:
 1800 0430 A74F     		ldr	r7, .L42
 1801              	.LVL449:
 1802 0432 BA68     		ldr	r2, [r7, #8]	@ float
 1803 0434 0592     		str	r2, [sp, #20]	@ float
 1804              	.LVL450:
 1805 0436 1146     		mov	r1, r2
 1806 0438 FFF7FEFF 		bl	__aeabi_fmul
 1807              	.LVL451:
 1808 043c 0546     		mov	r5, r0
 1809 043e 3E68     		ldr	r6, [r7]	@ float
 1810              	.LVL452:
 1811 0440 0896     		str	r6, [sp, #32]	@ float
 1812 0442 3146     		mov	r1, r6
 1813 0444 1298     		ldr	r0, [sp, #72]	@ float
 1814 0446 FFF7FEFF 		bl	__aeabi_fmul
 1815              	.LVL453:
 1816 044a 0146     		mov	r1, r0
 1817 044c 2846     		mov	r0, r5
 1818 044e FFF7FEFF 		bl	__aeabi_fadd
 1819              	.LVL454:
 1820 0452 0546     		mov	r5, r0
 1821 0454 0999     		ldr	r1, [sp, #36]	@ float
 1822 0456 5846     		mov	r0, fp
 1823 0458 FFF7FEFF 		bl	__aeabi_fmul
 1824              	.LVL455:
 1825 045c 0146     		mov	r1, r0
 1826 045e 2846     		mov	r0, r5
 1827 0460 FFF7FEFF 		bl	__aeabi_fadd
 1828              	.LVL456:
 1829 0464 0546     		mov	r5, r0
 1830 0466 FE68     		ldr	r6, [r7, #12]	@ float
 1831 0468 3146     		mov	r1, r6
 1832 046a 1398     		ldr	r0, [sp, #76]	@ float
 1833 046c FFF7FEFF 		bl	__aeabi_fmul
ARM GAS  C:\Users\A85590\AppData\Local\Temp\ccOscRLT.s 			page 40


 1834              	.LVL457:
 1835 0470 0146     		mov	r1, r0
 1836 0472 2846     		mov	r0, r5
 1837 0474 FFF7FEFF 		bl	__aeabi_fadd
 1838              	.LVL458:
 1839 0478 0546     		mov	r5, r0
 1840 047a 0799     		ldr	r1, [sp, #28]	@ float
 1841 047c 5846     		mov	r0, fp
 1842 047e FFF7FEFF 		bl	__aeabi_fmul
 1843              	.LVL459:
 1844 0482 0146     		mov	r1, r0
 1845 0484 2846     		mov	r0, r5
 1846 0486 FFF7FEFF 		bl	__aeabi_fsub
 1847              	.LVL460:
 1848 048a 0546     		mov	r5, r0
 1849 048c 0699     		ldr	r1, [sp, #24]	@ float
 1850 048e CDF80CA0 		str	r10, [sp, #12]	@ float
 1851              	.LVL461:
 1852 0492 5046     		mov	r0, r10
 1853 0494 FFF7FEFF 		bl	__aeabi_fmul
 1854              	.LVL462:
 1855 0498 0146     		mov	r1, r0
 1856 049a 0996     		str	r6, [sp, #36]	@ float
 1857              	.LVL463:
 1858 049c 3046     		mov	r0, r6
 1859 049e FFF7FEFF 		bl	__aeabi_fmul
 1860              	.LVL464:
 1861 04a2 0146     		mov	r1, r0
 1862 04a4 2846     		mov	r0, r5
 1863 04a6 FFF7FEFF 		bl	__aeabi_fadd
 1864              	.LVL465:
 1865 04aa 0546     		mov	r5, r0
 1866 04ac DDF810A0 		ldr	r10, [sp, #16]	@ float
 1867              	.LVL466:
 1868 04b0 5146     		mov	r1, r10
 1869 04b2 5846     		mov	r0, fp
 1870 04b4 FFF7FEFF 		bl	__aeabi_fmul
 1871              	.LVL467:
 1872 04b8 0146     		mov	r1, r0
 1873 04ba 2846     		mov	r0, r5
 1874 04bc FFF7FEFF 		bl	__aeabi_fsub
 1875              	.LVL468:
 1876 04c0 0546     		mov	r5, r0
 1877 04c2 0C99     		ldr	r1, [sp, #48]	@ float
 1878 04c4 5846     		mov	r0, fp
 1879 04c6 FFF7FEFF 		bl	__aeabi_fmul
 1880              	.LVL469:
 1881 04ca 0146     		mov	r1, r0
 1882 04cc 2846     		mov	r0, r5
 1883 04ce FFF7FEFF 		bl	__aeabi_fadd
 1884              	.LVL470:
 1885 04d2 0546     		mov	r5, r0
 1886              	.LVL471:
 143:Madgwick.c    **** 		_4bz = 2.0f * _2bz;
 1887              		.loc 1 143 0
 1888 04d4 2146     		mov	r1, r4
 1889 04d6 2046     		mov	r0, r4
ARM GAS  C:\Users\A85590\AppData\Local\Temp\ccOscRLT.s 			page 41


 1890              	.LVL472:
 1891 04d8 FFF7FEFF 		bl	__aeabi_fadd
 1892              	.LVL473:
 1893 04dc 1F90     		str	r0, [sp, #124]	@ float
 1894              	.LVL474:
 144:Madgwick.c    **** 
 1895              		.loc 1 144 0
 1896 04de 2946     		mov	r1, r5
 1897 04e0 2846     		mov	r0, r5
 1898              	.LVL475:
 1899 04e2 FFF7FEFF 		bl	__aeabi_fadd
 1900              	.LVL476:
 1901 04e6 1690     		str	r0, [sp, #88]	@ float
 1902              	.LVL477:
 147:Madgwick.c    **** 		s1 = _2q3 * (2.0f * q1q3 - _2q0q2 - ax) + _2q0 * (2.0f * q0q1 + _2q2q3 - ay) - 4.0f * q1 * (1 - 2
 1903              		.loc 1 147 0
 1904 04e8 069B     		ldr	r3, [sp, #24]
 1905 04ea 03F10046 		add	r6, r3, #-2147483648
 1906 04ee DDF82CC0 		ldr	ip, [sp, #44]	@ float
 1907 04f2 6146     		mov	r1, ip
 1908 04f4 6046     		mov	r0, ip
 1909              	.LVL478:
 1910 04f6 FFF7FEFF 		bl	__aeabi_fadd
 1911              	.LVL479:
 1912 04fa 1A99     		ldr	r1, [sp, #104]	@ float
 1913 04fc FFF7FEFF 		bl	__aeabi_fsub
 1914              	.LVL480:
 1915 0500 1799     		ldr	r1, [sp, #92]	@ float
 1916 0502 FFF7FEFF 		bl	__aeabi_fsub
 1917              	.LVL481:
 1918 0506 1290     		str	r0, [sp, #72]	@ float
 1919              	.LVL482:
 1920 0508 0146     		mov	r1, r0
 1921 050a 3046     		mov	r0, r6
 1922 050c FFF7FEFF 		bl	__aeabi_fmul
 1923              	.LVL483:
 1924 0510 0646     		mov	r6, r0
 1925 0512 119B     		ldr	r3, [sp, #68]	@ float
 1926 0514 1946     		mov	r1, r3
 1927 0516 1846     		mov	r0, r3
 1928 0518 FFF7FEFF 		bl	__aeabi_fadd
 1929              	.LVL484:
 1930 051c 0146     		mov	r1, r0
 1931 051e 1B98     		ldr	r0, [sp, #108]	@ float
 1932 0520 FFF7FEFF 		bl	__aeabi_fadd
 1933              	.LVL485:
 1934 0524 1899     		ldr	r1, [sp, #96]	@ float
 1935 0526 FFF7FEFF 		bl	__aeabi_fsub
 1936              	.LVL486:
 1937 052a 1390     		str	r0, [sp, #76]	@ float
 1938              	.LVL487:
 1939 052c 0146     		mov	r1, r0
 1940 052e 0A98     		ldr	r0, [sp, #40]	@ float
 1941 0530 FFF7FEFF 		bl	__aeabi_fmul
 1942              	.LVL488:
 1943 0534 0146     		mov	r1, r0
 1944 0536 3046     		mov	r0, r6
ARM GAS  C:\Users\A85590\AppData\Local\Temp\ccOscRLT.s 			page 42


 1945 0538 FFF7FEFF 		bl	__aeabi_fadd
 1946              	.LVL489:
 1947 053c 0646     		mov	r6, r0
 1948 053e 2946     		mov	r1, r5
 1949 0540 0598     		ldr	r0, [sp, #20]	@ float
 1950 0542 FFF7FEFF 		bl	__aeabi_fmul
 1951              	.LVL490:
 1952 0546 1790     		str	r0, [sp, #92]	@ float
 1953              	.LVL491:
 1954 0548 CDF810A0 		str	r10, [sp, #16]	@ float
 1955              	.LVL492:
 1956 054c 5146     		mov	r1, r10
 1957 054e 4FF07C50 		mov	r0, #1056964608
 1958 0552 FFF7FEFF 		bl	__aeabi_fsub
 1959              	.LVL493:
 1960 0556 0C99     		ldr	r1, [sp, #48]	@ float
 1961 0558 FFF7FEFF 		bl	__aeabi_fsub
 1962              	.LVL494:
 1963 055c 0146     		mov	r1, r0
 1964 055e 2046     		mov	r0, r4
 1965 0560 FFF7FEFF 		bl	__aeabi_fmul
 1966              	.LVL495:
 1967 0564 8246     		mov	r10, r0
 1968 0566 1599     		ldr	r1, [sp, #84]	@ float
 1969 0568 0B98     		ldr	r0, [sp, #44]	@ float
 1970 056a FFF7FEFF 		bl	__aeabi_fsub
 1971              	.LVL496:
 1972 056e 0146     		mov	r1, r0
 1973 0570 2846     		mov	r0, r5
 1974 0572 FFF7FEFF 		bl	__aeabi_fmul
 1975              	.LVL497:
 1976 0576 0146     		mov	r1, r0
 1977 0578 5046     		mov	r0, r10
 1978 057a FFF7FEFF 		bl	__aeabi_fadd
 1979              	.LVL498:
 1980 057e 4146     		mov	r1, r8
 1981 0580 FFF7FEFF 		bl	__aeabi_fsub
 1982              	.LVL499:
 1983 0584 0C90     		str	r0, [sp, #48]	@ float
 1984              	.LVL500:
 1985 0586 0146     		mov	r1, r0
 1986 0588 1798     		ldr	r0, [sp, #92]	@ float
 1987 058a FFF7FEFF 		bl	__aeabi_fmul
 1988              	.LVL501:
 1989 058e 0146     		mov	r1, r0
 1990 0590 3046     		mov	r0, r6
 1991 0592 FFF7FEFF 		bl	__aeabi_fsub
 1992              	.LVL502:
 1993 0596 8246     		mov	r10, r0
 1994 0598 04F10046 		add	r6, r4, #-2147483648
 1995 059c 3146     		mov	r1, r6
 1996 059e 0998     		ldr	r0, [sp, #36]	@ float
 1997 05a0 FFF7FEFF 		bl	__aeabi_fmul
 1998              	.LVL503:
 1999 05a4 8046     		mov	r8, r0
 2000              	.LVL504:
 2001 05a6 2946     		mov	r1, r5
ARM GAS  C:\Users\A85590\AppData\Local\Temp\ccOscRLT.s 			page 43


 2002 05a8 0898     		ldr	r0, [sp, #32]	@ float
 2003 05aa FFF7FEFF 		bl	__aeabi_fmul
 2004              	.LVL505:
 2005 05ae 1890     		str	r0, [sp, #96]	@ float
 2006              	.LVL506:
 2007 05b0 0146     		mov	r1, r0
 2008 05b2 4046     		mov	r0, r8
 2009 05b4 FFF7FEFF 		bl	__aeabi_fadd
 2010              	.LVL507:
 2011 05b8 8046     		mov	r8, r0
 2012 05ba 1C99     		ldr	r1, [sp, #112]	@ float
 2013 05bc 1D98     		ldr	r0, [sp, #116]	@ float
 2014 05be FFF7FEFF 		bl	__aeabi_fsub
 2015              	.LVL508:
 2016 05c2 0146     		mov	r1, r0
 2017 05c4 2046     		mov	r0, r4
 2018 05c6 FFF7FEFF 		bl	__aeabi_fmul
 2019              	.LVL509:
 2020 05ca 1A90     		str	r0, [sp, #104]	@ float
 2021              	.LVL510:
 2022 05cc 1E99     		ldr	r1, [sp, #120]	@ float
 2023 05ce 1198     		ldr	r0, [sp, #68]	@ float
 2024 05d0 FFF7FEFF 		bl	__aeabi_fadd
 2025              	.LVL511:
 2026 05d4 0146     		mov	r1, r0
 2027 05d6 2846     		mov	r0, r5
 2028 05d8 FFF7FEFF 		bl	__aeabi_fmul
 2029              	.LVL512:
 2030 05dc 0146     		mov	r1, r0
 2031 05de 1A98     		ldr	r0, [sp, #104]	@ float
 2032 05e0 FFF7FEFF 		bl	__aeabi_fadd
 2033              	.LVL513:
 2034 05e4 0399     		ldr	r1, [sp, #12]	@ float
 2035 05e6 FFF7FEFF 		bl	__aeabi_fsub
 2036              	.LVL514:
 2037 05ea 0390     		str	r0, [sp, #12]	@ float
 2038              	.LVL515:
 2039 05ec 0146     		mov	r1, r0
 2040 05ee 4046     		mov	r0, r8
 2041 05f0 FFF7FEFF 		bl	__aeabi_fmul
 2042              	.LVL516:
 2043 05f4 0146     		mov	r1, r0
 2044 05f6 5046     		mov	r0, r10
 2045 05f8 FFF7FEFF 		bl	__aeabi_fadd
 2046              	.LVL517:
 2047 05fc 8046     		mov	r8, r0
 2048 05fe 0599     		ldr	r1, [sp, #20]	@ float
 2049 0600 2046     		mov	r0, r4
 2050 0602 FFF7FEFF 		bl	__aeabi_fmul
 2051              	.LVL518:
 2052 0606 8246     		mov	r10, r0
 2053 0608 0B99     		ldr	r1, [sp, #44]	@ float
 2054 060a 1598     		ldr	r0, [sp, #84]	@ float
 2055 060c FFF7FEFF 		bl	__aeabi_fadd
 2056              	.LVL519:
 2057 0610 0146     		mov	r1, r0
 2058 0612 2046     		mov	r0, r4
ARM GAS  C:\Users\A85590\AppData\Local\Temp\ccOscRLT.s 			page 44


 2059 0614 FFF7FEFF 		bl	__aeabi_fmul
 2060              	.LVL520:
 2061 0618 0B90     		str	r0, [sp, #44]	@ float
 2062              	.LVL521:
 2063 061a 0799     		ldr	r1, [sp, #28]	@ float
 2064 061c 4FF07C50 		mov	r0, #1056964608
 2065 0620 FFF7FEFF 		bl	__aeabi_fsub
 2066              	.LVL522:
 2067 0624 0499     		ldr	r1, [sp, #16]	@ float
 2068 0626 FFF7FEFF 		bl	__aeabi_fsub
 2069              	.LVL523:
 2070 062a 0146     		mov	r1, r0
 2071 062c 2846     		mov	r0, r5
 2072 062e FFF7FEFF 		bl	__aeabi_fmul
 2073              	.LVL524:
 2074 0632 0146     		mov	r1, r0
 2075 0634 0B98     		ldr	r0, [sp, #44]	@ float
 2076 0636 FFF7FEFF 		bl	__aeabi_fadd
 2077              	.LVL525:
 2078 063a 5946     		mov	r1, fp
 2079 063c FFF7FEFF 		bl	__aeabi_fsub
 2080              	.LVL526:
 2081 0640 0B90     		str	r0, [sp, #44]	@ float
 2082 0642 0146     		mov	r1, r0
 2083 0644 5046     		mov	r0, r10
 2084 0646 FFF7FEFF 		bl	__aeabi_fmul
 2085              	.LVL527:
 2086 064a 0146     		mov	r1, r0
 2087 064c 4046     		mov	r0, r8
 2088 064e FFF7FEFF 		bl	__aeabi_fadd
 2089              	.LVL528:
 2090 0652 1190     		str	r0, [sp, #68]	@ float
 2091              	.LVL529:
 148:Madgwick.c    **** 		s2 = -_2q0 * (2.0f * q1q3 - _2q0q2 - ax) + _2q3 * (2.0f * q0q1 + _2q2q3 - ay) - 4.0f * q2 * (1 - 
 2092              		.loc 1 148 0
 2093 0654 1299     		ldr	r1, [sp, #72]	@ float
 2094 0656 1498     		ldr	r0, [sp, #80]	@ float
 2095              	.LVL530:
 2096 0658 FFF7FEFF 		bl	__aeabi_fmul
 2097              	.LVL531:
 2098 065c 8046     		mov	r8, r0
 2099 065e 1399     		ldr	r1, [sp, #76]	@ float
 2100 0660 4846     		mov	r0, r9
 2101 0662 FFF7FEFF 		bl	__aeabi_fmul
 2102              	.LVL532:
 2103 0666 0146     		mov	r1, r0
 2104 0668 4046     		mov	r0, r8
 2105 066a FFF7FEFF 		bl	__aeabi_fadd
 2106              	.LVL533:
 2107 066e 8046     		mov	r8, r0
 2108 0670 4FF08141 		mov	r1, #1082130432
 2109 0674 0898     		ldr	r0, [sp, #32]	@ float
 2110 0676 FFF7FEFF 		bl	__aeabi_fmul
 2111              	.LVL534:
 2112 067a 8346     		mov	fp, r0
 2113              	.LVL535:
 2114 067c DDF81CE0 		ldr	lr, [sp, #28]	@ float
ARM GAS  C:\Users\A85590\AppData\Local\Temp\ccOscRLT.s 			page 45


 2115 0680 7146     		mov	r1, lr
 2116 0682 7046     		mov	r0, lr
 2117 0684 FFF7FEFF 		bl	__aeabi_fadd
 2118              	.LVL536:
 2119 0688 0146     		mov	r1, r0
 2120 068a 4FF07E50 		mov	r0, #1065353216
 2121 068e FFF7FEFF 		bl	__aeabi_fsub
 2122              	.LVL537:
 2123 0692 0790     		str	r0, [sp, #28]	@ float
 2124              	.LVL538:
 2125 0694 049B     		ldr	r3, [sp, #16]	@ float
 2126 0696 1946     		mov	r1, r3
 2127 0698 1846     		mov	r0, r3
 2128 069a FFF7FEFF 		bl	__aeabi_fadd
 2129              	.LVL539:
 2130 069e 0146     		mov	r1, r0
 2131 06a0 0798     		ldr	r0, [sp, #28]	@ float
 2132 06a2 FFF7FEFF 		bl	__aeabi_fsub
 2133              	.LVL540:
 2134 06a6 1999     		ldr	r1, [sp, #100]	@ float
 2135 06a8 FFF7FEFF 		bl	__aeabi_fsub
 2136              	.LVL541:
 2137 06ac 0146     		mov	r1, r0
 2138 06ae 0490     		str	r0, [sp, #16]	@ float
 2139 06b0 5846     		mov	r0, fp
 2140 06b2 FFF7FEFF 		bl	__aeabi_fmul
 2141              	.LVL542:
 2142 06b6 0146     		mov	r1, r0
 2143 06b8 4046     		mov	r0, r8
 2144 06ba FFF7FEFF 		bl	__aeabi_fsub
 2145              	.LVL543:
 2146 06be 8346     		mov	fp, r0
 2147 06c0 2946     		mov	r1, r5
 2148 06c2 0998     		ldr	r0, [sp, #36]	@ float
 2149 06c4 FFF7FEFF 		bl	__aeabi_fmul
 2150              	.LVL544:
 2151 06c8 8046     		mov	r8, r0
 2152 06ca 0146     		mov	r1, r0
 2153 06cc 0C98     		ldr	r0, [sp, #48]	@ float
 2154 06ce 01E0     		b	.L43
 2155              	.L44:
 2156              		.align	2
 2157              	.L42:
 2158 06d0 00000000 		.word	.LANCHOR0
 2159              	.L43:
 2160 06d4 FFF7FEFF 		bl	__aeabi_fmul
 2161              	.LVL545:
 2162 06d8 0146     		mov	r1, r0
 2163 06da 5846     		mov	r0, fp
 2164 06dc FFF7FEFF 		bl	__aeabi_fadd
 2165              	.LVL546:
 2166 06e0 8346     		mov	fp, r0
 2167 06e2 7F68     		ldr	r7, [r7, #4]	@ float
 2168 06e4 3946     		mov	r1, r7
 2169 06e6 2846     		mov	r0, r5
 2170 06e8 FFF7FEFF 		bl	__aeabi_fmul
 2171              	.LVL547:
ARM GAS  C:\Users\A85590\AppData\Local\Temp\ccOscRLT.s 			page 46


 2172 06ec 0546     		mov	r5, r0
 2173              	.LVL548:
 2174 06ee 0146     		mov	r1, r0
 2175 06f0 5046     		mov	r0, r10
 2176 06f2 FFF7FEFF 		bl	__aeabi_fadd
 2177              	.LVL549:
 2178 06f6 0146     		mov	r1, r0
 2179 06f8 0398     		ldr	r0, [sp, #12]	@ float
 2180 06fa FFF7FEFF 		bl	__aeabi_fmul
 2181              	.LVL550:
 2182 06fe 0146     		mov	r1, r0
 2183 0700 5846     		mov	r0, fp
 2184 0702 FFF7FEFF 		bl	__aeabi_fadd
 2185              	.LVL551:
 2186 0706 8246     		mov	r10, r0
 2187 0708 0999     		ldr	r1, [sp, #36]	@ float
 2188 070a 2046     		mov	r0, r4
 2189 070c FFF7FEFF 		bl	__aeabi_fmul
 2190              	.LVL552:
 2191 0710 8346     		mov	fp, r0
 2192 0712 1699     		ldr	r1, [sp, #88]	@ float
 2193 0714 0898     		ldr	r0, [sp, #32]	@ float
 2194 0716 FFF7FEFF 		bl	__aeabi_fmul
 2195              	.LVL553:
 2196 071a 0146     		mov	r1, r0
 2197 071c 5846     		mov	r0, fp
 2198 071e FFF7FEFF 		bl	__aeabi_fsub
 2199              	.LVL554:
 2200 0722 0146     		mov	r1, r0
 2201 0724 0B98     		ldr	r0, [sp, #44]	@ float
 2202 0726 FFF7FEFF 		bl	__aeabi_fmul
 2203              	.LVL555:
 2204 072a 0146     		mov	r1, r0
 2205 072c 5046     		mov	r0, r10
 2206 072e FFF7FEFF 		bl	__aeabi_fadd
 2207              	.LVL556:
 2208 0732 8246     		mov	r10, r0
 2209              	.LVL557:
 149:Madgwick.c    **** 		s3 = _2q1 * (2.0f * q1q3 - _2q0q2 - ax) + _2q2 * (2.0f * q0q1 + _2q2q3 - ay) + (-_4bx * q3 + _2bz
 2210              		.loc 1 149 0
 2211 0734 09F10041 		add	r1, r9, #-2147483648
 2212 0738 1298     		ldr	r0, [sp, #72]	@ float
 2213              	.LVL558:
 2214 073a FFF7FEFF 		bl	__aeabi_fmul
 2215              	.LVL559:
 2216 073e 8346     		mov	fp, r0
 2217 0740 1399     		ldr	r1, [sp, #76]	@ float
 2218 0742 1498     		ldr	r0, [sp, #80]	@ float
 2219 0744 FFF7FEFF 		bl	__aeabi_fmul
 2220              	.LVL560:
 2221 0748 0146     		mov	r1, r0
 2222 074a 5846     		mov	r0, fp
 2223 074c FFF7FEFF 		bl	__aeabi_fadd
 2224              	.LVL561:
 2225 0750 8346     		mov	fp, r0
 2226 0752 4FF08141 		mov	r1, #1082130432
 2227 0756 0598     		ldr	r0, [sp, #20]	@ float
ARM GAS  C:\Users\A85590\AppData\Local\Temp\ccOscRLT.s 			page 47


 2228 0758 FFF7FEFF 		bl	__aeabi_fmul
 2229              	.LVL562:
 2230 075c 0146     		mov	r1, r0
 2231 075e 0498     		ldr	r0, [sp, #16]	@ float
 2232 0760 FFF7FEFF 		bl	__aeabi_fmul
 2233              	.LVL563:
 2234 0764 0146     		mov	r1, r0
 2235 0766 5846     		mov	r0, fp
 2236 0768 FFF7FEFF 		bl	__aeabi_fsub
 2237              	.LVL564:
 2238 076c 8346     		mov	fp, r0
 2239 076e 1F9B     		ldr	r3, [sp, #124]
 2240 0770 03F10049 		add	r9, r3, #-2147483648
 2241              	.LVL565:
 2242 0774 4946     		mov	r1, r9
 2243 0776 0598     		ldr	r0, [sp, #20]	@ float
 2244 0778 FFF7FEFF 		bl	__aeabi_fmul
 2245              	.LVL566:
 2246 077c 2946     		mov	r1, r5
 2247 077e FFF7FEFF 		bl	__aeabi_fsub
 2248              	.LVL567:
 2249 0782 0146     		mov	r1, r0
 2250 0784 0C98     		ldr	r0, [sp, #48]	@ float
 2251 0786 FFF7FEFF 		bl	__aeabi_fmul
 2252              	.LVL568:
 2253 078a 0146     		mov	r1, r0
 2254 078c 5846     		mov	r0, fp
 2255 078e FFF7FEFF 		bl	__aeabi_fadd
 2256              	.LVL569:
 2257 0792 8346     		mov	fp, r0
 2258 0794 0899     		ldr	r1, [sp, #32]	@ float
 2259 0796 2046     		mov	r0, r4
 2260 0798 FFF7FEFF 		bl	__aeabi_fmul
 2261              	.LVL570:
 2262 079c 0546     		mov	r5, r0
 2263 079e 0146     		mov	r1, r0
 2264 07a0 4046     		mov	r0, r8
 2265 07a2 FFF7FEFF 		bl	__aeabi_fadd
 2266              	.LVL571:
 2267 07a6 0146     		mov	r1, r0
 2268 07a8 0398     		ldr	r0, [sp, #12]	@ float
 2269 07aa FFF7FEFF 		bl	__aeabi_fmul
 2270              	.LVL572:
 2271 07ae 0146     		mov	r1, r0
 2272 07b0 5846     		mov	r0, fp
 2273 07b2 FFF7FEFF 		bl	__aeabi_fadd
 2274              	.LVL573:
 2275 07b6 8046     		mov	r8, r0
 2276 07b8 3946     		mov	r1, r7
 2277 07ba 2046     		mov	r0, r4
 2278 07bc FFF7FEFF 		bl	__aeabi_fmul
 2279              	.LVL574:
 2280 07c0 0446     		mov	r4, r0
 2281              	.LVL575:
 2282 07c2 1699     		ldr	r1, [sp, #88]	@ float
 2283 07c4 0598     		ldr	r0, [sp, #20]	@ float
 2284 07c6 FFF7FEFF 		bl	__aeabi_fmul
ARM GAS  C:\Users\A85590\AppData\Local\Temp\ccOscRLT.s 			page 48


 2285              	.LVL576:
 2286 07ca 0146     		mov	r1, r0
 2287 07cc 2046     		mov	r0, r4
 2288 07ce FFF7FEFF 		bl	__aeabi_fsub
 2289              	.LVL577:
 2290 07d2 0146     		mov	r1, r0
 2291 07d4 DDF82CB0 		ldr	fp, [sp, #44]	@ float
 2292 07d8 5846     		mov	r0, fp
 2293 07da FFF7FEFF 		bl	__aeabi_fmul
 2294              	.LVL578:
 2295 07de 0146     		mov	r1, r0
 2296 07e0 4046     		mov	r0, r8
 2297 07e2 FFF7FEFF 		bl	__aeabi_fadd
 2298              	.LVL579:
 2299 07e6 0446     		mov	r4, r0
 2300              	.LVL580:
 150:Madgwick.c    **** 		recipNorm = invSqrt(s0 * s0 + s1 * s1 + s2 * s2 + s3 * s3); // normalise step magnitude
 2301              		.loc 1 150 0
 2302 07e8 1299     		ldr	r1, [sp, #72]	@ float
 2303 07ea 0A98     		ldr	r0, [sp, #40]	@ float
 2304              	.LVL581:
 2305 07ec FFF7FEFF 		bl	__aeabi_fmul
 2306              	.LVL582:
 2307 07f0 8046     		mov	r8, r0
 2308 07f2 1399     		ldr	r1, [sp, #76]	@ float
 2309 07f4 0698     		ldr	r0, [sp, #24]	@ float
 2310 07f6 FFF7FEFF 		bl	__aeabi_fmul
 2311              	.LVL583:
 2312 07fa 0146     		mov	r1, r0
 2313 07fc 4046     		mov	r0, r8
 2314 07fe FFF7FEFF 		bl	__aeabi_fadd
 2315              	.LVL584:
 2316 0802 8046     		mov	r8, r0
 2317 0804 4946     		mov	r1, r9
 2318 0806 0998     		ldr	r0, [sp, #36]	@ float
 2319 0808 FFF7FEFF 		bl	__aeabi_fmul
 2320              	.LVL585:
 2321 080c 0146     		mov	r1, r0
 2322 080e 1898     		ldr	r0, [sp, #96]	@ float
 2323 0810 FFF7FEFF 		bl	__aeabi_fadd
 2324              	.LVL586:
 2325 0814 0146     		mov	r1, r0
 2326 0816 0C98     		ldr	r0, [sp, #48]	@ float
 2327 0818 FFF7FEFF 		bl	__aeabi_fmul
 2328              	.LVL587:
 2329 081c 0146     		mov	r1, r0
 2330 081e 4046     		mov	r0, r8
 2331 0820 FFF7FEFF 		bl	__aeabi_fadd
 2332              	.LVL588:
 2333 0824 8046     		mov	r8, r0
 2334 0826 3946     		mov	r1, r7
 2335 0828 3046     		mov	r0, r6
 2336 082a FFF7FEFF 		bl	__aeabi_fmul
 2337              	.LVL589:
 2338 082e 0146     		mov	r1, r0
 2339 0830 1798     		ldr	r0, [sp, #92]	@ float
 2340 0832 FFF7FEFF 		bl	__aeabi_fadd
ARM GAS  C:\Users\A85590\AppData\Local\Temp\ccOscRLT.s 			page 49


 2341              	.LVL590:
 2342 0836 0146     		mov	r1, r0
 2343 0838 0398     		ldr	r0, [sp, #12]	@ float
 2344 083a FFF7FEFF 		bl	__aeabi_fmul
 2345              	.LVL591:
 2346 083e 0146     		mov	r1, r0
 2347 0840 4046     		mov	r0, r8
 2348 0842 FFF7FEFF 		bl	__aeabi_fadd
 2349              	.LVL592:
 2350 0846 0746     		mov	r7, r0
 2351 0848 2946     		mov	r1, r5
 2352 084a 5846     		mov	r0, fp
 2353 084c FFF7FEFF 		bl	__aeabi_fmul
 2354              	.LVL593:
 2355 0850 0146     		mov	r1, r0
 2356 0852 3846     		mov	r0, r7
 2357 0854 FFF7FEFF 		bl	__aeabi_fadd
 2358              	.LVL594:
 2359 0858 0646     		mov	r6, r0
 2360              	.LVL595:
 151:Madgwick.c    **** 		s0 *= recipNorm;
 2361              		.loc 1 151 0
 2362 085a 119F     		ldr	r7, [sp, #68]	@ float
 2363 085c 3946     		mov	r1, r7
 2364 085e 3846     		mov	r0, r7
 2365              	.LVL596:
 2366 0860 FFF7FEFF 		bl	__aeabi_fmul
 2367              	.LVL597:
 2368 0864 0546     		mov	r5, r0
 2369 0866 5146     		mov	r1, r10
 2370 0868 5046     		mov	r0, r10
 2371 086a FFF7FEFF 		bl	__aeabi_fmul
 2372              	.LVL598:
 2373 086e 0146     		mov	r1, r0
 2374 0870 2846     		mov	r0, r5
 2375 0872 FFF7FEFF 		bl	__aeabi_fadd
 2376              	.LVL599:
 2377 0876 0546     		mov	r5, r0
 2378 0878 2146     		mov	r1, r4
 2379 087a 2046     		mov	r0, r4
 2380 087c FFF7FEFF 		bl	__aeabi_fmul
 2381              	.LVL600:
 2382 0880 0146     		mov	r1, r0
 2383 0882 2846     		mov	r0, r5
 2384 0884 FFF7FEFF 		bl	__aeabi_fadd
 2385              	.LVL601:
 2386 0888 0546     		mov	r5, r0
 2387 088a 3146     		mov	r1, r6
 2388 088c 3046     		mov	r0, r6
 2389 088e FFF7FEFF 		bl	__aeabi_fmul
 2390              	.LVL602:
 2391 0892 0146     		mov	r1, r0
 2392 0894 2846     		mov	r0, r5
 2393 0896 FFF7FEFF 		bl	__aeabi_fadd
 2394              	.LVL603:
 2395 089a FFF7FEFF 		bl	invSqrt
 2396              	.LVL604:
ARM GAS  C:\Users\A85590\AppData\Local\Temp\ccOscRLT.s 			page 50


 2397 089e 0546     		mov	r5, r0
 2398              	.LVL605:
 152:Madgwick.c    **** 		s1 *= recipNorm;
 2399              		.loc 1 152 0
 2400 08a0 0146     		mov	r1, r0
 2401 08a2 3846     		mov	r0, r7
 2402              	.LVL606:
 2403 08a4 FFF7FEFF 		bl	__aeabi_fmul
 2404              	.LVL607:
 2405 08a8 0746     		mov	r7, r0
 2406              	.LVL608:
 153:Madgwick.c    **** 		s2 *= recipNorm;
 2407              		.loc 1 153 0
 2408 08aa 2946     		mov	r1, r5
 2409 08ac 5046     		mov	r0, r10
 2410              	.LVL609:
 2411 08ae FFF7FEFF 		bl	__aeabi_fmul
 2412              	.LVL610:
 2413 08b2 8046     		mov	r8, r0
 2414              	.LVL611:
 154:Madgwick.c    **** 		s3 *= recipNorm;
 2415              		.loc 1 154 0
 2416 08b4 2946     		mov	r1, r5
 2417 08b6 2046     		mov	r0, r4
 2418              	.LVL612:
 2419 08b8 FFF7FEFF 		bl	__aeabi_fmul
 2420              	.LVL613:
 2421 08bc 0446     		mov	r4, r0
 2422              	.LVL614:
 155:Madgwick.c    **** 
 2423              		.loc 1 155 0
 2424 08be 2946     		mov	r1, r5
 2425 08c0 3046     		mov	r0, r6
 2426              	.LVL615:
 2427 08c2 FFF7FEFF 		bl	__aeabi_fmul
 2428              	.LVL616:
 2429 08c6 0646     		mov	r6, r0
 2430              	.LVL617:
 158:Madgwick.c    **** 		qDot2 -= beta * s1;
 2431              		.loc 1 158 0
 2432 08c8 414B     		ldr	r3, .L45
 2433 08ca 1D6A     		ldr	r5, [r3, #32]	@ float
 2434              	.LVL618:
 2435 08cc 2946     		mov	r1, r5
 2436 08ce 3846     		mov	r0, r7
 2437              	.LVL619:
 2438 08d0 FFF7FEFF 		bl	__aeabi_fmul
 2439              	.LVL620:
 2440 08d4 0146     		mov	r1, r0
 2441 08d6 0D98     		ldr	r0, [sp, #52]	@ float
 2442 08d8 FFF7FEFF 		bl	__aeabi_fsub
 2443              	.LVL621:
 2444 08dc 0D90     		str	r0, [sp, #52]	@ float
 2445              	.LVL622:
 159:Madgwick.c    **** 		qDot3 -= beta * s2;
 2446              		.loc 1 159 0
 2447 08de 2946     		mov	r1, r5
ARM GAS  C:\Users\A85590\AppData\Local\Temp\ccOscRLT.s 			page 51


 2448 08e0 4046     		mov	r0, r8
 2449              	.LVL623:
 2450 08e2 FFF7FEFF 		bl	__aeabi_fmul
 2451              	.LVL624:
 2452 08e6 0146     		mov	r1, r0
 2453 08e8 0E98     		ldr	r0, [sp, #56]	@ float
 2454 08ea FFF7FEFF 		bl	__aeabi_fsub
 2455              	.LVL625:
 2456 08ee 0E90     		str	r0, [sp, #56]	@ float
 2457              	.LVL626:
 160:Madgwick.c    **** 		qDot4 -= beta * s3;
 2458              		.loc 1 160 0
 2459 08f0 2946     		mov	r1, r5
 2460 08f2 2046     		mov	r0, r4
 2461              	.LVL627:
 2462 08f4 FFF7FEFF 		bl	__aeabi_fmul
 2463              	.LVL628:
 2464 08f8 0146     		mov	r1, r0
 2465 08fa 0F98     		ldr	r0, [sp, #60]	@ float
 2466 08fc FFF7FEFF 		bl	__aeabi_fsub
 2467              	.LVL629:
 2468 0900 0F90     		str	r0, [sp, #60]	@ float
 2469              	.LVL630:
 161:Madgwick.c    **** 	}
 2470              		.loc 1 161 0
 2471 0902 2946     		mov	r1, r5
 2472 0904 3046     		mov	r0, r6
 2473              	.LVL631:
 2474 0906 FFF7FEFF 		bl	__aeabi_fmul
 2475              	.LVL632:
 2476 090a 0146     		mov	r1, r0
 2477 090c 1098     		ldr	r0, [sp, #64]	@ float
 2478 090e FFF7FEFF 		bl	__aeabi_fsub
 2479              	.LVL633:
 2480 0912 1090     		str	r0, [sp, #64]	@ float
 2481              	.LVL634:
 2482              	.L33:
 165:Madgwick.c    **** 	q1 += qDot2 * invSampleFreq;
 2483              		.loc 1 165 0
 2484 0914 2E4C     		ldr	r4, .L45
 2485 0916 656A     		ldr	r5, [r4, #36]	@ float
 2486 0918 2946     		mov	r1, r5
 2487 091a 0D98     		ldr	r0, [sp, #52]	@ float
 2488 091c FFF7FEFF 		bl	__aeabi_fmul
 2489              	.LVL635:
 2490 0920 6168     		ldr	r1, [r4, #4]	@ float
 2491 0922 FFF7FEFF 		bl	__aeabi_fadd
 2492              	.LVL636:
 2493 0926 0746     		mov	r7, r0
 166:Madgwick.c    **** 	q2 += qDot3 * invSampleFreq;
 2494              		.loc 1 166 0
 2495 0928 2946     		mov	r1, r5
 2496 092a 0E98     		ldr	r0, [sp, #56]	@ float
 2497 092c FFF7FEFF 		bl	__aeabi_fmul
 2498              	.LVL637:
 2499 0930 2168     		ldr	r1, [r4]	@ float
 2500 0932 FFF7FEFF 		bl	__aeabi_fadd
ARM GAS  C:\Users\A85590\AppData\Local\Temp\ccOscRLT.s 			page 52


 2501              	.LVL638:
 2502 0936 8046     		mov	r8, r0
 167:Madgwick.c    **** 	q3 += qDot4 * invSampleFreq;
 2503              		.loc 1 167 0
 2504 0938 2946     		mov	r1, r5
 2505 093a 0F98     		ldr	r0, [sp, #60]	@ float
 2506 093c FFF7FEFF 		bl	__aeabi_fmul
 2507              	.LVL639:
 2508 0940 A168     		ldr	r1, [r4, #8]	@ float
 2509 0942 FFF7FEFF 		bl	__aeabi_fadd
 2510              	.LVL640:
 2511 0946 8146     		mov	r9, r0
 168:Madgwick.c    **** 
 2512              		.loc 1 168 0
 2513 0948 2946     		mov	r1, r5
 2514 094a 1098     		ldr	r0, [sp, #64]	@ float
 2515 094c FFF7FEFF 		bl	__aeabi_fmul
 2516              	.LVL641:
 2517 0950 E168     		ldr	r1, [r4, #12]	@ float
 2518 0952 FFF7FEFF 		bl	__aeabi_fadd
 2519              	.LVL642:
 2520 0956 0646     		mov	r6, r0
 171:Madgwick.c    **** 	q0 *= recipNorm;
 2521              		.loc 1 171 0
 2522 0958 3946     		mov	r1, r7
 2523 095a 3846     		mov	r0, r7
 2524 095c FFF7FEFF 		bl	__aeabi_fmul
 2525              	.LVL643:
 2526 0960 0546     		mov	r5, r0
 2527 0962 4146     		mov	r1, r8
 2528 0964 4046     		mov	r0, r8
 2529 0966 FFF7FEFF 		bl	__aeabi_fmul
 2530              	.LVL644:
 2531 096a 0146     		mov	r1, r0
 2532 096c 2846     		mov	r0, r5
 2533 096e FFF7FEFF 		bl	__aeabi_fadd
 2534              	.LVL645:
 2535 0972 0546     		mov	r5, r0
 2536 0974 4946     		mov	r1, r9
 2537 0976 4846     		mov	r0, r9
 2538 0978 FFF7FEFF 		bl	__aeabi_fmul
 2539              	.LVL646:
 2540 097c 0146     		mov	r1, r0
 2541 097e 2846     		mov	r0, r5
 2542 0980 FFF7FEFF 		bl	__aeabi_fadd
 2543              	.LVL647:
 2544 0984 0546     		mov	r5, r0
 2545 0986 3146     		mov	r1, r6
 2546 0988 3046     		mov	r0, r6
 2547 098a FFF7FEFF 		bl	__aeabi_fmul
 2548              	.LVL648:
 2549 098e 0146     		mov	r1, r0
 2550 0990 2846     		mov	r0, r5
 2551 0992 FFF7FEFF 		bl	__aeabi_fadd
 2552              	.LVL649:
 2553 0996 FFF7FEFF 		bl	invSqrt
 2554              	.LVL650:
ARM GAS  C:\Users\A85590\AppData\Local\Temp\ccOscRLT.s 			page 53


 2555 099a 0546     		mov	r5, r0
 2556              	.LVL651:
 172:Madgwick.c    **** 	q1 *= recipNorm;
 2557              		.loc 1 172 0
 2558 099c 0146     		mov	r1, r0
 2559 099e 3846     		mov	r0, r7
 2560              	.LVL652:
 2561 09a0 FFF7FEFF 		bl	__aeabi_fmul
 2562              	.LVL653:
 2563 09a4 6060     		str	r0, [r4, #4]	@ float
 173:Madgwick.c    **** 	q2 *= recipNorm;
 2564              		.loc 1 173 0
 2565 09a6 2946     		mov	r1, r5
 2566 09a8 4046     		mov	r0, r8
 2567 09aa FFF7FEFF 		bl	__aeabi_fmul
 2568              	.LVL654:
 2569 09ae 2060     		str	r0, [r4]	@ float
 174:Madgwick.c    **** 	q3 *= recipNorm;
 2570              		.loc 1 174 0
 2571 09b0 2946     		mov	r1, r5
 2572 09b2 4846     		mov	r0, r9
 2573 09b4 FFF7FEFF 		bl	__aeabi_fmul
 2574              	.LVL655:
 2575 09b8 A060     		str	r0, [r4, #8]	@ float
 175:Madgwick.c    **** 	anglesComputed = 0;
 2576              		.loc 1 175 0
 2577 09ba 2946     		mov	r1, r5
 2578 09bc 3046     		mov	r0, r6
 2579 09be FFF7FEFF 		bl	__aeabi_fmul
 2580              	.LVL656:
 2581 09c2 E060     		str	r0, [r4, #12]	@ float
 176:Madgwick.c    **** }
 2582              		.loc 1 176 0
 2583 09c4 0023     		movs	r3, #0
 2584 09c6 2377     		strb	r3, [r4, #28]
 2585              	.LVL657:
 2586              	.L26:
 177:Madgwick.c    **** 
 2587              		.loc 1 177 0
 2588 09c8 21B0     		add	sp, sp, #132
 2589              		.cfi_def_cfa_offset 36
 2590              		@ sp needed
 2591 09ca BDE8F08F 		pop	{r4, r5, r6, r7, r8, r9, r10, fp, pc}
 2592              	.L46:
 2593 09ce 00BF     		.align	2
 2594              	.L45:
 2595 09d0 00000000 		.word	.LANCHOR0
 2596              		.cfi_endproc
 2597              	.LFE3:
 2598              		.size	Madgwick_update, .-Madgwick_update
 2599              		.section	.text.getRoll,"ax",%progbits
 2600              		.align	2
 2601              		.global	getRoll
 2602              		.thumb
 2603              		.thumb_func
 2604              		.type	getRoll, %function
 2605              	getRoll:
ARM GAS  C:\Users\A85590\AppData\Local\Temp\ccOscRLT.s 			page 54


 2606              	.LFB7:
 282:Madgwick.c    **** }
 283:Madgwick.c    **** 
 284:Madgwick.c    ****     //float getPitch(){return atan2f(2.0f * q2 * q3 - 2.0f * q0 * q1, 2.0f * q0 * q0 + 2.0f * q3 * 
 285:Madgwick.c    ****     //float getRoll(){return -1.0f * asinf(2.0f * q1 * q3 + 2.0f * q0 * q2);};
 286:Madgwick.c    ****     //float getYaw(){return atan2f(2.0f * q1 * q2 - 2.0f * q0 * q3, 2.0f * q0 * q0 + 2.0f * q1 * q1
 287:Madgwick.c    ****     float getRoll() {
 2607              		.loc 1 287 0
 2608              		.cfi_startproc
 2609              		@ args = 0, pretend = 0, frame = 0
 2610              		@ frame_needed = 0, uses_anonymous_args = 0
 2611 0000 08B5     		push	{r3, lr}
 2612              		.cfi_def_cfa_offset 8
 2613              		.cfi_offset 3, -8
 2614              		.cfi_offset 14, -4
 288:Madgwick.c    ****         if (!anglesComputed) computeAngles();
 2615              		.loc 1 288 0
 2616 0002 054B     		ldr	r3, .L50
 2617 0004 1B7F     		ldrb	r3, [r3, #28]	@ zero_extendqisi2
 2618 0006 0BB9     		cbnz	r3, .L48
 2619              		.loc 1 288 0 is_stmt 0 discriminator 1
 2620 0008 FFF7FEFF 		bl	computeAngles
 2621              	.LVL658:
 2622              	.L48:
 289:Madgwick.c    ****         return roll * 57.29578f;
 2623              		.loc 1 289 0 is_stmt 1
 2624 000c 0349     		ldr	r1, .L50+4
 2625 000e 024B     		ldr	r3, .L50
 2626 0010 1869     		ldr	r0, [r3, #16]	@ float
 2627 0012 FFF7FEFF 		bl	__aeabi_fmul
 2628              	.LVL659:
 290:Madgwick.c    ****     }
 2629              		.loc 1 290 0
 2630 0016 08BD     		pop	{r3, pc}
 2631              	.L51:
 2632              		.align	2
 2633              	.L50:
 2634 0018 00000000 		.word	.LANCHOR0
 2635 001c E12E6542 		.word	1113927393
 2636              		.cfi_endproc
 2637              	.LFE7:
 2638              		.size	getRoll, .-getRoll
 2639              		.section	.text.getPitch,"ax",%progbits
 2640              		.align	2
 2641              		.global	getPitch
 2642              		.thumb
 2643              		.thumb_func
 2644              		.type	getPitch, %function
 2645              	getPitch:
 2646              	.LFB8:
 291:Madgwick.c    ****     float getPitch() {
 2647              		.loc 1 291 0
 2648              		.cfi_startproc
 2649              		@ args = 0, pretend = 0, frame = 0
 2650              		@ frame_needed = 0, uses_anonymous_args = 0
 2651 0000 08B5     		push	{r3, lr}
 2652              		.cfi_def_cfa_offset 8
ARM GAS  C:\Users\A85590\AppData\Local\Temp\ccOscRLT.s 			page 55


 2653              		.cfi_offset 3, -8
 2654              		.cfi_offset 14, -4
 292:Madgwick.c    ****         if (!anglesComputed) computeAngles();
 2655              		.loc 1 292 0
 2656 0002 054B     		ldr	r3, .L55
 2657 0004 1B7F     		ldrb	r3, [r3, #28]	@ zero_extendqisi2
 2658 0006 0BB9     		cbnz	r3, .L53
 2659              		.loc 1 292 0 is_stmt 0 discriminator 1
 2660 0008 FFF7FEFF 		bl	computeAngles
 2661              	.LVL660:
 2662              	.L53:
 293:Madgwick.c    ****         return pitch * 57.29578f;
 2663              		.loc 1 293 0 is_stmt 1
 2664 000c 0349     		ldr	r1, .L55+4
 2665 000e 024B     		ldr	r3, .L55
 2666 0010 5869     		ldr	r0, [r3, #20]	@ float
 2667 0012 FFF7FEFF 		bl	__aeabi_fmul
 2668              	.LVL661:
 294:Madgwick.c    ****     }
 2669              		.loc 1 294 0
 2670 0016 08BD     		pop	{r3, pc}
 2671              	.L56:
 2672              		.align	2
 2673              	.L55:
 2674 0018 00000000 		.word	.LANCHOR0
 2675 001c E12E6542 		.word	1113927393
 2676              		.cfi_endproc
 2677              	.LFE8:
 2678              		.size	getPitch, .-getPitch
 2679              		.section	.text.getYaw,"ax",%progbits
 2680              		.align	2
 2681              		.global	getYaw
 2682              		.thumb
 2683              		.thumb_func
 2684              		.type	getYaw, %function
 2685              	getYaw:
 2686              	.LFB9:
 295:Madgwick.c    ****     float getYaw() {
 2687              		.loc 1 295 0
 2688              		.cfi_startproc
 2689              		@ args = 0, pretend = 0, frame = 0
 2690              		@ frame_needed = 0, uses_anonymous_args = 0
 2691 0000 08B5     		push	{r3, lr}
 2692              		.cfi_def_cfa_offset 8
 2693              		.cfi_offset 3, -8
 2694              		.cfi_offset 14, -4
 296:Madgwick.c    ****         if (!anglesComputed) computeAngles();
 2695              		.loc 1 296 0
 2696 0002 074B     		ldr	r3, .L60
 2697 0004 1B7F     		ldrb	r3, [r3, #28]	@ zero_extendqisi2
 2698 0006 0BB9     		cbnz	r3, .L58
 2699              		.loc 1 296 0 is_stmt 0 discriminator 1
 2700 0008 FFF7FEFF 		bl	computeAngles
 2701              	.LVL662:
 2702              	.L58:
 297:Madgwick.c    ****         return yaw * 57.29578f + 180.0f;
 2703              		.loc 1 297 0 is_stmt 1
ARM GAS  C:\Users\A85590\AppData\Local\Temp\ccOscRLT.s 			page 56


 2704 000c 0549     		ldr	r1, .L60+4
 2705 000e 044B     		ldr	r3, .L60
 2706 0010 9869     		ldr	r0, [r3, #24]	@ float
 2707 0012 FFF7FEFF 		bl	__aeabi_fmul
 2708              	.LVL663:
 2709 0016 0449     		ldr	r1, .L60+8
 2710 0018 FFF7FEFF 		bl	__aeabi_fadd
 2711              	.LVL664:
 298:Madgwick.c    ****     }
 2712              		.loc 1 298 0
 2713 001c 08BD     		pop	{r3, pc}
 2714              	.L61:
 2715 001e 00BF     		.align	2
 2716              	.L60:
 2717 0020 00000000 		.word	.LANCHOR0
 2718 0024 E12E6542 		.word	1113927393
 2719 0028 00003443 		.word	1127481344
 2720              		.cfi_endproc
 2721              	.LFE9:
 2722              		.size	getYaw, .-getYaw
 2723              		.section	.text.getRollRadians,"ax",%progbits
 2724              		.align	2
 2725              		.global	getRollRadians
 2726              		.thumb
 2727              		.thumb_func
 2728              		.type	getRollRadians, %function
 2729              	getRollRadians:
 2730              	.LFB10:
 299:Madgwick.c    ****     float getRollRadians() {
 2731              		.loc 1 299 0
 2732              		.cfi_startproc
 2733              		@ args = 0, pretend = 0, frame = 0
 2734              		@ frame_needed = 0, uses_anonymous_args = 0
 2735 0000 08B5     		push	{r3, lr}
 2736              		.cfi_def_cfa_offset 8
 2737              		.cfi_offset 3, -8
 2738              		.cfi_offset 14, -4
 300:Madgwick.c    ****         if (!anglesComputed) computeAngles();
 2739              		.loc 1 300 0
 2740 0002 044B     		ldr	r3, .L65
 2741 0004 1B7F     		ldrb	r3, [r3, #28]	@ zero_extendqisi2
 2742 0006 0BB9     		cbnz	r3, .L63
 2743              		.loc 1 300 0 is_stmt 0 discriminator 1
 2744 0008 FFF7FEFF 		bl	computeAngles
 2745              	.LVL665:
 2746              	.L63:
 301:Madgwick.c    ****         return roll;
 302:Madgwick.c    ****     }
 2747              		.loc 1 302 0 is_stmt 1
 2748 000c 014B     		ldr	r3, .L65
 2749 000e 1869     		ldr	r0, [r3, #16]	@ float
 2750 0010 08BD     		pop	{r3, pc}
 2751              	.L66:
 2752 0012 00BF     		.align	2
 2753              	.L65:
 2754 0014 00000000 		.word	.LANCHOR0
 2755              		.cfi_endproc
ARM GAS  C:\Users\A85590\AppData\Local\Temp\ccOscRLT.s 			page 57


 2756              	.LFE10:
 2757              		.size	getRollRadians, .-getRollRadians
 2758              		.section	.text.getPitchRadians,"ax",%progbits
 2759              		.align	2
 2760              		.global	getPitchRadians
 2761              		.thumb
 2762              		.thumb_func
 2763              		.type	getPitchRadians, %function
 2764              	getPitchRadians:
 2765              	.LFB11:
 303:Madgwick.c    ****     float getPitchRadians() {
 2766              		.loc 1 303 0
 2767              		.cfi_startproc
 2768              		@ args = 0, pretend = 0, frame = 0
 2769              		@ frame_needed = 0, uses_anonymous_args = 0
 2770 0000 08B5     		push	{r3, lr}
 2771              		.cfi_def_cfa_offset 8
 2772              		.cfi_offset 3, -8
 2773              		.cfi_offset 14, -4
 304:Madgwick.c    ****         if (!anglesComputed) computeAngles();
 2774              		.loc 1 304 0
 2775 0002 044B     		ldr	r3, .L70
 2776 0004 1B7F     		ldrb	r3, [r3, #28]	@ zero_extendqisi2
 2777 0006 0BB9     		cbnz	r3, .L68
 2778              		.loc 1 304 0 is_stmt 0 discriminator 1
 2779 0008 FFF7FEFF 		bl	computeAngles
 2780              	.LVL666:
 2781              	.L68:
 305:Madgwick.c    ****         return pitch;
 306:Madgwick.c    ****     }
 2782              		.loc 1 306 0 is_stmt 1
 2783 000c 014B     		ldr	r3, .L70
 2784 000e 5869     		ldr	r0, [r3, #20]	@ float
 2785 0010 08BD     		pop	{r3, pc}
 2786              	.L71:
 2787 0012 00BF     		.align	2
 2788              	.L70:
 2789 0014 00000000 		.word	.LANCHOR0
 2790              		.cfi_endproc
 2791              	.LFE11:
 2792              		.size	getPitchRadians, .-getPitchRadians
 2793              		.section	.text.getYawRadians,"ax",%progbits
 2794              		.align	2
 2795              		.global	getYawRadians
 2796              		.thumb
 2797              		.thumb_func
 2798              		.type	getYawRadians, %function
 2799              	getYawRadians:
 2800              	.LFB12:
 307:Madgwick.c    ****     float getYawRadians() {
 2801              		.loc 1 307 0
 2802              		.cfi_startproc
 2803              		@ args = 0, pretend = 0, frame = 0
 2804              		@ frame_needed = 0, uses_anonymous_args = 0
 2805 0000 08B5     		push	{r3, lr}
 2806              		.cfi_def_cfa_offset 8
 2807              		.cfi_offset 3, -8
ARM GAS  C:\Users\A85590\AppData\Local\Temp\ccOscRLT.s 			page 58


 2808              		.cfi_offset 14, -4
 308:Madgwick.c    ****         if (!anglesComputed) computeAngles();
 2809              		.loc 1 308 0
 2810 0002 044B     		ldr	r3, .L75
 2811 0004 1B7F     		ldrb	r3, [r3, #28]	@ zero_extendqisi2
 2812 0006 0BB9     		cbnz	r3, .L73
 2813              		.loc 1 308 0 is_stmt 0 discriminator 1
 2814 0008 FFF7FEFF 		bl	computeAngles
 2815              	.LVL667:
 2816              	.L73:
 309:Madgwick.c    ****         return yaw;
 310:Madgwick.c    ****     }
 2817              		.loc 1 310 0 is_stmt 1
 2818 000c 014B     		ldr	r3, .L75
 2819 000e 9869     		ldr	r0, [r3, #24]	@ float
 2820 0010 08BD     		pop	{r3, pc}
 2821              	.L76:
 2822 0012 00BF     		.align	2
 2823              	.L75:
 2824 0014 00000000 		.word	.LANCHOR0
 2825              		.cfi_endproc
 2826              	.LFE12:
 2827              		.size	getYawRadians, .-getYawRadians
 2828              		.section	.text.getQuaternion,"ax",%progbits
 2829              		.align	2
 2830              		.global	getQuaternion
 2831              		.thumb
 2832              		.thumb_func
 2833              		.type	getQuaternion, %function
 2834              	getQuaternion:
 2835              	.LFB13:
 311:Madgwick.c    **** 	void getQuaternion(float *w, float *x, float *y, float *z) {
 2836              		.loc 1 311 0
 2837              		.cfi_startproc
 2838              		@ args = 0, pretend = 0, frame = 0
 2839              		@ frame_needed = 0, uses_anonymous_args = 0
 2840              		@ link register save eliminated.
 2841              	.LVL668:
 2842 0000 30B4     		push	{r4, r5}
 2843              		.cfi_def_cfa_offset 8
 2844              		.cfi_offset 4, -8
 2845              		.cfi_offset 5, -4
 312:Madgwick.c    ****        *w = q0;
 2846              		.loc 1 312 0
 2847 0002 054C     		ldr	r4, .L79
 2848 0004 6568     		ldr	r5, [r4, #4]	@ float
 2849 0006 0560     		str	r5, [r0]	@ float
 313:Madgwick.c    ****        *x = q1;
 2850              		.loc 1 313 0
 2851 0008 2068     		ldr	r0, [r4]	@ float
 2852              	.LVL669:
 2853 000a 0860     		str	r0, [r1]	@ float
 314:Madgwick.c    ****        *y = q2;
 2854              		.loc 1 314 0
 2855 000c A168     		ldr	r1, [r4, #8]	@ float
 2856              	.LVL670:
 2857 000e 1160     		str	r1, [r2]	@ float
ARM GAS  C:\Users\A85590\AppData\Local\Temp\ccOscRLT.s 			page 59


 315:Madgwick.c    ****        *z = q3;
 2858              		.loc 1 315 0
 2859 0010 E268     		ldr	r2, [r4, #12]	@ float
 2860              	.LVL671:
 2861 0012 1A60     		str	r2, [r3]	@ float
 316:Madgwick.c    ****    }...
 2862              		.loc 1 316 0
 2863 0014 30BC     		pop	{r4, r5}
 2864              		.cfi_restore 5
 2865              		.cfi_restore 4
 2866              		.cfi_def_cfa_offset 0
 2867 0016 7047     		bx	lr
 2868              	.L80:
 2869              		.align	2
 2870              	.L79:
 2871 0018 00000000 		.word	.LANCHOR0
 2872              		.cfi_endproc
 2873              	.LFE13:
 2874              		.size	getQuaternion, .-getQuaternion
 2875              		.bss
 2876              		.align	2
 2877              		.set	.LANCHOR0,. + 0
 2878              		.type	q1, %object
 2879              		.size	q1, 4
 2880              	q1:
 2881 0000 00000000 		.space	4
 2882              		.type	q0, %object
 2883              		.size	q0, 4
 2884              	q0:
 2885 0004 00000000 		.space	4
 2886              		.type	q2, %object
 2887              		.size	q2, 4
 2888              	q2:
 2889 0008 00000000 		.space	4
 2890              		.type	q3, %object
 2891              		.size	q3, 4
 2892              	q3:
 2893 000c 00000000 		.space	4
 2894              		.type	roll, %object
 2895              		.size	roll, 4
 2896              	roll:
 2897 0010 00000000 		.space	4
 2898              		.type	pitch, %object
 2899              		.size	pitch, 4
 2900              	pitch:
 2901 0014 00000000 		.space	4
 2902              		.type	yaw, %object
 2903              		.size	yaw, 4
 2904              	yaw:
 2905 0018 00000000 		.space	4
 2906              		.type	anglesComputed, %object
 2907              		.size	anglesComputed, 1
 2908              	anglesComputed:
 2909 001c 00       		.space	1
 2910 001d 000000   		.space	3
 2911              		.type	beta, %object
 2912              		.size	beta, 4
ARM GAS  C:\Users\A85590\AppData\Local\Temp\ccOscRLT.s 			page 60


 2913              	beta:
 2914 0020 00000000 		.space	4
 2915              		.type	invSampleFreq, %object
 2916              		.size	invSampleFreq, 4
 2917              	invSampleFreq:
 2918 0024 00000000 		.space	4
 2919              		.text
 2920              	.Letext0:
 2921              		.file 2 "c:\\program files (x86)\\cypress\\psoc creator\\4.1\\psoc creator\\import\\gnu\\arm\\5.4.
 2922              		.section	.debug_info,"",%progbits
 2923              	.Ldebug_info0:
 2924 0000 29080000 		.4byte	0x829
 2925 0004 0400     		.2byte	0x4
 2926 0006 00000000 		.4byte	.Ldebug_abbrev0
 2927 000a 04       		.byte	0x4
 2928 000b 01       		.uleb128 0x1
 2929 000c 37020000 		.4byte	.LASF68
 2930 0010 0C       		.byte	0xc
 2931 0011 1A010000 		.4byte	.LASF69
 2932 0015 6F000000 		.4byte	.LASF70
 2933 0019 00000000 		.4byte	.Ldebug_ranges0+0
 2934 001d 00000000 		.4byte	0
 2935 0021 00000000 		.4byte	.Ldebug_line0
 2936 0025 02       		.uleb128 0x2
 2937 0026 04       		.byte	0x4
 2938 0027 04       		.byte	0x4
 2939 0028 F4010000 		.4byte	.LASF0
 2940 002c 03       		.uleb128 0x3
 2941 002d 04       		.byte	0x4
 2942 002e 05       		.byte	0x5
 2943 002f 696E7400 		.ascii	"int\000"
 2944 0033 02       		.uleb128 0x2
 2945 0034 04       		.byte	0x4
 2946 0035 07       		.byte	0x7
 2947 0036 FE000000 		.4byte	.LASF1
 2948 003a 02       		.uleb128 0x2
 2949 003b 08       		.byte	0x8
 2950 003c 05       		.byte	0x5
 2951 003d 55000000 		.4byte	.LASF2
 2952 0041 02       		.uleb128 0x2
 2953 0042 08       		.byte	0x8
 2954 0043 04       		.byte	0x4
 2955 0044 C0010000 		.4byte	.LASF3
 2956 0048 02       		.uleb128 0x2
 2957 0049 01       		.byte	0x1
 2958 004a 06       		.byte	0x6
 2959 004b 63000000 		.4byte	.LASF4
 2960 004f 02       		.uleb128 0x2
 2961 0050 01       		.byte	0x1
 2962 0051 08       		.byte	0x8
 2963 0052 0F020000 		.4byte	.LASF5
 2964 0056 02       		.uleb128 0x2
 2965 0057 02       		.byte	0x2
 2966 0058 05       		.byte	0x5
 2967 0059 24020000 		.4byte	.LASF6
 2968 005d 02       		.uleb128 0x2
 2969 005e 02       		.byte	0x2
ARM GAS  C:\Users\A85590\AppData\Local\Temp\ccOscRLT.s 			page 61


 2970 005f 07       		.byte	0x7
 2971 0060 37010000 		.4byte	.LASF7
 2972 0064 02       		.uleb128 0x2
 2973 0065 04       		.byte	0x4
 2974 0066 05       		.byte	0x5
 2975 0067 16000000 		.4byte	.LASF8
 2976 006b 02       		.uleb128 0x2
 2977 006c 04       		.byte	0x4
 2978 006d 07       		.byte	0x7
 2979 006e 25010000 		.4byte	.LASF9
 2980 0072 02       		.uleb128 0x2
 2981 0073 08       		.byte	0x8
 2982 0074 07       		.byte	0x7
 2983 0075 1F000000 		.4byte	.LASF10
 2984 0079 02       		.uleb128 0x2
 2985 007a 04       		.byte	0x4
 2986 007b 07       		.byte	0x7
 2987 007c B7010000 		.4byte	.LASF11
 2988 0080 02       		.uleb128 0x2
 2989 0081 01       		.byte	0x1
 2990 0082 08       		.byte	0x8
 2991 0083 DF020000 		.4byte	.LASF12
 2992 0087 02       		.uleb128 0x2
 2993 0088 08       		.byte	0x8
 2994 0089 04       		.byte	0x4
 2995 008a B6000000 		.4byte	.LASF13
 2996 008e 04       		.uleb128 0x4
 2997 008f A0010000 		.4byte	.LASF71
 2998 0093 01       		.byte	0x1
 2999 0094 0601     		.2byte	0x106
 3000 0096 25000000 		.4byte	0x25
 3001 009a 00000000 		.4byte	.LFB5
 3002 009e 60000000 		.4byte	.LFE5-.LFB5
 3003 00a2 01       		.uleb128 0x1
 3004 00a3 9C       		.byte	0x9c
 3005 00a4 E3000000 		.4byte	0xe3
 3006 00a8 05       		.uleb128 0x5
 3007 00a9 7800     		.ascii	"x\000"
 3008 00ab 01       		.byte	0x1
 3009 00ac 0601     		.2byte	0x106
 3010 00ae 25000000 		.4byte	0x25
 3011 00b2 00000000 		.4byte	.LLST0
 3012 00b6 06       		.uleb128 0x6
 3013 00b7 CC000000 		.4byte	.LASF14
 3014 00bb 01       		.byte	0x1
 3015 00bc 0801     		.2byte	0x108
 3016 00be 25000000 		.4byte	0x25
 3017 00c2 2E000000 		.4byte	.LLST1
 3018 00c6 07       		.uleb128 0x7
 3019 00c7 7900     		.ascii	"y\000"
 3020 00c9 01       		.byte	0x1
 3021 00ca 0901     		.2byte	0x109
 3022 00cc 25000000 		.4byte	0x25
 3023 00d0 4C000000 		.4byte	.LLST2
 3024 00d4 07       		.uleb128 0x7
 3025 00d5 6900     		.ascii	"i\000"
 3026 00d7 01       		.byte	0x1
ARM GAS  C:\Users\A85590\AppData\Local\Temp\ccOscRLT.s 			page 62


 3027 00d8 0A01     		.2byte	0x10a
 3028 00da 64000000 		.4byte	0x64
 3029 00de 80000000 		.4byte	.LLST3
 3030 00e2 00       		.byte	0
 3031 00e3 08       		.uleb128 0x8
 3032 00e4 D2010000 		.4byte	.LASF72
 3033 00e8 01       		.byte	0x1
 3034 00e9 1401     		.2byte	0x114
 3035 00eb 00000000 		.4byte	.LFB6
 3036 00ef D8000000 		.4byte	.LFE6-.LFB6
 3037 00f3 01       		.uleb128 0x1
 3038 00f4 9C       		.byte	0x9c
 3039 00f5 29010000 		.4byte	0x129
 3040 00f9 09       		.uleb128 0x9
 3041 00fa 52000000 		.4byte	.LVL22
 3042 00fe 08080000 		.4byte	0x808
 3043 0102 0E010000 		.4byte	0x10e
 3044 0106 0A       		.uleb128 0xa
 3045 0107 01       		.uleb128 0x1
 3046 0108 51       		.byte	0x51
 3047 0109 03       		.uleb128 0x3
 3048 010a F5       		.byte	0xf5
 3049 010b 05       		.uleb128 0x5
 3050 010c 25       		.uleb128 0x25
 3051 010d 00       		.byte	0
 3052 010e 0B       		.uleb128 0xb
 3053 010f 7A000000 		.4byte	.LVL27
 3054 0113 14080000 		.4byte	0x814
 3055 0117 0C       		.uleb128 0xc
 3056 0118 C8000000 		.4byte	.LVL35
 3057 011c 08080000 		.4byte	0x808
 3058 0120 0A       		.uleb128 0xa
 3059 0121 01       		.uleb128 0x1
 3060 0122 51       		.byte	0x51
 3061 0123 03       		.uleb128 0x3
 3062 0124 F5       		.byte	0xf5
 3063 0125 05       		.uleb128 0x5
 3064 0126 25       		.uleb128 0x25
 3065 0127 00       		.byte	0
 3066 0128 00       		.byte	0
 3067 0129 0D       		.uleb128 0xd
 3068 012a 2E020000 		.4byte	.LASF73
 3069 012e 01       		.byte	0x1
 3070 012f 3A       		.byte	0x3a
 3071 0130 2C000000 		.4byte	0x2c
 3072 0134 00000000 		.4byte	.LFB1
 3073 0138 28000000 		.4byte	.LFE1-.LFB1
 3074 013c 01       		.uleb128 0x1
 3075 013d 9C       		.byte	0x9c
 3076 013e 0E       		.uleb128 0xe
 3077 013f 0B010000 		.4byte	.LASF16
 3078 0143 01       		.byte	0x1
 3079 0144 45       		.byte	0x45
 3080 0145 00000000 		.4byte	.LFB2
 3081 0149 18000000 		.4byte	.LFE2-.LFB2
 3082 014d 01       		.uleb128 0x1
 3083 014e 9C       		.byte	0x9c
ARM GAS  C:\Users\A85590\AppData\Local\Temp\ccOscRLT.s 			page 63


 3084 014f 63010000 		.4byte	0x163
 3085 0153 0F       		.uleb128 0xf
 3086 0154 CF020000 		.4byte	.LASF15
 3087 0158 01       		.byte	0x1
 3088 0159 45       		.byte	0x45
 3089 015a 25000000 		.4byte	0x25
 3090 015e A8000000 		.4byte	.LLST4
 3091 0162 00       		.byte	0
 3092 0163 0E       		.uleb128 0xe
 3093 0164 4A010000 		.4byte	.LASF17
 3094 0168 01       		.byte	0x1
 3095 0169 B6       		.byte	0xb6
 3096 016a 00000000 		.4byte	.LFB4
 3097 016e 40050000 		.4byte	.LFE4-.LFB4
 3098 0172 01       		.uleb128 0x1
 3099 0173 9C       		.byte	0x9c
 3100 0174 2E030000 		.4byte	0x32e
 3101 0178 10       		.uleb128 0x10
 3102 0179 677800   		.ascii	"gx\000"
 3103 017c 01       		.byte	0x1
 3104 017d B6       		.byte	0xb6
 3105 017e 25000000 		.4byte	0x25
 3106 0182 D6000000 		.4byte	.LLST5
 3107 0186 10       		.uleb128 0x10
 3108 0187 677900   		.ascii	"gy\000"
 3109 018a 01       		.byte	0x1
 3110 018b B6       		.byte	0xb6
 3111 018c 25000000 		.4byte	0x25
 3112 0190 0F010000 		.4byte	.LLST6
 3113 0194 10       		.uleb128 0x10
 3114 0195 677A00   		.ascii	"gz\000"
 3115 0198 01       		.byte	0x1
 3116 0199 B6       		.byte	0xb6
 3117 019a 25000000 		.4byte	0x25
 3118 019e 43010000 		.4byte	.LLST7
 3119 01a2 10       		.uleb128 0x10
 3120 01a3 617800   		.ascii	"ax\000"
 3121 01a6 01       		.byte	0x1
 3122 01a7 B6       		.byte	0xb6
 3123 01a8 25000000 		.4byte	0x25
 3124 01ac 77010000 		.4byte	.LLST8
 3125 01b0 10       		.uleb128 0x10
 3126 01b1 617900   		.ascii	"ay\000"
 3127 01b4 01       		.byte	0x1
 3128 01b5 B6       		.byte	0xb6
 3129 01b6 25000000 		.4byte	0x25
 3130 01ba AD010000 		.4byte	.LLST9
 3131 01be 10       		.uleb128 0x10
 3132 01bf 617A00   		.ascii	"az\000"
 3133 01c2 01       		.byte	0x1
 3134 01c3 B6       		.byte	0xb6
 3135 01c4 25000000 		.4byte	0x25
 3136 01c8 D7010000 		.4byte	.LLST10
 3137 01cc 11       		.uleb128 0x11
 3138 01cd E9020000 		.4byte	.LASF18
 3139 01d1 01       		.byte	0x1
 3140 01d2 B8       		.byte	0xb8
ARM GAS  C:\Users\A85590\AppData\Local\Temp\ccOscRLT.s 			page 64


 3141 01d3 25000000 		.4byte	0x25
 3142 01d7 03020000 		.4byte	.LLST11
 3143 01db 12       		.uleb128 0x12
 3144 01dc 733000   		.ascii	"s0\000"
 3145 01df 01       		.byte	0x1
 3146 01e0 B9       		.byte	0xb9
 3147 01e1 25000000 		.4byte	0x25
 3148 01e5 6E020000 		.4byte	.LLST12
 3149 01e9 12       		.uleb128 0x12
 3150 01ea 733100   		.ascii	"s1\000"
 3151 01ed 01       		.byte	0x1
 3152 01ee B9       		.byte	0xb9
 3153 01ef 25000000 		.4byte	0x25
 3154 01f3 A5020000 		.4byte	.LLST13
 3155 01f7 12       		.uleb128 0x12
 3156 01f8 733200   		.ascii	"s2\000"
 3157 01fb 01       		.byte	0x1
 3158 01fc B9       		.byte	0xb9
 3159 01fd 25000000 		.4byte	0x25
 3160 0201 D9020000 		.4byte	.LLST14
 3161 0205 12       		.uleb128 0x12
 3162 0206 733300   		.ascii	"s3\000"
 3163 0209 01       		.byte	0x1
 3164 020a B9       		.byte	0xb9
 3165 020b 25000000 		.4byte	0x25
 3166 020f 0D030000 		.4byte	.LLST15
 3167 0213 11       		.uleb128 0x11
 3168 0214 D2000000 		.4byte	.LASF19
 3169 0218 01       		.byte	0x1
 3170 0219 BA       		.byte	0xba
 3171 021a 25000000 		.4byte	0x25
 3172 021e 41030000 		.4byte	.LLST16
 3173 0222 11       		.uleb128 0x11
 3174 0223 D8000000 		.4byte	.LASF20
 3175 0227 01       		.byte	0x1
 3176 0228 BA       		.byte	0xba
 3177 0229 25000000 		.4byte	0x25
 3178 022d 86030000 		.4byte	.LLST17
 3179 0231 11       		.uleb128 0x11
 3180 0232 DE000000 		.4byte	.LASF21
 3181 0236 01       		.byte	0x1
 3182 0237 BA       		.byte	0xba
 3183 0238 25000000 		.4byte	0x25
 3184 023c CB030000 		.4byte	.LLST18
 3185 0240 11       		.uleb128 0x11
 3186 0241 E4000000 		.4byte	.LASF22
 3187 0245 01       		.byte	0x1
 3188 0246 BA       		.byte	0xba
 3189 0247 25000000 		.4byte	0x25
 3190 024b 10040000 		.4byte	.LLST19
 3191 024f 11       		.uleb128 0x11
 3192 0250 18030000 		.4byte	.LASF23
 3193 0254 01       		.byte	0x1
 3194 0255 BB       		.byte	0xbb
 3195 0256 25000000 		.4byte	0x25
 3196 025a 3D040000 		.4byte	.LLST20
 3197 025e 11       		.uleb128 0x11
ARM GAS  C:\Users\A85590\AppData\Local\Temp\ccOscRLT.s 			page 65


 3198 025f 1D030000 		.4byte	.LASF24
 3199 0263 01       		.byte	0x1
 3200 0264 BB       		.byte	0xbb
 3201 0265 25000000 		.4byte	0x25
 3202 0269 5D040000 		.4byte	.LLST21
 3203 026d 11       		.uleb128 0x11
 3204 026e 22030000 		.4byte	.LASF25
 3205 0272 01       		.byte	0x1
 3206 0273 BB       		.byte	0xbb
 3207 0274 25000000 		.4byte	0x25
 3208 0278 7D040000 		.4byte	.LLST22
 3209 027c 11       		.uleb128 0x11
 3210 027d 27030000 		.4byte	.LASF26
 3211 0281 01       		.byte	0x1
 3212 0282 BB       		.byte	0xbb
 3213 0283 25000000 		.4byte	0x25
 3214 0287 9C040000 		.4byte	.LLST23
 3215 028b 11       		.uleb128 0x11
 3216 028c E0010000 		.4byte	.LASF27
 3217 0290 01       		.byte	0x1
 3218 0291 BB       		.byte	0xbb
 3219 0292 25000000 		.4byte	0x25
 3220 0296 BB040000 		.4byte	.LLST24
 3221 029a 11       		.uleb128 0x11
 3222 029b E5010000 		.4byte	.LASF28
 3223 029f 01       		.byte	0x1
 3224 02a0 BB       		.byte	0xbb
 3225 02a1 25000000 		.4byte	0x25
 3226 02a5 D9040000 		.4byte	.LLST25
 3227 02a9 11       		.uleb128 0x11
 3228 02aa EA010000 		.4byte	.LASF29
 3229 02ae 01       		.byte	0x1
 3230 02af BB       		.byte	0xbb
 3231 02b0 25000000 		.4byte	0x25
 3232 02b4 F9040000 		.4byte	.LLST26
 3233 02b8 11       		.uleb128 0x11
 3234 02b9 F3020000 		.4byte	.LASF30
 3235 02bd 01       		.byte	0x1
 3236 02be BB       		.byte	0xbb
 3237 02bf 25000000 		.4byte	0x25
 3238 02c3 18050000 		.4byte	.LLST27
 3239 02c7 11       		.uleb128 0x11
 3240 02c8 F8020000 		.4byte	.LASF31
 3241 02cc 01       		.byte	0x1
 3242 02cd BB       		.byte	0xbb
 3243 02ce 25000000 		.4byte	0x25
 3244 02d2 36050000 		.4byte	.LLST28
 3245 02d6 11       		.uleb128 0x11
 3246 02d7 EA000000 		.4byte	.LASF32
 3247 02db 01       		.byte	0x1
 3248 02dc BB       		.byte	0xbb
 3249 02dd 25000000 		.4byte	0x25
 3250 02e1 55050000 		.4byte	.LLST29
 3251 02e5 11       		.uleb128 0x11
 3252 02e6 BD000000 		.4byte	.LASF33
 3253 02ea 01       		.byte	0x1
 3254 02eb BB       		.byte	0xbb
ARM GAS  C:\Users\A85590\AppData\Local\Temp\ccOscRLT.s 			page 66


 3255 02ec 25000000 		.4byte	0x25
 3256 02f0 74050000 		.4byte	.LLST30
 3257 02f4 11       		.uleb128 0x11
 3258 02f5 2C030000 		.4byte	.LASF34
 3259 02f9 01       		.byte	0x1
 3260 02fa BB       		.byte	0xbb
 3261 02fb 25000000 		.4byte	0x25
 3262 02ff 94050000 		.4byte	.LLST31
 3263 0303 11       		.uleb128 0x11
 3264 0304 E4020000 		.4byte	.LASF35
 3265 0308 01       		.byte	0x1
 3266 0309 BB       		.byte	0xbb
 3267 030a 25000000 		.4byte	0x25
 3268 030e BF050000 		.4byte	.LLST32
 3269 0312 0B       		.uleb128 0xb
 3270 0313 76010000 		.4byte	.LVL93
 3271 0317 8E000000 		.4byte	0x8e
 3272 031b 0B       		.uleb128 0xb
 3273 031c 04040000 		.4byte	.LVL207
 3274 0320 8E000000 		.4byte	0x8e
 3275 0324 0B       		.uleb128 0xb
 3276 0325 08050000 		.4byte	.LVL253
 3277 0329 8E000000 		.4byte	0x8e
 3278 032d 00       		.byte	0
 3279 032e 0E       		.uleb128 0xe
 3280 032f 6D010000 		.4byte	.LASF36
 3281 0333 01       		.byte	0x1
 3282 0334 4A       		.byte	0x4a
 3283 0335 00000000 		.4byte	.LFB3
 3284 0339 D4090000 		.4byte	.LFE3-.LFB3
 3285 033d 01       		.uleb128 0x1
 3286 033e 9C       		.byte	0x9c
 3287 033f 37060000 		.4byte	0x637
 3288 0343 10       		.uleb128 0x10
 3289 0344 677800   		.ascii	"gx\000"
 3290 0347 01       		.byte	0x1
 3291 0348 4A       		.byte	0x4a
 3292 0349 25000000 		.4byte	0x25
 3293 034d DE050000 		.4byte	.LLST33
 3294 0351 10       		.uleb128 0x10
 3295 0352 677900   		.ascii	"gy\000"
 3296 0355 01       		.byte	0x1
 3297 0356 4A       		.byte	0x4a
 3298 0357 25000000 		.4byte	0x25
 3299 035b 12060000 		.4byte	.LLST34
 3300 035f 10       		.uleb128 0x10
 3301 0360 677A00   		.ascii	"gz\000"
 3302 0363 01       		.byte	0x1
 3303 0364 4A       		.byte	0x4a
 3304 0365 25000000 		.4byte	0x25
 3305 0369 46060000 		.4byte	.LLST35
 3306 036d 10       		.uleb128 0x10
 3307 036e 617800   		.ascii	"ax\000"
 3308 0371 01       		.byte	0x1
 3309 0372 4A       		.byte	0x4a
 3310 0373 25000000 		.4byte	0x25
 3311 0377 7A060000 		.4byte	.LLST36
ARM GAS  C:\Users\A85590\AppData\Local\Temp\ccOscRLT.s 			page 67


 3312 037b 10       		.uleb128 0x10
 3313 037c 617900   		.ascii	"ay\000"
 3314 037f 01       		.byte	0x1
 3315 0380 4A       		.byte	0x4a
 3316 0381 25000000 		.4byte	0x25
 3317 0385 B2060000 		.4byte	.LLST37
 3318 0389 10       		.uleb128 0x10
 3319 038a 617A00   		.ascii	"az\000"
 3320 038d 01       		.byte	0x1
 3321 038e 4A       		.byte	0x4a
 3322 038f 25000000 		.4byte	0x25
 3323 0393 DE060000 		.4byte	.LLST38
 3324 0397 10       		.uleb128 0x10
 3325 0398 6D7800   		.ascii	"mx\000"
 3326 039b 01       		.byte	0x1
 3327 039c 4A       		.byte	0x4a
 3328 039d 25000000 		.4byte	0x25
 3329 03a1 0A070000 		.4byte	.LLST39
 3330 03a5 10       		.uleb128 0x10
 3331 03a6 6D7900   		.ascii	"my\000"
 3332 03a9 01       		.byte	0x1
 3333 03aa 4A       		.byte	0x4a
 3334 03ab 25000000 		.4byte	0x25
 3335 03af 34070000 		.4byte	.LLST40
 3336 03b3 10       		.uleb128 0x10
 3337 03b4 6D7A00   		.ascii	"mz\000"
 3338 03b7 01       		.byte	0x1
 3339 03b8 4A       		.byte	0x4a
 3340 03b9 25000000 		.4byte	0x25
 3341 03bd 78070000 		.4byte	.LLST41
 3342 03c1 11       		.uleb128 0x11
 3343 03c2 E9020000 		.4byte	.LASF18
 3344 03c6 01       		.byte	0x1
 3345 03c7 4C       		.byte	0x4c
 3346 03c8 25000000 		.4byte	0x25
 3347 03cc A2070000 		.4byte	.LLST42
 3348 03d0 12       		.uleb128 0x12
 3349 03d1 733000   		.ascii	"s0\000"
 3350 03d4 01       		.byte	0x1
 3351 03d5 4D       		.byte	0x4d
 3352 03d6 25000000 		.4byte	0x25
 3353 03da 2E080000 		.4byte	.LLST43
 3354 03de 12       		.uleb128 0x12
 3355 03df 733100   		.ascii	"s1\000"
 3356 03e2 01       		.byte	0x1
 3357 03e3 4D       		.byte	0x4d
 3358 03e4 25000000 		.4byte	0x25
 3359 03e8 64080000 		.4byte	.LLST44
 3360 03ec 12       		.uleb128 0x12
 3361 03ed 733200   		.ascii	"s2\000"
 3362 03f0 01       		.byte	0x1
 3363 03f1 4D       		.byte	0x4d
 3364 03f2 25000000 		.4byte	0x25
 3365 03f6 98080000 		.4byte	.LLST45
 3366 03fa 12       		.uleb128 0x12
 3367 03fb 733300   		.ascii	"s3\000"
 3368 03fe 01       		.byte	0x1
ARM GAS  C:\Users\A85590\AppData\Local\Temp\ccOscRLT.s 			page 68


 3369 03ff 4D       		.byte	0x4d
 3370 0400 25000000 		.4byte	0x25
 3371 0404 CC080000 		.4byte	.LLST46
 3372 0408 11       		.uleb128 0x11
 3373 0409 D2000000 		.4byte	.LASF19
 3374 040d 01       		.byte	0x1
 3375 040e 4E       		.byte	0x4e
 3376 040f 25000000 		.4byte	0x25
 3377 0413 00090000 		.4byte	.LLST47
 3378 0417 11       		.uleb128 0x11
 3379 0418 D8000000 		.4byte	.LASF20
 3380 041c 01       		.byte	0x1
 3381 041d 4E       		.byte	0x4e
 3382 041e 25000000 		.4byte	0x25
 3383 0422 38090000 		.4byte	.LLST48
 3384 0426 11       		.uleb128 0x11
 3385 0427 DE000000 		.4byte	.LASF21
 3386 042b 01       		.byte	0x1
 3387 042c 4E       		.byte	0x4e
 3388 042d 25000000 		.4byte	0x25
 3389 0431 70090000 		.4byte	.LLST49
 3390 0435 11       		.uleb128 0x11
 3391 0436 E4000000 		.4byte	.LASF22
 3392 043a 01       		.byte	0x1
 3393 043b 4E       		.byte	0x4e
 3394 043c 25000000 		.4byte	0x25
 3395 0440 A8090000 		.4byte	.LLST50
 3396 0444 12       		.uleb128 0x12
 3397 0445 687800   		.ascii	"hx\000"
 3398 0448 01       		.byte	0x1
 3399 0449 4F       		.byte	0x4f
 3400 044a 25000000 		.4byte	0x25
 3401 044e C8090000 		.4byte	.LLST51
 3402 0452 12       		.uleb128 0x12
 3403 0453 687900   		.ascii	"hy\000"
 3404 0456 01       		.byte	0x1
 3405 0457 4F       		.byte	0x4f
 3406 0458 25000000 		.4byte	0x25
 3407 045c E6090000 		.4byte	.LLST52
 3408 0460 11       		.uleb128 0x11
 3409 0461 FA010000 		.4byte	.LASF37
 3410 0465 01       		.byte	0x1
 3411 0466 50       		.byte	0x50
 3412 0467 25000000 		.4byte	0x25
 3413 046b 040A0000 		.4byte	.LLST53
 3414 046f 11       		.uleb128 0x11
 3415 0470 01020000 		.4byte	.LASF38
 3416 0474 01       		.byte	0x1
 3417 0475 50       		.byte	0x50
 3418 0476 25000000 		.4byte	0x25
 3419 047a 220A0000 		.4byte	.LLST54
 3420 047e 11       		.uleb128 0x11
 3421 047f 08020000 		.4byte	.LASF39
 3422 0483 01       		.byte	0x1
 3423 0484 50       		.byte	0x50
 3424 0485 25000000 		.4byte	0x25
 3425 0489 420A0000 		.4byte	.LLST55
ARM GAS  C:\Users\A85590\AppData\Local\Temp\ccOscRLT.s 			page 69


 3426 048d 11       		.uleb128 0x11
 3427 048e 84010000 		.4byte	.LASF40
 3428 0492 01       		.byte	0x1
 3429 0493 50       		.byte	0x50
 3430 0494 25000000 		.4byte	0x25
 3431 0498 620A0000 		.4byte	.LLST56
 3432 049c 11       		.uleb128 0x11
 3433 049d 36000000 		.4byte	.LASF41
 3434 04a1 01       		.byte	0x1
 3435 04a2 50       		.byte	0x50
 3436 04a3 25000000 		.4byte	0x25
 3437 04a7 820A0000 		.4byte	.LLST57
 3438 04ab 11       		.uleb128 0x11
 3439 04ac 49000000 		.4byte	.LASF42
 3440 04b0 01       		.byte	0x1
 3441 04b1 50       		.byte	0x50
 3442 04b2 25000000 		.4byte	0x25
 3443 04b6 A00A0000 		.4byte	.LLST58
 3444 04ba 11       		.uleb128 0x11
 3445 04bb C5020000 		.4byte	.LASF43
 3446 04bf 01       		.byte	0x1
 3447 04c0 50       		.byte	0x50
 3448 04c1 25000000 		.4byte	0x25
 3449 04c5 BE0A0000 		.4byte	.LLST59
 3450 04c9 11       		.uleb128 0x11
 3451 04ca CA020000 		.4byte	.LASF44
 3452 04ce 01       		.byte	0x1
 3453 04cf 50       		.byte	0x50
 3454 04d0 25000000 		.4byte	0x25
 3455 04d4 DD0A0000 		.4byte	.LLST60
 3456 04d8 11       		.uleb128 0x11
 3457 04d9 18030000 		.4byte	.LASF23
 3458 04dd 01       		.byte	0x1
 3459 04de 50       		.byte	0x50
 3460 04df 25000000 		.4byte	0x25
 3461 04e3 FD0A0000 		.4byte	.LLST61
 3462 04e7 11       		.uleb128 0x11
 3463 04e8 1D030000 		.4byte	.LASF24
 3464 04ec 01       		.byte	0x1
 3465 04ed 50       		.byte	0x50
 3466 04ee 25000000 		.4byte	0x25
 3467 04f2 100B0000 		.4byte	.LLST62
 3468 04f6 11       		.uleb128 0x11
 3469 04f7 22030000 		.4byte	.LASF25
 3470 04fb 01       		.byte	0x1
 3471 04fc 50       		.byte	0x50
 3472 04fd 25000000 		.4byte	0x25
 3473 0501 250B0000 		.4byte	.LLST63
 3474 0505 11       		.uleb128 0x11
 3475 0506 27030000 		.4byte	.LASF26
 3476 050a 01       		.byte	0x1
 3477 050b 50       		.byte	0x50
 3478 050c 25000000 		.4byte	0x25
 3479 0510 450B0000 		.4byte	.LLST64
 3480 0514 11       		.uleb128 0x11
 3481 0515 00000000 		.4byte	.LASF45
 3482 0519 01       		.byte	0x1
ARM GAS  C:\Users\A85590\AppData\Local\Temp\ccOscRLT.s 			page 70


 3483 051a 50       		.byte	0x50
 3484 051b 25000000 		.4byte	0x25
 3485 051f 650B0000 		.4byte	.LLST65
 3486 0523 11       		.uleb128 0x11
 3487 0524 1D020000 		.4byte	.LASF46
 3488 0528 01       		.byte	0x1
 3489 0529 50       		.byte	0x50
 3490 052a 25000000 		.4byte	0x25
 3491 052e 840B0000 		.4byte	.LLST66
 3492 0532 11       		.uleb128 0x11
 3493 0533 EA000000 		.4byte	.LASF32
 3494 0537 01       		.byte	0x1
 3495 0538 50       		.byte	0x50
 3496 0539 25000000 		.4byte	0x25
 3497 053d A30B0000 		.4byte	.LLST67
 3498 0541 11       		.uleb128 0x11
 3499 0542 EF000000 		.4byte	.LASF47
 3500 0546 01       		.byte	0x1
 3501 0547 50       		.byte	0x50
 3502 0548 25000000 		.4byte	0x25
 3503 054c C30B0000 		.4byte	.LLST68
 3504 0550 11       		.uleb128 0x11
 3505 0551 F4000000 		.4byte	.LASF48
 3506 0555 01       		.byte	0x1
 3507 0556 50       		.byte	0x50
 3508 0557 25000000 		.4byte	0x25
 3509 055b E30B0000 		.4byte	.LLST69
 3510 055f 11       		.uleb128 0x11
 3511 0560 F9000000 		.4byte	.LASF49
 3512 0564 01       		.byte	0x1
 3513 0565 50       		.byte	0x50
 3514 0566 25000000 		.4byte	0x25
 3515 056a 030C0000 		.4byte	.LLST70
 3516 056e 11       		.uleb128 0x11
 3517 056f BD000000 		.4byte	.LASF33
 3518 0573 01       		.byte	0x1
 3519 0574 50       		.byte	0x50
 3520 0575 25000000 		.4byte	0x25
 3521 0579 220C0000 		.4byte	.LLST71
 3522 057d 11       		.uleb128 0x11
 3523 057e C2000000 		.4byte	.LASF50
 3524 0582 01       		.byte	0x1
 3525 0583 50       		.byte	0x50
 3526 0584 25000000 		.4byte	0x25
 3527 0588 420C0000 		.4byte	.LLST72
 3528 058c 11       		.uleb128 0x11
 3529 058d C7000000 		.4byte	.LASF51
 3530 0591 01       		.byte	0x1
 3531 0592 50       		.byte	0x50
 3532 0593 25000000 		.4byte	0x25
 3533 0597 610C0000 		.4byte	.LLST73
 3534 059b 11       		.uleb128 0x11
 3535 059c 2C030000 		.4byte	.LASF34
 3536 05a0 01       		.byte	0x1
 3537 05a1 50       		.byte	0x50
 3538 05a2 25000000 		.4byte	0x25
 3539 05a6 810C0000 		.4byte	.LLST74
ARM GAS  C:\Users\A85590\AppData\Local\Temp\ccOscRLT.s 			page 71


 3540 05aa 11       		.uleb128 0x11
 3541 05ab 31030000 		.4byte	.LASF52
 3542 05af 01       		.byte	0x1
 3543 05b0 50       		.byte	0x50
 3544 05b1 25000000 		.4byte	0x25
 3545 05b5 A10C0000 		.4byte	.LLST75
 3546 05b9 11       		.uleb128 0x11
 3547 05ba E4020000 		.4byte	.LASF35
 3548 05be 01       		.byte	0x1
 3549 05bf 50       		.byte	0x50
 3550 05c0 25000000 		.4byte	0x25
 3551 05c4 C00C0000 		.4byte	.LLST76
 3552 05c8 09       		.uleb128 0x9
 3553 05c9 40000000 		.4byte	.LVL267
 3554 05cd 63010000 		.4byte	0x163
 3555 05d1 09060000 		.4byte	0x609
 3556 05d5 0A       		.uleb128 0xa
 3557 05d6 01       		.uleb128 0x1
 3558 05d7 50       		.byte	0x50
 3559 05d8 03       		.uleb128 0x3
 3560 05d9 F5       		.byte	0xf5
 3561 05da 06       		.uleb128 0x6
 3562 05db 25       		.uleb128 0x25
 3563 05dc 0A       		.uleb128 0xa
 3564 05dd 01       		.uleb128 0x1
 3565 05de 51       		.byte	0x51
 3566 05df 03       		.uleb128 0x3
 3567 05e0 F5       		.byte	0xf5
 3568 05e1 05       		.uleb128 0x5
 3569 05e2 25       		.uleb128 0x25
 3570 05e3 0A       		.uleb128 0xa
 3571 05e4 01       		.uleb128 0x1
 3572 05e5 52       		.byte	0x52
 3573 05e6 03       		.uleb128 0x3
 3574 05e7 F5       		.byte	0xf5
 3575 05e8 04       		.uleb128 0x4
 3576 05e9 25       		.uleb128 0x25
 3577 05ea 0A       		.uleb128 0xa
 3578 05eb 01       		.uleb128 0x1
 3579 05ec 53       		.byte	0x53
 3580 05ed 06       		.uleb128 0x6
 3581 05ee 91       		.byte	0x91
 3582 05ef E47E     		.sleb128 -156
 3583 05f1 F6       		.byte	0xf6
 3584 05f2 04       		.byte	0x4
 3585 05f3 25       		.uleb128 0x25
 3586 05f4 0A       		.uleb128 0xa
 3587 05f5 02       		.uleb128 0x2
 3588 05f6 7D       		.byte	0x7d
 3589 05f7 00       		.sleb128 0
 3590 05f8 05       		.uleb128 0x5
 3591 05f9 91       		.byte	0x91
 3592 05fa 00       		.sleb128 0
 3593 05fb F6       		.byte	0xf6
 3594 05fc 04       		.byte	0x4
 3595 05fd 25       		.uleb128 0x25
 3596 05fe 0A       		.uleb128 0xa
ARM GAS  C:\Users\A85590\AppData\Local\Temp\ccOscRLT.s 			page 72


 3597 05ff 02       		.uleb128 0x2
 3598 0600 7D       		.byte	0x7d
 3599 0601 04       		.sleb128 4
 3600 0602 05       		.uleb128 0x5
 3601 0603 91       		.byte	0x91
 3602 0604 04       		.sleb128 4
 3603 0605 F6       		.byte	0xf6
 3604 0606 04       		.byte	0x4
 3605 0607 25       		.uleb128 0x25
 3606 0608 00       		.byte	0
 3607 0609 0B       		.uleb128 0xb
 3608 060a A8010000 		.4byte	.LVL320
 3609 060e 8E000000 		.4byte	0x8e
 3610 0612 0B       		.uleb128 0xb
 3611 0613 F8010000 		.4byte	.LVL338
 3612 0617 8E000000 		.4byte	0x8e
 3613 061b 0B       		.uleb128 0xb
 3614 061c 2A040000 		.4byte	.LVL446
 3615 0620 20080000 		.4byte	0x820
 3616 0624 0B       		.uleb128 0xb
 3617 0625 9E080000 		.4byte	.LVL604
 3618 0629 8E000000 		.4byte	0x8e
 3619 062d 0B       		.uleb128 0xb
 3620 062e 9A090000 		.4byte	.LVL650
 3621 0632 8E000000 		.4byte	0x8e
 3622 0636 00       		.byte	0
 3623 0637 13       		.uleb128 0x13
 3624 0638 0B030000 		.4byte	.LASF53
 3625 063c 01       		.byte	0x1
 3626 063d 1F01     		.2byte	0x11f
 3627 063f 25000000 		.4byte	0x25
 3628 0643 00000000 		.4byte	.LFB7
 3629 0647 20000000 		.4byte	.LFE7-.LFB7
 3630 064b 01       		.uleb128 0x1
 3631 064c 9C       		.byte	0x9c
 3632 064d 5B060000 		.4byte	0x65b
 3633 0651 0B       		.uleb128 0xb
 3634 0652 0C000000 		.4byte	.LVL658
 3635 0656 E3000000 		.4byte	0xe3
 3636 065a 00       		.byte	0
 3637 065b 13       		.uleb128 0x13
 3638 065c 97010000 		.4byte	.LASF54
 3639 0660 01       		.byte	0x1
 3640 0661 2301     		.2byte	0x123
 3641 0663 25000000 		.4byte	0x25
 3642 0667 00000000 		.4byte	.LFB8
 3643 066b 20000000 		.4byte	.LFE8-.LFB8
 3644 066f 01       		.uleb128 0x1
 3645 0670 9C       		.byte	0x9c
 3646 0671 7F060000 		.4byte	0x67f
 3647 0675 0B       		.uleb128 0xb
 3648 0676 0C000000 		.4byte	.LVL660
 3649 067a E3000000 		.4byte	0xe3
 3650 067e 00       		.byte	0
 3651 067f 13       		.uleb128 0x13
 3652 0680 7D010000 		.4byte	.LASF55
 3653 0684 01       		.byte	0x1
ARM GAS  C:\Users\A85590\AppData\Local\Temp\ccOscRLT.s 			page 73


 3654 0685 2701     		.2byte	0x127
 3655 0687 25000000 		.4byte	0x25
 3656 068b 00000000 		.4byte	.LFB9
 3657 068f 2C000000 		.4byte	.LFE9-.LFB9
 3658 0693 01       		.uleb128 0x1
 3659 0694 9C       		.byte	0x9c
 3660 0695 A3060000 		.4byte	0x6a3
 3661 0699 0B       		.uleb128 0xb
 3662 069a 0C000000 		.4byte	.LVL662
 3663 069e E3000000 		.4byte	0xe3
 3664 06a2 00       		.byte	0
 3665 06a3 14       		.uleb128 0x14
 3666 06a4 A8010000 		.4byte	.LASF56
 3667 06a8 01       		.byte	0x1
 3668 06a9 2B01     		.2byte	0x12b
 3669 06ab 25000000 		.4byte	0x25
 3670 06af 00000000 		.4byte	.LFB10
 3671 06b3 18000000 		.4byte	.LFE10-.LFB10
 3672 06b7 01       		.uleb128 0x1
 3673 06b8 9C       		.byte	0x9c
 3674 06b9 C7060000 		.4byte	0x6c7
 3675 06bd 0B       		.uleb128 0xb
 3676 06be 0C000000 		.4byte	.LVL665
 3677 06c2 E3000000 		.4byte	0xe3
 3678 06c6 00       		.byte	0
 3679 06c7 14       		.uleb128 0x14
 3680 06c8 5D010000 		.4byte	.LASF57
 3681 06cc 01       		.byte	0x1
 3682 06cd 2F01     		.2byte	0x12f
 3683 06cf 25000000 		.4byte	0x25
 3684 06d3 00000000 		.4byte	.LFB11
 3685 06d7 18000000 		.4byte	.LFE11-.LFB11
 3686 06db 01       		.uleb128 0x1
 3687 06dc 9C       		.byte	0x9c
 3688 06dd EB060000 		.4byte	0x6eb
 3689 06e1 0B       		.uleb128 0xb
 3690 06e2 0C000000 		.4byte	.LVL666
 3691 06e6 E3000000 		.4byte	0xe3
 3692 06ea 00       		.byte	0
 3693 06eb 14       		.uleb128 0x14
 3694 06ec 36030000 		.4byte	.LASF58
 3695 06f0 01       		.byte	0x1
 3696 06f1 3301     		.2byte	0x133
 3697 06f3 25000000 		.4byte	0x25
 3698 06f7 00000000 		.4byte	.LFB12
 3699 06fb 18000000 		.4byte	.LFE12-.LFB12
 3700 06ff 01       		.uleb128 0x1
 3701 0700 9C       		.byte	0x9c
 3702 0701 0F070000 		.4byte	0x70f
 3703 0705 0B       		.uleb128 0xb
 3704 0706 0C000000 		.4byte	.LVL667
 3705 070a E3000000 		.4byte	0xe3
 3706 070e 00       		.byte	0
 3707 070f 15       		.uleb128 0x15
 3708 0710 3B000000 		.4byte	.LASF59
 3709 0714 01       		.byte	0x1
 3710 0715 3701     		.2byte	0x137
ARM GAS  C:\Users\A85590\AppData\Local\Temp\ccOscRLT.s 			page 74


 3711 0717 00000000 		.4byte	.LFB13
 3712 071b 1C000000 		.4byte	.LFE13-.LFB13
 3713 071f 01       		.uleb128 0x1
 3714 0720 9C       		.byte	0x9c
 3715 0721 5C070000 		.4byte	0x75c
 3716 0725 05       		.uleb128 0x5
 3717 0726 7700     		.ascii	"w\000"
 3718 0728 01       		.byte	0x1
 3719 0729 3701     		.2byte	0x137
 3720 072b 5C070000 		.4byte	0x75c
 3721 072f E00C0000 		.4byte	.LLST77
 3722 0733 05       		.uleb128 0x5
 3723 0734 7800     		.ascii	"x\000"
 3724 0736 01       		.byte	0x1
 3725 0737 3701     		.2byte	0x137
 3726 0739 5C070000 		.4byte	0x75c
 3727 073d 010D0000 		.4byte	.LLST78
 3728 0741 05       		.uleb128 0x5
 3729 0742 7900     		.ascii	"y\000"
 3730 0744 01       		.byte	0x1
 3731 0745 3701     		.2byte	0x137
 3732 0747 5C070000 		.4byte	0x75c
 3733 074b 220D0000 		.4byte	.LLST79
 3734 074f 16       		.uleb128 0x16
 3735 0750 7A00     		.ascii	"z\000"
 3736 0752 01       		.byte	0x1
 3737 0753 3701     		.2byte	0x137
 3738 0755 5C070000 		.4byte	0x75c
 3739 0759 01       		.uleb128 0x1
 3740 075a 53       		.byte	0x53
 3741 075b 00       		.byte	0
 3742 075c 17       		.uleb128 0x17
 3743 075d 04       		.byte	0x4
 3744 075e 25000000 		.4byte	0x25
 3745 0762 18       		.uleb128 0x18
 3746 0763 13030000 		.4byte	.LASF60
 3747 0767 01       		.byte	0x1
 3748 0768 26       		.byte	0x26
 3749 0769 25000000 		.4byte	0x25
 3750 076d 05       		.uleb128 0x5
 3751 076e 03       		.byte	0x3
 3752 076f 20000000 		.4byte	beta
 3753 0773 19       		.uleb128 0x19
 3754 0774 713000   		.ascii	"q0\000"
 3755 0777 01       		.byte	0x1
 3756 0778 27       		.byte	0x27
 3757 0779 25000000 		.4byte	0x25
 3758 077d 05       		.uleb128 0x5
 3759 077e 03       		.byte	0x3
 3760 077f 04000000 		.4byte	q0
 3761 0783 19       		.uleb128 0x19
 3762 0784 713100   		.ascii	"q1\000"
 3763 0787 01       		.byte	0x1
 3764 0788 28       		.byte	0x28
 3765 0789 25000000 		.4byte	0x25
 3766 078d 05       		.uleb128 0x5
 3767 078e 03       		.byte	0x3
ARM GAS  C:\Users\A85590\AppData\Local\Temp\ccOscRLT.s 			page 75


 3768 078f 00000000 		.4byte	q1
 3769 0793 19       		.uleb128 0x19
 3770 0794 713200   		.ascii	"q2\000"
 3771 0797 01       		.byte	0x1
 3772 0798 29       		.byte	0x29
 3773 0799 25000000 		.4byte	0x25
 3774 079d 05       		.uleb128 0x5
 3775 079e 03       		.byte	0x3
 3776 079f 08000000 		.4byte	q2
 3777 07a3 19       		.uleb128 0x19
 3778 07a4 713300   		.ascii	"q3\000"
 3779 07a7 01       		.byte	0x1
 3780 07a8 2A       		.byte	0x2a
 3781 07a9 25000000 		.4byte	0x25
 3782 07ad 05       		.uleb128 0x5
 3783 07ae 03       		.byte	0x3
 3784 07af 0C000000 		.4byte	q3
 3785 07b3 18       		.uleb128 0x18
 3786 07b4 FD020000 		.4byte	.LASF61
 3787 07b8 01       		.byte	0x1
 3788 07b9 2B       		.byte	0x2b
 3789 07ba 25000000 		.4byte	0x25
 3790 07be 05       		.uleb128 0x5
 3791 07bf 03       		.byte	0x3
 3792 07c0 24000000 		.4byte	invSampleFreq
 3793 07c4 18       		.uleb128 0x18
 3794 07c5 EF010000 		.4byte	.LASF62
 3795 07c9 01       		.byte	0x1
 3796 07ca 2C       		.byte	0x2c
 3797 07cb 25000000 		.4byte	0x25
 3798 07cf 05       		.uleb128 0x5
 3799 07d0 03       		.byte	0x3
 3800 07d1 10000000 		.4byte	roll
 3801 07d5 18       		.uleb128 0x18
 3802 07d6 CC010000 		.4byte	.LASF63
 3803 07da 01       		.byte	0x1
 3804 07db 2D       		.byte	0x2d
 3805 07dc 25000000 		.4byte	0x25
 3806 07e0 05       		.uleb128 0x5
 3807 07e1 03       		.byte	0x3
 3808 07e2 14000000 		.4byte	pitch
 3809 07e6 19       		.uleb128 0x19
 3810 07e7 79617700 		.ascii	"yaw\000"
 3811 07eb 01       		.byte	0x1
 3812 07ec 2E       		.byte	0x2e
 3813 07ed 25000000 		.4byte	0x25
 3814 07f1 05       		.uleb128 0x5
 3815 07f2 03       		.byte	0x3
 3816 07f3 18000000 		.4byte	yaw
 3817 07f7 18       		.uleb128 0x18
 3818 07f8 07000000 		.4byte	.LASF64
 3819 07fc 01       		.byte	0x1
 3820 07fd 2F       		.byte	0x2f
 3821 07fe 80000000 		.4byte	0x80
 3822 0802 05       		.uleb128 0x5
 3823 0803 03       		.byte	0x3
 3824 0804 1C000000 		.4byte	anglesComputed
ARM GAS  C:\Users\A85590\AppData\Local\Temp\ccOscRLT.s 			page 76


 3825 0808 1A       		.uleb128 0x1a
 3826 0809 4E000000 		.4byte	.LASF65
 3827 080d 4E000000 		.4byte	.LASF65
 3828 0811 02       		.byte	0x2
 3829 0812 7D01     		.2byte	0x17d
 3830 0814 1A       		.uleb128 0x1a
 3831 0815 8B010000 		.4byte	.LASF66
 3832 0819 8B010000 		.4byte	.LASF66
 3833 081d 02       		.byte	0x2
 3834 081e 7C01     		.2byte	0x17c
 3835 0820 1A       		.uleb128 0x1a
 3836 0821 91010000 		.4byte	.LASF67
 3837 0825 91010000 		.4byte	.LASF67
 3838 0829 02       		.byte	0x2
 3839 082a 8501     		.2byte	0x185
 3840 082c 00       		.byte	0
 3841              		.section	.debug_abbrev,"",%progbits
 3842              	.Ldebug_abbrev0:
 3843 0000 01       		.uleb128 0x1
 3844 0001 11       		.uleb128 0x11
 3845 0002 01       		.byte	0x1
 3846 0003 25       		.uleb128 0x25
 3847 0004 0E       		.uleb128 0xe
 3848 0005 13       		.uleb128 0x13
 3849 0006 0B       		.uleb128 0xb
 3850 0007 03       		.uleb128 0x3
 3851 0008 0E       		.uleb128 0xe
 3852 0009 1B       		.uleb128 0x1b
 3853 000a 0E       		.uleb128 0xe
 3854 000b 55       		.uleb128 0x55
 3855 000c 17       		.uleb128 0x17
 3856 000d 11       		.uleb128 0x11
 3857 000e 01       		.uleb128 0x1
 3858 000f 10       		.uleb128 0x10
 3859 0010 17       		.uleb128 0x17
 3860 0011 00       		.byte	0
 3861 0012 00       		.byte	0
 3862 0013 02       		.uleb128 0x2
 3863 0014 24       		.uleb128 0x24
 3864 0015 00       		.byte	0
 3865 0016 0B       		.uleb128 0xb
 3866 0017 0B       		.uleb128 0xb
 3867 0018 3E       		.uleb128 0x3e
 3868 0019 0B       		.uleb128 0xb
 3869 001a 03       		.uleb128 0x3
 3870 001b 0E       		.uleb128 0xe
 3871 001c 00       		.byte	0
 3872 001d 00       		.byte	0
 3873 001e 03       		.uleb128 0x3
 3874 001f 24       		.uleb128 0x24
 3875 0020 00       		.byte	0
 3876 0021 0B       		.uleb128 0xb
 3877 0022 0B       		.uleb128 0xb
 3878 0023 3E       		.uleb128 0x3e
 3879 0024 0B       		.uleb128 0xb
 3880 0025 03       		.uleb128 0x3
 3881 0026 08       		.uleb128 0x8
ARM GAS  C:\Users\A85590\AppData\Local\Temp\ccOscRLT.s 			page 77


 3882 0027 00       		.byte	0
 3883 0028 00       		.byte	0
 3884 0029 04       		.uleb128 0x4
 3885 002a 2E       		.uleb128 0x2e
 3886 002b 01       		.byte	0x1
 3887 002c 03       		.uleb128 0x3
 3888 002d 0E       		.uleb128 0xe
 3889 002e 3A       		.uleb128 0x3a
 3890 002f 0B       		.uleb128 0xb
 3891 0030 3B       		.uleb128 0x3b
 3892 0031 05       		.uleb128 0x5
 3893 0032 27       		.uleb128 0x27
 3894 0033 19       		.uleb128 0x19
 3895 0034 49       		.uleb128 0x49
 3896 0035 13       		.uleb128 0x13
 3897 0036 11       		.uleb128 0x11
 3898 0037 01       		.uleb128 0x1
 3899 0038 12       		.uleb128 0x12
 3900 0039 06       		.uleb128 0x6
 3901 003a 40       		.uleb128 0x40
 3902 003b 18       		.uleb128 0x18
 3903 003c 9642     		.uleb128 0x2116
 3904 003e 19       		.uleb128 0x19
 3905 003f 01       		.uleb128 0x1
 3906 0040 13       		.uleb128 0x13
 3907 0041 00       		.byte	0
 3908 0042 00       		.byte	0
 3909 0043 05       		.uleb128 0x5
 3910 0044 05       		.uleb128 0x5
 3911 0045 00       		.byte	0
 3912 0046 03       		.uleb128 0x3
 3913 0047 08       		.uleb128 0x8
 3914 0048 3A       		.uleb128 0x3a
 3915 0049 0B       		.uleb128 0xb
 3916 004a 3B       		.uleb128 0x3b
 3917 004b 05       		.uleb128 0x5
 3918 004c 49       		.uleb128 0x49
 3919 004d 13       		.uleb128 0x13
 3920 004e 02       		.uleb128 0x2
 3921 004f 17       		.uleb128 0x17
 3922 0050 00       		.byte	0
 3923 0051 00       		.byte	0
 3924 0052 06       		.uleb128 0x6
 3925 0053 34       		.uleb128 0x34
 3926 0054 00       		.byte	0
 3927 0055 03       		.uleb128 0x3
 3928 0056 0E       		.uleb128 0xe
 3929 0057 3A       		.uleb128 0x3a
 3930 0058 0B       		.uleb128 0xb
 3931 0059 3B       		.uleb128 0x3b
 3932 005a 05       		.uleb128 0x5
 3933 005b 49       		.uleb128 0x49
 3934 005c 13       		.uleb128 0x13
 3935 005d 02       		.uleb128 0x2
 3936 005e 17       		.uleb128 0x17
 3937 005f 00       		.byte	0
 3938 0060 00       		.byte	0
ARM GAS  C:\Users\A85590\AppData\Local\Temp\ccOscRLT.s 			page 78


 3939 0061 07       		.uleb128 0x7
 3940 0062 34       		.uleb128 0x34
 3941 0063 00       		.byte	0
 3942 0064 03       		.uleb128 0x3
 3943 0065 08       		.uleb128 0x8
 3944 0066 3A       		.uleb128 0x3a
 3945 0067 0B       		.uleb128 0xb
 3946 0068 3B       		.uleb128 0x3b
 3947 0069 05       		.uleb128 0x5
 3948 006a 49       		.uleb128 0x49
 3949 006b 13       		.uleb128 0x13
 3950 006c 02       		.uleb128 0x2
 3951 006d 17       		.uleb128 0x17
 3952 006e 00       		.byte	0
 3953 006f 00       		.byte	0
 3954 0070 08       		.uleb128 0x8
 3955 0071 2E       		.uleb128 0x2e
 3956 0072 01       		.byte	0x1
 3957 0073 03       		.uleb128 0x3
 3958 0074 0E       		.uleb128 0xe
 3959 0075 3A       		.uleb128 0x3a
 3960 0076 0B       		.uleb128 0xb
 3961 0077 3B       		.uleb128 0x3b
 3962 0078 05       		.uleb128 0x5
 3963 0079 11       		.uleb128 0x11
 3964 007a 01       		.uleb128 0x1
 3965 007b 12       		.uleb128 0x12
 3966 007c 06       		.uleb128 0x6
 3967 007d 40       		.uleb128 0x40
 3968 007e 18       		.uleb128 0x18
 3969 007f 9642     		.uleb128 0x2116
 3970 0081 19       		.uleb128 0x19
 3971 0082 01       		.uleb128 0x1
 3972 0083 13       		.uleb128 0x13
 3973 0084 00       		.byte	0
 3974 0085 00       		.byte	0
 3975 0086 09       		.uleb128 0x9
 3976 0087 898201   		.uleb128 0x4109
 3977 008a 01       		.byte	0x1
 3978 008b 11       		.uleb128 0x11
 3979 008c 01       		.uleb128 0x1
 3980 008d 31       		.uleb128 0x31
 3981 008e 13       		.uleb128 0x13
 3982 008f 01       		.uleb128 0x1
 3983 0090 13       		.uleb128 0x13
 3984 0091 00       		.byte	0
 3985 0092 00       		.byte	0
 3986 0093 0A       		.uleb128 0xa
 3987 0094 8A8201   		.uleb128 0x410a
 3988 0097 00       		.byte	0
 3989 0098 02       		.uleb128 0x2
 3990 0099 18       		.uleb128 0x18
 3991 009a 9142     		.uleb128 0x2111
 3992 009c 18       		.uleb128 0x18
 3993 009d 00       		.byte	0
 3994 009e 00       		.byte	0
 3995 009f 0B       		.uleb128 0xb
ARM GAS  C:\Users\A85590\AppData\Local\Temp\ccOscRLT.s 			page 79


 3996 00a0 898201   		.uleb128 0x4109
 3997 00a3 00       		.byte	0
 3998 00a4 11       		.uleb128 0x11
 3999 00a5 01       		.uleb128 0x1
 4000 00a6 31       		.uleb128 0x31
 4001 00a7 13       		.uleb128 0x13
 4002 00a8 00       		.byte	0
 4003 00a9 00       		.byte	0
 4004 00aa 0C       		.uleb128 0xc
 4005 00ab 898201   		.uleb128 0x4109
 4006 00ae 01       		.byte	0x1
 4007 00af 11       		.uleb128 0x11
 4008 00b0 01       		.uleb128 0x1
 4009 00b1 31       		.uleb128 0x31
 4010 00b2 13       		.uleb128 0x13
 4011 00b3 00       		.byte	0
 4012 00b4 00       		.byte	0
 4013 00b5 0D       		.uleb128 0xd
 4014 00b6 2E       		.uleb128 0x2e
 4015 00b7 00       		.byte	0
 4016 00b8 3F       		.uleb128 0x3f
 4017 00b9 19       		.uleb128 0x19
 4018 00ba 03       		.uleb128 0x3
 4019 00bb 0E       		.uleb128 0xe
 4020 00bc 3A       		.uleb128 0x3a
 4021 00bd 0B       		.uleb128 0xb
 4022 00be 3B       		.uleb128 0x3b
 4023 00bf 0B       		.uleb128 0xb
 4024 00c0 27       		.uleb128 0x27
 4025 00c1 19       		.uleb128 0x19
 4026 00c2 49       		.uleb128 0x49
 4027 00c3 13       		.uleb128 0x13
 4028 00c4 11       		.uleb128 0x11
 4029 00c5 01       		.uleb128 0x1
 4030 00c6 12       		.uleb128 0x12
 4031 00c7 06       		.uleb128 0x6
 4032 00c8 40       		.uleb128 0x40
 4033 00c9 18       		.uleb128 0x18
 4034 00ca 9742     		.uleb128 0x2117
 4035 00cc 19       		.uleb128 0x19
 4036 00cd 00       		.byte	0
 4037 00ce 00       		.byte	0
 4038 00cf 0E       		.uleb128 0xe
 4039 00d0 2E       		.uleb128 0x2e
 4040 00d1 01       		.byte	0x1
 4041 00d2 3F       		.uleb128 0x3f
 4042 00d3 19       		.uleb128 0x19
 4043 00d4 03       		.uleb128 0x3
 4044 00d5 0E       		.uleb128 0xe
 4045 00d6 3A       		.uleb128 0x3a
 4046 00d7 0B       		.uleb128 0xb
 4047 00d8 3B       		.uleb128 0x3b
 4048 00d9 0B       		.uleb128 0xb
 4049 00da 27       		.uleb128 0x27
 4050 00db 19       		.uleb128 0x19
 4051 00dc 11       		.uleb128 0x11
 4052 00dd 01       		.uleb128 0x1
ARM GAS  C:\Users\A85590\AppData\Local\Temp\ccOscRLT.s 			page 80


 4053 00de 12       		.uleb128 0x12
 4054 00df 06       		.uleb128 0x6
 4055 00e0 40       		.uleb128 0x40
 4056 00e1 18       		.uleb128 0x18
 4057 00e2 9642     		.uleb128 0x2116
 4058 00e4 19       		.uleb128 0x19
 4059 00e5 01       		.uleb128 0x1
 4060 00e6 13       		.uleb128 0x13
 4061 00e7 00       		.byte	0
 4062 00e8 00       		.byte	0
 4063 00e9 0F       		.uleb128 0xf
 4064 00ea 05       		.uleb128 0x5
 4065 00eb 00       		.byte	0
 4066 00ec 03       		.uleb128 0x3
 4067 00ed 0E       		.uleb128 0xe
 4068 00ee 3A       		.uleb128 0x3a
 4069 00ef 0B       		.uleb128 0xb
 4070 00f0 3B       		.uleb128 0x3b
 4071 00f1 0B       		.uleb128 0xb
 4072 00f2 49       		.uleb128 0x49
 4073 00f3 13       		.uleb128 0x13
 4074 00f4 02       		.uleb128 0x2
 4075 00f5 17       		.uleb128 0x17
 4076 00f6 00       		.byte	0
 4077 00f7 00       		.byte	0
 4078 00f8 10       		.uleb128 0x10
 4079 00f9 05       		.uleb128 0x5
 4080 00fa 00       		.byte	0
 4081 00fb 03       		.uleb128 0x3
 4082 00fc 08       		.uleb128 0x8
 4083 00fd 3A       		.uleb128 0x3a
 4084 00fe 0B       		.uleb128 0xb
 4085 00ff 3B       		.uleb128 0x3b
 4086 0100 0B       		.uleb128 0xb
 4087 0101 49       		.uleb128 0x49
 4088 0102 13       		.uleb128 0x13
 4089 0103 02       		.uleb128 0x2
 4090 0104 17       		.uleb128 0x17
 4091 0105 00       		.byte	0
 4092 0106 00       		.byte	0
 4093 0107 11       		.uleb128 0x11
 4094 0108 34       		.uleb128 0x34
 4095 0109 00       		.byte	0
 4096 010a 03       		.uleb128 0x3
 4097 010b 0E       		.uleb128 0xe
 4098 010c 3A       		.uleb128 0x3a
 4099 010d 0B       		.uleb128 0xb
 4100 010e 3B       		.uleb128 0x3b
 4101 010f 0B       		.uleb128 0xb
 4102 0110 49       		.uleb128 0x49
 4103 0111 13       		.uleb128 0x13
 4104 0112 02       		.uleb128 0x2
 4105 0113 17       		.uleb128 0x17
 4106 0114 00       		.byte	0
 4107 0115 00       		.byte	0
 4108 0116 12       		.uleb128 0x12
 4109 0117 34       		.uleb128 0x34
ARM GAS  C:\Users\A85590\AppData\Local\Temp\ccOscRLT.s 			page 81


 4110 0118 00       		.byte	0
 4111 0119 03       		.uleb128 0x3
 4112 011a 08       		.uleb128 0x8
 4113 011b 3A       		.uleb128 0x3a
 4114 011c 0B       		.uleb128 0xb
 4115 011d 3B       		.uleb128 0x3b
 4116 011e 0B       		.uleb128 0xb
 4117 011f 49       		.uleb128 0x49
 4118 0120 13       		.uleb128 0x13
 4119 0121 02       		.uleb128 0x2
 4120 0122 17       		.uleb128 0x17
 4121 0123 00       		.byte	0
 4122 0124 00       		.byte	0
 4123 0125 13       		.uleb128 0x13
 4124 0126 2E       		.uleb128 0x2e
 4125 0127 01       		.byte	0x1
 4126 0128 3F       		.uleb128 0x3f
 4127 0129 19       		.uleb128 0x19
 4128 012a 03       		.uleb128 0x3
 4129 012b 0E       		.uleb128 0xe
 4130 012c 3A       		.uleb128 0x3a
 4131 012d 0B       		.uleb128 0xb
 4132 012e 3B       		.uleb128 0x3b
 4133 012f 05       		.uleb128 0x5
 4134 0130 49       		.uleb128 0x49
 4135 0131 13       		.uleb128 0x13
 4136 0132 11       		.uleb128 0x11
 4137 0133 01       		.uleb128 0x1
 4138 0134 12       		.uleb128 0x12
 4139 0135 06       		.uleb128 0x6
 4140 0136 40       		.uleb128 0x40
 4141 0137 18       		.uleb128 0x18
 4142 0138 9642     		.uleb128 0x2116
 4143 013a 19       		.uleb128 0x19
 4144 013b 01       		.uleb128 0x1
 4145 013c 13       		.uleb128 0x13
 4146 013d 00       		.byte	0
 4147 013e 00       		.byte	0
 4148 013f 14       		.uleb128 0x14
 4149 0140 2E       		.uleb128 0x2e
 4150 0141 01       		.byte	0x1
 4151 0142 3F       		.uleb128 0x3f
 4152 0143 19       		.uleb128 0x19
 4153 0144 03       		.uleb128 0x3
 4154 0145 0E       		.uleb128 0xe
 4155 0146 3A       		.uleb128 0x3a
 4156 0147 0B       		.uleb128 0xb
 4157 0148 3B       		.uleb128 0x3b
 4158 0149 05       		.uleb128 0x5
 4159 014a 49       		.uleb128 0x49
 4160 014b 13       		.uleb128 0x13
 4161 014c 11       		.uleb128 0x11
 4162 014d 01       		.uleb128 0x1
 4163 014e 12       		.uleb128 0x12
 4164 014f 06       		.uleb128 0x6
 4165 0150 40       		.uleb128 0x40
 4166 0151 18       		.uleb128 0x18
ARM GAS  C:\Users\A85590\AppData\Local\Temp\ccOscRLT.s 			page 82


 4167 0152 9742     		.uleb128 0x2117
 4168 0154 19       		.uleb128 0x19
 4169 0155 01       		.uleb128 0x1
 4170 0156 13       		.uleb128 0x13
 4171 0157 00       		.byte	0
 4172 0158 00       		.byte	0
 4173 0159 15       		.uleb128 0x15
 4174 015a 2E       		.uleb128 0x2e
 4175 015b 01       		.byte	0x1
 4176 015c 3F       		.uleb128 0x3f
 4177 015d 19       		.uleb128 0x19
 4178 015e 03       		.uleb128 0x3
 4179 015f 0E       		.uleb128 0xe
 4180 0160 3A       		.uleb128 0x3a
 4181 0161 0B       		.uleb128 0xb
 4182 0162 3B       		.uleb128 0x3b
 4183 0163 05       		.uleb128 0x5
 4184 0164 27       		.uleb128 0x27
 4185 0165 19       		.uleb128 0x19
 4186 0166 11       		.uleb128 0x11
 4187 0167 01       		.uleb128 0x1
 4188 0168 12       		.uleb128 0x12
 4189 0169 06       		.uleb128 0x6
 4190 016a 40       		.uleb128 0x40
 4191 016b 18       		.uleb128 0x18
 4192 016c 9742     		.uleb128 0x2117
 4193 016e 19       		.uleb128 0x19
 4194 016f 01       		.uleb128 0x1
 4195 0170 13       		.uleb128 0x13
 4196 0171 00       		.byte	0
 4197 0172 00       		.byte	0
 4198 0173 16       		.uleb128 0x16
 4199 0174 05       		.uleb128 0x5
 4200 0175 00       		.byte	0
 4201 0176 03       		.uleb128 0x3
 4202 0177 08       		.uleb128 0x8
 4203 0178 3A       		.uleb128 0x3a
 4204 0179 0B       		.uleb128 0xb
 4205 017a 3B       		.uleb128 0x3b
 4206 017b 05       		.uleb128 0x5
 4207 017c 49       		.uleb128 0x49
 4208 017d 13       		.uleb128 0x13
 4209 017e 02       		.uleb128 0x2
 4210 017f 18       		.uleb128 0x18
 4211 0180 00       		.byte	0
 4212 0181 00       		.byte	0
 4213 0182 17       		.uleb128 0x17
 4214 0183 0F       		.uleb128 0xf
 4215 0184 00       		.byte	0
 4216 0185 0B       		.uleb128 0xb
 4217 0186 0B       		.uleb128 0xb
 4218 0187 49       		.uleb128 0x49
 4219 0188 13       		.uleb128 0x13
 4220 0189 00       		.byte	0
 4221 018a 00       		.byte	0
 4222 018b 18       		.uleb128 0x18
 4223 018c 34       		.uleb128 0x34
ARM GAS  C:\Users\A85590\AppData\Local\Temp\ccOscRLT.s 			page 83


 4224 018d 00       		.byte	0
 4225 018e 03       		.uleb128 0x3
 4226 018f 0E       		.uleb128 0xe
 4227 0190 3A       		.uleb128 0x3a
 4228 0191 0B       		.uleb128 0xb
 4229 0192 3B       		.uleb128 0x3b
 4230 0193 0B       		.uleb128 0xb
 4231 0194 49       		.uleb128 0x49
 4232 0195 13       		.uleb128 0x13
 4233 0196 02       		.uleb128 0x2
 4234 0197 18       		.uleb128 0x18
 4235 0198 00       		.byte	0
 4236 0199 00       		.byte	0
 4237 019a 19       		.uleb128 0x19
 4238 019b 34       		.uleb128 0x34
 4239 019c 00       		.byte	0
 4240 019d 03       		.uleb128 0x3
 4241 019e 08       		.uleb128 0x8
 4242 019f 3A       		.uleb128 0x3a
 4243 01a0 0B       		.uleb128 0xb
 4244 01a1 3B       		.uleb128 0x3b
 4245 01a2 0B       		.uleb128 0xb
 4246 01a3 49       		.uleb128 0x49
 4247 01a4 13       		.uleb128 0x13
 4248 01a5 02       		.uleb128 0x2
 4249 01a6 18       		.uleb128 0x18
 4250 01a7 00       		.byte	0
 4251 01a8 00       		.byte	0
 4252 01a9 1A       		.uleb128 0x1a
 4253 01aa 2E       		.uleb128 0x2e
 4254 01ab 00       		.byte	0
 4255 01ac 3F       		.uleb128 0x3f
 4256 01ad 19       		.uleb128 0x19
 4257 01ae 3C       		.uleb128 0x3c
 4258 01af 19       		.uleb128 0x19
 4259 01b0 6E       		.uleb128 0x6e
 4260 01b1 0E       		.uleb128 0xe
 4261 01b2 03       		.uleb128 0x3
 4262 01b3 0E       		.uleb128 0xe
 4263 01b4 3A       		.uleb128 0x3a
 4264 01b5 0B       		.uleb128 0xb
 4265 01b6 3B       		.uleb128 0x3b
 4266 01b7 05       		.uleb128 0x5
 4267 01b8 00       		.byte	0
 4268 01b9 00       		.byte	0
 4269 01ba 00       		.byte	0
 4270              		.section	.debug_loc,"",%progbits
 4271              	.Ldebug_loc0:
 4272              	.LLST0:
 4273 0000 00000000 		.4byte	.LVL0
 4274 0004 0B000000 		.4byte	.LVL1-1
 4275 0008 0100     		.2byte	0x1
 4276 000a 50       		.byte	0x50
 4277 000b 0B000000 		.4byte	.LVL1-1
 4278 000f 14000000 		.4byte	.LVL3
 4279 0013 0100     		.2byte	0x1
 4280 0015 54       		.byte	0x54
ARM GAS  C:\Users\A85590\AppData\Local\Temp\ccOscRLT.s 			page 84


 4281 0016 14000000 		.4byte	.LVL3
 4282 001a 60000000 		.4byte	.LFE5
 4283 001e 0600     		.2byte	0x6
 4284 0020 F3       		.byte	0xf3
 4285 0021 03       		.uleb128 0x3
 4286 0022 F5       		.byte	0xf5
 4287 0023 00       		.uleb128 0
 4288 0024 25       		.uleb128 0x25
 4289 0025 9F       		.byte	0x9f
 4290 0026 00000000 		.4byte	0
 4291 002a 00000000 		.4byte	0
 4292              	.LLST1:
 4293 002e 0E000000 		.4byte	.LVL2
 4294 0032 19000000 		.4byte	.LVL4-1
 4295 0036 0100     		.2byte	0x1
 4296 0038 50       		.byte	0x50
 4297 0039 19000000 		.4byte	.LVL4-1
 4298 003d 5A000000 		.4byte	.LVL14
 4299 0041 0100     		.2byte	0x1
 4300 0043 55       		.byte	0x55
 4301 0044 00000000 		.4byte	0
 4302 0048 00000000 		.4byte	0
 4303              	.LLST2:
 4304 004c 0E000000 		.4byte	.LVL2
 4305 0050 36000000 		.4byte	.LVL8
 4306 0054 0100     		.2byte	0x1
 4307 0056 54       		.byte	0x54
 4308 0057 36000000 		.4byte	.LVL8
 4309 005b 3A000000 		.4byte	.LVL9
 4310 005f 0100     		.2byte	0x1
 4311 0061 50       		.byte	0x50
 4312 0062 3A000000 		.4byte	.LVL9
 4313 0066 3D000000 		.4byte	.LVL10-1
 4314 006a 0100     		.2byte	0x1
 4315 006c 51       		.byte	0x51
 4316 006d 3D000000 		.4byte	.LVL10-1
 4317 0071 58000000 		.4byte	.LVL13
 4318 0075 0100     		.2byte	0x1
 4319 0077 54       		.byte	0x54
 4320 0078 00000000 		.4byte	0
 4321 007c 00000000 		.4byte	0
 4322              	.LLST3:
 4323 0080 0E000000 		.4byte	.LVL2
 4324 0084 14000000 		.4byte	.LVL3
 4325 0088 0B00     		.2byte	0xb
 4326 008a 0C       		.byte	0xc
 4327 008b DF59375F 		.4byte	0x5f3759df
 4328 008f 74       		.byte	0x74
 4329 0090 00       		.sleb128 0
 4330 0091 31       		.byte	0x31
 4331 0092 26       		.byte	0x26
 4332 0093 1C       		.byte	0x1c
 4333 0094 9F       		.byte	0x9f
 4334 0095 14000000 		.4byte	.LVL3
 4335 0099 36000000 		.4byte	.LVL8
 4336 009d 0100     		.2byte	0x1
 4337 009f 54       		.byte	0x54
ARM GAS  C:\Users\A85590\AppData\Local\Temp\ccOscRLT.s 			page 85


 4338 00a0 00000000 		.4byte	0
 4339 00a4 00000000 		.4byte	0
 4340              	.LLST4:
 4341 00a8 00000000 		.4byte	.LVL36
 4342 00ac 08000000 		.4byte	.LVL37
 4343 00b0 0100     		.2byte	0x1
 4344 00b2 50       		.byte	0x50
 4345 00b3 08000000 		.4byte	.LVL37
 4346 00b7 0B000000 		.4byte	.LVL38-1
 4347 00bb 0100     		.2byte	0x1
 4348 00bd 51       		.byte	0x51
 4349 00be 0B000000 		.4byte	.LVL38-1
 4350 00c2 18000000 		.4byte	.LFE2
 4351 00c6 0600     		.2byte	0x6
 4352 00c8 F3       		.byte	0xf3
 4353 00c9 03       		.uleb128 0x3
 4354 00ca F5       		.byte	0xf5
 4355 00cb 00       		.uleb128 0
 4356 00cc 25       		.uleb128 0x25
 4357 00cd 9F       		.byte	0x9f
 4358 00ce 00000000 		.4byte	0
 4359 00d2 00000000 		.4byte	0
 4360              	.LLST5:
 4361 00d6 00000000 		.4byte	.LVL39
 4362 00da 11000000 		.4byte	.LVL41-1
 4363 00de 0100     		.2byte	0x1
 4364 00e0 50       		.byte	0x50
 4365 00e1 11000000 		.4byte	.LVL41-1
 4366 00e5 14000000 		.4byte	.LVL42
 4367 00e9 0600     		.2byte	0x6
 4368 00eb F3       		.byte	0xf3
 4369 00ec 03       		.uleb128 0x3
 4370 00ed F5       		.byte	0xf5
 4371 00ee 00       		.uleb128 0
 4372 00ef 25       		.uleb128 0x25
 4373 00f0 9F       		.byte	0x9f
 4374 00f1 14000000 		.4byte	.LVL42
 4375 00f5 18000000 		.4byte	.LVL43
 4376 00f9 0100     		.2byte	0x1
 4377 00fb 50       		.byte	0x50
 4378 00fc 18000000 		.4byte	.LVL43
 4379 0100 50010000 		.4byte	.LVL88
 4380 0104 0100     		.2byte	0x1
 4381 0106 56       		.byte	0x56
 4382 0107 00000000 		.4byte	0
 4383 010b 00000000 		.4byte	0
 4384              	.LLST6:
 4385 010f 00000000 		.4byte	.LVL39
 4386 0113 0E000000 		.4byte	.LVL40
 4387 0117 0100     		.2byte	0x1
 4388 0119 51       		.byte	0x51
 4389 011a 0E000000 		.4byte	.LVL40
 4390 011e 1E000000 		.4byte	.LVL45
 4391 0122 0100     		.2byte	0x1
 4392 0124 55       		.byte	0x55
 4393 0125 1E000000 		.4byte	.LVL45
 4394 0129 22000000 		.4byte	.LVL46
ARM GAS  C:\Users\A85590\AppData\Local\Temp\ccOscRLT.s 			page 86


 4395 012d 0100     		.2byte	0x1
 4396 012f 50       		.byte	0x50
 4397 0130 22000000 		.4byte	.LVL46
 4398 0134 FC000000 		.4byte	.LVL78
 4399 0138 0100     		.2byte	0x1
 4400 013a 57       		.byte	0x57
 4401 013b 00000000 		.4byte	0
 4402 013f 00000000 		.4byte	0
 4403              	.LLST7:
 4404 0143 00000000 		.4byte	.LVL39
 4405 0147 11000000 		.4byte	.LVL41-1
 4406 014b 0100     		.2byte	0x1
 4407 014d 52       		.byte	0x52
 4408 014e 11000000 		.4byte	.LVL41-1
 4409 0152 28000000 		.4byte	.LVL48
 4410 0156 0100     		.2byte	0x1
 4411 0158 54       		.byte	0x54
 4412 0159 28000000 		.4byte	.LVL48
 4413 015d 36000000 		.4byte	.LVL49
 4414 0161 0100     		.2byte	0x1
 4415 0163 50       		.byte	0x50
 4416 0164 36000000 		.4byte	.LVL49
 4417 0168 EA000000 		.4byte	.LVL75
 4418 016c 0100     		.2byte	0x1
 4419 016e 58       		.byte	0x58
 4420 016f 00000000 		.4byte	0
 4421 0173 00000000 		.4byte	0
 4422              	.LLST8:
 4423 0177 00000000 		.4byte	.LVL39
 4424 017b 11000000 		.4byte	.LVL41-1
 4425 017f 0100     		.2byte	0x1
 4426 0181 53       		.byte	0x53
 4427 0182 11000000 		.4byte	.LVL41-1
 4428 0186 82010000 		.4byte	.LVL97
 4429 018a 0200     		.2byte	0x2
 4430 018c 7D       		.byte	0x7d
 4431 018d 00       		.sleb128 0
 4432 018e 82010000 		.4byte	.LVL97
 4433 0192 86010000 		.4byte	.LVL98
 4434 0196 0100     		.2byte	0x1
 4435 0198 50       		.byte	0x50
 4436 0199 86010000 		.4byte	.LVL98
 4437 019d 10040000 		.4byte	.LVL211
 4438 01a1 0200     		.2byte	0x2
 4439 01a3 7D       		.byte	0x7d
 4440 01a4 00       		.sleb128 0
 4441 01a5 00000000 		.4byte	0
 4442 01a9 00000000 		.4byte	0
 4443              	.LLST9:
 4444 01ad 00000000 		.4byte	.LVL39
 4445 01b1 8C010000 		.4byte	.LVL100
 4446 01b5 0200     		.2byte	0x2
 4447 01b7 91       		.byte	0x91
 4448 01b8 00       		.sleb128 0
 4449 01b9 8C010000 		.4byte	.LVL100
 4450 01bd 90010000 		.4byte	.LVL101
 4451 01c1 0100     		.2byte	0x1
ARM GAS  C:\Users\A85590\AppData\Local\Temp\ccOscRLT.s 			page 87


 4452 01c3 50       		.byte	0x50
 4453 01c4 90010000 		.4byte	.LVL101
 4454 01c8 C0030000 		.4byte	.LVL198
 4455 01cc 0100     		.2byte	0x1
 4456 01ce 59       		.byte	0x59
 4457 01cf 00000000 		.4byte	0
 4458 01d3 00000000 		.4byte	0
 4459              	.LLST10:
 4460 01d7 00000000 		.4byte	.LVL39
 4461 01db 96010000 		.4byte	.LVL103
 4462 01df 0200     		.2byte	0x2
 4463 01e1 91       		.byte	0x91
 4464 01e2 04       		.sleb128 4
 4465 01e3 96010000 		.4byte	.LVL103
 4466 01e7 9A010000 		.4byte	.LVL104
 4467 01eb 0100     		.2byte	0x1
 4468 01ed 50       		.byte	0x50
 4469 01ee 9A010000 		.4byte	.LVL104
 4470 01f2 7A040000 		.4byte	.LVL237
 4471 01f6 0300     		.2byte	0x3
 4472 01f8 91       		.byte	0x91
 4473 01f9 B47F     		.sleb128 -76
 4474 01fb 00000000 		.4byte	0
 4475 01ff 00000000 		.4byte	0
 4476              	.LLST11:
 4477 0203 78010000 		.4byte	.LVL94
 4478 0207 7C010000 		.4byte	.LVL95
 4479 020b 0100     		.2byte	0x1
 4480 020d 50       		.byte	0x50
 4481 020e 7C010000 		.4byte	.LVL95
 4482 0212 7F010000 		.4byte	.LVL96-1
 4483 0216 0100     		.2byte	0x1
 4484 0218 51       		.byte	0x51
 4485 0219 7F010000 		.4byte	.LVL96-1
 4486 021d CA010000 		.4byte	.LVL118
 4487 0221 0100     		.2byte	0x1
 4488 0223 56       		.byte	0x56
 4489 0224 06040000 		.4byte	.LVL208
 4490 0228 0A040000 		.4byte	.LVL209
 4491 022c 0100     		.2byte	0x1
 4492 022e 50       		.byte	0x50
 4493 022f 0A040000 		.4byte	.LVL209
 4494 0233 0D040000 		.4byte	.LVL210-1
 4495 0237 0100     		.2byte	0x1
 4496 0239 51       		.byte	0x51
 4497 023a 0D040000 		.4byte	.LVL210-1
 4498 023e 32040000 		.4byte	.LVL221
 4499 0242 0100     		.2byte	0x1
 4500 0244 56       		.byte	0x56
 4501 0245 0A050000 		.4byte	.LVL254
 4502 0249 0E050000 		.4byte	.LVL255
 4503 024d 0100     		.2byte	0x1
 4504 024f 50       		.byte	0x50
 4505 0250 0E050000 		.4byte	.LVL255
 4506 0254 11050000 		.4byte	.LVL256-1
 4507 0258 0100     		.2byte	0x1
 4508 025a 51       		.byte	0x51
ARM GAS  C:\Users\A85590\AppData\Local\Temp\ccOscRLT.s 			page 88


 4509 025b 11050000 		.4byte	.LVL256-1
 4510 025f 3C050000 		.4byte	.LVL260
 4511 0263 0100     		.2byte	0x1
 4512 0265 54       		.byte	0x54
 4513 0266 00000000 		.4byte	0
 4514 026a 00000000 		.4byte	0
 4515              	.LLST12:
 4516 026e 66020000 		.4byte	.LVL153
 4517 0272 6A020000 		.4byte	.LVL154
 4518 0276 0100     		.2byte	0x1
 4519 0278 50       		.byte	0x50
 4520 0279 6A020000 		.4byte	.LVL154
 4521 027d 10040000 		.4byte	.LVL211
 4522 0281 0300     		.2byte	0x3
 4523 0283 91       		.byte	0x91
 4524 0284 B07F     		.sleb128 -80
 4525 0286 10040000 		.4byte	.LVL211
 4526 028a 14040000 		.4byte	.LVL212
 4527 028e 0100     		.2byte	0x1
 4528 0290 50       		.byte	0x50
 4529 0291 14040000 		.4byte	.LVL212
 4530 0295 7A040000 		.4byte	.LVL237
 4531 0299 0200     		.2byte	0x2
 4532 029b 7D       		.byte	0x7d
 4533 029c 00       		.sleb128 0
 4534 029d 00000000 		.4byte	0
 4535 02a1 00000000 		.4byte	0
 4536              	.LLST13:
 4537 02a5 EE020000 		.4byte	.LVL171
 4538 02a9 F2020000 		.4byte	.LVL172
 4539 02ad 0100     		.2byte	0x1
 4540 02af 50       		.byte	0x50
 4541 02b0 F2020000 		.4byte	.LVL172
 4542 02b4 1A040000 		.4byte	.LVL214
 4543 02b8 0100     		.2byte	0x1
 4544 02ba 58       		.byte	0x58
 4545 02bb 1A040000 		.4byte	.LVL214
 4546 02bf 1E040000 		.4byte	.LVL215
 4547 02c3 0100     		.2byte	0x1
 4548 02c5 50       		.byte	0x50
 4549 02c6 1E040000 		.4byte	.LVL215
 4550 02ca 7A040000 		.4byte	.LVL237
 4551 02ce 0100     		.2byte	0x1
 4552 02d0 58       		.byte	0x58
 4553 02d1 00000000 		.4byte	0
 4554 02d5 00000000 		.4byte	0
 4555              	.LLST14:
 4556 02d9 6C030000 		.4byte	.LVL187
 4557 02dd 72030000 		.4byte	.LVL188
 4558 02e1 0100     		.2byte	0x1
 4559 02e3 50       		.byte	0x50
 4560 02e4 72030000 		.4byte	.LVL188
 4561 02e8 24040000 		.4byte	.LVL217
 4562 02ec 0100     		.2byte	0x1
 4563 02ee 57       		.byte	0x57
 4564 02ef 24040000 		.4byte	.LVL217
 4565 02f3 28040000 		.4byte	.LVL218
ARM GAS  C:\Users\A85590\AppData\Local\Temp\ccOscRLT.s 			page 89


 4566 02f7 0100     		.2byte	0x1
 4567 02f9 50       		.byte	0x50
 4568 02fa 28040000 		.4byte	.LVL218
 4569 02fe 7A040000 		.4byte	.LVL237
 4570 0302 0100     		.2byte	0x1
 4571 0304 57       		.byte	0x57
 4572 0305 00000000 		.4byte	0
 4573 0309 00000000 		.4byte	0
 4574              	.LLST15:
 4575 030d C0030000 		.4byte	.LVL198
 4576 0311 C6030000 		.4byte	.LVL199
 4577 0315 0100     		.2byte	0x1
 4578 0317 50       		.byte	0x50
 4579 0318 C6030000 		.4byte	.LVL199
 4580 031c 2E040000 		.4byte	.LVL220
 4581 0320 0100     		.2byte	0x1
 4582 0322 59       		.byte	0x59
 4583 0323 2E040000 		.4byte	.LVL220
 4584 0327 36040000 		.4byte	.LVL222
 4585 032b 0100     		.2byte	0x1
 4586 032d 50       		.byte	0x50
 4587 032e 36040000 		.4byte	.LVL222
 4588 0332 7A040000 		.4byte	.LVL237
 4589 0336 0100     		.2byte	0x1
 4590 0338 59       		.byte	0x59
 4591 0339 00000000 		.4byte	0
 4592 033d 00000000 		.4byte	0
 4593              	.LLST16:
 4594 0341 70000000 		.4byte	.LVL56
 4595 0345 78000000 		.4byte	.LVL57
 4596 0349 0100     		.2byte	0x1
 4597 034b 50       		.byte	0x50
 4598 034c 78000000 		.4byte	.LVL57
 4599 0350 44040000 		.4byte	.LVL225
 4600 0354 0300     		.2byte	0x3
 4601 0356 91       		.byte	0x91
 4602 0357 987F     		.sleb128 -104
 4603 0359 44040000 		.4byte	.LVL225
 4604 035d 48040000 		.4byte	.LVL226
 4605 0361 0100     		.2byte	0x1
 4606 0363 50       		.byte	0x50
 4607 0364 48040000 		.4byte	.LVL226
 4608 0368 3C050000 		.4byte	.LVL260
 4609 036c 0300     		.2byte	0x3
 4610 036e 91       		.byte	0x91
 4611 036f 987F     		.sleb128 -104
 4612 0371 3C050000 		.4byte	.LVL260
 4613 0375 40050000 		.4byte	.LFE4
 4614 0379 0300     		.2byte	0x3
 4615 037b 7D       		.byte	0x7d
 4616 037c 987F     		.sleb128 -104
 4617 037e 00000000 		.4byte	0
 4618 0382 00000000 		.4byte	0
 4619              	.LLST17:
 4620 0386 AA000000 		.4byte	.LVL64
 4621 038a AE000000 		.4byte	.LVL65
 4622 038e 0100     		.2byte	0x1
ARM GAS  C:\Users\A85590\AppData\Local\Temp\ccOscRLT.s 			page 90


 4623 0390 50       		.byte	0x50
 4624 0391 AE000000 		.4byte	.LVL65
 4625 0395 56040000 		.4byte	.LVL229
 4626 0399 0300     		.2byte	0x3
 4627 039b 91       		.byte	0x91
 4628 039c 9C7F     		.sleb128 -100
 4629 039e 56040000 		.4byte	.LVL229
 4630 03a2 5A040000 		.4byte	.LVL230
 4631 03a6 0100     		.2byte	0x1
 4632 03a8 50       		.byte	0x50
 4633 03a9 5A040000 		.4byte	.LVL230
 4634 03ad 3C050000 		.4byte	.LVL260
 4635 03b1 0300     		.2byte	0x3
 4636 03b3 91       		.byte	0x91
 4637 03b4 9C7F     		.sleb128 -100
 4638 03b6 3C050000 		.4byte	.LVL260
 4639 03ba 40050000 		.4byte	.LFE4
 4640 03be 0300     		.2byte	0x3
 4641 03c0 7D       		.byte	0x7d
 4642 03c1 9C7F     		.sleb128 -100
 4643 03c3 00000000 		.4byte	0
 4644 03c7 00000000 		.4byte	0
 4645              	.LLST18:
 4646 03cb E0000000 		.4byte	.LVL72
 4647 03cf E4000000 		.4byte	.LVL73
 4648 03d3 0100     		.2byte	0x1
 4649 03d5 50       		.byte	0x50
 4650 03d6 E4000000 		.4byte	.LVL73
 4651 03da 68040000 		.4byte	.LVL233
 4652 03de 0300     		.2byte	0x3
 4653 03e0 91       		.byte	0x91
 4654 03e1 A07F     		.sleb128 -96
 4655 03e3 68040000 		.4byte	.LVL233
 4656 03e7 6C040000 		.4byte	.LVL234
 4657 03eb 0100     		.2byte	0x1
 4658 03ed 50       		.byte	0x50
 4659 03ee 6C040000 		.4byte	.LVL234
 4660 03f2 3C050000 		.4byte	.LVL260
 4661 03f6 0300     		.2byte	0x3
 4662 03f8 91       		.byte	0x91
 4663 03f9 A07F     		.sleb128 -96
 4664 03fb 3C050000 		.4byte	.LVL260
 4665 03ff 40050000 		.4byte	.LFE4
 4666 0403 0300     		.2byte	0x3
 4667 0405 7D       		.byte	0x7d
 4668 0406 A07F     		.sleb128 -96
 4669 0408 00000000 		.4byte	0
 4670 040c 00000000 		.4byte	0
 4671              	.LLST19:
 4672 0410 16010000 		.4byte	.LVL82
 4673 0414 1A010000 		.4byte	.LVL83
 4674 0418 0100     		.2byte	0x1
 4675 041a 50       		.byte	0x50
 4676 041b 1A010000 		.4byte	.LVL83
 4677 041f 3C050000 		.4byte	.LVL260
 4678 0423 0300     		.2byte	0x3
 4679 0425 91       		.byte	0x91
ARM GAS  C:\Users\A85590\AppData\Local\Temp\ccOscRLT.s 			page 91


 4680 0426 A47F     		.sleb128 -92
 4681 0428 3C050000 		.4byte	.LVL260
 4682 042c 40050000 		.4byte	.LFE4
 4683 0430 0300     		.2byte	0x3
 4684 0432 7D       		.byte	0x7d
 4685 0433 A47F     		.sleb128 -92
 4686 0435 00000000 		.4byte	0
 4687 0439 00000000 		.4byte	0
 4688              	.LLST20:
 4689 043d A0010000 		.4byte	.LVL106
 4690 0441 A4010000 		.4byte	.LVL107
 4691 0445 0100     		.2byte	0x1
 4692 0447 50       		.byte	0x50
 4693 0448 A4010000 		.4byte	.LVL107
 4694 044c 7A040000 		.4byte	.LVL237
 4695 0450 0300     		.2byte	0x3
 4696 0452 91       		.byte	0x91
 4697 0453 B87F     		.sleb128 -72
 4698 0455 00000000 		.4byte	0
 4699 0459 00000000 		.4byte	0
 4700              	.LLST21:
 4701 045d AA010000 		.4byte	.LVL109
 4702 0461 AE010000 		.4byte	.LVL110
 4703 0465 0100     		.2byte	0x1
 4704 0467 50       		.byte	0x50
 4705 0468 AE010000 		.4byte	.LVL110
 4706 046c 7A040000 		.4byte	.LVL237
 4707 0470 0300     		.2byte	0x3
 4708 0472 91       		.byte	0x91
 4709 0473 BC7F     		.sleb128 -68
 4710 0475 00000000 		.4byte	0
 4711 0479 00000000 		.4byte	0
 4712              	.LLST22:
 4713 047d B4010000 		.4byte	.LVL112
 4714 0481 B8010000 		.4byte	.LVL113
 4715 0485 0100     		.2byte	0x1
 4716 0487 50       		.byte	0x50
 4717 0488 B8010000 		.4byte	.LVL113
 4718 048c 7A040000 		.4byte	.LVL237
 4719 0490 0200     		.2byte	0x2
 4720 0492 91       		.byte	0x91
 4721 0493 40       		.sleb128 -64
 4722 0494 00000000 		.4byte	0
 4723 0498 00000000 		.4byte	0
 4724              	.LLST23:
 4725 049c BE010000 		.4byte	.LVL115
 4726 04a0 C4010000 		.4byte	.LVL116
 4727 04a4 0100     		.2byte	0x1
 4728 04a6 50       		.byte	0x50
 4729 04a7 C4010000 		.4byte	.LVL116
 4730 04ab 7A040000 		.4byte	.LVL237
 4731 04af 0200     		.2byte	0x2
 4732 04b1 91       		.byte	0x91
 4733 04b2 44       		.sleb128 -60
 4734 04b3 00000000 		.4byte	0
 4735 04b7 00000000 		.4byte	0
 4736              	.LLST24:
ARM GAS  C:\Users\A85590\AppData\Local\Temp\ccOscRLT.s 			page 92


 4737 04bb CA010000 		.4byte	.LVL118
 4738 04bf D0010000 		.4byte	.LVL119
 4739 04c3 0100     		.2byte	0x1
 4740 04c5 50       		.byte	0x50
 4741 04c6 D0010000 		.4byte	.LVL119
 4742 04ca 54020000 		.4byte	.LVL150
 4743 04ce 0100     		.2byte	0x1
 4744 04d0 56       		.byte	0x56
 4745 04d1 00000000 		.4byte	0
 4746 04d5 00000000 		.4byte	0
 4747              	.LLST25:
 4748 04d9 D6010000 		.4byte	.LVL121
 4749 04dd DC010000 		.4byte	.LVL122
 4750 04e1 0100     		.2byte	0x1
 4751 04e3 50       		.byte	0x50
 4752 04e4 DC010000 		.4byte	.LVL122
 4753 04e8 7A040000 		.4byte	.LVL237
 4754 04ec 0300     		.2byte	0x3
 4755 04ee 91       		.byte	0x91
 4756 04ef A87F     		.sleb128 -88
 4757 04f1 00000000 		.4byte	0
 4758 04f5 00000000 		.4byte	0
 4759              	.LLST26:
 4760 04f9 E2010000 		.4byte	.LVL124
 4761 04fd E8010000 		.4byte	.LVL125
 4762 0501 0100     		.2byte	0x1
 4763 0503 50       		.byte	0x50
 4764 0504 E8010000 		.4byte	.LVL125
 4765 0508 7A040000 		.4byte	.LVL237
 4766 050c 0200     		.2byte	0x2
 4767 050e 91       		.byte	0x91
 4768 050f 50       		.sleb128 -48
 4769 0510 00000000 		.4byte	0
 4770 0514 00000000 		.4byte	0
 4771              	.LLST27:
 4772 0518 EE010000 		.4byte	.LVL127
 4773 051c F4010000 		.4byte	.LVL128
 4774 0520 0100     		.2byte	0x1
 4775 0522 50       		.byte	0x50
 4776 0523 F4010000 		.4byte	.LVL128
 4777 0527 DC020000 		.4byte	.LVL168
 4778 052b 0100     		.2byte	0x1
 4779 052d 57       		.byte	0x57
 4780 052e 00000000 		.4byte	0
 4781 0532 00000000 		.4byte	0
 4782              	.LLST28:
 4783 0536 FA010000 		.4byte	.LVL130
 4784 053a FE010000 		.4byte	.LVL131
 4785 053e 0100     		.2byte	0x1
 4786 0540 50       		.byte	0x50
 4787 0541 FE010000 		.4byte	.LVL131
 4788 0545 7A040000 		.4byte	.LVL237
 4789 0549 0200     		.2byte	0x2
 4790 054b 91       		.byte	0x91
 4791 054c 48       		.sleb128 -56
 4792 054d 00000000 		.4byte	0
 4793 0551 00000000 		.4byte	0
ARM GAS  C:\Users\A85590\AppData\Local\Temp\ccOscRLT.s 			page 93


 4794              	.LLST29:
 4795 0555 04020000 		.4byte	.LVL133
 4796 0559 08020000 		.4byte	.LVL134
 4797 055d 0100     		.2byte	0x1
 4798 055f 50       		.byte	0x50
 4799 0560 08020000 		.4byte	.LVL134
 4800 0564 7A040000 		.4byte	.LVL237
 4801 0568 0200     		.2byte	0x2
 4802 056a 91       		.byte	0x91
 4803 056b 54       		.sleb128 -44
 4804 056c 00000000 		.4byte	0
 4805 0570 00000000 		.4byte	0
 4806              	.LLST30:
 4807 0574 0E020000 		.4byte	.LVL136
 4808 0578 12020000 		.4byte	.LVL137
 4809 057c 0100     		.2byte	0x1
 4810 057e 50       		.byte	0x50
 4811 057f 12020000 		.4byte	.LVL137
 4812 0583 7A040000 		.4byte	.LVL237
 4813 0587 0300     		.2byte	0x3
 4814 0589 91       		.byte	0x91
 4815 058a 947F     		.sleb128 -108
 4816 058c 00000000 		.4byte	0
 4817 0590 00000000 		.4byte	0
 4818              	.LLST31:
 4819 0594 18020000 		.4byte	.LVL139
 4820 0598 1C020000 		.4byte	.LVL140
 4821 059c 0100     		.2byte	0x1
 4822 059e 50       		.byte	0x50
 4823 059f 1C020000 		.4byte	.LVL140
 4824 05a3 30020000 		.4byte	.LVL145
 4825 05a7 0100     		.2byte	0x1
 4826 05a9 58       		.byte	0x58
 4827 05aa 30020000 		.4byte	.LVL145
 4828 05ae 7A040000 		.4byte	.LVL237
 4829 05b2 0300     		.2byte	0x3
 4830 05b4 91       		.byte	0x91
 4831 05b5 AC7F     		.sleb128 -84
 4832 05b7 00000000 		.4byte	0
 4833 05bb 00000000 		.4byte	0
 4834              	.LLST32:
 4835 05bf 22020000 		.4byte	.LVL142
 4836 05c3 2A020000 		.4byte	.LVL143
 4837 05c7 0100     		.2byte	0x1
 4838 05c9 50       		.byte	0x50
 4839 05ca 2A020000 		.4byte	.LVL143
 4840 05ce 7A040000 		.4byte	.LVL237
 4841 05d2 0200     		.2byte	0x2
 4842 05d4 91       		.byte	0x91
 4843 05d5 4C       		.sleb128 -52
 4844 05d6 00000000 		.4byte	0
 4845 05da 00000000 		.4byte	0
 4846              	.LLST33:
 4847 05de 00000000 		.4byte	.LVL261
 4848 05e2 12000000 		.4byte	.LVL263
 4849 05e6 0100     		.2byte	0x1
 4850 05e8 50       		.byte	0x50
ARM GAS  C:\Users\A85590\AppData\Local\Temp\ccOscRLT.s 			page 94


 4851 05e9 12000000 		.4byte	.LVL263
 4852 05ed 4E000000 		.4byte	.LVL269
 4853 05f1 0100     		.2byte	0x1
 4854 05f3 56       		.byte	0x56
 4855 05f4 4E000000 		.4byte	.LVL269
 4856 05f8 52000000 		.4byte	.LVL270
 4857 05fc 0100     		.2byte	0x1
 4858 05fe 50       		.byte	0x50
 4859 05ff 52000000 		.4byte	.LVL270
 4860 0603 82010000 		.4byte	.LVL315
 4861 0607 0100     		.2byte	0x1
 4862 0609 57       		.byte	0x57
 4863 060a 00000000 		.4byte	0
 4864 060e 00000000 		.4byte	0
 4865              	.LLST34:
 4866 0612 00000000 		.4byte	.LVL261
 4867 0616 10000000 		.4byte	.LVL262
 4868 061a 0100     		.2byte	0x1
 4869 061c 51       		.byte	0x51
 4870 061d 10000000 		.4byte	.LVL262
 4871 0621 58000000 		.4byte	.LVL272
 4872 0625 0100     		.2byte	0x1
 4873 0627 55       		.byte	0x55
 4874 0628 58000000 		.4byte	.LVL272
 4875 062c 5C000000 		.4byte	.LVL273
 4876 0630 0100     		.2byte	0x1
 4877 0632 50       		.byte	0x50
 4878 0633 5C000000 		.4byte	.LVL273
 4879 0637 2E010000 		.4byte	.LVL305
 4880 063b 0100     		.2byte	0x1
 4881 063d 58       		.byte	0x58
 4882 063e 00000000 		.4byte	0
 4883 0642 00000000 		.4byte	0
 4884              	.LLST35:
 4885 0646 00000000 		.4byte	.LVL261
 4886 064a 15000000 		.4byte	.LVL264-1
 4887 064e 0100     		.2byte	0x1
 4888 0650 52       		.byte	0x52
 4889 0651 15000000 		.4byte	.LVL264-1
 4890 0655 62000000 		.4byte	.LVL275
 4891 0659 0100     		.2byte	0x1
 4892 065b 54       		.byte	0x54
 4893 065c 62000000 		.4byte	.LVL275
 4894 0660 6C000000 		.4byte	.LVL276
 4895 0664 0100     		.2byte	0x1
 4896 0666 50       		.byte	0x50
 4897 0667 6C000000 		.4byte	.LVL276
 4898 066b 1C010000 		.4byte	.LVL302
 4899 066f 0100     		.2byte	0x1
 4900 0671 59       		.byte	0x59
 4901 0672 00000000 		.4byte	0
 4902 0676 00000000 		.4byte	0
 4903              	.LLST36:
 4904 067a 00000000 		.4byte	.LVL261
 4905 067e 15000000 		.4byte	.LVL264-1
 4906 0682 0100     		.2byte	0x1
 4907 0684 53       		.byte	0x53
ARM GAS  C:\Users\A85590\AppData\Local\Temp\ccOscRLT.s 			page 95


 4908 0685 15000000 		.4byte	.LVL264-1
 4909 0689 B4010000 		.4byte	.LVL324
 4910 068d 0300     		.2byte	0x3
 4911 068f 91       		.byte	0x91
 4912 0690 E47E     		.sleb128 -156
 4913 0692 B4010000 		.4byte	.LVL324
 4914 0696 B8010000 		.4byte	.LVL325
 4915 069a 0100     		.2byte	0x1
 4916 069c 50       		.byte	0x50
 4917 069d B8010000 		.4byte	.LVL325
 4918 06a1 48050000 		.4byte	.LVL491
 4919 06a5 0300     		.2byte	0x3
 4920 06a7 91       		.byte	0x91
 4921 06a8 B47F     		.sleb128 -76
 4922 06aa 00000000 		.4byte	0
 4923 06ae 00000000 		.4byte	0
 4924              	.LLST37:
 4925 06b2 00000000 		.4byte	.LVL261
 4926 06b6 BE010000 		.4byte	.LVL327
 4927 06ba 0200     		.2byte	0x2
 4928 06bc 91       		.byte	0x91
 4929 06bd 00       		.sleb128 0
 4930 06be BE010000 		.4byte	.LVL327
 4931 06c2 C2010000 		.4byte	.LVL328
 4932 06c6 0100     		.2byte	0x1
 4933 06c8 50       		.byte	0x50
 4934 06c9 C2010000 		.4byte	.LVL328
 4935 06cd B0050000 		.4byte	.LVL506
 4936 06d1 0300     		.2byte	0x3
 4937 06d3 91       		.byte	0x91
 4938 06d4 B87F     		.sleb128 -72
 4939 06d6 00000000 		.4byte	0
 4940 06da 00000000 		.4byte	0
 4941              	.LLST38:
 4942 06de 00000000 		.4byte	.LVL261
 4943 06e2 C8010000 		.4byte	.LVL330
 4944 06e6 0200     		.2byte	0x2
 4945 06e8 91       		.byte	0x91
 4946 06e9 04       		.sleb128 4
 4947 06ea C8010000 		.4byte	.LVL330
 4948 06ee CC010000 		.4byte	.LVL331
 4949 06f2 0100     		.2byte	0x1
 4950 06f4 50       		.byte	0x50
 4951 06f5 CC010000 		.4byte	.LVL331
 4952 06f9 14090000 		.4byte	.LVL634
 4953 06fd 0300     		.2byte	0x3
 4954 06ff 91       		.byte	0x91
 4955 0700 BC7F     		.sleb128 -68
 4956 0702 00000000 		.4byte	0
 4957 0706 00000000 		.4byte	0
 4958              	.LLST39:
 4959 070a 00000000 		.4byte	.LVL261
 4960 070e 04020000 		.4byte	.LVL342
 4961 0712 0200     		.2byte	0x2
 4962 0714 91       		.byte	0x91
 4963 0715 08       		.sleb128 8
 4964 0716 04020000 		.4byte	.LVL342
ARM GAS  C:\Users\A85590\AppData\Local\Temp\ccOscRLT.s 			page 96


 4965 071a 08020000 		.4byte	.LVL343
 4966 071e 0100     		.2byte	0x1
 4967 0720 50       		.byte	0x50
 4968 0721 08020000 		.4byte	.LVL343
 4969 0725 A6050000 		.4byte	.LVL504
 4970 0729 0100     		.2byte	0x1
 4971 072b 58       		.byte	0x58
 4972 072c 00000000 		.4byte	0
 4973 0730 00000000 		.4byte	0
 4974              	.LLST40:
 4975 0734 00000000 		.4byte	.LVL261
 4976 0738 0E020000 		.4byte	.LVL345
 4977 073c 0200     		.2byte	0x2
 4978 073e 91       		.byte	0x91
 4979 073f 0C       		.sleb128 12
 4980 0740 0E020000 		.4byte	.LVL345
 4981 0744 12020000 		.4byte	.LVL346
 4982 0748 0100     		.2byte	0x1
 4983 074a 50       		.byte	0x50
 4984 074b 12020000 		.4byte	.LVL346
 4985 074f 92040000 		.4byte	.LVL461
 4986 0753 0300     		.2byte	0x3
 4987 0755 91       		.byte	0x91
 4988 0756 E47E     		.sleb128 -156
 4989 0758 92040000 		.4byte	.LVL461
 4990 075c B0040000 		.4byte	.LVL466
 4991 0760 0100     		.2byte	0x1
 4992 0762 5A       		.byte	0x5a
 4993 0763 B0040000 		.4byte	.LVL466
 4994 0767 EC050000 		.4byte	.LVL515
 4995 076b 0300     		.2byte	0x3
 4996 076d 91       		.byte	0x91
 4997 076e E47E     		.sleb128 -156
 4998 0770 00000000 		.4byte	0
 4999 0774 00000000 		.4byte	0
 5000              	.LLST41:
 5001 0778 00000000 		.4byte	.LVL261
 5002 077c 18020000 		.4byte	.LVL348
 5003 0780 0200     		.2byte	0x2
 5004 0782 91       		.byte	0x91
 5005 0783 10       		.sleb128 16
 5006 0784 18020000 		.4byte	.LVL348
 5007 0788 1C020000 		.4byte	.LVL349
 5008 078c 0100     		.2byte	0x1
 5009 078e 50       		.byte	0x50
 5010 078f 1C020000 		.4byte	.LVL349
 5011 0793 7C060000 		.4byte	.LVL535
 5012 0797 0100     		.2byte	0x1
 5013 0799 5B       		.byte	0x5b
 5014 079a 00000000 		.4byte	0
 5015 079e 00000000 		.4byte	0
 5016              	.LLST42:
 5017 07a2 AA010000 		.4byte	.LVL321
 5018 07a6 AE010000 		.4byte	.LVL322
 5019 07aa 0100     		.2byte	0x1
 5020 07ac 50       		.byte	0x50
 5021 07ad AE010000 		.4byte	.LVL322
ARM GAS  C:\Users\A85590\AppData\Local\Temp\ccOscRLT.s 			page 97


 5022 07b1 B1010000 		.4byte	.LVL323-1
 5023 07b5 0100     		.2byte	0x1
 5024 07b7 51       		.byte	0x51
 5025 07b8 B1010000 		.4byte	.LVL323-1
 5026 07bc D2010000 		.4byte	.LVL333
 5027 07c0 0100     		.2byte	0x1
 5028 07c2 57       		.byte	0x57
 5029 07c3 FA010000 		.4byte	.LVL339
 5030 07c7 FE010000 		.4byte	.LVL340
 5031 07cb 0100     		.2byte	0x1
 5032 07cd 50       		.byte	0x50
 5033 07ce FE010000 		.4byte	.LVL340
 5034 07d2 01020000 		.4byte	.LVL341-1
 5035 07d6 0100     		.2byte	0x1
 5036 07d8 51       		.byte	0x51
 5037 07d9 01020000 		.4byte	.LVL341-1
 5038 07dd 2C020000 		.4byte	.LVL352
 5039 07e1 0100     		.2byte	0x1
 5040 07e3 57       		.byte	0x57
 5041 07e4 A0080000 		.4byte	.LVL605
 5042 07e8 A4080000 		.4byte	.LVL606
 5043 07ec 0100     		.2byte	0x1
 5044 07ee 50       		.byte	0x50
 5045 07ef A4080000 		.4byte	.LVL606
 5046 07f3 A7080000 		.4byte	.LVL607-1
 5047 07f7 0100     		.2byte	0x1
 5048 07f9 51       		.byte	0x51
 5049 07fa A7080000 		.4byte	.LVL607-1
 5050 07fe CC080000 		.4byte	.LVL618
 5051 0802 0100     		.2byte	0x1
 5052 0804 55       		.byte	0x55
 5053 0805 9C090000 		.4byte	.LVL651
 5054 0809 A0090000 		.4byte	.LVL652
 5055 080d 0100     		.2byte	0x1
 5056 080f 50       		.byte	0x50
 5057 0810 A0090000 		.4byte	.LVL652
 5058 0814 A3090000 		.4byte	.LVL653-1
 5059 0818 0100     		.2byte	0x1
 5060 081a 51       		.byte	0x51
 5061 081b A3090000 		.4byte	.LVL653-1
 5062 081f C8090000 		.4byte	.LVL657
 5063 0823 0100     		.2byte	0x1
 5064 0825 55       		.byte	0x55
 5065 0826 00000000 		.4byte	0
 5066 082a 00000000 		.4byte	0
 5067              	.LLST43:
 5068 082e 54060000 		.4byte	.LVL529
 5069 0832 58060000 		.4byte	.LVL530
 5070 0836 0100     		.2byte	0x1
 5071 0838 50       		.byte	0x50
 5072 0839 58060000 		.4byte	.LVL530
 5073 083d AA080000 		.4byte	.LVL608
 5074 0841 0300     		.2byte	0x3
 5075 0843 91       		.byte	0x91
 5076 0844 9C7F     		.sleb128 -100
 5077 0846 AA080000 		.4byte	.LVL608
 5078 084a AE080000 		.4byte	.LVL609
ARM GAS  C:\Users\A85590\AppData\Local\Temp\ccOscRLT.s 			page 98


 5079 084e 0100     		.2byte	0x1
 5080 0850 50       		.byte	0x50
 5081 0851 AE080000 		.4byte	.LVL609
 5082 0855 14090000 		.4byte	.LVL634
 5083 0859 0100     		.2byte	0x1
 5084 085b 57       		.byte	0x57
 5085 085c 00000000 		.4byte	0
 5086 0860 00000000 		.4byte	0
 5087              	.LLST44:
 5088 0864 34070000 		.4byte	.LVL557
 5089 0868 3A070000 		.4byte	.LVL558
 5090 086c 0100     		.2byte	0x1
 5091 086e 50       		.byte	0x50
 5092 086f 3A070000 		.4byte	.LVL558
 5093 0873 B4080000 		.4byte	.LVL611
 5094 0877 0100     		.2byte	0x1
 5095 0879 5A       		.byte	0x5a
 5096 087a B4080000 		.4byte	.LVL611
 5097 087e B8080000 		.4byte	.LVL612
 5098 0882 0100     		.2byte	0x1
 5099 0884 50       		.byte	0x50
 5100 0885 B8080000 		.4byte	.LVL612
 5101 0889 14090000 		.4byte	.LVL634
 5102 088d 0100     		.2byte	0x1
 5103 088f 58       		.byte	0x58
 5104 0890 00000000 		.4byte	0
 5105 0894 00000000 		.4byte	0
 5106              	.LLST45:
 5107 0898 E8070000 		.4byte	.LVL580
 5108 089c EC070000 		.4byte	.LVL581
 5109 08a0 0100     		.2byte	0x1
 5110 08a2 50       		.byte	0x50
 5111 08a3 EC070000 		.4byte	.LVL581
 5112 08a7 BE080000 		.4byte	.LVL614
 5113 08ab 0100     		.2byte	0x1
 5114 08ad 54       		.byte	0x54
 5115 08ae BE080000 		.4byte	.LVL614
 5116 08b2 C2080000 		.4byte	.LVL615
 5117 08b6 0100     		.2byte	0x1
 5118 08b8 50       		.byte	0x50
 5119 08b9 C2080000 		.4byte	.LVL615
 5120 08bd 14090000 		.4byte	.LVL634
 5121 08c1 0100     		.2byte	0x1
 5122 08c3 54       		.byte	0x54
 5123 08c4 00000000 		.4byte	0
 5124 08c8 00000000 		.4byte	0
 5125              	.LLST46:
 5126 08cc 5A080000 		.4byte	.LVL595
 5127 08d0 60080000 		.4byte	.LVL596
 5128 08d4 0100     		.2byte	0x1
 5129 08d6 50       		.byte	0x50
 5130 08d7 60080000 		.4byte	.LVL596
 5131 08db C8080000 		.4byte	.LVL617
 5132 08df 0100     		.2byte	0x1
 5133 08e1 56       		.byte	0x56
 5134 08e2 C8080000 		.4byte	.LVL617
 5135 08e6 D0080000 		.4byte	.LVL619
ARM GAS  C:\Users\A85590\AppData\Local\Temp\ccOscRLT.s 			page 99


 5136 08ea 0100     		.2byte	0x1
 5137 08ec 50       		.byte	0x50
 5138 08ed D0080000 		.4byte	.LVL619
 5139 08f1 14090000 		.4byte	.LVL634
 5140 08f5 0100     		.2byte	0x1
 5141 08f7 56       		.byte	0x56
 5142 08f8 00000000 		.4byte	0
 5143 08fc 00000000 		.4byte	0
 5144              	.LLST47:
 5145 0900 A4000000 		.4byte	.LVL283
 5146 0904 AA000000 		.4byte	.LVL284
 5147 0908 0100     		.2byte	0x1
 5148 090a 50       		.byte	0x50
 5149 090b AA000000 		.4byte	.LVL284
 5150 090f DE080000 		.4byte	.LVL622
 5151 0913 0300     		.2byte	0x3
 5152 0915 91       		.byte	0x91
 5153 0916 8C7F     		.sleb128 -116
 5154 0918 DE080000 		.4byte	.LVL622
 5155 091c E2080000 		.4byte	.LVL623
 5156 0920 0100     		.2byte	0x1
 5157 0922 50       		.byte	0x50
 5158 0923 E2080000 		.4byte	.LVL623
 5159 0927 C8090000 		.4byte	.LVL657
 5160 092b 0300     		.2byte	0x3
 5161 092d 91       		.byte	0x91
 5162 092e 8C7F     		.sleb128 -116
 5163 0930 00000000 		.4byte	0
 5164 0934 00000000 		.4byte	0
 5165              	.LLST48:
 5166 0938 DC000000 		.4byte	.LVL291
 5167 093c E0000000 		.4byte	.LVL292
 5168 0940 0100     		.2byte	0x1
 5169 0942 50       		.byte	0x50
 5170 0943 E0000000 		.4byte	.LVL292
 5171 0947 F0080000 		.4byte	.LVL626
 5172 094b 0300     		.2byte	0x3
 5173 094d 91       		.byte	0x91
 5174 094e 907F     		.sleb128 -112
 5175 0950 F0080000 		.4byte	.LVL626
 5176 0954 F4080000 		.4byte	.LVL627
 5177 0958 0100     		.2byte	0x1
 5178 095a 50       		.byte	0x50
 5179 095b F4080000 		.4byte	.LVL627
 5180 095f C8090000 		.4byte	.LVL657
 5181 0963 0300     		.2byte	0x3
 5182 0965 91       		.byte	0x91
 5183 0966 907F     		.sleb128 -112
 5184 0968 00000000 		.4byte	0
 5185 096c 00000000 		.4byte	0
 5186              	.LLST49:
 5187 0970 12010000 		.4byte	.LVL299
 5188 0974 16010000 		.4byte	.LVL300
 5189 0978 0100     		.2byte	0x1
 5190 097a 50       		.byte	0x50
 5191 097b 16010000 		.4byte	.LVL300
 5192 097f 02090000 		.4byte	.LVL630
ARM GAS  C:\Users\A85590\AppData\Local\Temp\ccOscRLT.s 			page 100


 5193 0983 0300     		.2byte	0x3
 5194 0985 91       		.byte	0x91
 5195 0986 947F     		.sleb128 -108
 5196 0988 02090000 		.4byte	.LVL630
 5197 098c 06090000 		.4byte	.LVL631
 5198 0990 0100     		.2byte	0x1
 5199 0992 50       		.byte	0x50
 5200 0993 06090000 		.4byte	.LVL631
 5201 0997 C8090000 		.4byte	.LVL657
 5202 099b 0300     		.2byte	0x3
 5203 099d 91       		.byte	0x91
 5204 099e 947F     		.sleb128 -108
 5205 09a0 00000000 		.4byte	0
 5206 09a4 00000000 		.4byte	0
 5207              	.LLST50:
 5208 09a8 48010000 		.4byte	.LVL309
 5209 09ac 4C010000 		.4byte	.LVL310
 5210 09b0 0100     		.2byte	0x1
 5211 09b2 50       		.byte	0x50
 5212 09b3 4C010000 		.4byte	.LVL310
 5213 09b7 C8090000 		.4byte	.LVL657
 5214 09bb 0300     		.2byte	0x3
 5215 09bd 91       		.byte	0x91
 5216 09be 987F     		.sleb128 -104
 5217 09c0 00000000 		.4byte	0
 5218 09c4 00000000 		.4byte	0
 5219              	.LLST51:
 5220 09c8 78030000 		.4byte	.LVL423
 5221 09cc 7C030000 		.4byte	.LVL424
 5222 09d0 0100     		.2byte	0x1
 5223 09d2 50       		.byte	0x50
 5224 09d3 7C030000 		.4byte	.LVL424
 5225 09d7 40040000 		.4byte	.LVL452
 5226 09db 0100     		.2byte	0x1
 5227 09dd 56       		.byte	0x56
 5228 09de 00000000 		.4byte	0
 5229 09e2 00000000 		.4byte	0
 5230              	.LLST52:
 5231 09e6 0C040000 		.4byte	.LVL441
 5232 09ea 10040000 		.4byte	.LVL442
 5233 09ee 0100     		.2byte	0x1
 5234 09f0 50       		.byte	0x50
 5235 09f1 10040000 		.4byte	.LVL442
 5236 09f5 2C040000 		.4byte	.LVL447
 5237 09f9 0100     		.2byte	0x1
 5238 09fb 54       		.byte	0x54
 5239 09fc 00000000 		.4byte	0
 5240 0a00 00000000 		.4byte	0
 5241              	.LLST53:
 5242 0a04 2C020000 		.4byte	.LVL352
 5243 0a08 30020000 		.4byte	.LVL353
 5244 0a0c 0100     		.2byte	0x1
 5245 0a0e 50       		.byte	0x50
 5246 0a0f 30020000 		.4byte	.LVL353
 5247 0a13 32040000 		.4byte	.LVL449
 5248 0a17 0100     		.2byte	0x1
 5249 0a19 57       		.byte	0x57
ARM GAS  C:\Users\A85590\AppData\Local\Temp\ccOscRLT.s 			page 101


 5250 0a1a 00000000 		.4byte	0
 5251 0a1e 00000000 		.4byte	0
 5252              	.LLST54:
 5253 0a22 36020000 		.4byte	.LVL355
 5254 0a26 3A020000 		.4byte	.LVL356
 5255 0a2a 0100     		.2byte	0x1
 5256 0a2c 50       		.byte	0x50
 5257 0a2d 3A020000 		.4byte	.LVL356
 5258 0a31 08050000 		.4byte	.LVL482
 5259 0a35 0300     		.2byte	0x3
 5260 0a37 91       		.byte	0x91
 5261 0a38 A07F     		.sleb128 -96
 5262 0a3a 00000000 		.4byte	0
 5263 0a3e 00000000 		.4byte	0
 5264              	.LLST55:
 5265 0a42 40020000 		.4byte	.LVL358
 5266 0a46 44020000 		.4byte	.LVL359
 5267 0a4a 0100     		.2byte	0x1
 5268 0a4c 50       		.byte	0x50
 5269 0a4d 44020000 		.4byte	.LVL359
 5270 0a51 36040000 		.4byte	.LVL450
 5271 0a55 0300     		.2byte	0x3
 5272 0a57 91       		.byte	0x91
 5273 0a58 EC7E     		.sleb128 -148
 5274 0a5a 00000000 		.4byte	0
 5275 0a5e 00000000 		.4byte	0
 5276              	.LLST56:
 5277 0a62 54020000 		.4byte	.LVL362
 5278 0a66 58020000 		.4byte	.LVL363
 5279 0a6a 0100     		.2byte	0x1
 5280 0a6c 50       		.byte	0x50
 5281 0a6d 58020000 		.4byte	.LVL363
 5282 0a71 2C050000 		.4byte	.LVL487
 5283 0a75 0300     		.2byte	0x3
 5284 0a77 91       		.byte	0x91
 5285 0a78 A47F     		.sleb128 -92
 5286 0a7a 00000000 		.4byte	0
 5287 0a7e 00000000 		.4byte	0
 5288              	.LLST57:
 5289 0a82 2C040000 		.4byte	.LVL447
 5290 0a86 30040000 		.4byte	.LVL448
 5291 0a8a 0100     		.2byte	0x1
 5292 0a8c 50       		.byte	0x50
 5293 0a8d 30040000 		.4byte	.LVL448
 5294 0a91 C2070000 		.4byte	.LVL575
 5295 0a95 0100     		.2byte	0x1
 5296 0a97 54       		.byte	0x54
 5297 0a98 00000000 		.4byte	0
 5298 0a9c 00000000 		.4byte	0
 5299              	.LLST58:
 5300 0aa0 D4040000 		.4byte	.LVL471
 5301 0aa4 D8040000 		.4byte	.LVL472
 5302 0aa8 0100     		.2byte	0x1
 5303 0aaa 50       		.byte	0x50
 5304 0aab D8040000 		.4byte	.LVL472
 5305 0aaf EE060000 		.4byte	.LVL548
 5306 0ab3 0100     		.2byte	0x1
ARM GAS  C:\Users\A85590\AppData\Local\Temp\ccOscRLT.s 			page 102


 5307 0ab5 55       		.byte	0x55
 5308 0ab6 00000000 		.4byte	0
 5309 0aba 00000000 		.4byte	0
 5310              	.LLST59:
 5311 0abe DE040000 		.4byte	.LVL474
 5312 0ac2 E2040000 		.4byte	.LVL475
 5313 0ac6 0100     		.2byte	0x1
 5314 0ac8 50       		.byte	0x50
 5315 0ac9 E2040000 		.4byte	.LVL475
 5316 0acd 14090000 		.4byte	.LVL634
 5317 0ad1 0200     		.2byte	0x2
 5318 0ad3 91       		.byte	0x91
 5319 0ad4 54       		.sleb128 -44
 5320 0ad5 00000000 		.4byte	0
 5321 0ad9 00000000 		.4byte	0
 5322              	.LLST60:
 5323 0add E8040000 		.4byte	.LVL477
 5324 0ae1 F6040000 		.4byte	.LVL478
 5325 0ae5 0100     		.2byte	0x1
 5326 0ae7 50       		.byte	0x50
 5327 0ae8 F6040000 		.4byte	.LVL478
 5328 0aec 14090000 		.4byte	.LVL634
 5329 0af0 0300     		.2byte	0x3
 5330 0af2 91       		.byte	0x91
 5331 0af3 B07F     		.sleb128 -80
 5332 0af5 00000000 		.4byte	0
 5333 0af9 00000000 		.4byte	0
 5334              	.LLST61:
 5335 0afd 54020000 		.4byte	.LVL362
 5336 0b01 74070000 		.4byte	.LVL565
 5337 0b05 0100     		.2byte	0x1
 5338 0b07 59       		.byte	0x59
 5339 0b08 00000000 		.4byte	0
 5340 0b0c 00000000 		.4byte	0
 5341              	.LLST62:
 5342 0b10 54020000 		.4byte	.LVL362
 5343 0b14 14090000 		.4byte	.LVL634
 5344 0b18 0300     		.2byte	0x3
 5345 0b1a 91       		.byte	0x91
 5346 0b1b 807F     		.sleb128 -128
 5347 0b1d 00000000 		.4byte	0
 5348 0b21 00000000 		.4byte	0
 5349              	.LLST63:
 5350 0b25 5E020000 		.4byte	.LVL365
 5351 0b29 62020000 		.4byte	.LVL366
 5352 0b2d 0100     		.2byte	0x1
 5353 0b2f 50       		.byte	0x50
 5354 0b30 62020000 		.4byte	.LVL366
 5355 0b34 14090000 		.4byte	.LVL634
 5356 0b38 0300     		.2byte	0x3
 5357 0b3a 91       		.byte	0x91
 5358 0b3b F07E     		.sleb128 -144
 5359 0b3d 00000000 		.4byte	0
 5360 0b41 00000000 		.4byte	0
 5361              	.LLST64:
 5362 0b45 68020000 		.4byte	.LVL368
 5363 0b49 6C020000 		.4byte	.LVL369
ARM GAS  C:\Users\A85590\AppData\Local\Temp\ccOscRLT.s 			page 103


 5364 0b4d 0100     		.2byte	0x1
 5365 0b4f 50       		.byte	0x50
 5366 0b50 6C020000 		.4byte	.LVL369
 5367 0b54 14090000 		.4byte	.LVL634
 5368 0b58 0300     		.2byte	0x3
 5369 0b5a 91       		.byte	0x91
 5370 0b5b A87F     		.sleb128 -88
 5371 0b5d 00000000 		.4byte	0
 5372 0b61 00000000 		.4byte	0
 5373              	.LLST65:
 5374 0b65 72020000 		.4byte	.LVL371
 5375 0b69 76020000 		.4byte	.LVL372
 5376 0b6d 0100     		.2byte	0x1
 5377 0b6f 50       		.byte	0x50
 5378 0b70 76020000 		.4byte	.LVL372
 5379 0b74 CC050000 		.4byte	.LVL510
 5380 0b78 0200     		.2byte	0x2
 5381 0b7a 91       		.byte	0x91
 5382 0b7b 40       		.sleb128 -64
 5383 0b7c 00000000 		.4byte	0
 5384 0b80 00000000 		.4byte	0
 5385              	.LLST66:
 5386 0b84 7C020000 		.4byte	.LVL374
 5387 0b88 80020000 		.4byte	.LVL375
 5388 0b8c 0100     		.2byte	0x1
 5389 0b8e 50       		.byte	0x50
 5390 0b8f 80020000 		.4byte	.LVL375
 5391 0b93 14090000 		.4byte	.LVL634
 5392 0b97 0200     		.2byte	0x2
 5393 0b99 91       		.byte	0x91
 5394 0b9a 44       		.sleb128 -60
 5395 0b9b 00000000 		.4byte	0
 5396 0b9f 00000000 		.4byte	0
 5397              	.LLST67:
 5398 0ba3 86020000 		.4byte	.LVL377
 5399 0ba7 8A020000 		.4byte	.LVL378
 5400 0bab 0100     		.2byte	0x1
 5401 0bad 50       		.byte	0x50
 5402 0bae 8A020000 		.4byte	.LVL378
 5403 0bb2 9C040000 		.4byte	.LVL463
 5404 0bb6 0300     		.2byte	0x3
 5405 0bb8 91       		.byte	0x91
 5406 0bb9 FC7E     		.sleb128 -132
 5407 0bbb 00000000 		.4byte	0
 5408 0bbf 00000000 		.4byte	0
 5409              	.LLST68:
 5410 0bc3 90020000 		.4byte	.LVL380
 5411 0bc7 94020000 		.4byte	.LVL381
 5412 0bcb 0100     		.2byte	0x1
 5413 0bcd 50       		.byte	0x50
 5414 0bce 94020000 		.4byte	.LVL381
 5415 0bd2 54060000 		.4byte	.LVL529
 5416 0bd6 0300     		.2byte	0x3
 5417 0bd8 91       		.byte	0x91
 5418 0bd9 9C7F     		.sleb128 -100
 5419 0bdb 00000000 		.4byte	0
 5420 0bdf 00000000 		.4byte	0
ARM GAS  C:\Users\A85590\AppData\Local\Temp\ccOscRLT.s 			page 104


 5421              	.LLST69:
 5422 0be3 9A020000 		.4byte	.LVL383
 5423 0be7 9E020000 		.4byte	.LVL384
 5424 0beb 0100     		.2byte	0x1
 5425 0bed 50       		.byte	0x50
 5426 0bee 9E020000 		.4byte	.LVL384
 5427 0bf2 14090000 		.4byte	.LVL634
 5428 0bf6 0300     		.2byte	0x3
 5429 0bf8 91       		.byte	0x91
 5430 0bf9 AC7F     		.sleb128 -84
 5431 0bfb 00000000 		.4byte	0
 5432 0bff 00000000 		.4byte	0
 5433              	.LLST70:
 5434 0c03 A4020000 		.4byte	.LVL386
 5435 0c07 A8020000 		.4byte	.LVL387
 5436 0c0b 0100     		.2byte	0x1
 5437 0c0d 50       		.byte	0x50
 5438 0c0e A8020000 		.4byte	.LVL387
 5439 0c12 14090000 		.4byte	.LVL634
 5440 0c16 0200     		.2byte	0x2
 5441 0c18 91       		.byte	0x91
 5442 0c19 48       		.sleb128 -56
 5443 0c1a 00000000 		.4byte	0
 5444 0c1e 00000000 		.4byte	0
 5445              	.LLST71:
 5446 0c22 AE020000 		.4byte	.LVL389
 5447 0c26 B2020000 		.4byte	.LVL390
 5448 0c2a 0100     		.2byte	0x1
 5449 0c2c 50       		.byte	0x50
 5450 0c2d B2020000 		.4byte	.LVL390
 5451 0c31 94060000 		.4byte	.LVL538
 5452 0c35 0300     		.2byte	0x3
 5453 0c37 91       		.byte	0x91
 5454 0c38 F47E     		.sleb128 -140
 5455 0c3a 00000000 		.4byte	0
 5456 0c3e 00000000 		.4byte	0
 5457              	.LLST72:
 5458 0c42 B8020000 		.4byte	.LVL392
 5459 0c46 BC020000 		.4byte	.LVL393
 5460 0c4a 0100     		.2byte	0x1
 5461 0c4c 50       		.byte	0x50
 5462 0c4d BC020000 		.4byte	.LVL393
 5463 0c51 14090000 		.4byte	.LVL634
 5464 0c55 0200     		.2byte	0x2
 5465 0c57 91       		.byte	0x91
 5466 0c58 4C       		.sleb128 -52
 5467 0c59 00000000 		.4byte	0
 5468 0c5d 00000000 		.4byte	0
 5469              	.LLST73:
 5470 0c61 C2020000 		.4byte	.LVL395
 5471 0c65 C6020000 		.4byte	.LVL396
 5472 0c69 0100     		.2byte	0x1
 5473 0c6b 50       		.byte	0x50
 5474 0c6c C6020000 		.4byte	.LVL396
 5475 0c70 1A060000 		.4byte	.LVL521
 5476 0c74 0300     		.2byte	0x3
 5477 0c76 91       		.byte	0x91
ARM GAS  C:\Users\A85590\AppData\Local\Temp\ccOscRLT.s 			page 105


 5478 0c77 847F     		.sleb128 -124
 5479 0c79 00000000 		.4byte	0
 5480 0c7d 00000000 		.4byte	0
 5481              	.LLST74:
 5482 0c81 CC020000 		.4byte	.LVL398
 5483 0c85 D0020000 		.4byte	.LVL399
 5484 0c89 0100     		.2byte	0x1
 5485 0c8b 50       		.byte	0x50
 5486 0c8c D0020000 		.4byte	.LVL399
 5487 0c90 4C050000 		.4byte	.LVL492
 5488 0c94 0300     		.2byte	0x3
 5489 0c96 91       		.byte	0x91
 5490 0c97 E87E     		.sleb128 -152
 5491 0c99 00000000 		.4byte	0
 5492 0c9d 00000000 		.4byte	0
 5493              	.LLST75:
 5494 0ca1 D6020000 		.4byte	.LVL401
 5495 0ca5 DA020000 		.4byte	.LVL402
 5496 0ca9 0100     		.2byte	0x1
 5497 0cab 50       		.byte	0x50
 5498 0cac DA020000 		.4byte	.LVL402
 5499 0cb0 14090000 		.4byte	.LVL634
 5500 0cb4 0200     		.2byte	0x2
 5501 0cb6 91       		.byte	0x91
 5502 0cb7 50       		.sleb128 -48
 5503 0cb8 00000000 		.4byte	0
 5504 0cbc 00000000 		.4byte	0
 5505              	.LLST76:
 5506 0cc0 E0020000 		.4byte	.LVL404
 5507 0cc4 E4020000 		.4byte	.LVL405
 5508 0cc8 0100     		.2byte	0x1
 5509 0cca 50       		.byte	0x50
 5510 0ccb E4020000 		.4byte	.LVL405
 5511 0ccf 86050000 		.4byte	.LVL500
 5512 0cd3 0300     		.2byte	0x3
 5513 0cd5 91       		.byte	0x91
 5514 0cd6 887F     		.sleb128 -120
 5515 0cd8 00000000 		.4byte	0
 5516 0cdc 00000000 		.4byte	0
 5517              	.LLST77:
 5518 0ce0 00000000 		.4byte	.LVL668
 5519 0ce4 0A000000 		.4byte	.LVL669
 5520 0ce8 0100     		.2byte	0x1
 5521 0cea 50       		.byte	0x50
 5522 0ceb 0A000000 		.4byte	.LVL669
 5523 0cef 1C000000 		.4byte	.LFE13
 5524 0cf3 0400     		.2byte	0x4
 5525 0cf5 F3       		.byte	0xf3
 5526 0cf6 01       		.uleb128 0x1
 5527 0cf7 50       		.byte	0x50
 5528 0cf8 9F       		.byte	0x9f
 5529 0cf9 00000000 		.4byte	0
 5530 0cfd 00000000 		.4byte	0
 5531              	.LLST78:
 5532 0d01 00000000 		.4byte	.LVL668
 5533 0d05 0E000000 		.4byte	.LVL670
 5534 0d09 0100     		.2byte	0x1
ARM GAS  C:\Users\A85590\AppData\Local\Temp\ccOscRLT.s 			page 106


 5535 0d0b 51       		.byte	0x51
 5536 0d0c 0E000000 		.4byte	.LVL670
 5537 0d10 1C000000 		.4byte	.LFE13
 5538 0d14 0400     		.2byte	0x4
 5539 0d16 F3       		.byte	0xf3
 5540 0d17 01       		.uleb128 0x1
 5541 0d18 51       		.byte	0x51
 5542 0d19 9F       		.byte	0x9f
 5543 0d1a 00000000 		.4byte	0
 5544 0d1e 00000000 		.4byte	0
 5545              	.LLST79:
 5546 0d22 00000000 		.4byte	.LVL668
 5547 0d26 12000000 		.4byte	.LVL671
 5548 0d2a 0100     		.2byte	0x1
 5549 0d2c 52       		.byte	0x52
 5550 0d2d 12000000 		.4byte	.LVL671
 5551 0d31 1C000000 		.4byte	.LFE13
 5552 0d35 0400     		.2byte	0x4
 5553 0d37 F3       		.byte	0xf3
 5554 0d38 01       		.uleb128 0x1
 5555 0d39 52       		.byte	0x52
 5556 0d3a 9F       		.byte	0x9f
 5557 0d3b 00000000 		.4byte	0
 5558 0d3f 00000000 		.4byte	0
 5559              		.section	.debug_aranges,"",%progbits
 5560 0000 7C000000 		.4byte	0x7c
 5561 0004 0200     		.2byte	0x2
 5562 0006 00000000 		.4byte	.Ldebug_info0
 5563 000a 04       		.byte	0x4
 5564 000b 00       		.byte	0
 5565 000c 0000     		.2byte	0
 5566 000e 0000     		.2byte	0
 5567 0010 00000000 		.4byte	.LFB5
 5568 0014 60000000 		.4byte	.LFE5-.LFB5
 5569 0018 00000000 		.4byte	.LFB6
 5570 001c D8000000 		.4byte	.LFE6-.LFB6
 5571 0020 00000000 		.4byte	.LFB1
 5572 0024 28000000 		.4byte	.LFE1-.LFB1
 5573 0028 00000000 		.4byte	.LFB2
 5574 002c 18000000 		.4byte	.LFE2-.LFB2
 5575 0030 00000000 		.4byte	.LFB4
 5576 0034 40050000 		.4byte	.LFE4-.LFB4
 5577 0038 00000000 		.4byte	.LFB3
 5578 003c D4090000 		.4byte	.LFE3-.LFB3
 5579 0040 00000000 		.4byte	.LFB7
 5580 0044 20000000 		.4byte	.LFE7-.LFB7
 5581 0048 00000000 		.4byte	.LFB8
 5582 004c 20000000 		.4byte	.LFE8-.LFB8
 5583 0050 00000000 		.4byte	.LFB9
 5584 0054 2C000000 		.4byte	.LFE9-.LFB9
 5585 0058 00000000 		.4byte	.LFB10
 5586 005c 18000000 		.4byte	.LFE10-.LFB10
 5587 0060 00000000 		.4byte	.LFB11
 5588 0064 18000000 		.4byte	.LFE11-.LFB11
 5589 0068 00000000 		.4byte	.LFB12
 5590 006c 18000000 		.4byte	.LFE12-.LFB12
 5591 0070 00000000 		.4byte	.LFB13
ARM GAS  C:\Users\A85590\AppData\Local\Temp\ccOscRLT.s 			page 107


 5592 0074 1C000000 		.4byte	.LFE13-.LFB13
 5593 0078 00000000 		.4byte	0
 5594 007c 00000000 		.4byte	0
 5595              		.section	.debug_ranges,"",%progbits
 5596              	.Ldebug_ranges0:
 5597 0000 00000000 		.4byte	.LFB5
 5598 0004 60000000 		.4byte	.LFE5
 5599 0008 00000000 		.4byte	.LFB6
 5600 000c D8000000 		.4byte	.LFE6
 5601 0010 00000000 		.4byte	.LFB1
 5602 0014 28000000 		.4byte	.LFE1
 5603 0018 00000000 		.4byte	.LFB2
 5604 001c 18000000 		.4byte	.LFE2
 5605 0020 00000000 		.4byte	.LFB4
 5606 0024 40050000 		.4byte	.LFE4
 5607 0028 00000000 		.4byte	.LFB3
 5608 002c D4090000 		.4byte	.LFE3
 5609 0030 00000000 		.4byte	.LFB7
 5610 0034 20000000 		.4byte	.LFE7
 5611 0038 00000000 		.4byte	.LFB8
 5612 003c 20000000 		.4byte	.LFE8
 5613 0040 00000000 		.4byte	.LFB9
 5614 0044 2C000000 		.4byte	.LFE9
 5615 0048 00000000 		.4byte	.LFB10
 5616 004c 18000000 		.4byte	.LFE10
 5617 0050 00000000 		.4byte	.LFB11
 5618 0054 18000000 		.4byte	.LFE11
 5619 0058 00000000 		.4byte	.LFB12
 5620 005c 18000000 		.4byte	.LFE12
 5621 0060 00000000 		.4byte	.LFB13
 5622 0064 1C000000 		.4byte	.LFE13
 5623 0068 00000000 		.4byte	0
 5624 006c 00000000 		.4byte	0
 5625              		.section	.debug_line,"",%progbits
 5626              	.Ldebug_line0:
 5627 0000 82020000 		.section	.debug_str,"MS",%progbits,1
 5627      02009300 
 5627      00000201 
 5627      FB0E0D00 
 5627      01010101 
 5628              	.LASF45:
 5629 0000 5F327130 		.ascii	"_2q0q2\000"
 5629      713200
 5630              	.LASF64:
 5631 0007 616E676C 		.ascii	"anglesComputed\000"
 5631      6573436F 
 5631      6D707574 
 5631      656400
 5632              	.LASF8:
 5633 0016 6C6F6E67 		.ascii	"long int\000"
 5633      20696E74 
 5633      00
 5634              	.LASF10:
 5635 001f 6C6F6E67 		.ascii	"long long unsigned int\000"
 5635      206C6F6E 
 5635      6720756E 
 5635      7369676E 
ARM GAS  C:\Users\A85590\AppData\Local\Temp\ccOscRLT.s 			page 108


 5635      65642069 
 5636              	.LASF41:
 5637 0036 5F326278 		.ascii	"_2bx\000"
 5637      00
 5638              	.LASF59:
 5639 003b 67657451 		.ascii	"getQuaternion\000"
 5639      75617465 
 5639      726E696F 
 5639      6E00
 5640              	.LASF42:
 5641 0049 5F32627A 		.ascii	"_2bz\000"
 5641      00
 5642              	.LASF65:
 5643 004e 6174616E 		.ascii	"atan2f\000"
 5643      326600
 5644              	.LASF2:
 5645 0055 6C6F6E67 		.ascii	"long long int\000"
 5645      206C6F6E 
 5645      6720696E 
 5645      7400
 5646              	.LASF4:
 5647 0063 7369676E 		.ascii	"signed char\000"
 5647      65642063 
 5647      68617200 
 5648              	.LASF70:
 5649 006f 433A5C55 		.ascii	"C:\\Users\\A85590\\Documents\\PSoC Creator\\SensorF"
 5649      73657273 
 5649      5C413835 
 5649      3539305C 
 5649      446F6375 
 5650 009d 7573696F 		.ascii	"usion\\SensorFusion.cydsn\000"
 5650      6E5C5365 
 5650      6E736F72 
 5650      46757369 
 5650      6F6E2E63 
 5651              	.LASF13:
 5652 00b6 646F7562 		.ascii	"double\000"
 5652      6C6500
 5653              	.LASF33:
 5654 00bd 71317131 		.ascii	"q1q1\000"
 5654      00
 5655              	.LASF50:
 5656 00c2 71317132 		.ascii	"q1q2\000"
 5656      00
 5657              	.LASF51:
 5658 00c7 71317133 		.ascii	"q1q3\000"
 5658      00
 5659              	.LASF14:
 5660 00cc 68616C66 		.ascii	"halfx\000"
 5660      7800
 5661              	.LASF19:
 5662 00d2 71446F74 		.ascii	"qDot1\000"
 5662      3100
 5663              	.LASF20:
 5664 00d8 71446F74 		.ascii	"qDot2\000"
 5664      3200
 5665              	.LASF21:
ARM GAS  C:\Users\A85590\AppData\Local\Temp\ccOscRLT.s 			page 109


 5666 00de 71446F74 		.ascii	"qDot3\000"
 5666      3300
 5667              	.LASF22:
 5668 00e4 71446F74 		.ascii	"qDot4\000"
 5668      3400
 5669              	.LASF32:
 5670 00ea 71307130 		.ascii	"q0q0\000"
 5670      00
 5671              	.LASF47:
 5672 00ef 71307131 		.ascii	"q0q1\000"
 5672      00
 5673              	.LASF48:
 5674 00f4 71307132 		.ascii	"q0q2\000"
 5674      00
 5675              	.LASF49:
 5676 00f9 71307133 		.ascii	"q0q3\000"
 5676      00
 5677              	.LASF1:
 5678 00fe 756E7369 		.ascii	"unsigned int\000"
 5678      676E6564 
 5678      20696E74 
 5678      00
 5679              	.LASF16:
 5680 010b 4D616467 		.ascii	"Madgwick_begin\000"
 5680      7769636B 
 5680      5F626567 
 5680      696E00
 5681              	.LASF69:
 5682 011a 4D616467 		.ascii	"Madgwick.c\000"
 5682      7769636B 
 5682      2E6300
 5683              	.LASF9:
 5684 0125 6C6F6E67 		.ascii	"long unsigned int\000"
 5684      20756E73 
 5684      69676E65 
 5684      6420696E 
 5684      7400
 5685              	.LASF7:
 5686 0137 73686F72 		.ascii	"short unsigned int\000"
 5686      7420756E 
 5686      7369676E 
 5686      65642069 
 5686      6E7400
 5687              	.LASF17:
 5688 014a 4D616467 		.ascii	"Madgwick_updateIMU\000"
 5688      7769636B 
 5688      5F757064 
 5688      61746549 
 5688      4D5500
 5689              	.LASF57:
 5690 015d 67657450 		.ascii	"getPitchRadians\000"
 5690      69746368 
 5690      52616469 
 5690      616E7300 
 5691              	.LASF36:
 5692 016d 4D616467 		.ascii	"Madgwick_update\000"
 5692      7769636B 
ARM GAS  C:\Users\A85590\AppData\Local\Temp\ccOscRLT.s 			page 110


 5692      5F757064 
 5692      61746500 
 5693              	.LASF55:
 5694 017d 67657459 		.ascii	"getYaw\000"
 5694      617700
 5695              	.LASF40:
 5696 0184 5F327131 		.ascii	"_2q1mx\000"
 5696      6D7800
 5697              	.LASF66:
 5698 018b 6173696E 		.ascii	"asinf\000"
 5698      6600
 5699              	.LASF67:
 5700 0191 73717274 		.ascii	"sqrtf\000"
 5700      6600
 5701              	.LASF54:
 5702 0197 67657450 		.ascii	"getPitch\000"
 5702      69746368 
 5702      00
 5703              	.LASF71:
 5704 01a0 696E7653 		.ascii	"invSqrt\000"
 5704      71727400 
 5705              	.LASF56:
 5706 01a8 67657452 		.ascii	"getRollRadians\000"
 5706      6F6C6C52 
 5706      61646961 
 5706      6E7300
 5707              	.LASF11:
 5708 01b7 73697A65 		.ascii	"sizetype\000"
 5708      74797065 
 5708      00
 5709              	.LASF3:
 5710 01c0 6C6F6E67 		.ascii	"long double\000"
 5710      20646F75 
 5710      626C6500 
 5711              	.LASF63:
 5712 01cc 70697463 		.ascii	"pitch\000"
 5712      6800
 5713              	.LASF72:
 5714 01d2 636F6D70 		.ascii	"computeAngles\000"
 5714      75746541 
 5714      6E676C65 
 5714      7300
 5715              	.LASF27:
 5716 01e0 5F347130 		.ascii	"_4q0\000"
 5716      00
 5717              	.LASF28:
 5718 01e5 5F347131 		.ascii	"_4q1\000"
 5718      00
 5719              	.LASF29:
 5720 01ea 5F347132 		.ascii	"_4q2\000"
 5720      00
 5721              	.LASF62:
 5722 01ef 726F6C6C 		.ascii	"roll\000"
 5722      00
 5723              	.LASF0:
 5724 01f4 666C6F61 		.ascii	"float\000"
 5724      7400
ARM GAS  C:\Users\A85590\AppData\Local\Temp\ccOscRLT.s 			page 111


 5725              	.LASF37:
 5726 01fa 5F327130 		.ascii	"_2q0mx\000"
 5726      6D7800
 5727              	.LASF38:
 5728 0201 5F327130 		.ascii	"_2q0my\000"
 5728      6D7900
 5729              	.LASF39:
 5730 0208 5F327130 		.ascii	"_2q0mz\000"
 5730      6D7A00
 5731              	.LASF5:
 5732 020f 756E7369 		.ascii	"unsigned char\000"
 5732      676E6564 
 5732      20636861 
 5732      7200
 5733              	.LASF46:
 5734 021d 5F327132 		.ascii	"_2q2q3\000"
 5734      713300
 5735              	.LASF6:
 5736 0224 73686F72 		.ascii	"short int\000"
 5736      7420696E 
 5736      7400
 5737              	.LASF73:
 5738 022e 4D616467 		.ascii	"Madgwick\000"
 5738      7769636B 
 5738      00
 5739              	.LASF68:
 5740 0237 474E5520 		.ascii	"GNU C11 5.4.1 20160609 (release) [ARM/embedded-5-br"
 5740      43313120 
 5740      352E342E 
 5740      31203230 
 5740      31363036 
 5741 026a 616E6368 		.ascii	"anch revision 237715] -mcpu=cortex-m3 -mthumb -g -O"
 5741      20726576 
 5741      6973696F 
 5741      6E203233 
 5741      37373135 
 5742 029d 67202D66 		.ascii	"g -ffunction-sections -ffat-lto-objects\000"
 5742      66756E63 
 5742      74696F6E 
 5742      2D736563 
 5742      74696F6E 
 5743              	.LASF43:
 5744 02c5 5F346278 		.ascii	"_4bx\000"
 5744      00
 5745              	.LASF44:
 5746 02ca 5F34627A 		.ascii	"_4bz\000"
 5746      00
 5747              	.LASF15:
 5748 02cf 73616D70 		.ascii	"sampleFrequency\000"
 5748      6C654672 
 5748      65717565 
 5748      6E637900 
 5749              	.LASF12:
 5750 02df 63686172 		.ascii	"char\000"
 5750      00
 5751              	.LASF35:
 5752 02e4 71337133 		.ascii	"q3q3\000"
ARM GAS  C:\Users\A85590\AppData\Local\Temp\ccOscRLT.s 			page 112


 5752      00
 5753              	.LASF18:
 5754 02e9 72656369 		.ascii	"recipNorm\000"
 5754      704E6F72 
 5754      6D00
 5755              	.LASF30:
 5756 02f3 5F387131 		.ascii	"_8q1\000"
 5756      00
 5757              	.LASF31:
 5758 02f8 5F387132 		.ascii	"_8q2\000"
 5758      00
 5759              	.LASF61:
 5760 02fd 696E7653 		.ascii	"invSampleFreq\000"
 5760      616D706C 
 5760      65467265 
 5760      7100
 5761              	.LASF53:
 5762 030b 67657452 		.ascii	"getRoll\000"
 5762      6F6C6C00 
 5763              	.LASF60:
 5764 0313 62657461 		.ascii	"beta\000"
 5764      00
 5765              	.LASF23:
 5766 0318 5F327130 		.ascii	"_2q0\000"
 5766      00
 5767              	.LASF24:
 5768 031d 5F327131 		.ascii	"_2q1\000"
 5768      00
 5769              	.LASF25:
 5770 0322 5F327132 		.ascii	"_2q2\000"
 5770      00
 5771              	.LASF26:
 5772 0327 5F327133 		.ascii	"_2q3\000"
 5772      00
 5773              	.LASF34:
 5774 032c 71327132 		.ascii	"q2q2\000"
 5774      00
 5775              	.LASF52:
 5776 0331 71327133 		.ascii	"q2q3\000"
 5776      00
 5777              	.LASF58:
 5778 0336 67657459 		.ascii	"getYawRadians\000"
 5778      61775261 
 5778      6469616E 
 5778      7300
 5779              		.ident	"GCC: (GNU Tools for ARM Embedded Processors) 5.4.1 20160609 (release) [ARM/embedded-5-bran
