ARM GAS  C:\Users\A85590\AppData\Local\Temp\ccchMzCC.s 			page 1


   1              		.syntax unified
   2              		.cpu cortex-m3
   3              		.fpu softvfp
   4              		.eabi_attribute 20, 1
   5              		.eabi_attribute 21, 1
   6              		.eabi_attribute 23, 3
   7              		.eabi_attribute 24, 1
   8              		.eabi_attribute 25, 1
   9              		.eabi_attribute 26, 1
  10              		.eabi_attribute 30, 1
  11              		.eabi_attribute 34, 1
  12              		.eabi_attribute 18, 4
  13              		.thumb
  14              		.syntax unified
  15              		.file	"main.c"
  16              		.text
  17              	.Ltext0:
  18              		.cfi_sections	.debug_frame
  19              		.section	.text.quad_sensor_init,"ax",%progbits
  20              		.align	2
  21              		.global	quad_sensor_init
  22              		.thumb
  23              		.thumb_func
  24              		.type	quad_sensor_init, %function
  25              	quad_sensor_init:
  26              	.LFB65:
  27              		.file 1 "main.c"
   1:main.c        **** /* ========================================
   2:main.c        ****  *
   3:main.c        ****  * Copyright YOUR COMPANY, THE YEAR
   4:main.c        ****  * All Rights Reserved
   5:main.c        ****  * UNPUBLISHED, LICENSED SOFTWARE.
   6:main.c        ****  *
   7:main.c        ****  * CONFIDENTIAL AND PROPRIETARY INFORMATION
   8:main.c        ****  * WHICH IS THE PROPERTY OF your company.
   9:main.c        ****  *
  10:main.c        ****  * ========================================
  11:main.c        **** */
  12:main.c        **** #include "project.h"     //includes the project.h which allows us to use the generated API's
  13:main.c        **** #include "accel_mag.h"   //includes the accel_mag.h file which allows us to simply connect to the N
  14:main.c        **** #include "gyroscope.h"   //includes the gyroscope.h file which allows us to simply connect to the N
  15:main.c        **** #include "debSerial.h"//includes the debuf_Serial.h file which allows us to use similar serial prin
  16:main.c        **** #include "Madgwick.h" 
  17:main.c        **** #include "barometer.h" 
  18:main.c        **** 
  19:main.c        **** //Includes the standard libraries to use certain functions inside it
  20:main.c        **** #include <stdlib.h>
  21:main.c        **** #include <stdio.h>
  22:main.c        **** #include <stdint.h>
  23:main.c        **** #include <math.h>
  24:main.c        **** 
  25:main.c        **** //=============================================================//
  26:main.c        **** //======Initialization and Update Functions Prototype==========//
  27:main.c        **** //=============================================================//
  28:main.c        **** void quad_init(void);        //initializes all quadcopter 
  29:main.c        **** void quad_sensor_init(void); //initializes all of the quadcopter sensors //called in function quad_
  30:main.c        **** void sensors_update(void);   //Updates all of the sensor data (values can be extracted when needed)
ARM GAS  C:\Users\A85590\AppData\Local\Temp\ccchMzCC.s 			page 2


  31:main.c        **** void quad_init(void){
  32:main.c        ****     I2C_Start();       //initializes the I2C block
  33:main.c        ****     serial_begin();    //initializes the debug Serial block
  34:main.c        ****     gpsSerial_Start(); //initializes the gps Serial block
  35:main.c        ****     xbeeSerial_Start();//initializes the xbee Serial block
  36:main.c        **** 
  37:main.c        ****     CyGlobalIntEnable; /* Enable global interrupts. */
  38:main.c        ****     quad_sensor_init();//initializes all of the quadcopter sensors
  39:main.c        **** }
  40:main.c        **** 
  41:main.c        **** void quad_sensor_init(void){
  28              		.loc 1 41 0
  29              		.cfi_startproc
  30              		@ args = 0, pretend = 0, frame = 0
  31              		@ frame_needed = 0, uses_anonymous_args = 0
  32 0000 08B5     		push	{r3, lr}
  33              		.cfi_def_cfa_offset 8
  34              		.cfi_offset 3, -8
  35              		.cfi_offset 14, -4
  42:main.c        ****     accel_mag_initialize(ACCEL_RANGE_2G); //initializes the accelerometer with a range (sensitivity
  36              		.loc 1 42 0
  37 0002 0020     		movs	r0, #0
  38 0004 FFF7FEFF 		bl	accel_mag_initialize
  39              	.LVL0:
  43:main.c        ****     gyro_initialize(GYRO_RANGE_250DPS);   //initializes the gyroscope with a range (sensitivity) of
  40              		.loc 1 43 0
  41 0008 FA20     		movs	r0, #250
  42 000a FFF7FEFF 		bl	gyro_initialize
  43              	.LVL1:
  44:main.c        ****     baro_begin();                         //initializes the barometer
  44              		.loc 1 44 0
  45 000e FFF7FEFF 		bl	baro_begin
  46              	.LVL2:
  47 0012 08BD     		pop	{r3, pc}
  48              		.cfi_endproc
  49              	.LFE65:
  50              		.size	quad_sensor_init, .-quad_sensor_init
  51              		.section	.text.quad_init,"ax",%progbits
  52              		.align	2
  53              		.global	quad_init
  54              		.thumb
  55              		.thumb_func
  56              		.type	quad_init, %function
  57              	quad_init:
  58              	.LFB64:
  31:main.c        ****     I2C_Start();       //initializes the I2C block
  59              		.loc 1 31 0
  60              		.cfi_startproc
  61              		@ args = 0, pretend = 0, frame = 0
  62              		@ frame_needed = 0, uses_anonymous_args = 0
  63 0000 08B5     		push	{r3, lr}
  64              		.cfi_def_cfa_offset 8
  65              		.cfi_offset 3, -8
  66              		.cfi_offset 14, -4
  32:main.c        ****     serial_begin();    //initializes the debug Serial block
  67              		.loc 1 32 0
  68 0002 FFF7FEFF 		bl	I2C_Start
ARM GAS  C:\Users\A85590\AppData\Local\Temp\ccchMzCC.s 			page 3


  69              	.LVL3:
  33:main.c        ****     gpsSerial_Start(); //initializes the gps Serial block
  70              		.loc 1 33 0
  71 0006 FFF7FEFF 		bl	serial_begin
  72              	.LVL4:
  34:main.c        ****     xbeeSerial_Start();//initializes the xbee Serial block
  73              		.loc 1 34 0
  74 000a FFF7FEFF 		bl	gpsSerial_Start
  75              	.LVL5:
  35:main.c        **** 
  76              		.loc 1 35 0
  77 000e FFF7FEFF 		bl	xbeeSerial_Start
  78              	.LVL6:
  37:main.c        ****     quad_sensor_init();//initializes all of the quadcopter sensors
  79              		.loc 1 37 0
  80              		.syntax unified
  81              	@ 37 "main.c" 1
  82 0012 62B6     		CPSIE   i
  83              	@ 0 "" 2
  38:main.c        **** }
  84              		.loc 1 38 0
  85              		.thumb
  86              		.syntax unified
  87 0014 FFF7FEFF 		bl	quad_sensor_init
  88              	.LVL7:
  89 0018 08BD     		pop	{r3, pc}
  90              		.cfi_endproc
  91              	.LFE64:
  92              		.size	quad_init, .-quad_init
  93 001a 00BF     		.section	.text.sensors_update,"ax",%progbits
  94              		.align	2
  95              		.global	sensors_update
  96              		.thumb
  97              		.thumb_func
  98              		.type	sensors_update, %function
  99              	sensors_update:
 100              	.LFB66:
  45:main.c        **** }
  46:main.c        **** 
  47:main.c        **** void sensors_update(void){
 101              		.loc 1 47 0
 102              		.cfi_startproc
 103              		@ args = 0, pretend = 0, frame = 0
 104              		@ frame_needed = 0, uses_anonymous_args = 0
 105 0000 08B5     		push	{r3, lr}
 106              		.cfi_def_cfa_offset 8
 107              		.cfi_offset 3, -8
 108              		.cfi_offset 14, -4
  48:main.c        ****     accel_mag_update(); //Update the accelerometer and magnotometer data
 109              		.loc 1 48 0
 110 0002 FFF7FEFF 		bl	accel_mag_update
 111              	.LVL8:
  49:main.c        ****     gyro_update();      //Update the gyroscope data
 112              		.loc 1 49 0
 113 0006 FFF7FEFF 		bl	gyro_update
 114              	.LVL9:
  50:main.c        ****     baro_update();      //Update the barometer data
ARM GAS  C:\Users\A85590\AppData\Local\Temp\ccchMzCC.s 			page 4


 115              		.loc 1 50 0
 116 000a FFF7FEFF 		bl	baro_update
 117              	.LVL10:
 118 000e 08BD     		pop	{r3, pc}
 119              		.cfi_endproc
 120              	.LFE66:
 121              		.size	sensors_update, .-sensors_update
 122              		.section	.text.main,"ax",%progbits
 123              		.align	2
 124              		.global	main
 125              		.thumb
 126              		.thumb_func
 127              		.type	main, %function
 128              	main:
 129              	.LFB67:
  51:main.c        **** }
  52:main.c        **** int main(void)
  53:main.c        **** {
 130              		.loc 1 53 0
 131              		.cfi_startproc
 132              		@ Volatile: function does not return.
 133              		@ args = 0, pretend = 0, frame = 0
 134              		@ frame_needed = 0, uses_anonymous_args = 0
 135 0000 08B5     		push	{r3, lr}
 136              		.cfi_def_cfa_offset 8
 137              		.cfi_offset 3, -8
 138              		.cfi_offset 14, -4
  54:main.c        ****     CyGlobalIntEnable; /* Enable global interrupts. */
 139              		.loc 1 54 0
 140              		.syntax unified
 141              	@ 54 "main.c" 1
 142 0002 62B6     		CPSIE   i
 143              	@ 0 "" 2
  55:main.c        ****     /* Place your initialization/startup code here (e.g. MyInst_Start()) */
  56:main.c        ****     quad_init();
 144              		.loc 1 56 0
 145              		.thumb
 146              		.syntax unified
 147 0004 FFF7FEFF 		bl	quad_init
 148              	.LVL11:
  57:main.c        ****     serial_println("Quadcopter Sensors Initialized");
 149              		.loc 1 57 0
 150 0008 0748     		ldr	r0, .L10
 151 000a FFF7FEFF 		bl	serial_println
 152              	.LVL12:
 153              	.L8:
  58:main.c        ****     for(;;)
  59:main.c        ****     
  60:main.c        ****     { //Calling functions below...
  61:main.c        ****         sensors_update();
 154              		.loc 1 61 0 discriminator 1
 155 000e FFF7FEFF 		bl	sensors_update
 156              	.LVL13:
  62:main.c        ****         CyDelay(1000); 
 157              		.loc 1 62 0 discriminator 1
 158 0012 4FF47A70 		mov	r0, #1000
 159 0016 FFF7FEFF 		bl	CyDelay
ARM GAS  C:\Users\A85590\AppData\Local\Temp\ccchMzCC.s 			page 5


 160              	.LVL14:
  63:main.c        ****         accel_mag_initialize(ACCEL_RANGE_2G);
 161              		.loc 1 63 0 discriminator 1
 162 001a 0020     		movs	r0, #0
 163 001c FFF7FEFF 		bl	accel_mag_initialize
 164              	.LVL15:
  64:main.c        ****         gyro_initialize(GYRO_RANGE_250DPS); 
 165              		.loc 1 64 0 discriminator 1
 166 0020 FA20     		movs	r0, #250
 167 0022 FFF7FEFF 		bl	gyro_initialize
 168              	.LVL16:
 169 0026 F2E7     		b	.L8
 170              	.L11:
 171              		.align	2
 172              	.L10:
 173 0028 00000000 		.word	.LC0
 174              		.cfi_endproc
 175              	.LFE67:
 176              		.size	main, .-main
 177              		.section	.rodata.str1.4,"aMS",%progbits,1
 178              		.align	2
 179              	.LC0:
 180 0000 51756164 		.ascii	"Quadcopter Sensors Initialized\000"
 180      636F7074 
 180      65722053 
 180      656E736F 
 180      72732049 
 181              		.text
 182              	.Letext0:
 183              		.file 2 "c:\\program files (x86)\\cypress\\psoc creator\\4.1\\psoc creator\\import\\gnu\\arm\\5.4.
 184              		.file 3 "c:\\program files (x86)\\cypress\\psoc creator\\4.1\\psoc creator\\import\\gnu\\arm\\5.4.
 185              		.file 4 "accel_mag.h"
 186              		.file 5 "gyroscope.h"
 187              		.file 6 "barometer.h"
 188              		.file 7 "Generated_Source\\PSoC5/I2C.h"
 189              		.file 8 "debSerial.h"
 190              		.file 9 "Generated_Source\\PSoC5/gpsSerial.h"
 191              		.file 10 "Generated_Source\\PSoC5/xbeeSerial.h"
 192              		.file 11 "Generated_Source\\PSoC5/CyLib.h"
 193              		.file 12 "Generated_Source\\PSoC5/core_cm3.h"