ARM GAS  C:\Users\A85590\AppData\Local\Temp\ccOAjk6Q.s 			page 1


   1              		.syntax unified
   2              		.cpu cortex-m3
   3              		.fpu softvfp
   4              		.eabi_attribute 20, 1
   5              		.eabi_attribute 21, 1
   6              		.eabi_attribute 23, 3
   7              		.eabi_attribute 24, 1
   8              		.eabi_attribute 25, 1
   9              		.eabi_attribute 26, 1
  10              		.eabi_attribute 30, 1
  11              		.eabi_attribute 34, 1
  12              		.eabi_attribute 18, 4
  13              		.thumb
  14              		.syntax unified
  15              		.file	"millis.c"
  16              		.text
  17              	.Ltext0:
  18              		.cfi_sections	.debug_frame
  19              		.section	.text.timerISR,"ax",%progbits
  20              		.align	2
  21              		.global	timerISR
  22              		.thumb
  23              		.thumb_func
  24              		.type	timerISR, %function
  25              	timerISR:
  26              	.LFB63:
  27              		.file 1 "millis.c"
   1:millis.c      **** #include "project.h"
   2:millis.c      **** #include "stdlib.h"
   3:millis.c      **** #include "math.h"
   4:millis.c      **** #include "millis.h"
   5:millis.c      **** #include <stdint.h>
   6:millis.c      **** 
   7:millis.c      **** static volatile uint32_t mscount = 0;
   8:millis.c      **** 
   9:millis.c      **** /* Declares the interrupt service routine. Every time 1 ms elapsed the mscount will count up 1
  10:millis.c      ****  * there are 8.64x10^7 = 86,400,000 milliseconds in a day
  11:millis.c      ****  * the mscount variable is 32 bit which means that it can represent 0 - 4,294,967,295 numbers
  12:millis.c      ****  * Which means that the counter will overflow and wrap around every 49.71 days which is way longer
  13:millis.c      ****  * than our purpose which means that we don't have to take care of the things that could be caused 
  14:millis.c      **** */
  15:millis.c      **** 
  16:millis.c      **** CY_ISR(timerISR){
  28              		.loc 1 16 0
  29              		.cfi_startproc
  30              		@ args = 0, pretend = 0, frame = 0
  31              		@ frame_needed = 0, uses_anonymous_args = 0
  32              		@ link register save eliminated.
  17:millis.c      ****     mscount++;    
  33              		.loc 1 17 0
  34 0000 034A     		ldr	r2, .L2
  35 0002 1368     		ldr	r3, [r2]
  36 0004 0133     		adds	r3, r3, #1
  37 0006 1360     		str	r3, [r2]
  18:millis.c      ****     deltaTimer_STATUS;
  38              		.loc 1 18 0
  39 0008 024B     		ldr	r3, .L2+4
ARM GAS  C:\Users\A85590\AppData\Local\Temp\ccOAjk6Q.s 			page 2


  40 000a 1B78     		ldrb	r3, [r3]	@ zero_extendqisi2
  41 000c 7047     		bx	lr
  42              	.L3:
  43 000e 00BF     		.align	2
  44              	.L2:
  45 0010 00000000 		.word	.LANCHOR0
  46 0014 64650040 		.word	1073767780
  47              		.cfi_endproc
  48              	.LFE63:
  49              		.size	timerISR, .-timerISR
  50              		.section	.text.millis_init,"ax",%progbits
  51              		.align	2
  52              		.global	millis_init
  53              		.thumb
  54              		.thumb_func
  55              		.type	millis_init, %function
  56              	millis_init:
  57              	.LFB64:
  19:millis.c      **** }
  20:millis.c      **** 
  21:millis.c      **** void millis_init(){
  58              		.loc 1 21 0
  59              		.cfi_startproc
  60              		@ args = 0, pretend = 0, frame = 0
  61              		@ frame_needed = 0, uses_anonymous_args = 0
  62 0000 08B5     		push	{r3, lr}
  63              		.cfi_def_cfa_offset 8
  64              		.cfi_offset 3, -8
  65              		.cfi_offset 14, -4
  22:millis.c      ****     deltaTimer_Start(); //configure and enable the timer
  66              		.loc 1 22 0
  67 0002 FFF7FEFF 		bl	deltaTimer_Start
  68              	.LVL0:
  23:millis.c      ****     deltTime_StartEx(timerISR);
  69              		.loc 1 23 0
  70 0006 0248     		ldr	r0, .L6
  71 0008 FFF7FEFF 		bl	deltTime_StartEx
  72              	.LVL1:
  73 000c 08BD     		pop	{r3, pc}
  74              	.L7:
  75 000e 00BF     		.align	2
  76              	.L6:
  77 0010 00000000 		.word	timerISR
  78              		.cfi_endproc
  79              	.LFE64:
  80              		.size	millis_init, .-millis_init
  81              		.section	.text.millis,"ax",%progbits
  82              		.align	2
  83              		.global	millis
  84              		.thumb
  85              		.thumb_func
  86              		.type	millis, %function
  87              	millis:
  88              	.LFB65:
  24:millis.c      **** }
  25:millis.c      **** 
  26:millis.c      **** uint32_t millis(){
ARM GAS  C:\Users\A85590\AppData\Local\Temp\ccOAjk6Q.s 			page 3


  89              		.loc 1 26 0
  90              		.cfi_startproc
  91              		@ args = 0, pretend = 0, frame = 0
  92              		@ frame_needed = 0, uses_anonymous_args = 0
  93              		@ link register save eliminated.
  27:millis.c      ****     return mscount;
  94              		.loc 1 27 0
  95 0000 014B     		ldr	r3, .L9
  96 0002 1868     		ldr	r0, [r3]
  28:millis.c      **** }
  97              		.loc 1 28 0
  98 0004 7047     		bx	lr
  99              	.L10:
 100 0006 00BF     		.align	2
 101              	.L9:
 102 0008 00000000 		.word	.LANCHOR0
 103              		.cfi_endproc
 104              	.LFE65:
 105              		.size	millis, .-millis
 106              		.bss
 107              		.align	2
 108              		.set	.LANCHOR0,. + 0
 109              		.type	mscount, %object
 110              		.size	mscount, 4
 111              	mscount:
 112 0000 00000000 		.space	4
 113              		.text
 114              	.Letext0:
 115              		.file 2 "c:\\program files (x86)\\cypress\\psoc creator\\4.1\\psoc creator\\import\\gnu\\arm\\5.4.
 116              		.file 3 "c:\\program files (x86)\\cypress\\psoc creator\\4.1\\psoc creator\\import\\gnu\\arm\\5.4.
 117              		.file 4 "Generated_Source\\PSoC5/cytypes.h"
 118              		.file 5 "Generated_Source\\PSoC5/deltaTimer.h"
 119              		.file 6 "Generated_Source\\PSoC5/deltTime.h"
 120              		.file 7 "Generated_Source\\PSoC5/core_cm3.h"