ARM GAS  C:\Users\A85590\AppData\Local\Temp\ccXnQp4d.s 			page 1


   1              		.syntax unified
   2              		.cpu cortex-m3
   3              		.fpu softvfp
   4              		.eabi_attribute 20, 1
   5              		.eabi_attribute 21, 1
   6              		.eabi_attribute 23, 3
   7              		.eabi_attribute 24, 1
   8              		.eabi_attribute 25, 1
   9              		.eabi_attribute 26, 1
  10              		.eabi_attribute 30, 1
  11              		.eabi_attribute 34, 1
  12              		.eabi_attribute 18, 4
  13              		.thumb
  14              		.syntax unified
  15              		.file	"twi.c"
  16              		.text
  17              	.Ltext0:
  18              		.cfi_sections	.debug_frame
  19              		.section	.text.Wire_begin,"ax",%progbits
  20              		.align	2
  21              		.global	Wire_begin
  22              		.thumb
  23              		.thumb_func
  24              		.type	Wire_begin, %function
  25              	Wire_begin:
  26              	.LFB63:
  27              		.file 1 "twi.c"
   1:twi.c         **** #include "twi.h"
   2:twi.c         **** #include "project.h"
   3:twi.c         **** 
   4:twi.c         **** void Wire_begin(){
  28              		.loc 1 4 0
  29              		.cfi_startproc
  30              		@ args = 0, pretend = 0, frame = 0
  31              		@ frame_needed = 0, uses_anonymous_args = 0
  32 0000 08B5     		push	{r3, lr}
  33              		.cfi_def_cfa_offset 8
  34              		.cfi_offset 3, -8
  35              		.cfi_offset 14, -4
   5:twi.c         ****     I2C_Start(); 
  36              		.loc 1 5 0
  37 0002 FFF7FEFF 		bl	I2C_Start
  38              	.LVL0:
  39 0006 08BD     		pop	{r3, pc}
  40              		.cfi_endproc
  41              	.LFE63:
  42              		.size	Wire_begin, .-Wire_begin
  43              		.section	.text.Wire_beginTransmission,"ax",%progbits
  44              		.align	2
  45              		.global	Wire_beginTransmission
  46              		.thumb
  47              		.thumb_func
  48              		.type	Wire_beginTransmission, %function
  49              	Wire_beginTransmission:
  50              	.LFB64:
   6:twi.c         **** }
   7:twi.c         **** 
ARM GAS  C:\Users\A85590\AppData\Local\Temp\ccXnQp4d.s 			page 2


   8:twi.c         **** void Wire_beginTransmission(uint8_t address, uint8_t R_nW)
   9:twi.c         **** {
  51              		.loc 1 9 0
  52              		.cfi_startproc
  53              		@ args = 0, pretend = 0, frame = 0
  54              		@ frame_needed = 0, uses_anonymous_args = 0
  55              	.LVL1:
  56 0000 08B5     		push	{r3, lr}
  57              		.cfi_def_cfa_offset 8
  58              		.cfi_offset 3, -8
  59              		.cfi_offset 14, -4
  10:twi.c         ****     /*
  11:twi.c         ****     Description: 
  12:twi.c         ****         -This function generates a Start condition and sends the slave address with the 
  13:twi.c         ****          read/write bit. Disables the I2C interrupt. 
  14:twi.c         ****     
  15:twi.c         ****     Parameters: 
  16:twi.c         ****         -uint8 slaveAddress: Right-justified 7-bit slave address (valid range 0 to 127). 
  17:twi.c         ****         -uint8 R_nW: Set to zero, send write command; set to nonzero, send read command. 
  18:twi.c         ****     */
  19:twi.c         ****     I2C_MasterSendStart(address, R_nW); 
  60              		.loc 1 19 0
  61 0002 FFF7FEFF 		bl	I2C_MasterSendStart
  62              	.LVL2:
  63 0006 08BD     		pop	{r3, pc}
  64              		.cfi_endproc
  65              	.LFE64:
  66              		.size	Wire_beginTransmission, .-Wire_beginTransmission
  67              		.section	.text.Wire_write,"ax",%progbits
  68              		.align	2
  69              		.global	Wire_write
  70              		.thumb
  71              		.thumb_func
  72              		.type	Wire_write, %function
  73              	Wire_write:
  74              	.LFB65:
  20:twi.c         **** }
  21:twi.c         **** 
  22:twi.c         **** int Wire_write(uint8_t address, uint8_t* writeBuffer, uint8_t length, uint8_t type)
  23:twi.c         **** {
  75              		.loc 1 23 0
  76              		.cfi_startproc
  77              		@ args = 0, pretend = 0, frame = 0
  78              		@ frame_needed = 0, uses_anonymous_args = 0
  79              	.LVL3:
  80 0000 08B5     		push	{r3, lr}
  81              		.cfi_def_cfa_offset 8
  82              		.cfi_offset 3, -8
  83              		.cfi_offset 14, -4
  84              	.LVL4:
  24:twi.c         ****     /*Wire_beginTransmission(address, 0);
  25:twi.c         ****     return (I2C_MasterWriteByte(data)); */
  26:twi.c         **** 
  27:twi.c         ****     /*
  28:twi.c         ****     Description:
  29:twi.c         ****         -This function automatically writes an entire buffer of data to a slave device. After the d
  30:twi.c         ****          transfer is initiated by this function, the included ISR manages further data transfer in 
ARM GAS  C:\Users\A85590\AppData\Local\Temp\ccXnQp4d.s 			page 3


  31:twi.c         ****          byte mode. Enables the I2C interrupt.
  32:twi.c         ****    
  33:twi.c         ****     Parameters: 
  34:twi.c         ****         -uint8 slaveAddress: Right-justified 7-bit slave address (valid range 0 to 127).
  35:twi.c         ****         -uint8 wrData: Pointer to the buffer of the data to be sent.
  36:twi.c         ****         -uint8 cnt: Number of bytes of the buffer to send.
  37:twi.c         ****         -uint8 mode: Transfer mode defines: (1) Whether a Start or Restart condition is generated a
  38:twi.c         ****          the beginning of the transfer, and (2) Whether the transfer is completed or halted before 
  39:twi.c         ****          Stop condition is generated on the bus.
  40:twi.c         **** 
  41:twi.c         ****               1=>  I2C_MODE_COMPLETE_XFER = Perform complete transfer from Start to Stop. 
  42:twi.c         ****               2=>  I2C_MODE_REPEAT_START  = Send Repeat Start instead of Start. 
  43:twi.c         ****               3=>  I2C_MODE_NO_STOP       = Execute transfer without a Stop    
  44:twi.c         ****     */
  45:twi.c         **** 
  46:twi.c         ****     int ret = 0;
  47:twi.c         **** 
  48:twi.c         ****     if(type == 1){
  85              		.loc 1 48 0
  86 0002 012B     		cmp	r3, #1
  87 0004 03D1     		bne	.L6
  49:twi.c         ****         ret = I2C_MasterWriteBuf(address, writeBuffer, length, I2C_MODE_COMPLETE_XFER);
  88              		.loc 1 49 0
  89 0006 0023     		movs	r3, #0
  90              	.LVL5:
  91 0008 FFF7FEFF 		bl	I2C_MasterWriteBuf
  92              	.LVL6:
  93 000c 08BD     		pop	{r3, pc}
  94              	.LVL7:
  95              	.L6:
  50:twi.c         ****     }
  51:twi.c         **** 
  52:twi.c         ****     else if(type == 2){
  96              		.loc 1 52 0
  97 000e 022B     		cmp	r3, #2
  98 0010 03D1     		bne	.L8
  53:twi.c         ****         ret = I2C_MasterWriteBuf(address, writeBuffer, length, I2C_MODE_REPEAT_START);
  99              		.loc 1 53 0
 100 0012 0123     		movs	r3, #1
 101              	.LVL8:
 102 0014 FFF7FEFF 		bl	I2C_MasterWriteBuf
 103              	.LVL9:
 104 0018 08BD     		pop	{r3, pc}
 105              	.LVL10:
 106              	.L8:
  54:twi.c         ****     }
  55:twi.c         **** 
  56:twi.c         ****     else if(type == 3){
 107              		.loc 1 56 0
 108 001a 032B     		cmp	r3, #3
 109 001c 03D1     		bne	.L9
  57:twi.c         ****         ret = I2C_MasterWriteBuf(address, writeBuffer, length, I2C_MODE_NO_STOP);
 110              		.loc 1 57 0
 111 001e 0223     		movs	r3, #2
 112              	.LVL11:
 113 0020 FFF7FEFF 		bl	I2C_MasterWriteBuf
 114              	.LVL12:
ARM GAS  C:\Users\A85590\AppData\Local\Temp\ccXnQp4d.s 			page 4


 115 0024 08BD     		pop	{r3, pc}
 116              	.LVL13:
 117              	.L9:
  58:twi.c         ****     }
  59:twi.c         ****     else{
  60:twi.c         ****         ret = 0; //Signifies user inputed error
 118              		.loc 1 60 0
 119 0026 0020     		movs	r0, #0
 120              	.LVL14:
  61:twi.c         ****     }
  62:twi.c         **** 
  63:twi.c         ****     return ret;
  64:twi.c         **** }
 121              		.loc 1 64 0
 122 0028 08BD     		pop	{r3, pc}
 123              		.cfi_endproc
 124              	.LFE65:
 125              		.size	Wire_write, .-Wire_write
 126 002a 00BF     		.section	.text.Wire_requestFrom,"ax",%progbits
 127              		.align	2
 128              		.global	Wire_requestFrom
 129              		.thumb
 130              		.thumb_func
 131              		.type	Wire_requestFrom, %function
 132              	Wire_requestFrom:
 133              	.LFB67:
  65:twi.c         **** 
  66:twi.c         **** uint8_t Wire_read(uint8_t address)
  67:twi.c         **** {
  68:twi.c         ****    /*Wire_beginTransmission(address, 1);
  69:twi.c         ****     return (I2C_MasterReadByte()); */
  70:twi.c         ****      /*
  71:twi.c         ****     Description:
  72:twi.c         ****         -This function automatically reads an entire buffer of data from a slave device. Once this 
  73:twi.c         ****          function initiates the data transfer, the included ISR manages further data transfer in by
  74:twi.c         ****          byte mode. Enables the I2C interrupt.
  75:twi.c         ****    
  76:twi.c         ****     Parameters: 
  77:twi.c         ****         -uint8 slaveAddress: Right-justified 7-bit slave address (valid range 0 to 127).
  78:twi.c         ****         -uint8 rdData: Pointer to the buffer in which to put the data from the slave.
  79:twi.c         ****         -uint8 cnt: Number of bytes of the buffer to read.
  80:twi.c         ****         -uint8 mode: Transfer mode defines: (1) Whether a Start or Restart condition is generated a
  81:twi.c         ****          the beginning of the transfer, and (2) Whether the transfer is completed or halted before 
  82:twi.c         ****          Stop condition is generated on the bus.
  83:twi.c         **** 
  84:twi.c         ****                 I2C_MODE_COMPLETE_XFER = Perform complete transfer from Start to Stop. 
  85:twi.c         ****                 I2C_MODE_REPEAT_START  = Send Repeat Start instead of Start. 
  86:twi.c         ****                 I2C_MODE_NO_STOP       = Execute transfer without a Stop    
  87:twi.c         ****     */
  88:twi.c         **** 
  89:twi.c         ****     uint8_t readbuffer[1]; //creates an array of one slot
  90:twi.c         ****     Wire_requestFrom(address, sizeof(readbuffer), readbuffer); //do a blocking read
  91:twi.c         ****     return readbuffer[0]; //return retrieved buffer data
  92:twi.c         **** 
  93:twi.c         **** }
  94:twi.c         **** 
  95:twi.c         **** uint8_t Wire_requestFrom(uint8_t slaveAddress, uint8_t length, uint8_t *dataBuffer)
ARM GAS  C:\Users\A85590\AppData\Local\Temp\ccXnQp4d.s 			page 5


  96:twi.c         **** {
 134              		.loc 1 96 0
 135              		.cfi_startproc
 136              		@ args = 0, pretend = 0, frame = 0
 137              		@ frame_needed = 0, uses_anonymous_args = 0
 138              	.LVL15:
 139 0000 10B5     		push	{r4, lr}
 140              		.cfi_def_cfa_offset 8
 141              		.cfi_offset 4, -8
 142              		.cfi_offset 14, -4
 143 0002 1446     		mov	r4, r2
  97:twi.c         ****     //I2C_I2CMasterClearReadBuf();  /*I2C_MasterClearWriteBuf()*/
  98:twi.c         ****     //I2C_I2CMasterClearWriteBuf(); /*Resets the write buffer pointer back to the beginning of the 
  99:twi.c         **** 
 100:twi.c         ****     /*
 101:twi.c         ****     Description:
 102:twi.c         ****         -This function automatically reads an entire buffer of data from a slave device. Once this 
 103:twi.c         ****          function initiates the data transfer, the included ISR manages further data transfer in by
 104:twi.c         ****          byte mode. Enables the I2C interrupt.
 105:twi.c         ****    
 106:twi.c         ****     Parameters: 
 107:twi.c         ****         -uint8 slaveAddress: Right-justified 7-bit slave address (valid range 0 to 127).
 108:twi.c         ****         -uint8 rdData: Pointer to the buffer in which to put the data from the slave.
 109:twi.c         ****         -uint8 cnt: Number of bytes of the buffer to read.
 110:twi.c         ****         -uint8 mode: Transfer mode defines: (1) Whether a Start or Restart condition is generated a
 111:twi.c         ****          the beginning of the transfer, and (2) Whether the transfer is completed or halted before 
 112:twi.c         ****          Stop condition is generated on the bus.
 113:twi.c         **** 
 114:twi.c         ****                 I2C_MODE_COMPLETE_XFER = Perform complete transfer from Start to Stop. 
 115:twi.c         ****                 I2C_MODE_REPEAT_START  = Send Repeat Start instead of Start. 
 116:twi.c         ****                 I2C_MODE_NO_STOP       = Execute transfer without a Stop    
 117:twi.c         ****     */
 118:twi.c         **** 
 119:twi.c         ****     I2C_MasterReadBuf(slaveAddress, dataBuffer, length, I2C_MODE_COMPLETE_XFER);
 144              		.loc 1 119 0
 145 0004 0023     		movs	r3, #0
 146 0006 0A46     		mov	r2, r1
 147              	.LVL16:
 148 0008 2146     		mov	r1, r4
 149              	.LVL17:
 150 000a FFF7FEFF 		bl	I2C_MasterReadBuf
 151              	.LVL18:
 152              	.L12:
 120:twi.c         **** 
 121:twi.c         ****     while ((I2C_MasterStatus() & I2C_MSTAT_RD_CMPLT)==0){}
 153              		.loc 1 121 0 discriminator 1
 154 000e FFF7FEFF 		bl	I2C_MasterStatus
 155              	.LVL19:
 156 0012 10F0010F 		tst	r0, #1
 157 0016 FAD0     		beq	.L12
 122:twi.c         **** 
 123:twi.c         ****     return 1/*(I2C_I2CMasterGetReadBufSize())*/; /*Returns the byte count of data read since the 
 124:twi.c         ****                                            I2C_MasterClearReadBuf() function was called. */
 125:twi.c         **** }
 158              		.loc 1 125 0
 159 0018 0120     		movs	r0, #1
 160 001a 10BD     		pop	{r4, pc}
ARM GAS  C:\Users\A85590\AppData\Local\Temp\ccXnQp4d.s 			page 6


 161              		.cfi_endproc
 162              	.LFE67:
 163              		.size	Wire_requestFrom, .-Wire_requestFrom
 164              		.section	.text.Wire_read,"ax",%progbits
 165              		.align	2
 166              		.global	Wire_read
 167              		.thumb
 168              		.thumb_func
 169              		.type	Wire_read, %function
 170              	Wire_read:
 171              	.LFB66:
  67:twi.c         ****    /*Wire_beginTransmission(address, 1);
 172              		.loc 1 67 0
 173              		.cfi_startproc
 174              		@ args = 0, pretend = 0, frame = 8
 175              		@ frame_needed = 0, uses_anonymous_args = 0
 176              	.LVL20:
 177 0000 00B5     		push	{lr}
 178              		.cfi_def_cfa_offset 4
 179              		.cfi_offset 14, -4
 180 0002 83B0     		sub	sp, sp, #12
 181              		.cfi_def_cfa_offset 16
  90:twi.c         ****     return readbuffer[0]; //return retrieved buffer data
 182              		.loc 1 90 0
 183 0004 01AA     		add	r2, sp, #4
 184 0006 0121     		movs	r1, #1
 185 0008 FFF7FEFF 		bl	Wire_requestFrom
 186              	.LVL21:
  93:twi.c         **** 
 187              		.loc 1 93 0
 188 000c 9DF80400 		ldrb	r0, [sp, #4]	@ zero_extendqisi2
 189 0010 03B0     		add	sp, sp, #12
 190              		.cfi_def_cfa_offset 4
 191              		@ sp needed
 192 0012 5DF804FB 		ldr	pc, [sp], #4
 193              		.cfi_endproc
 194              	.LFE66:
 195              		.size	Wire_read, .-Wire_read
 196 0016 00BF     		.section	.text.Wire_endTransmission,"ax",%progbits
 197              		.align	2
 198              		.global	Wire_endTransmission
 199              		.thumb
 200              		.thumb_func
 201              		.type	Wire_endTransmission, %function
 202              	Wire_endTransmission:
 203              	.LFB68:
 126:twi.c         **** 
 127:twi.c         **** uint8_t Wire_endTransmission()
 128:twi.c         **** {
 204              		.loc 1 128 0
 205              		.cfi_startproc
 206              		@ args = 0, pretend = 0, frame = 0
 207              		@ frame_needed = 0, uses_anonymous_args = 0
 208 0000 08B5     		push	{r3, lr}
 209              		.cfi_def_cfa_offset 8
 210              		.cfi_offset 3, -8
 211              		.cfi_offset 14, -4
ARM GAS  C:\Users\A85590\AppData\Local\Temp\ccXnQp4d.s 			page 7


 129:twi.c         ****     uint8_t ret = I2C_MasterSendStop();
 212              		.loc 1 129 0
 213 0002 FFF7FEFF 		bl	I2C_MasterSendStop
 214              	.LVL22:
 130:twi.c         ****     return ret;
 131:twi.c         **** }...
 215              		.loc 1 131 0
 216 0006 08BD     		pop	{r3, pc}
 217              		.cfi_endproc
 218              	.LFE68:
 219              		.size	Wire_endTransmission, .-Wire_endTransmission
 220              		.text
 221              	.Letext0:
 222              		.file 2 "c:\\program files (x86)\\cypress\\psoc creator\\4.1\\psoc creator\\import\\gnu\\arm\\5.4.
 223              		.file 3 "c:\\program files (x86)\\cypress\\psoc creator\\4.1\\psoc creator\\import\\gnu\\arm\\5.4.
 224              		.file 4 "Generated_Source\\PSoC5/I2C.h"
 225              		.file 5 "Generated_Source\\PSoC5/core_cm3.h"