ARM GAS  C:\Users\a85495\AppData\Local\Temp\ccaMMCH7.s 			page 1


   1              		.cpu cortex-m0
   2              		.fpu softvfp
   3              		.eabi_attribute 20, 1
   4              		.eabi_attribute 21, 1
   5              		.eabi_attribute 23, 3
   6              		.eabi_attribute 24, 1
   7              		.eabi_attribute 25, 1
   8              		.eabi_attribute 26, 1
   9              		.eabi_attribute 30, 1
  10              		.eabi_attribute 34, 0
  11              		.eabi_attribute 18, 4
  12              		.code	16
  13              		.file	"main.c"
  14              		.text
  15              	.Ltext0:
  16              		.cfi_sections	.debug_frame
  17              		.section	.text.read_battery_Handler,"ax",%progbits
  18              		.align	2
  19              		.global	read_battery_Handler
  20              		.code	16
  21              		.thumb_func
  22              		.type	read_battery_Handler, %function
  23              	read_battery_Handler:
  24              	.LFB34:
  25              		.file 1 "main.c"
   1:main.c        **** /* ========================================
   2:main.c        ****  *
   3:main.c        ****  * Copyright ARROW ELECTRONICS, 2017
   4:main.c        ****  * All Rights Reserved
   5:main.c        ****  * UNPUBLISHED, LICENSED SOFTWARE.
   6:main.c        ****  *
   7:main.c        ****  * CONFIDENTIAL AND PROPRIETARY INFORMATION
   8:main.c        ****  * WHICH IS THE PROPERTY OF your company.
   9:main.c        ****  *
  10:main.c        ****  * ========================================
  11:main.c        **** */
  12:main.c        **** 
  13:main.c        **** /* ========================================
  14:main.c        ****  *
  15:main.c        ****  * This code will read the neccessary information from Battery Babysitter
  16:main.c        ****  * And display the necessary information on a 4- 7 segment+dot display
  17:main.c        ****  *
  18:main.c        ****  * ========================================
  19:main.c        **** */
  20:main.c        **** #include "project.h"
  21:main.c        **** #include <batteryMonitor.h>
  22:main.c        **** #include <sev_seg.h>
  23:main.c        **** #include <mySerial.h>
  24:main.c        **** 
  25:main.c        **** #define _DEBUG 0
  26:main.c        **** 
  27:main.c        **** // Set BATTERY_CAPACITY to the design capacity of your battery.
  28:main.c        **** const unsigned int BATTERY_CAPACITY = 2000; // e.g. 2000mAh battery
  29:main.c        **** 
  30:main.c        **** void setupBQ27441(void);
  31:main.c        **** void getBatteryStats();
  32:main.c        **** CY_ISR(read_battery_Handler);
ARM GAS  C:\Users\a85495\AppData\Local\Temp\ccaMMCH7.s 			page 2


  33:main.c        **** 
  34:main.c        **** int i = 0;
  35:main.c        **** 
  36:main.c        **** CY_ISR(read_battery_Handler){
  26              		.loc 1 36 0
  27              		.cfi_startproc
  28 0000 08B5     		push	{r3, lr}
  29              		.cfi_def_cfa_offset 8
  30              		.cfi_offset 3, -8
  31              		.cfi_offset 14, -4
  37:main.c        ****     
  38:main.c        ****     CyDelay(50);
  32              		.loc 1 38 0
  33 0002 3220     		mov	r0, #50
  34 0004 FFF7FEFF 		bl	CyDelay
  35              	.LVL0:
  39:main.c        ****     LED_Write(~LED_Read());
  36              		.loc 1 39 0
  37 0008 FFF7FEFF 		bl	LED_Read
  38              	.LVL1:
  39 000c C043     		mvn	r0, r0
  40 000e C0B2     		uxtb	r0, r0
  41 0010 FFF7FEFF 		bl	LED_Write
  42              	.LVL2:
  40:main.c        ****     butt_pin_ClearInterrupt();
  43              		.loc 1 40 0
  44 0014 FFF7FEFF 		bl	butt_pin_ClearInterrupt
  45              	.LVL3:
  41:main.c        **** }    
  46              		.loc 1 41 0
  47              		@ sp needed
  48 0018 08BD     		pop	{r3, pc}
  49              		.cfi_endproc
  50              	.LFE34:
  51              		.size	read_battery_Handler, .-read_battery_Handler
  52 001a C046     		.section	.text.main,"ax",%progbits
  53              		.align	2
  54              		.global	main
  55              		.code	16
  56              		.thumb_func
  57              		.type	main, %function
  58              	main:
  59              	.LFB35:
  42:main.c        **** 
  43:main.c        **** int main(void)
  44:main.c        **** {
  60              		.loc 1 44 0
  61              		.cfi_startproc
  62 0000 08B5     		push	{r3, lr}
  63              		.cfi_def_cfa_offset 8
  64              		.cfi_offset 3, -8
  65              		.cfi_offset 14, -4
  45:main.c        ****     CyGlobalIntEnable; /* Enable global interrupts. */    
  66              		.loc 1 45 0
  67              	@ 45 "main.c" 1
  68 0002 62B6     		CPSIE   i
  69              	@ 0 "" 2
ARM GAS  C:\Users\a85495\AppData\Local\Temp\ccaMMCH7.s 			page 3


  46:main.c        ****     read_battery_StartEx(read_battery_Handler);
  70              		.loc 1 46 0
  71              		.code	16
  72 0004 0248     		ldr	r0, .L4
  73 0006 FFF7FEFF 		bl	read_battery_StartEx
  74              	.LVL4:
  47:main.c        ****     //setupBQ27441();
  48:main.c        ****     serial_Start();
  75              		.loc 1 48 0
  76 000a FFF7FEFF 		bl	serial_Start
  77              	.LVL5:
  78              	.L3:
  49:main.c        ****     
  50:main.c        ****     for(;;)
  51:main.c        ****     {
  52:main.c        ****         
  53:main.c        ****     }
  79              		.loc 1 53 0 discriminator 1
  80 000e FEE7     		b	.L3
  81              	.L5:
  82              		.align	2
  83              	.L4:
  84 0010 00000000 		.word	read_battery_Handler
  85              		.cfi_endproc
  86              	.LFE35:
  87              		.size	main, .-main
  88              		.section	.text.setupBQ27441,"ax",%progbits
  89              		.align	2
  90              		.global	setupBQ27441
  91              		.code	16
  92              		.thumb_func
  93              		.type	setupBQ27441, %function
  94              	setupBQ27441:
  95              	.LFB36:
  54:main.c        **** }
  55:main.c        **** 
  56:main.c        **** void setupBQ27441(void)
  57:main.c        **** {
  96              		.loc 1 57 0
  97              		.cfi_startproc
  98 0000 08B5     		push	{r3, lr}
  99              		.cfi_def_cfa_offset 8
 100              		.cfi_offset 3, -8
 101              		.cfi_offset 14, -4
  58:main.c        ****   // Use lipo.begin() to initialize the BQ27441-G1A and confirm that it's
  59:main.c        ****   // connected and communicating.
  60:main.c        ****   if (!lipo_begin()) // begin() will return true if communication is successful
 102              		.loc 1 60 0
 103 0002 FFF7FEFF 		bl	lipo_begin
 104              	.LVL6:
 105 0006 0028     		cmp	r0, #0
 106 0008 09D1     		bne	.L7
  61:main.c        ****   {
  62:main.c        **** 	// If communication fails, print an error message and loop forever.
  63:main.c        ****     serial_println("Error: Unable to communicate with BQ27441.");
 107              		.loc 1 63 0
 108 000a 0948     		ldr	r0, .L9
ARM GAS  C:\Users\a85495\AppData\Local\Temp\ccaMMCH7.s 			page 4


 109 000c FFF7FEFF 		bl	serial_println
 110              	.LVL7:
  64:main.c        ****     serial_println("  Check wiring and try again.");
 111              		.loc 1 64 0
 112 0010 0848     		ldr	r0, .L9+4
 113 0012 FFF7FEFF 		bl	serial_println
 114              	.LVL8:
  65:main.c        ****     serial_println("  (Battery must be plugged into Battery Babysitter!)");
 115              		.loc 1 65 0
 116 0016 0848     		ldr	r0, .L9+8
 117 0018 FFF7FEFF 		bl	serial_println
 118              	.LVL9:
 119              	.L8:
  66:main.c        ****     while (1) ;
 120              		.loc 1 66 0 discriminator 1
 121 001c FEE7     		b	.L8
 122              	.L7:
  67:main.c        ****   }
  68:main.c        ****   serial_println("Connected to BQ27441!");
 123              		.loc 1 68 0
 124 001e 0748     		ldr	r0, .L9+12
 125 0020 FFF7FEFF 		bl	serial_println
 126              	.LVL10:
  69:main.c        ****   
  70:main.c        ****   // Uset lipo.setCapacity(BATTERY_CAPACITY) to set the design capacity
  71:main.c        ****   // of your battery.
  72:main.c        ****   lipo_setCapacity(BATTERY_CAPACITY);
 127              		.loc 1 72 0
 128 0024 FA20     		mov	r0, #250
 129 0026 C000     		lsl	r0, r0, #3
 130 0028 FFF7FEFF 		bl	lipo_setCapacity
 131              	.LVL11:
  73:main.c        **** }
 132              		.loc 1 73 0
 133              		@ sp needed
 134 002c 08BD     		pop	{r3, pc}
 135              	.L10:
 136 002e C046     		.align	2
 137              	.L9:
 138 0030 00000000 		.word	.LC1
 139 0034 2C000000 		.word	.LC3
 140 0038 4C000000 		.word	.LC5
 141 003c 84000000 		.word	.LC7
 142              		.cfi_endproc
 143              	.LFE36:
 144              		.size	setupBQ27441, .-setupBQ27441
 145              		.section	.text.getBatteryStats,"ax",%progbits
 146              		.align	2
 147              		.global	getBatteryStats
 148              		.code	16
 149              		.thumb_func
 150              		.type	getBatteryStats, %function
 151              	getBatteryStats:
 152              	.LFB37:
  74:main.c        **** 
  75:main.c        **** void getBatteryStats()
  76:main.c        **** {
ARM GAS  C:\Users\a85495\AppData\Local\Temp\ccaMMCH7.s 			page 5


 153              		.loc 1 76 0
 154              		.cfi_startproc
 155 0000 08B5     		push	{r3, lr}
 156              		.cfi_def_cfa_offset 8
 157              		.cfi_offset 3, -8
 158              		.cfi_offset 14, -4
  77:main.c        ****   // Read battery stats from the BQ27441-G1A
  78:main.c        ****   unsigned int soc = lipo_soc();  // Read state-of-charge (%)
 159              		.loc 1 78 0
 160 0002 FFF7FEFF 		bl	lipo_soc
 161              	.LVL12:
  79:main.c        ****   unsigned int volts = lipo_voltage(); // Read battery voltage (mV)
 162              		.loc 1 79 0
 163 0006 FFF7FEFF 		bl	lipo_voltage
 164              	.LVL13:
  80:main.c        **** 
  81:main.c        ****   set_lipo_current_arg(AVG);
 165              		.loc 1 81 0
 166 000a 0020     		mov	r0, #0
 167 000c FFF7FEFF 		bl	set_lipo_current_arg
 168              	.LVL14:
  82:main.c        ****   int current = lipo_current(/*AVG*/); // Read average current (mA)
 169              		.loc 1 82 0
 170 0010 FFF7FEFF 		bl	lipo_current
 171              	.LVL15:
  83:main.c        **** 
  84:main.c        ****   set_lipo_capacity_arg(FULL);
 172              		.loc 1 84 0
 173 0014 0120     		mov	r0, #1
 174 0016 FFF7FEFF 		bl	set_lipo_capacity_arg
 175              	.LVL16:
  85:main.c        ****   unsigned int fullCapacity = lipo_capacity(/*FULL*/); // Read full capacity (mAh)
 176              		.loc 1 85 0
 177 001a FFF7FEFF 		bl	lipo_capacity
 178              	.LVL17:
  86:main.c        **** 
  87:main.c        ****   set_lipo_capacity_arg(REMAIN);
 179              		.loc 1 87 0
 180 001e 0020     		mov	r0, #0
 181 0020 FFF7FEFF 		bl	set_lipo_capacity_arg
 182              	.LVL18:
  88:main.c        ****   unsigned int capacity = lipo_capacity(/*REMAIN*/); // Read remaining capacity (mAh)
 183              		.loc 1 88 0
 184 0024 FFF7FEFF 		bl	lipo_capacity
 185              	.LVL19:
  89:main.c        **** 
  90:main.c        ****   int power = lipo_power(); // Read average power draw (mW)
 186              		.loc 1 90 0
 187 0028 FFF7FEFF 		bl	lipo_power
 188              	.LVL20:
  91:main.c        ****   int health = lipo_soh(); // Read state-of-health (%)
 189              		.loc 1 91 0
 190 002c FFF7FEFF 		bl	lipo_soh
 191              	.LVL21:
  92:main.c        **** 
  93:main.c        **** #if _DEBUG
  94:main.c        ****   serial_print("SOC(%) = "); 
ARM GAS  C:\Users\a85495\AppData\Local\Temp\ccaMMCH7.s 			page 6


  95:main.c        ****   serial_printInt(soc);
  96:main.c        ****   serial_print(" | Volt(mV) = "); 
  97:main.c        ****   serial_printInt(volts);
  98:main.c        ****   serial_print(" | Current(mA) = "); 
  99:main.c        ****   serial_printInt(current);
 100:main.c        **** 
 101:main.c        ****   serial_print(" | Remaining(mAh) = "); 
 102:main.c        ****   serial_printInt(capacity);
 103:main.c        ****   serial_print(" / full(mAh) = "); 
 104:main.c        ****   serial_printInt(fullCapacity);
 105:main.c        ****   
 106:main.c        ****   serial_print(" | Power(mW) = "); 
 107:main.c        ****   serial_printInt(power);
 108:main.c        ****   serial_print(" | Health = "); 
 109:main.c        ****   serial_printIntln(health);
 110:main.c        **** #endif
 111:main.c        **** }
 192              		.loc 1 111 0
 193              		@ sp needed
 194 0030 08BD     		pop	{r3, pc}
 195              		.cfi_endproc
 196              	.LFE37:
 197              		.size	getBatteryStats, .-getBatteryStats
 198              		.global	i
 199              		.global	BATTERY_CAPACITY
 200 0032 C046     		.section	.rodata
 201              		.align	2
 202              		.type	BATTERY_CAPACITY, %object
 203              		.size	BATTERY_CAPACITY, 4
 204              	BATTERY_CAPACITY:
 205 0000 D0070000 		.word	2000
 206              		.section	.rodata.str1.4,"aMS",%progbits,1
 207              		.align	2
 208              	.LC1:
 209 0000 4572726F 		.ascii	"Error: Unable to communicate with BQ27441.\000"
 209      723A2055 
 209      6E61626C 
 209      6520746F 
 209      20636F6D 
 210 002b 00       		.space	1
 211              	.LC3:
 212 002c 20204368 		.ascii	"  Check wiring and try again.\000"
 212      65636B20 
 212      77697269 
 212      6E672061 
 212      6E642074 
 213 004a 0000     		.space	2
 214              	.LC5:
 215 004c 20202842 		.ascii	"  (Battery must be plugged into Battery Babysitter!"
 215      61747465 
 215      7279206D 
 215      75737420 
 215      62652070 
 216 007f 2900     		.ascii	")\000"
 217 0081 000000   		.space	3
 218              	.LC7:
 219 0084 436F6E6E 		.ascii	"Connected to BQ27441!\000"
ARM GAS  C:\Users\a85495\AppData\Local\Temp\ccaMMCH7.s 			page 7


 219      65637465 
 219      6420746F 
 219      20425132 
 219      37343431 
 220 009a 0000     		.bss
 221              		.align	2
 222              		.type	i, %object
 223              		.size	i, 4
 224              	i:
 225 0000 00000000 		.space	4
 226              		.text
 227              	.Letext0:
 228              		.file 2 "c:\\program files (x86)\\cypress\\psoc creator\\4.0\\psoc creator\\import\\gnu\\arm\\4.9.
 229              		.file 3 "c:\\program files (x86)\\cypress\\psoc creator\\4.0\\psoc creator\\import\\gnu\\arm\\4.9.
 230              		.file 4 "Generated_Source\\PSoC4/cytypes.h"
 231              		.file 5 "..\\..\\..\\..\\PSoC Basestation\\Base_station_src/batteryMonitor.h"
 232              		.file 6 "Generated_Source\\PSoC4/CyLib.h"
 233              		.file 7 "Generated_Source\\PSoC4/LED.h"
 234              		.file 8 "Generated_Source\\PSoC4/butt_pin.h"
 235              		.file 9 "Generated_Source\\PSoC4/read_battery.h"
 236              		.file 10 "..\\..\\..\\..\\PSoC Basestation\\Base_station_src/mySerial.h"
 237              		.file 11 "Generated_Source\\PSoC4/serial.h"