ARM GAS  C:\Users\a85495\AppData\Local\Temp\ccUyZDub.s 			page 1


   1              		.cpu cortex-m0
   2              		.fpu softvfp
   3              		.eabi_attribute 20, 1
   4              		.eabi_attribute 21, 1
   5              		.eabi_attribute 23, 3
   6              		.eabi_attribute 24, 1
   7              		.eabi_attribute 25, 1
   8              		.eabi_attribute 26, 1
   9              		.eabi_attribute 30, 1
  10              		.eabi_attribute 34, 0
  11              		.eabi_attribute 18, 4
  12              		.code	16
  13              		.file	"mySerial.c"
  14              		.text
  15              	.Ltext0:
  16              		.cfi_sections	.debug_frame
  17              		.section	.text.serial_begin,"ax",%progbits
  18              		.align	2
  19              		.global	serial_begin
  20              		.code	16
  21              		.thumb_func
  22              		.type	serial_begin, %function
  23              	serial_begin:
  24              	.LFB34:
  25              		.file 1 "..\\..\\..\\..\\PSoC Basestation\\Base_station_src\\mySerial.c"
   1:..\..\..\..\PSoC Basestation\Base_station_src/mySerial.c **** /*
   2:..\..\..\..\PSoC Basestation\Base_station_src/mySerial.c **** 
   3:..\..\..\..\PSoC Basestation\Base_station_src/mySerial.c **** */
   4:..\..\..\..\PSoC Basestation\Base_station_src/mySerial.c **** #include "project.h"
   5:..\..\..\..\PSoC Basestation\Base_station_src/mySerial.c **** #include <stdint.h>
   6:..\..\..\..\PSoC Basestation\Base_station_src/mySerial.c **** #include <stdlib.h>
   7:..\..\..\..\PSoC Basestation\Base_station_src/mySerial.c **** #include <stdio.h>
   8:..\..\..\..\PSoC Basestation\Base_station_src/mySerial.c **** #include <mySerial.h>
   9:..\..\..\..\PSoC Basestation\Base_station_src/mySerial.c **** #include <math.h>
  10:..\..\..\..\PSoC Basestation\Base_station_src/mySerial.c **** 
  11:..\..\..\..\PSoC Basestation\Base_station_src/mySerial.c **** char str[100];
  12:..\..\..\..\PSoC Basestation\Base_station_src/mySerial.c **** 
  13:..\..\..\..\PSoC Basestation\Base_station_src/mySerial.c **** void serial_begin(){
  26              		.loc 1 13 0
  27              		.cfi_startproc
  28 0000 08B5     		push	{r3, lr}
  29              		.cfi_def_cfa_offset 8
  30              		.cfi_offset 3, -8
  31              		.cfi_offset 14, -4
  14:..\..\..\..\PSoC Basestation\Base_station_src/mySerial.c ****     serial_Start();    //initialize the UART
  32              		.loc 1 14 0
  33 0002 FFF7FEFF 		bl	serial_Start
  34              	.LVL0:
  15:..\..\..\..\PSoC Basestation\Base_station_src/mySerial.c ****     /*
  16:..\..\..\..\PSoC Basestation\Base_station_src/mySerial.c ****     Description for PSoC datasheet:
  17:..\..\..\..\PSoC Basestation\Base_station_src/mySerial.c ****         This is the preferred method to begin component operation.
  18:..\..\..\..\PSoC Basestation\Base_station_src/mySerial.c ****         UART_Start() sets the initVar variable, calls the UART_Init()
  19:..\..\..\..\PSoC Basestation\Base_station_src/mySerial.c ****         function, and then calls the UART_Enable() function.
  20:..\..\..\..\PSoC Basestation\Base_station_src/mySerial.c ****     */
  21:..\..\..\..\PSoC Basestation\Base_station_src/mySerial.c **** }
  35              		.loc 1 21 0
  36              		@ sp needed
ARM GAS  C:\Users\a85495\AppData\Local\Temp\ccUyZDub.s 			page 2


  37 0006 08BD     		pop	{r3, pc}
  38              		.cfi_endproc
  39              	.LFE34:
  40              		.size	serial_begin, .-serial_begin
  41              		.section	.text.serial_print,"ax",%progbits
  42              		.align	2
  43              		.global	serial_print
  44              		.code	16
  45              		.thumb_func
  46              		.type	serial_print, %function
  47              	serial_print:
  48              	.LFB35:
  22:..\..\..\..\PSoC Basestation\Base_station_src/mySerial.c **** 
  23:..\..\..\..\PSoC Basestation\Base_station_src/mySerial.c **** void serial_print(char *string)
  24:..\..\..\..\PSoC Basestation\Base_station_src/mySerial.c **** {
  49              		.loc 1 24 0
  50              		.cfi_startproc
  51              	.LVL1:
  52 0000 08B5     		push	{r3, lr}
  53              		.cfi_def_cfa_offset 8
  54              		.cfi_offset 3, -8
  55              		.cfi_offset 14, -4
  25:..\..\..\..\PSoC Basestation\Base_station_src/mySerial.c ****     serial_UartPutString(string);
  56              		.loc 1 25 0
  57 0002 FFF7FEFF 		bl	serial_UartPutString
  58              	.LVL2:
  26:..\..\..\..\PSoC Basestation\Base_station_src/mySerial.c **** }
  59              		.loc 1 26 0
  60              		@ sp needed
  61 0006 08BD     		pop	{r3, pc}
  62              		.cfi_endproc
  63              	.LFE35:
  64              		.size	serial_print, .-serial_print
  65              		.section	.text.serial_println,"ax",%progbits
  66              		.align	2
  67              		.global	serial_println
  68              		.code	16
  69              		.thumb_func
  70              		.type	serial_println, %function
  71              	serial_println:
  72              	.LFB36:
  27:..\..\..\..\PSoC Basestation\Base_station_src/mySerial.c **** 
  28:..\..\..\..\PSoC Basestation\Base_station_src/mySerial.c **** void serial_println(char *string)
  29:..\..\..\..\PSoC Basestation\Base_station_src/mySerial.c **** {
  73              		.loc 1 29 0
  74              		.cfi_startproc
  75              	.LVL3:
  76 0000 08B5     		push	{r3, lr}
  77              		.cfi_def_cfa_offset 8
  78              		.cfi_offset 3, -8
  79              		.cfi_offset 14, -4
  30:..\..\..\..\PSoC Basestation\Base_station_src/mySerial.c ****     serial_UartPutString(string);
  80              		.loc 1 30 0
  81 0002 FFF7FEFF 		bl	serial_UartPutString
  82              	.LVL4:
  31:..\..\..\..\PSoC Basestation\Base_station_src/mySerial.c ****     serial_UartPutCRLF(' ');
  83              		.loc 1 31 0
ARM GAS  C:\Users\a85495\AppData\Local\Temp\ccUyZDub.s 			page 3


  84 0006 2020     		mov	r0, #32
  85 0008 FFF7FEFF 		bl	serial_UartPutCRLF
  86              	.LVL5:
  32:..\..\..\..\PSoC Basestation\Base_station_src/mySerial.c **** }
  87              		.loc 1 32 0
  88              		@ sp needed
  89 000c 08BD     		pop	{r3, pc}
  90              		.cfi_endproc
  91              	.LFE36:
  92              		.size	serial_println, .-serial_println
  93 000e C046     		.section	.text.serial_printDouble,"ax",%progbits
  94              		.align	2
  95              		.global	serial_printDouble
  96              		.code	16
  97              		.thumb_func
  98              		.type	serial_printDouble, %function
  99              	serial_printDouble:
 100              	.LFB37:
  33:..\..\..\..\PSoC Basestation\Base_station_src/mySerial.c **** 
  34:..\..\..\..\PSoC Basestation\Base_station_src/mySerial.c **** void serial_printDouble(double num){
 101              		.loc 1 34 0
 102              		.cfi_startproc
 103              	.LVL6:
 104 0000 00B5     		push	{lr}
 105              		.cfi_def_cfa_offset 4
 106              		.cfi_offset 14, -4
 107 0002 87B0     		sub	sp, sp, #28
 108              		.cfi_def_cfa_offset 32
 109 0004 021C     		mov	r2, r0
 110 0006 0B1C     		mov	r3, r1
  35:..\..\..\..\PSoC Basestation\Base_station_src/mySerial.c ****     char str[20];
  36:..\..\..\..\PSoC Basestation\Base_station_src/mySerial.c **** 
  37:..\..\..\..\PSoC Basestation\Base_station_src/mySerial.c ****     sprintf(str,"%f", num); 
 111              		.loc 1 37 0
 112 0008 01A8     		add	r0, sp, #4
 113              	.LVL7:
 114 000a 0449     		ldr	r1, .L5
 115 000c FFF7FEFF 		bl	sprintf
 116              	.LVL8:
  38:..\..\..\..\PSoC Basestation\Base_station_src/mySerial.c ****     serial_print(str);
 117              		.loc 1 38 0
 118 0010 01A8     		add	r0, sp, #4
 119 0012 FFF7FEFF 		bl	serial_print
 120              	.LVL9:
  39:..\..\..\..\PSoC Basestation\Base_station_src/mySerial.c **** }
 121              		.loc 1 39 0
 122 0016 07B0     		add	sp, sp, #28
 123              		@ sp needed
 124 0018 00BD     		pop	{pc}
 125              	.L6:
 126 001a C046     		.align	2
 127              	.L5:
 128 001c 00000000 		.word	.LC0
 129              		.cfi_endproc
 130              	.LFE37:
 131              		.size	serial_printDouble, .-serial_printDouble
 132              		.section	.text.serial_printDoubleln,"ax",%progbits
ARM GAS  C:\Users\a85495\AppData\Local\Temp\ccUyZDub.s 			page 4


 133              		.align	2
 134              		.global	serial_printDoubleln
 135              		.code	16
 136              		.thumb_func
 137              		.type	serial_printDoubleln, %function
 138              	serial_printDoubleln:
 139              	.LFB38:
  40:..\..\..\..\PSoC Basestation\Base_station_src/mySerial.c **** 
  41:..\..\..\..\PSoC Basestation\Base_station_src/mySerial.c **** void serial_printDoubleln(double num){
 140              		.loc 1 41 0
 141              		.cfi_startproc
 142              	.LVL10:
 143 0000 00B5     		push	{lr}
 144              		.cfi_def_cfa_offset 4
 145              		.cfi_offset 14, -4
 146 0002 87B0     		sub	sp, sp, #28
 147              		.cfi_def_cfa_offset 32
 148 0004 021C     		mov	r2, r0
 149 0006 0B1C     		mov	r3, r1
  42:..\..\..\..\PSoC Basestation\Base_station_src/mySerial.c ****     char str[20];
  43:..\..\..\..\PSoC Basestation\Base_station_src/mySerial.c **** 
  44:..\..\..\..\PSoC Basestation\Base_station_src/mySerial.c ****     sprintf(str,"%f", num); 
 150              		.loc 1 44 0
 151 0008 01A8     		add	r0, sp, #4
 152              	.LVL11:
 153 000a 0449     		ldr	r1, .L8
 154 000c FFF7FEFF 		bl	sprintf
 155              	.LVL12:
  45:..\..\..\..\PSoC Basestation\Base_station_src/mySerial.c ****     serial_println(str);
 156              		.loc 1 45 0
 157 0010 01A8     		add	r0, sp, #4
 158 0012 FFF7FEFF 		bl	serial_println
 159              	.LVL13:
  46:..\..\..\..\PSoC Basestation\Base_station_src/mySerial.c **** }
 160              		.loc 1 46 0
 161 0016 07B0     		add	sp, sp, #28
 162              		@ sp needed
 163 0018 00BD     		pop	{pc}
 164              	.L9:
 165 001a C046     		.align	2
 166              	.L8:
 167 001c 00000000 		.word	.LC0
 168              		.cfi_endproc
 169              	.LFE38:
 170              		.size	serial_printDoubleln, .-serial_printDoubleln
 171              		.global	__aeabi_f2d
 172              		.section	.text.serial_printFloat,"ax",%progbits
 173              		.align	2
 174              		.global	serial_printFloat
 175              		.code	16
 176              		.thumb_func
 177              		.type	serial_printFloat, %function
 178              	serial_printFloat:
 179              	.LFB39:
  47:..\..\..\..\PSoC Basestation\Base_station_src/mySerial.c **** 
  48:..\..\..\..\PSoC Basestation\Base_station_src/mySerial.c **** void serial_printFloat(float num){
 180              		.loc 1 48 0
ARM GAS  C:\Users\a85495\AppData\Local\Temp\ccUyZDub.s 			page 5


 181              		.cfi_startproc
 182              	.LVL14:
 183 0000 00B5     		push	{lr}
 184              		.cfi_def_cfa_offset 4
 185              		.cfi_offset 14, -4
 186 0002 87B0     		sub	sp, sp, #28
 187              		.cfi_def_cfa_offset 32
  49:..\..\..\..\PSoC Basestation\Base_station_src/mySerial.c ****     char str[20];
  50:..\..\..\..\PSoC Basestation\Base_station_src/mySerial.c **** 
  51:..\..\..\..\PSoC Basestation\Base_station_src/mySerial.c ****     sprintf(str,"%f", num); 
 188              		.loc 1 51 0
 189 0004 FFF7FEFF 		bl	__aeabi_f2d
 190              	.LVL15:
 191 0008 021C     		mov	r2, r0
 192 000a 0B1C     		mov	r3, r1
 193 000c 01A8     		add	r0, sp, #4
 194 000e 0449     		ldr	r1, .L11
 195 0010 FFF7FEFF 		bl	sprintf
 196              	.LVL16:
  52:..\..\..\..\PSoC Basestation\Base_station_src/mySerial.c ****     serial_print(str);
 197              		.loc 1 52 0
 198 0014 01A8     		add	r0, sp, #4
 199 0016 FFF7FEFF 		bl	serial_print
 200              	.LVL17:
  53:..\..\..\..\PSoC Basestation\Base_station_src/mySerial.c **** }
 201              		.loc 1 53 0
 202 001a 07B0     		add	sp, sp, #28
 203              		@ sp needed
 204 001c 00BD     		pop	{pc}
 205              	.L12:
 206 001e C046     		.align	2
 207              	.L11:
 208 0020 00000000 		.word	.LC0
 209              		.cfi_endproc
 210              	.LFE39:
 211              		.size	serial_printFloat, .-serial_printFloat
 212              		.section	.text.serial_printFloatln,"ax",%progbits
 213              		.align	2
 214              		.global	serial_printFloatln
 215              		.code	16
 216              		.thumb_func
 217              		.type	serial_printFloatln, %function
 218              	serial_printFloatln:
 219              	.LFB40:
  54:..\..\..\..\PSoC Basestation\Base_station_src/mySerial.c **** 
  55:..\..\..\..\PSoC Basestation\Base_station_src/mySerial.c **** void serial_printFloatln(float num){
 220              		.loc 1 55 0
 221              		.cfi_startproc
 222              	.LVL18:
 223 0000 00B5     		push	{lr}
 224              		.cfi_def_cfa_offset 4
 225              		.cfi_offset 14, -4
 226 0002 87B0     		sub	sp, sp, #28
 227              		.cfi_def_cfa_offset 32
  56:..\..\..\..\PSoC Basestation\Base_station_src/mySerial.c ****     char str[20];
  57:..\..\..\..\PSoC Basestation\Base_station_src/mySerial.c **** 
  58:..\..\..\..\PSoC Basestation\Base_station_src/mySerial.c ****     sprintf(str,"%f", num); 
ARM GAS  C:\Users\a85495\AppData\Local\Temp\ccUyZDub.s 			page 6


 228              		.loc 1 58 0
 229 0004 FFF7FEFF 		bl	__aeabi_f2d
 230              	.LVL19:
 231 0008 021C     		mov	r2, r0
 232 000a 0B1C     		mov	r3, r1
 233 000c 01A8     		add	r0, sp, #4
 234 000e 0449     		ldr	r1, .L14
 235 0010 FFF7FEFF 		bl	sprintf
 236              	.LVL20:
  59:..\..\..\..\PSoC Basestation\Base_station_src/mySerial.c ****     serial_println(str);
 237              		.loc 1 59 0
 238 0014 01A8     		add	r0, sp, #4
 239 0016 FFF7FEFF 		bl	serial_println
 240              	.LVL21:
  60:..\..\..\..\PSoC Basestation\Base_station_src/mySerial.c **** }
 241              		.loc 1 60 0
 242 001a 07B0     		add	sp, sp, #28
 243              		@ sp needed
 244 001c 00BD     		pop	{pc}
 245              	.L15:
 246 001e C046     		.align	2
 247              	.L14:
 248 0020 00000000 		.word	.LC0
 249              		.cfi_endproc
 250              	.LFE40:
 251              		.size	serial_printFloatln, .-serial_printFloatln
 252              		.section	.text.serial_printInt,"ax",%progbits
 253              		.align	2
 254              		.global	serial_printInt
 255              		.code	16
 256              		.thumb_func
 257              		.type	serial_printInt, %function
 258              	serial_printInt:
 259              	.LFB41:
  61:..\..\..\..\PSoC Basestation\Base_station_src/mySerial.c **** 
  62:..\..\..\..\PSoC Basestation\Base_station_src/mySerial.c **** void serial_printInt(int num){
 260              		.loc 1 62 0
 261              		.cfi_startproc
 262              	.LVL22:
 263 0000 00B5     		push	{lr}
 264              		.cfi_def_cfa_offset 4
 265              		.cfi_offset 14, -4
 266 0002 87B0     		sub	sp, sp, #28
 267              		.cfi_def_cfa_offset 32
  63:..\..\..\..\PSoC Basestation\Base_station_src/mySerial.c ****     char buffer[20];
  64:..\..\..\..\PSoC Basestation\Base_station_src/mySerial.c ****     serial_print(itoa((num),buffer,10));
 268              		.loc 1 64 0
 269 0004 01A9     		add	r1, sp, #4
 270 0006 0A22     		mov	r2, #10
 271 0008 FFF7FEFF 		bl	itoa
 272              	.LVL23:
 273 000c FFF7FEFF 		bl	serial_print
 274              	.LVL24:
  65:..\..\..\..\PSoC Basestation\Base_station_src/mySerial.c **** }
 275              		.loc 1 65 0
 276 0010 07B0     		add	sp, sp, #28
 277              		@ sp needed
ARM GAS  C:\Users\a85495\AppData\Local\Temp\ccUyZDub.s 			page 7


 278 0012 00BD     		pop	{pc}
 279              		.cfi_endproc
 280              	.LFE41:
 281              		.size	serial_printInt, .-serial_printInt
 282              		.section	.text.serial_printIntln,"ax",%progbits
 283              		.align	2
 284              		.global	serial_printIntln
 285              		.code	16
 286              		.thumb_func
 287              		.type	serial_printIntln, %function
 288              	serial_printIntln:
 289              	.LFB42:
  66:..\..\..\..\PSoC Basestation\Base_station_src/mySerial.c **** 
  67:..\..\..\..\PSoC Basestation\Base_station_src/mySerial.c **** void serial_printIntln(int num){
 290              		.loc 1 67 0
 291              		.cfi_startproc
 292              	.LVL25:
 293 0000 00B5     		push	{lr}
 294              		.cfi_def_cfa_offset 4
 295              		.cfi_offset 14, -4
 296 0002 87B0     		sub	sp, sp, #28
 297              		.cfi_def_cfa_offset 32
  68:..\..\..\..\PSoC Basestation\Base_station_src/mySerial.c ****     char buffer[20];
  69:..\..\..\..\PSoC Basestation\Base_station_src/mySerial.c ****     //The 10 means that the number will be represented in the decimal base
  70:..\..\..\..\PSoC Basestation\Base_station_src/mySerial.c ****     //if we wanted it in binary we would've just specified it as 2
  71:..\..\..\..\PSoC Basestation\Base_station_src/mySerial.c ****     //16 for hex and 8 for octal
  72:..\..\..\..\PSoC Basestation\Base_station_src/mySerial.c ****     serial_println(itoa((num),buffer,10));
 298              		.loc 1 72 0
 299 0004 01A9     		add	r1, sp, #4
 300 0006 0A22     		mov	r2, #10
 301 0008 FFF7FEFF 		bl	itoa
 302              	.LVL26:
 303 000c FFF7FEFF 		bl	serial_println
 304              	.LVL27:
  73:..\..\..\..\PSoC Basestation\Base_station_src/mySerial.c **** }
 305              		.loc 1 73 0
 306 0010 07B0     		add	sp, sp, #28
 307              		@ sp needed
 308 0012 00BD     		pop	{pc}
 309              		.cfi_endproc
 310              	.LFE42:
 311              		.size	serial_printIntln, .-serial_printIntln
 312              		.comm	str,100,4
 313              		.section	.rodata.str1.4,"aMS",%progbits,1
 314              		.align	2
 315              	.LC0:
 316 0000 256600   		.ascii	"%f\000"
 317 0003 00       		.text
 318              	.Letext0:
 319              		.file 2 "Generated_Source\\PSoC4/cytypes.h"
 320              		.file 3 "Generated_Source\\PSoC4/serial_SPI_UART.h"
 321              		.file 4 "c:\\program files (x86)\\cypress\\psoc creator\\4.0\\psoc creator\\import\\gnu\\arm\\4.9.
 322              		.file 5 "Generated_Source\\PSoC4/serial.h"
 323              		.file 6 "c:\\program files (x86)\\cypress\\psoc creator\\4.0\\psoc creator\\import\\gnu\\arm\\4.9.