ARM GAS  C:\Users\a85495\AppData\Local\Temp\ccsG8Tb0.s 			page 1


   1              		.cpu cortex-m0
   2              		.fpu softvfp
   3              		.eabi_attribute 20, 1
   4              		.eabi_attribute 21, 1
   5              		.eabi_attribute 23, 3
   6              		.eabi_attribute 24, 1
   7              		.eabi_attribute 25, 1
   8              		.eabi_attribute 26, 1
   9              		.eabi_attribute 30, 1
  10              		.eabi_attribute 34, 0
  11              		.eabi_attribute 18, 4
  12              		.code	16
  13              		.file	"sev_seg.c"
  14              		.text
  15              	.Ltext0:
  16              		.cfi_sections	.debug_frame
  17              		.section	.text.serial_write,"ax",%progbits
  18              		.align	2
  19              		.code	16
  20              		.thumb_func
  21              		.type	serial_write, %function
  22              	serial_write:
  23              	.LFB34:
  24              		.file 1 "..\\..\\..\\..\\PSoC Basestation\\Base_station_src\\sev_seg.c"
   1:..\..\..\..\PSoC Basestation\Base_station_src/sev_seg.c **** #include <sev_seg.h>
   2:..\..\..\..\PSoC Basestation\Base_station_src/sev_seg.c **** #include <project.h>
   3:..\..\..\..\PSoC Basestation\Base_station_src/sev_seg.c **** #include <Serial.h>
   4:..\..\..\..\PSoC Basestation\Base_station_src/sev_seg.c **** #include <stdlib.h>
   5:..\..\..\..\PSoC Basestation\Base_station_src/sev_seg.c **** #include <stdint.h>
   6:..\..\..\..\PSoC Basestation\Base_station_src/sev_seg.c **** #include <stdio.h>
   7:..\..\..\..\PSoC Basestation\Base_station_src/sev_seg.c **** 
   8:..\..\..\..\PSoC Basestation\Base_station_src/sev_seg.c **** #define _P_ 0b01010000
   9:..\..\..\..\PSoC Basestation\Base_station_src/sev_seg.c **** #define _E_ 0b01000101
  10:..\..\..\..\PSoC Basestation\Base_station_src/sev_seg.c **** #define _r_ 0b01110010
  11:..\..\..\..\PSoC Basestation\Base_station_src/sev_seg.c **** #define _C_ 0b01000011
  12:..\..\..\..\PSoC Basestation\Base_station_src/sev_seg.c **** #define _U_ 0b01010101
  13:..\..\..\..\PSoC Basestation\Base_station_src/sev_seg.c **** 
  14:..\..\..\..\PSoC Basestation\Base_station_src/sev_seg.c **** /*****************************************************************************
  15:..\..\..\..\PSoC Basestation\Base_station_src/sev_seg.c ****  ************************ Static function decleration ************************
  16:..\..\..\..\PSoC Basestation\Base_station_src/sev_seg.c ****  *****************************************************************************/
  17:..\..\..\..\PSoC Basestation\Base_station_src/sev_seg.c **** 
  18:..\..\..\..\PSoC Basestation\Base_station_src/sev_seg.c **** static void serial_write(uint8_t val);
  19:..\..\..\..\PSoC Basestation\Base_station_src/sev_seg.c **** static void serial_write_string(const char *c);
  20:..\..\..\..\PSoC Basestation\Base_station_src/sev_seg.c **** 
  21:..\..\..\..\PSoC Basestation\Base_station_src/sev_seg.c **** /*****************************************************************************
  22:..\..\..\..\PSoC Basestation\Base_station_src/sev_seg.c ****  ************************ Function definitions *******************************
  23:..\..\..\..\PSoC Basestation\Base_station_src/sev_seg.c ****  *****************************************************************************/
  24:..\..\..\..\PSoC Basestation\Base_station_src/sev_seg.c **** 
  25:..\..\..\..\PSoC Basestation\Base_station_src/sev_seg.c **** static void serial_write(uint8_t val)
  26:..\..\..\..\PSoC Basestation\Base_station_src/sev_seg.c **** {
  25              		.loc 1 26 0
  26              		.cfi_startproc
  27              	.LVL0:
  28 0000 08B5     		push	{r3, lr}
  29              		.cfi_def_cfa_offset 8
  30              		.cfi_offset 3, -8
  31              		.cfi_offset 14, -4
ARM GAS  C:\Users\a85495\AppData\Local\Temp\ccsG8Tb0.s 			page 2


  27:..\..\..\..\PSoC Basestation\Base_station_src/sev_seg.c ****     /* Direct Wording for PSoC Microcontroller UART Datasheet for PSoC 5LP prototiping board
  28:..\..\..\..\PSoC Basestation\Base_station_src/sev_seg.c ****  *  -CY8CKIT-059
  29:..\..\..\..\PSoC Basestation\Base_station_src/sev_seg.c ****  * Function Description
  30:..\..\..\..\PSoC Basestation\Base_station_src/sev_seg.c ****  *  -Places a byte of data in the transmit buffer
  31:..\..\..\..\PSoC Basestation\Base_station_src/sev_seg.c ****  *   to be sent at the next available bus time. This function is 
  32:..\..\..\..\PSoC Basestation\Base_station_src/sev_seg.c ****  *   blocking and waits until there is a space available to put requested data in the transmit buff
  33:..\..\..\..\PSoC Basestation\Base_station_src/sev_seg.c **** */
  34:..\..\..\..\PSoC Basestation\Base_station_src/sev_seg.c ****     serial_UartPutChar((uint32_t)val);
  32              		.loc 1 34 0
  33 0002 FFF7FEFF 		bl	serial_SpiUartWriteTxData
  34              	.LVL1:
  35:..\..\..\..\PSoC Basestation\Base_station_src/sev_seg.c **** }
  35              		.loc 1 35 0
  36              		@ sp needed
  37 0006 08BD     		pop	{r3, pc}
  38              		.cfi_endproc
  39              	.LFE34:
  40              		.size	serial_write, .-serial_write
  41              		.section	.text.serial_write_string,"ax",%progbits
  42              		.align	2
  43              		.code	16
  44              		.thumb_func
  45              		.type	serial_write_string, %function
  46              	serial_write_string:
  47              	.LFB35:
  36:..\..\..\..\PSoC Basestation\Base_station_src/sev_seg.c **** 
  37:..\..\..\..\PSoC Basestation\Base_station_src/sev_seg.c **** static void serial_write_string(const char *c)
  38:..\..\..\..\PSoC Basestation\Base_station_src/sev_seg.c **** {
  48              		.loc 1 38 0
  49              		.cfi_startproc
  50              	.LVL2:
  51 0000 08B5     		push	{r3, lr}
  52              		.cfi_def_cfa_offset 8
  53              		.cfi_offset 3, -8
  54              		.cfi_offset 14, -4
  39:..\..\..\..\PSoC Basestation\Base_station_src/sev_seg.c ****     serial_UartPutString(c);
  55              		.loc 1 39 0
  56 0002 FFF7FEFF 		bl	serial_UartPutString
  57              	.LVL3:
  40:..\..\..\..\PSoC Basestation\Base_station_src/sev_seg.c **** }
  58              		.loc 1 40 0
  59              		@ sp needed
  60 0006 08BD     		pop	{r3, pc}
  61              		.cfi_endproc
  62              	.LFE35:
  63              		.size	serial_write_string, .-serial_write_string
  64              		.section	.text.clear_display,"ax",%progbits
  65              		.align	2
  66              		.global	clear_display
  67              		.code	16
  68              		.thumb_func
  69              		.type	clear_display, %function
  70              	clear_display:
  71              	.LFB36:
  41:..\..\..\..\PSoC Basestation\Base_station_src/sev_seg.c **** 
  42:..\..\..\..\PSoC Basestation\Base_station_src/sev_seg.c **** /* Whenever this is called, the display will be cleared
  43:..\..\..\..\PSoC Basestation\Base_station_src/sev_seg.c ****  * and the cursor will be reset(point to the left most digit)
ARM GAS  C:\Users\a85495\AppData\Local\Temp\ccsG8Tb0.s 			page 3


  44:..\..\..\..\PSoC Basestation\Base_station_src/sev_seg.c **** */
  45:..\..\..\..\PSoC Basestation\Base_station_src/sev_seg.c **** void clear_display()
  46:..\..\..\..\PSoC Basestation\Base_station_src/sev_seg.c **** {
  72              		.loc 1 46 0
  73              		.cfi_startproc
  74 0000 08B5     		push	{r3, lr}
  75              		.cfi_def_cfa_offset 8
  76              		.cfi_offset 3, -8
  77              		.cfi_offset 14, -4
  47:..\..\..\..\PSoC Basestation\Base_station_src/sev_seg.c ****     serial_write(0x76); // Clear display command
  78              		.loc 1 47 0
  79 0002 7620     		mov	r0, #118
  80 0004 FFF7FEFF 		bl	serial_write
  81              	.LVL4:
  48:..\..\..\..\PSoC Basestation\Base_station_src/sev_seg.c **** }
  82              		.loc 1 48 0
  83              		@ sp needed
  84 0008 08BD     		pop	{r3, pc}
  85              		.cfi_endproc
  86              	.LFE36:
  87              		.size	clear_display, .-clear_display
  88 000a C046     		.section	.text.setBrightness,"ax",%progbits
  89              		.align	2
  90              		.global	setBrightness
  91              		.code	16
  92              		.thumb_func
  93              		.type	setBrightness, %function
  94              	setBrightness:
  95              	.LFB37:
  49:..\..\..\..\PSoC Basestation\Base_station_src/sev_seg.c **** 
  50:..\..\..\..\PSoC Basestation\Base_station_src/sev_seg.c **** // Set the displays brightness. Should receive byte with the value
  51:..\..\..\..\PSoC Basestation\Base_station_src/sev_seg.c **** //  to set the brightness to
  52:..\..\..\..\PSoC Basestation\Base_station_src/sev_seg.c **** //  dimmest------------->brightest
  53:..\..\..\..\PSoC Basestation\Base_station_src/sev_seg.c **** //     0--------127--------255
  54:..\..\..\..\PSoC Basestation\Base_station_src/sev_seg.c **** void setBrightness(uint8_t value)
  55:..\..\..\..\PSoC Basestation\Base_station_src/sev_seg.c **** {
  96              		.loc 1 55 0
  97              		.cfi_startproc
  98              	.LVL5:
  99 0000 10B5     		push	{r4, lr}
 100              		.cfi_def_cfa_offset 8
 101              		.cfi_offset 4, -8
 102              		.cfi_offset 14, -4
 103 0002 041C     		mov	r4, r0
  56:..\..\..\..\PSoC Basestation\Base_station_src/sev_seg.c ****     serial_write(0x7A);  // Set brightness command byte
 104              		.loc 1 56 0
 105 0004 7A20     		mov	r0, #122
 106              	.LVL6:
 107 0006 FFF7FEFF 		bl	serial_write
 108              	.LVL7:
  57:..\..\..\..\PSoC Basestation\Base_station_src/sev_seg.c ****     serial_write(value); // brightness data byte
 109              		.loc 1 57 0
 110 000a 201C     		mov	r0, r4
 111 000c FFF7FEFF 		bl	serial_write
 112              	.LVL8:
  58:..\..\..\..\PSoC Basestation\Base_station_src/sev_seg.c **** }
 113              		.loc 1 58 0
ARM GAS  C:\Users\a85495\AppData\Local\Temp\ccsG8Tb0.s 			page 4


 114              		@ sp needed
 115 0010 10BD     		pop	{r4, pc}
 116              		.cfi_endproc
 117              	.LFE37:
 118              		.size	setBrightness, .-setBrightness
 119 0012 C046     		.section	.text.setDecimals,"ax",%progbits
 120              		.align	2
 121              		.global	setDecimals
 122              		.code	16
 123              		.thumb_func
 124              		.type	setDecimals, %function
 125              	setDecimals:
 126              	.LFB38:
  59:..\..\..\..\PSoC Basestation\Base_station_src/sev_seg.c **** 
  60:..\..\..\..\PSoC Basestation\Base_station_src/sev_seg.c **** // Turn on any, none, or all of the decimals.
  61:..\..\..\..\PSoC Basestation\Base_station_src/sev_seg.c **** //  The six lowest bits in the decimals parameter sets a decimal
  62:..\..\..\..\PSoC Basestation\Base_station_src/sev_seg.c **** //  (or colon, or apostrophe) on or off. A 1 indicates on, 0 off.
  63:..\..\..\..\PSoC Basestation\Base_station_src/sev_seg.c **** //  [MSB] (X)(X)(Apos)(Colon)(Digit 4)(Digit 3)(Digit2)(Digit1)
  64:..\..\..\..\PSoC Basestation\Base_station_src/sev_seg.c **** void setDecimals(uint8_t decimals)
  65:..\..\..\..\PSoC Basestation\Base_station_src/sev_seg.c **** {
 127              		.loc 1 65 0
 128              		.cfi_startproc
 129              	.LVL9:
 130 0000 10B5     		push	{r4, lr}
 131              		.cfi_def_cfa_offset 8
 132              		.cfi_offset 4, -8
 133              		.cfi_offset 14, -4
 134 0002 041C     		mov	r4, r0
  66:..\..\..\..\PSoC Basestation\Base_station_src/sev_seg.c ****     serial_write(0x77);
 135              		.loc 1 66 0
 136 0004 7720     		mov	r0, #119
 137              	.LVL10:
 138 0006 FFF7FEFF 		bl	serial_write
 139              	.LVL11:
  67:..\..\..\..\PSoC Basestation\Base_station_src/sev_seg.c ****     serial_write(decimals);
 140              		.loc 1 67 0
 141 000a 201C     		mov	r0, r4
 142 000c FFF7FEFF 		bl	serial_write
 143              	.LVL12:
  68:..\..\..\..\PSoC Basestation\Base_station_src/sev_seg.c **** }
 144              		.loc 1 68 0
 145              		@ sp needed
 146 0010 10BD     		pop	{r4, pc}
 147              		.cfi_endproc
 148              	.LFE38:
 149              		.size	setDecimals, .-setDecimals
 150 0012 C046     		.section	.text.dig1_write,"ax",%progbits
 151              		.align	2
 152              		.global	dig1_write
 153              		.code	16
 154              		.thumb_func
 155              		.type	dig1_write, %function
 156              	dig1_write:
 157              	.LFB39:
  69:..\..\..\..\PSoC Basestation\Base_station_src/sev_seg.c **** 
  70:..\..\..\..\PSoC Basestation\Base_station_src/sev_seg.c **** void dig1_write(uint8_t val)
  71:..\..\..\..\PSoC Basestation\Base_station_src/sev_seg.c **** {
ARM GAS  C:\Users\a85495\AppData\Local\Temp\ccsG8Tb0.s 			page 5


 158              		.loc 1 71 0
 159              		.cfi_startproc
 160              	.LVL13:
 161 0000 10B5     		push	{r4, lr}
 162              		.cfi_def_cfa_offset 8
 163              		.cfi_offset 4, -8
 164              		.cfi_offset 14, -4
 165 0002 041C     		mov	r4, r0
  72:..\..\..\..\PSoC Basestation\Base_station_src/sev_seg.c ****     serial_write(0x79); // Send the Move Cursor Command
 166              		.loc 1 72 0
 167 0004 7920     		mov	r0, #121
 168              	.LVL14:
 169 0006 FFF7FEFF 		bl	serial_write
 170              	.LVL15:
  73:..\..\..\..\PSoC Basestation\Base_station_src/sev_seg.c ****     serial_write(0x7B); // Send the data byte, with value 1
 171              		.loc 1 73 0
 172 000a 7B20     		mov	r0, #123
 173 000c FFF7FEFF 		bl	serial_write
 174              	.LVL16:
  74:..\..\..\..\PSoC Basestation\Base_station_src/sev_seg.c ****     serial_write(val);  // Write a 7, should be displayed on 2nd digit
 175              		.loc 1 74 0
 176 0010 201C     		mov	r0, r4
 177 0012 FFF7FEFF 		bl	serial_write
 178              	.LVL17:
  75:..\..\..\..\PSoC Basestation\Base_station_src/sev_seg.c **** }
 179              		.loc 1 75 0
 180              		@ sp needed
 181 0016 10BD     		pop	{r4, pc}
 182              		.cfi_endproc
 183              	.LFE39:
 184              		.size	dig1_write, .-dig1_write
 185              		.section	.text.dig2_write,"ax",%progbits
 186              		.align	2
 187              		.global	dig2_write
 188              		.code	16
 189              		.thumb_func
 190              		.type	dig2_write, %function
 191              	dig2_write:
 192              	.LFB40:
  76:..\..\..\..\PSoC Basestation\Base_station_src/sev_seg.c **** 
  77:..\..\..\..\PSoC Basestation\Base_station_src/sev_seg.c **** void dig2_write(uint8_t val)
  78:..\..\..\..\PSoC Basestation\Base_station_src/sev_seg.c **** {
 193              		.loc 1 78 0
 194              		.cfi_startproc
 195              	.LVL18:
 196 0000 10B5     		push	{r4, lr}
 197              		.cfi_def_cfa_offset 8
 198              		.cfi_offset 4, -8
 199              		.cfi_offset 14, -4
 200 0002 041C     		mov	r4, r0
  79:..\..\..\..\PSoC Basestation\Base_station_src/sev_seg.c ****     serial_write(0x79); // Send the Move Cursor Command
 201              		.loc 1 79 0
 202 0004 7920     		mov	r0, #121
 203              	.LVL19:
 204 0006 FFF7FEFF 		bl	serial_write
 205              	.LVL20:
  80:..\..\..\..\PSoC Basestation\Base_station_src/sev_seg.c ****     serial_write(0x7C); // Send the data byte, with value 1
ARM GAS  C:\Users\a85495\AppData\Local\Temp\ccsG8Tb0.s 			page 6


 206              		.loc 1 80 0
 207 000a 7C20     		mov	r0, #124
 208 000c FFF7FEFF 		bl	serial_write
 209              	.LVL21:
  81:..\..\..\..\PSoC Basestation\Base_station_src/sev_seg.c ****     serial_write(val);  // Write a 7, should be displayed on 2nd digit
 210              		.loc 1 81 0
 211 0010 201C     		mov	r0, r4
 212 0012 FFF7FEFF 		bl	serial_write
 213              	.LVL22:
  82:..\..\..\..\PSoC Basestation\Base_station_src/sev_seg.c **** }
 214              		.loc 1 82 0
 215              		@ sp needed
 216 0016 10BD     		pop	{r4, pc}
 217              		.cfi_endproc
 218              	.LFE40:
 219              		.size	dig2_write, .-dig2_write
 220              		.section	.text.dig3_write,"ax",%progbits
 221              		.align	2
 222              		.global	dig3_write
 223              		.code	16
 224              		.thumb_func
 225              		.type	dig3_write, %function
 226              	dig3_write:
 227              	.LFB41:
  83:..\..\..\..\PSoC Basestation\Base_station_src/sev_seg.c **** 
  84:..\..\..\..\PSoC Basestation\Base_station_src/sev_seg.c **** void dig3_write(uint8_t val)
  85:..\..\..\..\PSoC Basestation\Base_station_src/sev_seg.c **** {
 228              		.loc 1 85 0
 229              		.cfi_startproc
 230              	.LVL23:
 231 0000 10B5     		push	{r4, lr}
 232              		.cfi_def_cfa_offset 8
 233              		.cfi_offset 4, -8
 234              		.cfi_offset 14, -4
 235 0002 041C     		mov	r4, r0
  86:..\..\..\..\PSoC Basestation\Base_station_src/sev_seg.c ****     serial_write(0x79); // Send the Move Cursor Command
 236              		.loc 1 86 0
 237 0004 7920     		mov	r0, #121
 238              	.LVL24:
 239 0006 FFF7FEFF 		bl	serial_write
 240              	.LVL25:
  87:..\..\..\..\PSoC Basestation\Base_station_src/sev_seg.c ****     serial_write(0x7D); // Send the data byte, with value 1
 241              		.loc 1 87 0
 242 000a 7D20     		mov	r0, #125
 243 000c FFF7FEFF 		bl	serial_write
 244              	.LVL26:
  88:..\..\..\..\PSoC Basestation\Base_station_src/sev_seg.c ****     serial_write(val);  // Write a 7, should be displayed on 2nd digit
 245              		.loc 1 88 0
 246 0010 201C     		mov	r0, r4
 247 0012 FFF7FEFF 		bl	serial_write
 248              	.LVL27:
  89:..\..\..\..\PSoC Basestation\Base_station_src/sev_seg.c **** }
 249              		.loc 1 89 0
 250              		@ sp needed
 251 0016 10BD     		pop	{r4, pc}
 252              		.cfi_endproc
 253              	.LFE41:
ARM GAS  C:\Users\a85495\AppData\Local\Temp\ccsG8Tb0.s 			page 7


 254              		.size	dig3_write, .-dig3_write
 255              		.section	.text.dig4_write,"ax",%progbits
 256              		.align	2
 257              		.global	dig4_write
 258              		.code	16
 259              		.thumb_func
 260              		.type	dig4_write, %function
 261              	dig4_write:
 262              	.LFB42:
  90:..\..\..\..\PSoC Basestation\Base_station_src/sev_seg.c **** 
  91:..\..\..\..\PSoC Basestation\Base_station_src/sev_seg.c **** void dig4_write(uint8_t val)
  92:..\..\..\..\PSoC Basestation\Base_station_src/sev_seg.c **** {
 263              		.loc 1 92 0
 264              		.cfi_startproc
 265              	.LVL28:
 266 0000 10B5     		push	{r4, lr}
 267              		.cfi_def_cfa_offset 8
 268              		.cfi_offset 4, -8
 269              		.cfi_offset 14, -4
 270 0002 041C     		mov	r4, r0
  93:..\..\..\..\PSoC Basestation\Base_station_src/sev_seg.c ****     serial_write(0x79); // Send the Move Cursor Command
 271              		.loc 1 93 0
 272 0004 7920     		mov	r0, #121
 273              	.LVL29:
 274 0006 FFF7FEFF 		bl	serial_write
 275              	.LVL30:
  94:..\..\..\..\PSoC Basestation\Base_station_src/sev_seg.c ****     serial_write(0x7E); // Send the data byte, with value 1
 276              		.loc 1 94 0
 277 000a 7E20     		mov	r0, #126
 278 000c FFF7FEFF 		bl	serial_write
 279              	.LVL31:
  95:..\..\..\..\PSoC Basestation\Base_station_src/sev_seg.c ****     serial_write(val);  // Write a 7, should be displayed on 2nd digit
 280              		.loc 1 95 0
 281 0010 201C     		mov	r0, r4
 282 0012 FFF7FEFF 		bl	serial_write
 283              	.LVL32:
  96:..\..\..\..\PSoC Basestation\Base_station_src/sev_seg.c **** }
 284              		.loc 1 96 0
 285              		@ sp needed
 286 0016 10BD     		pop	{r4, pc}
 287              		.cfi_endproc
 288              	.LFE42:
 289              		.size	dig4_write, .-dig4_write
 290              		.section	.text.display_val,"ax",%progbits
 291              		.align	2
 292              		.global	display_val
 293              		.code	16
 294              		.thumb_func
 295              		.type	display_val, %function
 296              	display_val:
 297              	.LFB43:
  97:..\..\..\..\PSoC Basestation\Base_station_src/sev_seg.c **** 
  98:..\..\..\..\PSoC Basestation\Base_station_src/sev_seg.c **** void display_val(uint16_t val)
  99:..\..\..\..\PSoC Basestation\Base_station_src/sev_seg.c **** {
 298              		.loc 1 99 0
 299              		.cfi_startproc
 300              	.LVL33:
ARM GAS  C:\Users\a85495\AppData\Local\Temp\ccsG8Tb0.s 			page 8


 301 0000 00B5     		push	{lr}
 302              		.cfi_def_cfa_offset 4
 303              		.cfi_offset 14, -4
 304 0002 85B0     		sub	sp, sp, #20
 305              		.cfi_def_cfa_offset 24
 306 0004 021C     		mov	r2, r0
 100:..\..\..\..\PSoC Basestation\Base_station_src/sev_seg.c ****     char tempString[10];
 101:..\..\..\..\PSoC Basestation\Base_station_src/sev_seg.c **** 
 102:..\..\..\..\PSoC Basestation\Base_station_src/sev_seg.c ****     // Sprintf will create a string for us to send to the s7s.
 103:..\..\..\..\PSoC Basestation\Base_station_src/sev_seg.c ****     //  The %4d option creates a 4-digit integer.
 104:..\..\..\..\PSoC Basestation\Base_station_src/sev_seg.c ****     sprintf(tempString, "%4d", val);
 307              		.loc 1 104 0
 308 0006 01A8     		add	r0, sp, #4
 309              	.LVL34:
 310 0008 0449     		ldr	r1, .L11
 311 000a FFF7FEFF 		bl	sprintf
 312              	.LVL35:
 105:..\..\..\..\PSoC Basestation\Base_station_src/sev_seg.c **** 
 106:..\..\..\..\PSoC Basestation\Base_station_src/sev_seg.c ****     // This will output the tempString to the S7S
 107:..\..\..\..\PSoC Basestation\Base_station_src/sev_seg.c ****     clear_display();
 313              		.loc 1 107 0
 314 000e FFF7FEFF 		bl	clear_display
 315              	.LVL36:
 108:..\..\..\..\PSoC Basestation\Base_station_src/sev_seg.c ****     serial_write_string(tempString);
 316              		.loc 1 108 0
 317 0012 01A8     		add	r0, sp, #4
 318 0014 FFF7FEFF 		bl	serial_write_string
 319              	.LVL37:
 109:..\..\..\..\PSoC Basestation\Base_station_src/sev_seg.c **** }
 320              		.loc 1 109 0
 321 0018 05B0     		add	sp, sp, #20
 322              		@ sp needed
 323 001a 00BD     		pop	{pc}
 324              	.L12:
 325              		.align	2
 326              	.L11:
 327 001c 00000000 		.word	.LC0
 328              		.cfi_endproc
 329              	.LFE43:
 330              		.size	display_val, .-display_val
 331              		.section	.text.display_perc,"ax",%progbits
 332              		.align	2
 333              		.global	display_perc
 334              		.code	16
 335              		.thumb_func
 336              		.type	display_perc, %function
 337              	display_perc:
 338              	.LFB44:
 110:..\..\..\..\PSoC Basestation\Base_station_src/sev_seg.c **** 
 111:..\..\..\..\PSoC Basestation\Base_station_src/sev_seg.c **** void display_perc(uint32_t val)
 112:..\..\..\..\PSoC Basestation\Base_station_src/sev_seg.c **** {
 339              		.loc 1 112 0
 340              		.cfi_startproc
 341              	.LVL38:
 342 0000 38B5     		push	{r3, r4, r5, lr}
 343              		.cfi_def_cfa_offset 16
 344              		.cfi_offset 3, -16
ARM GAS  C:\Users\a85495\AppData\Local\Temp\ccsG8Tb0.s 			page 9


 345              		.cfi_offset 4, -12
 346              		.cfi_offset 5, -8
 347              		.cfi_offset 14, -4
 348 0002 051C     		mov	r5, r0
 349              	.LVL39:
 113:..\..\..\..\PSoC Basestation\Base_station_src/sev_seg.c ****     /*
 114:..\..\..\..\PSoC Basestation\Base_station_src/sev_seg.c ****     dig1_write();
 115:..\..\..\..\PSoC Basestation\Base_station_src/sev_seg.c ****     dig2_write();
 116:..\..\..\..\PSoC Basestation\Base_station_src/sev_seg.c ****     dig3_write();
 117:..\..\..\..\PSoC Basestation\Base_station_src/sev_seg.c ****     dig4_write();
 118:..\..\..\..\PSoC Basestation\Base_station_src/sev_seg.c ****     */
 119:..\..\..\..\PSoC Basestation\Base_station_src/sev_seg.c ****     int i = 0;
 120:..\..\..\..\PSoC Basestation\Base_station_src/sev_seg.c ****     for(i = 0; i <= 5; i++){
 350              		.loc 1 120 0
 351 0004 0024     		mov	r4, #0
 352 0006 0CE0     		b	.L14
 353              	.LVL40:
 354              	.L15:
 121:..\..\..\..\PSoC Basestation\Base_station_src/sev_seg.c ****         clear_display();
 355              		.loc 1 121 0 discriminator 3
 356 0008 FFF7FEFF 		bl	clear_display
 357              	.LVL41:
 122:..\..\..\..\PSoC Basestation\Base_station_src/sev_seg.c ****         serial_write_string("PErC");
 358              		.loc 1 122 0 discriminator 3
 359 000c 0648     		ldr	r0, .L16
 360 000e FFF7FEFF 		bl	serial_write_string
 361              	.LVL42:
 123:..\..\..\..\PSoC Basestation\Base_station_src/sev_seg.c ****         CyDelay(1000);
 362              		.loc 1 123 0 discriminator 3
 363 0012 FA20     		mov	r0, #250
 364 0014 8000     		lsl	r0, r0, #2
 365 0016 FFF7FEFF 		bl	CyDelay
 366              	.LVL43:
 124:..\..\..\..\PSoC Basestation\Base_station_src/sev_seg.c ****         display_val(val);
 367              		.loc 1 124 0 discriminator 3
 368 001a A8B2     		uxth	r0, r5
 369 001c FFF7FEFF 		bl	display_val
 370              	.LVL44:
 120:..\..\..\..\PSoC Basestation\Base_station_src/sev_seg.c ****         clear_display();
 371              		.loc 1 120 0 discriminator 3
 372 0020 0134     		add	r4, r4, #1
 373              	.LVL45:
 374              	.L14:
 120:..\..\..\..\PSoC Basestation\Base_station_src/sev_seg.c ****         clear_display();
 375              		.loc 1 120 0 is_stmt 0 discriminator 1
 376 0022 052C     		cmp	r4, #5
 377 0024 F0DD     		ble	.L15
 125:..\..\..\..\PSoC Basestation\Base_station_src/sev_seg.c ****         
 126:..\..\..\..\PSoC Basestation\Base_station_src/sev_seg.c ****     }
 127:..\..\..\..\PSoC Basestation\Base_station_src/sev_seg.c **** }
 378              		.loc 1 127 0 is_stmt 1
 379              		@ sp needed
 380              	.LVL46:
 381              	.LVL47:
 382 0026 38BD     		pop	{r3, r4, r5, pc}
 383              	.L17:
 384              		.align	2
ARM GAS  C:\Users\a85495\AppData\Local\Temp\ccsG8Tb0.s 			page 10


 385              	.L16:
 386 0028 04000000 		.word	.LC2
 387              		.cfi_endproc
 388              	.LFE44:
 389              		.size	display_perc, .-display_perc
 390              		.section	.text.display_curr,"ax",%progbits
 391              		.align	2
 392              		.global	display_curr
 393              		.code	16
 394              		.thumb_func
 395              		.type	display_curr, %function
 396              	display_curr:
 397              	.LFB45:
 128:..\..\..\..\PSoC Basestation\Base_station_src/sev_seg.c **** 
 129:..\..\..\..\PSoC Basestation\Base_station_src/sev_seg.c **** void display_curr(uint32_t val)
 130:..\..\..\..\PSoC Basestation\Base_station_src/sev_seg.c **** {
 398              		.loc 1 130 0
 399              		.cfi_startproc
 400              	.LVL48:
 401 0000 08B5     		push	{r3, lr}
 402              		.cfi_def_cfa_offset 8
 403              		.cfi_offset 3, -8
 404              		.cfi_offset 14, -4
 131:..\..\..\..\PSoC Basestation\Base_station_src/sev_seg.c ****     clear_display();
 405              		.loc 1 131 0
 406 0002 FFF7FEFF 		bl	clear_display
 407              	.LVL49:
 132:..\..\..\..\PSoC Basestation\Base_station_src/sev_seg.c ****     serial_write_string("curr");
 408              		.loc 1 132 0
 409 0006 0248     		ldr	r0, .L19
 410 0008 FFF7FEFF 		bl	serial_write_string
 411              	.LVL50:
 133:..\..\..\..\PSoC Basestation\Base_station_src/sev_seg.c **** }
 412              		.loc 1 133 0
 413              		@ sp needed
 414 000c 08BD     		pop	{r3, pc}
 415              	.L20:
 416 000e C046     		.align	2
 417              	.L19:
 418 0010 0C000000 		.word	.LC4
 419              		.cfi_endproc
 420              	.LFE45:
 421              		.size	display_curr, .-display_curr
 422              		.section	.rodata.str1.4,"aMS",%progbits,1
 423              		.align	2
 424              	.LC0:
 425 0000 25346400 		.ascii	"%4d\000"
 426              	.LC2:
 427 0004 50457243 		.ascii	"PErC\000"
 427      00
 428 0009 000000   		.space	3
 429              	.LC4:
 430 000c 63757272 		.ascii	"curr\000"
 430      00
 431 0011 000000   		.text
 432              	.Letext0:
 433              		.file 2 "c:\\program files (x86)\\cypress\\psoc creator\\4.0\\psoc creator\\import\\gnu\\arm\\4.9.
ARM GAS  C:\Users\a85495\AppData\Local\Temp\ccsG8Tb0.s 			page 11


 434              		.file 3 "c:\\program files (x86)\\cypress\\psoc creator\\4.0\\psoc creator\\import\\gnu\\arm\\4.9.
 435              		.file 4 "Generated_Source\\PSoC4/cytypes.h"
 436              		.file 5 "Generated_Source\\PSoC4/serial_SPI_UART.h"
 437              		.file 6 "c:\\program files (x86)\\cypress\\psoc creator\\4.0\\psoc creator\\import\\gnu\\arm\\4.9.
 438              		.file 7 "Generated_Source\\PSoC4/CyLib.h"