ARM GAS  C:\Users\A85590\AppData\Local\Temp\ccmAEr4F.s 			page 1


   1              		.syntax unified
   2              		.cpu cortex-m3
   3              		.fpu softvfp
   4              		.eabi_attribute 20, 1
   5              		.eabi_attribute 21, 1
   6              		.eabi_attribute 23, 3
   7              		.eabi_attribute 24, 1
   8              		.eabi_attribute 25, 1
   9              		.eabi_attribute 26, 1
  10              		.eabi_attribute 30, 1
  11              		.eabi_attribute 34, 1
  12              		.eabi_attribute 18, 4
  13              		.thumb
  14              		.syntax unified
  15              		.file	"main.c"
  16              		.text
  17              	.Ltext0:
  18              		.cfi_sections	.debug_frame
  19              		.section	.text.quad_sensor_init,"ax",%progbits
  20              		.align	2
  21              		.global	quad_sensor_init
  22              		.thumb
  23              		.thumb_func
  24              		.type	quad_sensor_init, %function
  25              	quad_sensor_init:
  26              	.LFB66:
  27              		.file 1 "main.c"
   1:main.c        **** /* ========================================
   2:main.c        ****  *
   3:main.c        ****  * Copyright ARROW ELECTRONICS, 2017
   4:main.c        ****  * All Rights Reserved
   5:main.c        ****  * UNPUBLISHED, LICENSED SOFTWARE.
   6:main.c        ****  *
   7:main.c        ****  * CONFIDENTIAL AND PROPRIETARY INFORMATION
   8:main.c        ****  * WHICH IS THE PROPERTY OF your company.
   9:main.c        ****  *
  10:main.c        ****  * ========================================
  11:main.c        **** */
  12:main.c        **** #include "project.h"     //includes the project.h which allows us to use the generated API's
  13:main.c        **** #include "accel_mag.h"   //includes the accel_mag.h file which allows us to simply connect to the N
  14:main.c        **** #include "gyroscope.h"   //includes the gyroscope.h file which allows us to simply connect to the N
  15:main.c        **** #include "barometer.h"   //includes the barometer.h file which allows us to simply connect to the G
  16:main.c        **** #include "debSerial.h"//includes the debuf_Serial.h file which allows us to use similar serial prin
  17:main.c        **** 
  18:main.c        **** //Includes the standard libraries to use certain functions inside it
  19:main.c        **** #include <stdlib.h>
  20:main.c        **** #include <stdio.h>
  21:main.c        **** #include <stdint.h>
  22:main.c        **** #include <math.h>
  23:main.c        **** 
  24:main.c        **** //=============================================================//
  25:main.c        **** //======Initialization and Update Functions Prototype==========//
  26:main.c        **** //=============================================================//
  27:main.c        **** 
  28:main.c        **** void quad_init(void);        //initializes all quadcopter 
  29:main.c        **** void quad_sensor_init(void); //initializes all of the quadcopter sensors //called in function quad_
  30:main.c        **** void sensors_update(void);   //Updates all of the sensor data (values can be extracted when needed)
ARM GAS  C:\Users\A85590\AppData\Local\Temp\ccmAEr4F.s 			page 2


  31:main.c        **** 
  32:main.c        **** //=============================================================//
  33:main.c        **** //======================Main Function==========================//
  34:main.c        **** //=============================================================//
  35:main.c        **** 
  36:main.c        **** int main(void)
  37:main.c        **** {
  38:main.c        ****     quad_init();
  39:main.c        ****     serial_println("Quadcopter Sensors Initialized");
  40:main.c        ****     
  41:main.c        ****     for(;;)
  42:main.c        ****     {
  43:main.c        ****         sensors_update();
  44:main.c        ****         CyDelay(1000);
  45:main.c        ****     }
  46:main.c        ****     return 0;
  47:main.c        **** }
  48:main.c        **** 
  49:main.c        **** void quad_init(void){
  50:main.c        ****     I2C_Start();       //initializes the I2C block
  51:main.c        ****     serial_begin();    //initializes the debug Serial block
  52:main.c        ****     gpsSerial_Start(); //initializes the gps Serial block
  53:main.c        ****     xbeeSerial_Start();//initializes the xbee Serial block
  54:main.c        **** 
  55:main.c        ****     CyGlobalIntEnable; /* Enable global interrupts. */
  56:main.c        ****     quad_sensor_init();//initializes all of the quadcopter sensors
  57:main.c        **** }
  58:main.c        **** 
  59:main.c        **** void quad_sensor_init(void){
  28              		.loc 1 59 0
  29              		.cfi_startproc
  30              		@ args = 0, pretend = 0, frame = 0
  31              		@ frame_needed = 0, uses_anonymous_args = 0
  32 0000 08B5     		push	{r3, lr}
  33              		.cfi_def_cfa_offset 8
  34              		.cfi_offset 3, -8
  35              		.cfi_offset 14, -4
  60:main.c        ****     accel_mag_initialize(ACCEL_RANGE_2G); //initializes the accelerometer with a range (sensitivity
  36              		.loc 1 60 0
  37 0002 0020     		movs	r0, #0
  38 0004 FFF7FEFF 		bl	accel_mag_initialize
  39              	.LVL0:
  61:main.c        ****     gyro_initialize(GYRO_RANGE_250DPS);   //initializes the gyroscope with a range (sensitivity) of
  40              		.loc 1 61 0
  41 0008 FA20     		movs	r0, #250
  42 000a FFF7FEFF 		bl	gyro_initialize
  43              	.LVL1:
  62:main.c        ****     baro_begin();                         //initializes the barometer
  44              		.loc 1 62 0
  45 000e FFF7FEFF 		bl	baro_begin
  46              	.LVL2:
  47 0012 08BD     		pop	{r3, pc}
  48              		.cfi_endproc
  49              	.LFE66:
  50              		.size	quad_sensor_init, .-quad_sensor_init
  51              		.section	.text.quad_init,"ax",%progbits
  52              		.align	2
ARM GAS  C:\Users\A85590\AppData\Local\Temp\ccmAEr4F.s 			page 3


  53              		.global	quad_init
  54              		.thumb
  55              		.thumb_func
  56              		.type	quad_init, %function
  57              	quad_init:
  58              	.LFB65:
  49:main.c        ****     I2C_Start();       //initializes the I2C block
  59              		.loc 1 49 0
  60              		.cfi_startproc
  61              		@ args = 0, pretend = 0, frame = 0
  62              		@ frame_needed = 0, uses_anonymous_args = 0
  63 0000 08B5     		push	{r3, lr}
  64              		.cfi_def_cfa_offset 8
  65              		.cfi_offset 3, -8
  66              		.cfi_offset 14, -4
  50:main.c        ****     serial_begin();    //initializes the debug Serial block
  67              		.loc 1 50 0
  68 0002 FFF7FEFF 		bl	I2C_Start
  69              	.LVL3:
  51:main.c        ****     gpsSerial_Start(); //initializes the gps Serial block
  70              		.loc 1 51 0
  71 0006 FFF7FEFF 		bl	serial_begin
  72              	.LVL4:
  52:main.c        ****     xbeeSerial_Start();//initializes the xbee Serial block
  73              		.loc 1 52 0
  74 000a FFF7FEFF 		bl	gpsSerial_Start
  75              	.LVL5:
  53:main.c        **** 
  76              		.loc 1 53 0
  77 000e FFF7FEFF 		bl	xbeeSerial_Start
  78              	.LVL6:
  55:main.c        ****     quad_sensor_init();//initializes all of the quadcopter sensors
  79              		.loc 1 55 0
  80              		.syntax unified
  81              	@ 55 "main.c" 1
  82 0012 62B6     		CPSIE   i
  83              	@ 0 "" 2
  56:main.c        **** }
  84              		.loc 1 56 0
  85              		.thumb
  86              		.syntax unified
  87 0014 FFF7FEFF 		bl	quad_sensor_init
  88              	.LVL7:
  89 0018 08BD     		pop	{r3, pc}
  90              		.cfi_endproc
  91              	.LFE65:
  92              		.size	quad_init, .-quad_init
  93 001a 00BF     		.section	.text.sensors_update,"ax",%progbits
  94              		.align	2
  95              		.global	sensors_update
  96              		.thumb
  97              		.thumb_func
  98              		.type	sensors_update, %function
  99              	sensors_update:
 100              	.LFB67:
  63:main.c        **** }
  64:main.c        **** 
ARM GAS  C:\Users\A85590\AppData\Local\Temp\ccmAEr4F.s 			page 4


  65:main.c        **** void sensors_update(void){
 101              		.loc 1 65 0
 102              		.cfi_startproc
 103              		@ args = 0, pretend = 0, frame = 0
 104              		@ frame_needed = 0, uses_anonymous_args = 0
 105 0000 08B5     		push	{r3, lr}
 106              		.cfi_def_cfa_offset 8
 107              		.cfi_offset 3, -8
 108              		.cfi_offset 14, -4
  66:main.c        ****     accel_mag_update(); //Update the accelerometer and magnotometer data
 109              		.loc 1 66 0
 110 0002 FFF7FEFF 		bl	accel_mag_update
 111              	.LVL8:
  67:main.c        ****     gyro_update();      //Update the gyroscope data
 112              		.loc 1 67 0
 113 0006 FFF7FEFF 		bl	gyro_update
 114              	.LVL9:
  68:main.c        ****     baro_update();      //Update the barometer data
 115              		.loc 1 68 0
 116 000a FFF7FEFF 		bl	baro_update
 117              	.LVL10:
 118 000e 08BD     		pop	{r3, pc}
 119              		.cfi_endproc
 120              	.LFE67:
 121              		.size	sensors_update, .-sensors_update
 122              		.section	.text.main,"ax",%progbits
 123              		.align	2
 124              		.global	main
 125              		.thumb
 126              		.thumb_func
 127              		.type	main, %function
 128              	main:
 129              	.LFB64:
  37:main.c        ****     quad_init();
 130              		.loc 1 37 0
 131              		.cfi_startproc
 132              		@ Volatile: function does not return.
 133              		@ args = 0, pretend = 0, frame = 0
 134              		@ frame_needed = 0, uses_anonymous_args = 0
 135 0000 08B5     		push	{r3, lr}
 136              		.cfi_def_cfa_offset 8
 137              		.cfi_offset 3, -8
 138              		.cfi_offset 14, -4
  38:main.c        ****     serial_println("Quadcopter Sensors Initialized");
 139              		.loc 1 38 0
 140 0002 FFF7FEFF 		bl	quad_init
 141              	.LVL11:
  39:main.c        ****     
 142              		.loc 1 39 0
 143 0006 0548     		ldr	r0, .L10
 144 0008 FFF7FEFF 		bl	serial_println
 145              	.LVL12:
 146              	.L8:
  43:main.c        ****         CyDelay(1000);
 147              		.loc 1 43 0 discriminator 1
 148 000c FFF7FEFF 		bl	sensors_update
 149              	.LVL13:
ARM GAS  C:\Users\A85590\AppData\Local\Temp\ccmAEr4F.s 			page 5


  44:main.c        ****     }
 150              		.loc 1 44 0 discriminator 1
 151 0010 4FF47A70 		mov	r0, #1000
 152 0014 FFF7FEFF 		bl	CyDelay
 153              	.LVL14:
 154 0018 F8E7     		b	.L8
 155              	.L11:
 156 001a 00BF     		.align	2
 157              	.L10:
 158 001c 00000000 		.word	.LC0
 159              		.cfi_endproc
 160              	.LFE64:
 161              		.size	main, .-main
 162              		.section	.rodata.str1.4,"aMS",%progbits,1
 163              		.align	2
 164              	.LC0:
 165 0000 51756164 		.ascii	"Quadcopter Sensors Initialized\000"
 165      636F7074 
 165      65722053 
 165      656E736F 
 165      72732049 
 166              		.text
 167              	.Letext0:
 168              		.file 2 "c:\\program files (x86)\\cypress\\psoc creator\\4.1\\psoc creator\\import\\gnu\\arm\\5.4.
 169              		.file 3 "c:\\program files (x86)\\cypress\\psoc creator\\4.1\\psoc creator\\import\\gnu\\arm\\5.4.
 170              		.file 4 "..\\../accel_mag.h"
 171              		.file 5 "..\\../gyroscope.h"
 172              		.file 6 "..\\../barometer.h"
 173              		.file 7 "Generated_Source\\PSoC5/I2C.h"
 174              		.file 8 "..\\../debSerial.h"
 175              		.file 9 "Generated_Source\\PSoC5/gpsSerial.h"
 176              		.file 10 "Generated_Source\\PSoC5/xbeeSerial.h"
 177              		.file 11 "Generated_Source\\PSoC5/CyLib.h"
 178              		.file 12 "Generated_Source\\PSoC5/core_cm3.h"