ARM GAS  C:\Users\a85495\AppData\Local\Temp\ccIbMymo.s 			page 1


   1              		.cpu cortex-m0
   2              		.fpu softvfp
   3              		.eabi_attribute 20, 1
   4              		.eabi_attribute 21, 1
   5              		.eabi_attribute 23, 3
   6              		.eabi_attribute 24, 1
   7              		.eabi_attribute 25, 1
   8              		.eabi_attribute 26, 1
   9              		.eabi_attribute 30, 1
  10              		.eabi_attribute 34, 0
  11              		.eabi_attribute 18, 4
  12              		.code	16
  13              		.file	"StripLights.c"
  14              		.text
  15              	.Ltext0:
  16              		.cfi_sections	.debug_frame
  17              		.section	.text.StripLights_FISR,"ax",%progbits
  18              		.align	2
  19              		.global	StripLights_FISR
  20              		.code	16
  21              		.thumb_func
  22              		.type	StripLights_FISR, %function
  23              	StripLights_FISR:
  24              	.LFB39:
  25              		.file 1 "Generated_Source\\PSoC4\\StripLights.c"
   1:Generated_Source\PSoC4/StripLights.c **** /* =========================================================
   2:Generated_Source\PSoC4/StripLights.c ****  *
   3:Generated_Source\PSoC4/StripLights.c ****  * Strip Light Controller
   4:Generated_Source\PSoC4/StripLights.c ****  * By Mark Hastings
   5:Generated_Source\PSoC4/StripLights.c ****  *
   6:Generated_Source\PSoC4/StripLights.c ****  * 05/27/2013  v1.0  Mark Hastings   Initial working version
   7:Generated_Source\PSoC4/StripLights.c ****  * 09/04/2013  v1.3  Mark Hastings   Add more features and color lookup.
   8:Generated_Source\PSoC4/StripLights.c ****  * 12/02/2013  v1.6  Mark Hastings   Added a couple more functions.
   9:Generated_Source\PSoC4/StripLights.c ****  *
  10:Generated_Source\PSoC4/StripLights.c ****  * This file contains the functions required to control each
  11:Generated_Source\PSoC4/StripLights.c ****  * lighting control channel.
  12:Generated_Source\PSoC4/StripLights.c ****  *
  13:Generated_Source\PSoC4/StripLights.c ****  * =========================================================
  14:Generated_Source\PSoC4/StripLights.c **** */
  15:Generated_Source\PSoC4/StripLights.c **** 
  16:Generated_Source\PSoC4/StripLights.c **** #include <project.h>
  17:Generated_Source\PSoC4/StripLights.c **** #include "cytypes.h"
  18:Generated_Source\PSoC4/StripLights.c **** #include "stdlib.h"
  19:Generated_Source\PSoC4/StripLights.c **** #include "cyfitter.h"
  20:Generated_Source\PSoC4/StripLights.c **** #include "StripLights.h"
  21:Generated_Source\PSoC4/StripLights.c **** #include "StripLights_fonts.h"
  22:Generated_Source\PSoC4/StripLights.c **** 
  23:Generated_Source\PSoC4/StripLights.c **** uint8  StripLights_initvar = 0;
  24:Generated_Source\PSoC4/StripLights.c **** 
  25:Generated_Source\PSoC4/StripLights.c **** #if(StripLights_MEMORY_TYPE == StripLights_MEMORY_RGB)
  26:Generated_Source\PSoC4/StripLights.c **** uint32  StripLights_ledArray[StripLights_ARRAY_ROWS][StripLights_ARRAY_COLS];
  27:Generated_Source\PSoC4/StripLights.c **** #else
  28:Generated_Source\PSoC4/StripLights.c **** uint8   StripLights_ledArray[StripLights_ARRAY_ROWS][StripLights_ARRAY_COLS];
  29:Generated_Source\PSoC4/StripLights.c **** #endif
  30:Generated_Source\PSoC4/StripLights.c **** 
  31:Generated_Source\PSoC4/StripLights.c **** uint32  StripLights_ledIndex = 0;  
  32:Generated_Source\PSoC4/StripLights.c **** uint32  StripLights_row = 0;
ARM GAS  C:\Users\a85495\AppData\Local\Temp\ccIbMymo.s 			page 2


  33:Generated_Source\PSoC4/StripLights.c **** uint32  StripLights_refreshComplete;
  34:Generated_Source\PSoC4/StripLights.c **** 
  35:Generated_Source\PSoC4/StripLights.c **** uint32  StripLights_DimMask;
  36:Generated_Source\PSoC4/StripLights.c **** uint32  StripLights_DimShift;
  37:Generated_Source\PSoC4/StripLights.c **** 
  38:Generated_Source\PSoC4/StripLights.c **** 
  39:Generated_Source\PSoC4/StripLights.c **** #if(StripLights_CHIP == StripLights_CHIP_WS2812)
  40:Generated_Source\PSoC4/StripLights.c **** const uint32 StripLights_CLUT[ ] = {
  41:Generated_Source\PSoC4/StripLights.c **** //xxBBRRGG (WS2812)
  42:Generated_Source\PSoC4/StripLights.c **** //     (24)   [ Index = 0 ]
  43:Generated_Source\PSoC4/StripLights.c **** 0x0000FFFF,  // 0 Yellow
  44:Generated_Source\PSoC4/StripLights.c **** 0x0000CCFF,
  45:Generated_Source\PSoC4/StripLights.c **** 0x000099FF,
  46:Generated_Source\PSoC4/StripLights.c **** 0x000033FF,
  47:Generated_Source\PSoC4/StripLights.c **** 0x000000FF,  // 5  Green
  48:Generated_Source\PSoC4/StripLights.c **** 0x006600B3,
  49:Generated_Source\PSoC4/StripLights.c **** 0x00990099, 
  50:Generated_Source\PSoC4/StripLights.c **** 0x00B30066, 
  51:Generated_Source\PSoC4/StripLights.c **** 0x00CC0033,  // 9 Blue
  52:Generated_Source\PSoC4/StripLights.c **** 0x00B31919, 
  53:Generated_Source\PSoC4/StripLights.c **** 0x00993300, 
  54:Generated_Source\PSoC4/StripLights.c **** 0x00994000, 
  55:Generated_Source\PSoC4/StripLights.c **** 0x00996600, 
  56:Generated_Source\PSoC4/StripLights.c **** 0x00999900, 
  57:Generated_Source\PSoC4/StripLights.c **** 0x0099CC00, 
  58:Generated_Source\PSoC4/StripLights.c **** 0x0066E600, 
  59:Generated_Source\PSoC4/StripLights.c **** 0x0000FF00, 
  60:Generated_Source\PSoC4/StripLights.c **** 0x0000FF33, 
  61:Generated_Source\PSoC4/StripLights.c **** 0x0000FF66, 
  62:Generated_Source\PSoC4/StripLights.c **** 0x0000FF80, 
  63:Generated_Source\PSoC4/StripLights.c **** 0x0000FF99,  // 20 Orange
  64:Generated_Source\PSoC4/StripLights.c **** 0x0000FFB2, 
  65:Generated_Source\PSoC4/StripLights.c **** 0x0000FFCC, 
  66:Generated_Source\PSoC4/StripLights.c **** 0x0000FFE5,
  67:Generated_Source\PSoC4/StripLights.c **** // #24
  68:Generated_Source\PSoC4/StripLights.c **** 
  69:Generated_Source\PSoC4/StripLights.c **** //xxBBRRGG  (64)  [ Index = 24 ]
  70:Generated_Source\PSoC4/StripLights.c **** 0x00000000, 0x00550000, 0x00AA0000, 0x00FF0000,  // 0, Black,  LtBlue, MBlue, Blue
  71:Generated_Source\PSoC4/StripLights.c **** 0x00000055, 0x00550055, 0x00AA0055, 0x00FF0055,  // 4, LtGreen
  72:Generated_Source\PSoC4/StripLights.c **** 0x000000AA, 0x005500AA, 0x00AA00AA, 0x00FF00AA,  // 8, MGreen
  73:Generated_Source\PSoC4/StripLights.c **** 0x000000FF, 0x005500FF, 0x00AA00FF, 0x00FF00FF,  // 12 Green
  74:Generated_Source\PSoC4/StripLights.c **** 
  75:Generated_Source\PSoC4/StripLights.c **** 0x00005500, 0x00555500, 0x00AA5500, 0x00FF5500,  // 16, LtRed
  76:Generated_Source\PSoC4/StripLights.c **** 0x00005555, 0x00555555, 0x00AA5555, 0x00FF5555,  // 20, LtYellow
  77:Generated_Source\PSoC4/StripLights.c **** 0x000055AA, 0x005555AA, 0x00AA55AA, 0x00FF55AA,  // 24, 
  78:Generated_Source\PSoC4/StripLights.c **** 0x000055FF, 0x005555FF, 0x00AA55FF, 0x00FF55FF,  // 28,
  79:Generated_Source\PSoC4/StripLights.c **** 
  80:Generated_Source\PSoC4/StripLights.c **** 0x0000AA00, 0x0055AA00, 0x00AAAA00, 0x00FFAA00,  // 32, MRed
  81:Generated_Source\PSoC4/StripLights.c **** 0x0000AA55, 0x0055AA55, 0x00AAAA55, 0x00FFAA55,  // 36, 
  82:Generated_Source\PSoC4/StripLights.c **** 0x0000AAAA, 0x0055AAAA, 0x00AAAAAA, 0x00FFAAAA,  // 55, 
  83:Generated_Source\PSoC4/StripLights.c **** 0x0000AAFF, 0x0055AAFF, 0x00AAAAFF, 0x00FFAAFF,  // 44, 
  84:Generated_Source\PSoC4/StripLights.c **** 
  85:Generated_Source\PSoC4/StripLights.c **** 0x0000FF00, 0x0055FF00, 0x00AAFF00, 0x00FFFF00,  // 48, Red, ??, ??, Magenta
  86:Generated_Source\PSoC4/StripLights.c **** 0x0000FF55, 0x0055FF55, 0x00AAFF55, 0x00FFFF55,  // 52,
  87:Generated_Source\PSoC4/StripLights.c **** 0x0000FFAA, 0x0055FFAA, 0x00AAFFAA, 0x00FFFFAA,  // 56,
  88:Generated_Source\PSoC4/StripLights.c **** 0x0000FFFF, 0x0055FFFF, 0x00AAFFFF, 0xFFFFFFFF,  // 60, Yellow,??, ??, White
  89:Generated_Source\PSoC4/StripLights.c **** 
ARM GAS  C:\Users\a85495\AppData\Local\Temp\ccIbMymo.s 			page 3


  90:Generated_Source\PSoC4/StripLights.c **** // Misc ( 16 )  [ Index = 88 ]
  91:Generated_Source\PSoC4/StripLights.c **** 0x000080FF,  // SPRING_GREEN
  92:Generated_Source\PSoC4/StripLights.c **** 0x008000FF,  // TURQUOSE
  93:Generated_Source\PSoC4/StripLights.c **** 0x00FF00FF,  // CYAN
  94:Generated_Source\PSoC4/StripLights.c **** 0x00FF0080,  // OCEAN
  95:Generated_Source\PSoC4/StripLights.c **** 0x00FF8000,  // VIOLET
  96:Generated_Source\PSoC4/StripLights.c **** 0x0080FF00,  // RASPBERRY
  97:Generated_Source\PSoC4/StripLights.c **** 0x000000FF,  // GREEN
  98:Generated_Source\PSoC4/StripLights.c **** 0x00202020,  // DIM WHITE
  99:Generated_Source\PSoC4/StripLights.c **** 0x00200000,  // DIM BLUE
 100:Generated_Source\PSoC4/StripLights.c **** 0x10000000,  // INVISIBLE
 101:Generated_Source\PSoC4/StripLights.c **** 0x00000000,  // Spare
 102:Generated_Source\PSoC4/StripLights.c **** 0x00000000,  // Spare
 103:Generated_Source\PSoC4/StripLights.c **** 0x00000000,  // Spare
 104:Generated_Source\PSoC4/StripLights.c **** 0x00000000,  // Spare
 105:Generated_Source\PSoC4/StripLights.c **** 0x00000000,  // Spare
 106:Generated_Source\PSoC4/StripLights.c **** 0x00000000,  // Spare
 107:Generated_Source\PSoC4/StripLights.c **** 
 108:Generated_Source\PSoC4/StripLights.c **** // Temperture Color Blue to Red (16) [ Index = 104 ]
 109:Generated_Source\PSoC4/StripLights.c **** 0x00FF0000, 0x00F01000, 0x00E02000, 0x00D03000,
 110:Generated_Source\PSoC4/StripLights.c **** 0x00C04000, 0x00B05000, 0x00A06000, 0x00907000,
 111:Generated_Source\PSoC4/StripLights.c **** 0x00808000, 0x00709000, 0x0060A000, 0x0050B000,
 112:Generated_Source\PSoC4/StripLights.c **** 0x0040C000, 0x0030D000, 0x0020E000, 0x0000FF00
 113:Generated_Source\PSoC4/StripLights.c **** };
 114:Generated_Source\PSoC4/StripLights.c **** #else  //xxBBGGRR (WS2811)
 115:Generated_Source\PSoC4/StripLights.c **** const uint32 StripLights_CLUT[ ] = {
 116:Generated_Source\PSoC4/StripLights.c **** //     (24)   [ Index = 0 ]
 117:Generated_Source\PSoC4/StripLights.c **** 0x0000FFFF,  // 0 Yellow
 118:Generated_Source\PSoC4/StripLights.c **** 0x0000FFCC,
 119:Generated_Source\PSoC4/StripLights.c **** 0x0000FF99,
 120:Generated_Source\PSoC4/StripLights.c **** 0x0000FF33,
 121:Generated_Source\PSoC4/StripLights.c **** 0x0000FF00,  // 5  Green
 122:Generated_Source\PSoC4/StripLights.c **** 0x0066B300,
 123:Generated_Source\PSoC4/StripLights.c **** 0x00999900, 
 124:Generated_Source\PSoC4/StripLights.c **** 0x00B36600, 
 125:Generated_Source\PSoC4/StripLights.c **** 0x00CC3300,  // 9 Blue
 126:Generated_Source\PSoC4/StripLights.c **** 0x00B31919, 
 127:Generated_Source\PSoC4/StripLights.c **** 0x00990033, 
 128:Generated_Source\PSoC4/StripLights.c **** 0x00990040, 
 129:Generated_Source\PSoC4/StripLights.c **** 0x00990066, 
 130:Generated_Source\PSoC4/StripLights.c **** 0x00990099, 
 131:Generated_Source\PSoC4/StripLights.c **** 0x009900CC, 
 132:Generated_Source\PSoC4/StripLights.c **** 0x006600E6, 
 133:Generated_Source\PSoC4/StripLights.c **** 0x000000FF, 
 134:Generated_Source\PSoC4/StripLights.c **** 0x000033FF, 
 135:Generated_Source\PSoC4/StripLights.c **** 0x000066FF, 
 136:Generated_Source\PSoC4/StripLights.c **** 0x000080FF, 
 137:Generated_Source\PSoC4/StripLights.c **** 0x000099FF,  // 20 Orange
 138:Generated_Source\PSoC4/StripLights.c **** 0x0000B2FF, 
 139:Generated_Source\PSoC4/StripLights.c **** 0x0000CCFF, 
 140:Generated_Source\PSoC4/StripLights.c **** 0x0000E5FF,
 141:Generated_Source\PSoC4/StripLights.c **** // #24
 142:Generated_Source\PSoC4/StripLights.c **** 
 143:Generated_Source\PSoC4/StripLights.c **** //xxBBRRGG  (64)  [ Index = 24 ]
 144:Generated_Source\PSoC4/StripLights.c **** 0x00000000, 0x00550000, 0x00AA0000, 0x00FF0000,  // 0, Black,  LtBlue, MBlue, Blue
 145:Generated_Source\PSoC4/StripLights.c **** 0x00005500, 0x00555500, 0x00AA5500, 0x00FF5500,  // 4, LtGreen
 146:Generated_Source\PSoC4/StripLights.c **** 0x0000AA00, 0x0055AA00, 0x00AAAA00, 0x00FFAA00,  // 8, MGreen
ARM GAS  C:\Users\a85495\AppData\Local\Temp\ccIbMymo.s 			page 4


 147:Generated_Source\PSoC4/StripLights.c **** 0x0000FF00, 0x0055FF00, 0x00AAFF00, 0x00FFFF00,  // 12 Green
 148:Generated_Source\PSoC4/StripLights.c **** 
 149:Generated_Source\PSoC4/StripLights.c **** 0x00000055, 0x00550055, 0x00AA0055, 0x00FF0055,  // 16, LtRed
 150:Generated_Source\PSoC4/StripLights.c **** 0x00005555, 0x00555555, 0x00AA5555, 0x00FF5555,  // 20, LtYellow
 151:Generated_Source\PSoC4/StripLights.c **** 0x0000AA55, 0x0055AA55, 0x00AAAA55, 0x00FFAA55,  // 24, 
 152:Generated_Source\PSoC4/StripLights.c **** 0x0000FF55, 0x0055FF55, 0x00AAFF55, 0x00FFFF55,  // 28,
 153:Generated_Source\PSoC4/StripLights.c **** 
 154:Generated_Source\PSoC4/StripLights.c **** 0x000000AA, 0x005500AA, 0x00AA00AA, 0x00FF00AA,  // 32, MRed
 155:Generated_Source\PSoC4/StripLights.c **** 0x000055AA, 0x005555AA, 0x00AA55AA, 0x00FF55AA,  // 36, 
 156:Generated_Source\PSoC4/StripLights.c **** 0x0000AAAA, 0x0055AAAA, 0x00AAAAAA, 0x00FFAAAA,  // 55, 
 157:Generated_Source\PSoC4/StripLights.c **** 0x0000FFAA, 0x0055FFAA, 0x00AAFFAA, 0x00FFFFAA,  // 44, 
 158:Generated_Source\PSoC4/StripLights.c **** 
 159:Generated_Source\PSoC4/StripLights.c **** 0x000000FF, 0x005500FF, 0x00AA00FF, 0x00F00FFF,  // 48, Red, ??, ??, Magenta
 160:Generated_Source\PSoC4/StripLights.c **** 0x000055FF, 0x005555FF, 0x00AA55FF, 0x00FF55FF,  // 52,
 161:Generated_Source\PSoC4/StripLights.c **** 0x0000AAFF, 0x0055AAFF, 0x00AAAAFF, 0x00FFAAFF,  // 56,
 162:Generated_Source\PSoC4/StripLights.c **** 0x0000FFFF, 0x0055FFFF, 0x00AAFFFF, 0xFFFFFFFF,  // 60, Yellow,??, ??, White
 163:Generated_Source\PSoC4/StripLights.c **** 
 164:Generated_Source\PSoC4/StripLights.c **** // Misc ( 16 )  [ Index = 88 ]
 165:Generated_Source\PSoC4/StripLights.c **** 0x0000FF80,  // SPRING_GREEN
 166:Generated_Source\PSoC4/StripLights.c **** 0x0080FF00,  // TURQUOSE
 167:Generated_Source\PSoC4/StripLights.c **** 0x00FFFF00,  // CYAN
 168:Generated_Source\PSoC4/StripLights.c **** 0x00FF8000,  // OCEAN
 169:Generated_Source\PSoC4/StripLights.c **** 0x00FF0080,  // VIOLET
 170:Generated_Source\PSoC4/StripLights.c **** 0x008000FF,  // RASPBERRY
 171:Generated_Source\PSoC4/StripLights.c **** 0x0000FF00,  // GREEN
 172:Generated_Source\PSoC4/StripLights.c **** 0x00202020,  // DIM WHITE
 173:Generated_Source\PSoC4/StripLights.c **** 0x00200000,  // DIM BLUE
 174:Generated_Source\PSoC4/StripLights.c **** 0x10000000,  // INVISIBLE
 175:Generated_Source\PSoC4/StripLights.c **** 0x00000000,  // Spare
 176:Generated_Source\PSoC4/StripLights.c **** 0x00000000,  // Spare
 177:Generated_Source\PSoC4/StripLights.c **** 0x00000000,  // Spare
 178:Generated_Source\PSoC4/StripLights.c **** 0x00000000,  // Spare
 179:Generated_Source\PSoC4/StripLights.c **** 0x00000000,  // Spare
 180:Generated_Source\PSoC4/StripLights.c **** 0x00000000,  // Spare
 181:Generated_Source\PSoC4/StripLights.c **** 
 182:Generated_Source\PSoC4/StripLights.c **** // Temperture Color Blue to Red (16) [ Index = 104 ]
 183:Generated_Source\PSoC4/StripLights.c **** 0x00FF0000, 0x00F00010, 0x00E00020, 0x00D00030,
 184:Generated_Source\PSoC4/StripLights.c **** 0x00C00040, 0x00B00050, 0x00A00060, 0x00900070,
 185:Generated_Source\PSoC4/StripLights.c **** 0x00800080, 0x00700090, 0x006000A0, 0x005000B0,
 186:Generated_Source\PSoC4/StripLights.c **** 0x004000C0, 0x003000D0, 0x002000E0, 0x000000FF
 187:Generated_Source\PSoC4/StripLights.c **** };
 188:Generated_Source\PSoC4/StripLights.c **** #endif
 189:Generated_Source\PSoC4/StripLights.c **** 
 190:Generated_Source\PSoC4/StripLights.c **** 
 191:Generated_Source\PSoC4/StripLights.c **** 
 192:Generated_Source\PSoC4/StripLights.c **** /*******************************************************************************
 193:Generated_Source\PSoC4/StripLights.c **** * Function Name: StripLights_Start
 194:Generated_Source\PSoC4/StripLights.c **** ********************************************************************************
 195:Generated_Source\PSoC4/StripLights.c **** * Summary:
 196:Generated_Source\PSoC4/StripLights.c **** *  Initialize the hardware. 
 197:Generated_Source\PSoC4/StripLights.c **** *
 198:Generated_Source\PSoC4/StripLights.c **** * Parameters:  
 199:Generated_Source\PSoC4/StripLights.c **** *  void  
 200:Generated_Source\PSoC4/StripLights.c **** *
 201:Generated_Source\PSoC4/StripLights.c **** * Return: 
 202:Generated_Source\PSoC4/StripLights.c **** *  void
 203:Generated_Source\PSoC4/StripLights.c **** *
ARM GAS  C:\Users\a85495\AppData\Local\Temp\ccIbMymo.s 			page 5


 204:Generated_Source\PSoC4/StripLights.c **** *******************************************************************************/
 205:Generated_Source\PSoC4/StripLights.c **** void StripLights_Start()
 206:Generated_Source\PSoC4/StripLights.c **** {
 207:Generated_Source\PSoC4/StripLights.c ****     extern uint8 StripLights_initvar;
 208:Generated_Source\PSoC4/StripLights.c ****     extern uint32 StripLights_refreshComplete;
 209:Generated_Source\PSoC4/StripLights.c **** 
 210:Generated_Source\PSoC4/StripLights.c ****     StripLights_ACTL0_REG = StripLights_DISABLE_FIFO;
 211:Generated_Source\PSoC4/StripLights.c ****     
 212:Generated_Source\PSoC4/StripLights.c ****     StripLights_Period   = StripLights_PERIOD-1;
 213:Generated_Source\PSoC4/StripLights.c ****     StripLights_Compare0 = StripLights_DATA_ZERO;
 214:Generated_Source\PSoC4/StripLights.c ****     StripLights_Compare1 = StripLights_DATA_ONE;
 215:Generated_Source\PSoC4/StripLights.c ****     
 216:Generated_Source\PSoC4/StripLights.c ****     StripLights_CONTROL = StripLights_ENABLE;
 217:Generated_Source\PSoC4/StripLights.c ****     StripLights_MemClear(StripLights_OFF);
 218:Generated_Source\PSoC4/StripLights.c ****     StripLights_CONTROL = StripLights_DISABLE;
 219:Generated_Source\PSoC4/StripLights.c ****     
 220:Generated_Source\PSoC4/StripLights.c ****     StripLights_SetFont( StripLights_FONT_5X7);
 221:Generated_Source\PSoC4/StripLights.c ****     
 222:Generated_Source\PSoC4/StripLights.c ****     /* Set no dimming, full brightness */
 223:Generated_Source\PSoC4/StripLights.c ****     StripLights_Dim(0); 
 224:Generated_Source\PSoC4/StripLights.c **** 
 225:Generated_Source\PSoC4/StripLights.c ****     
 226:Generated_Source\PSoC4/StripLights.c ****     if(StripLights_initvar == 0)
 227:Generated_Source\PSoC4/StripLights.c ****     {
 228:Generated_Source\PSoC4/StripLights.c **** 
 229:Generated_Source\PSoC4/StripLights.c ****         StripLights_initvar = 1;
 230:Generated_Source\PSoC4/StripLights.c ****  
 231:Generated_Source\PSoC4/StripLights.c ****          /* Start and set interrupt vector */
 232:Generated_Source\PSoC4/StripLights.c **** 
 233:Generated_Source\PSoC4/StripLights.c **** #if(StripLights_TRANSFER == StripLights_TRANSFER_ISR)
 234:Generated_Source\PSoC4/StripLights.c ****        {
 235:Generated_Source\PSoC4/StripLights.c ****            StripLights_cisr_StartEx(StripLights_CISR);
 236:Generated_Source\PSoC4/StripLights.c **** 		   StripLights_fisr_StartEx(StripLights_FISR);
 237:Generated_Source\PSoC4/StripLights.c ****        }
 238:Generated_Source\PSoC4/StripLights.c **** #endif       
 239:Generated_Source\PSoC4/StripLights.c ****        if(StripLights_TRANSFER == StripLights_TRANSFER_FIRMWARE)
 240:Generated_Source\PSoC4/StripLights.c ****        {
 241:Generated_Source\PSoC4/StripLights.c ****            StripLights_CONTROL = StripLights_ENABLE;    
 242:Generated_Source\PSoC4/StripLights.c ****        }
 243:Generated_Source\PSoC4/StripLights.c ****     }
 244:Generated_Source\PSoC4/StripLights.c ****     StripLights_refreshComplete = 1;
 245:Generated_Source\PSoC4/StripLights.c **** }
 246:Generated_Source\PSoC4/StripLights.c **** 
 247:Generated_Source\PSoC4/StripLights.c **** 
 248:Generated_Source\PSoC4/StripLights.c **** /*******************************************************************************
 249:Generated_Source\PSoC4/StripLights.c **** * Function Name: StripLights_Trigger
 250:Generated_Source\PSoC4/StripLights.c **** ********************************************************************************
 251:Generated_Source\PSoC4/StripLights.c **** * Summary:
 252:Generated_Source\PSoC4/StripLights.c **** *   Update the LEDs with graphics memory.
 253:Generated_Source\PSoC4/StripLights.c **** *
 254:Generated_Source\PSoC4/StripLights.c **** * Parameters:  
 255:Generated_Source\PSoC4/StripLights.c **** *  void  
 256:Generated_Source\PSoC4/StripLights.c **** *
 257:Generated_Source\PSoC4/StripLights.c **** * Return: 
 258:Generated_Source\PSoC4/StripLights.c **** *  void
 259:Generated_Source\PSoC4/StripLights.c **** *
 260:Generated_Source\PSoC4/StripLights.c **** *******************************************************************************/
ARM GAS  C:\Users\a85495\AppData\Local\Temp\ccIbMymo.s 			page 6


 261:Generated_Source\PSoC4/StripLights.c **** void StripLights_Trigger(uint32 rst)
 262:Generated_Source\PSoC4/StripLights.c **** {
 263:Generated_Source\PSoC4/StripLights.c ****     uint32 color;
 264:Generated_Source\PSoC4/StripLights.c ****     
 265:Generated_Source\PSoC4/StripLights.c ****     if(rst) 
 266:Generated_Source\PSoC4/StripLights.c ****     {
 267:Generated_Source\PSoC4/StripLights.c ****         StripLights_row = 0;  /* Reset the row */
 268:Generated_Source\PSoC4/StripLights.c ****         StripLights_Channel = 0;
 269:Generated_Source\PSoC4/StripLights.c ****     }
 270:Generated_Source\PSoC4/StripLights.c ****     
 271:Generated_Source\PSoC4/StripLights.c ****     #if(StripLights_MEMORY_TYPE == StripLights_MEMORY_RGB)
 272:Generated_Source\PSoC4/StripLights.c ****        color = StripLights_ledArray[StripLights_row][0];
 273:Generated_Source\PSoC4/StripLights.c ****     #else  /* Else use lookup table */
 274:Generated_Source\PSoC4/StripLights.c ****        color = StripLights_CLUT[ (StripLights_ledArray[StripLights_row][0]) ];
 275:Generated_Source\PSoC4/StripLights.c ****     #endif
 276:Generated_Source\PSoC4/StripLights.c ****     
 277:Generated_Source\PSoC4/StripLights.c ****      color = (color >> StripLights_DimShift) & StripLights_DimMask;
 278:Generated_Source\PSoC4/StripLights.c ****      
 279:Generated_Source\PSoC4/StripLights.c ****     StripLights_DATA = (uint8)(color & 0x000000FF);  // Write Red
 280:Generated_Source\PSoC4/StripLights.c ****     color = color >> 8;
 281:Generated_Source\PSoC4/StripLights.c ****     StripLights_DATA = (uint8)(color & 0x000000FF);  // Write green
 282:Generated_Source\PSoC4/StripLights.c ****     color = color >> 8;
 283:Generated_Source\PSoC4/StripLights.c ****     StripLights_DATA = (uint8)(color & 0x000000FF);  // Write green
 284:Generated_Source\PSoC4/StripLights.c ****     color = color >> 8;
 285:Generated_Source\PSoC4/StripLights.c ****     StripLights_DATA = (uint8)(color & 0x000000FF);  // Write white
 286:Generated_Source\PSoC4/StripLights.c ****     
 287:Generated_Source\PSoC4/StripLights.c ****     StripLights_ledIndex = 1;
 288:Generated_Source\PSoC4/StripLights.c ****  //   StripLights_CONTROL = StripLights_ENABLE | StripLights_FIFO_IRQ_EN; 
 289:Generated_Source\PSoC4/StripLights.c **** 	
 290:Generated_Source\PSoC4/StripLights.c **** 	StripLights_CONTROL = StripLights_ENABLE | StripLights_XFRCMPT_IRQ_EN | StripLights_FIFO_IRQ_EN; 
 291:Generated_Source\PSoC4/StripLights.c ****     StripLights_refreshComplete = 0;
 292:Generated_Source\PSoC4/StripLights.c **** }
 293:Generated_Source\PSoC4/StripLights.c **** 
 294:Generated_Source\PSoC4/StripLights.c **** /*******************************************************************************
 295:Generated_Source\PSoC4/StripLights.c **** * Function Name: StripLights_Ready
 296:Generated_Source\PSoC4/StripLights.c **** ********************************************************************************
 297:Generated_Source\PSoC4/StripLights.c **** * Summary:
 298:Generated_Source\PSoC4/StripLights.c **** *  Checks to see if transfer is complete.
 299:Generated_Source\PSoC4/StripLights.c **** *
 300:Generated_Source\PSoC4/StripLights.c **** * Parameters:  
 301:Generated_Source\PSoC4/StripLights.c **** *  none  
 302:Generated_Source\PSoC4/StripLights.c **** *
 303:Generated_Source\PSoC4/StripLights.c **** * Return: 
 304:Generated_Source\PSoC4/StripLights.c **** *  Zero if not complete, non-zero if transfer complete.
 305:Generated_Source\PSoC4/StripLights.c **** *
 306:Generated_Source\PSoC4/StripLights.c **** *******************************************************************************/
 307:Generated_Source\PSoC4/StripLights.c **** uint32 StripLights_Ready(void)
 308:Generated_Source\PSoC4/StripLights.c **** {
 309:Generated_Source\PSoC4/StripLights.c ****     if(StripLights_refreshComplete )
 310:Generated_Source\PSoC4/StripLights.c ****     {
 311:Generated_Source\PSoC4/StripLights.c ****         StripLights_CONTROL = StripLights_DISABLE;
 312:Generated_Source\PSoC4/StripLights.c ****         return((uint32)1);
 313:Generated_Source\PSoC4/StripLights.c ****     }
 314:Generated_Source\PSoC4/StripLights.c ****     else
 315:Generated_Source\PSoC4/StripLights.c ****     {
 316:Generated_Source\PSoC4/StripLights.c ****          return((uint32)0);
 317:Generated_Source\PSoC4/StripLights.c ****     }
ARM GAS  C:\Users\a85495\AppData\Local\Temp\ccIbMymo.s 			page 7


 318:Generated_Source\PSoC4/StripLights.c **** }
 319:Generated_Source\PSoC4/StripLights.c **** 
 320:Generated_Source\PSoC4/StripLights.c **** 
 321:Generated_Source\PSoC4/StripLights.c **** /*******************************************************************************
 322:Generated_Source\PSoC4/StripLights.c **** * Function Name: StripLights_Stop
 323:Generated_Source\PSoC4/StripLights.c **** ********************************************************************************
 324:Generated_Source\PSoC4/StripLights.c **** * Summary:
 325:Generated_Source\PSoC4/StripLights.c **** *  Stop all transfers.
 326:Generated_Source\PSoC4/StripLights.c **** *
 327:Generated_Source\PSoC4/StripLights.c **** * Parameters:  
 328:Generated_Source\PSoC4/StripLights.c **** *  None 
 329:Generated_Source\PSoC4/StripLights.c **** *
 330:Generated_Source\PSoC4/StripLights.c **** * Return: 
 331:Generated_Source\PSoC4/StripLights.c **** *  void
 332:Generated_Source\PSoC4/StripLights.c **** *
 333:Generated_Source\PSoC4/StripLights.c **** *******************************************************************************/
 334:Generated_Source\PSoC4/StripLights.c **** void StripLights_Stop()
 335:Generated_Source\PSoC4/StripLights.c **** {
 336:Generated_Source\PSoC4/StripLights.c **** 
 337:Generated_Source\PSoC4/StripLights.c ****     StripLights_CONTROL = StripLights_DISABLE;
 338:Generated_Source\PSoC4/StripLights.c **** }
 339:Generated_Source\PSoC4/StripLights.c **** 
 340:Generated_Source\PSoC4/StripLights.c **** 
 341:Generated_Source\PSoC4/StripLights.c **** /*******************************************************************************
 342:Generated_Source\PSoC4/StripLights.c **** * Function Name: StripLights_ColorInc
 343:Generated_Source\PSoC4/StripLights.c **** ********************************************************************************
 344:Generated_Source\PSoC4/StripLights.c **** * Summary:
 345:Generated_Source\PSoC4/StripLights.c **** *  Increment color throught the color lookup table.
 346:Generated_Source\PSoC4/StripLights.c **** *
 347:Generated_Source\PSoC4/StripLights.c **** * Parameters:  
 348:Generated_Source\PSoC4/StripLights.c **** *  uint32 incValue: Increment through color table by incValue. 
 349:Generated_Source\PSoC4/StripLights.c **** *
 350:Generated_Source\PSoC4/StripLights.c **** * Return: Color at next location.
 351:Generated_Source\PSoC4/StripLights.c **** *  
 352:Generated_Source\PSoC4/StripLights.c **** *
 353:Generated_Source\PSoC4/StripLights.c **** *******************************************************************************/
 354:Generated_Source\PSoC4/StripLights.c **** uint32 StripLights_ColorInc(uint32 incValue)
 355:Generated_Source\PSoC4/StripLights.c **** {
 356:Generated_Source\PSoC4/StripLights.c ****     uint32 color;
 357:Generated_Source\PSoC4/StripLights.c ****     extern const uint32 StripLights_CLUT[];
 358:Generated_Source\PSoC4/StripLights.c ****     static uint32 colorIndex = 0;
 359:Generated_Source\PSoC4/StripLights.c ****     
 360:Generated_Source\PSoC4/StripLights.c ****     colorIndex += incValue;
 361:Generated_Source\PSoC4/StripLights.c ****     colorIndex = colorIndex % StripLights_COLOR_WHEEL_SIZE;
 362:Generated_Source\PSoC4/StripLights.c **** 
 363:Generated_Source\PSoC4/StripLights.c ****     #if(StripLights_MEMORY_TYPE == StripLights_MEMORY_RGB)
 364:Generated_Source\PSoC4/StripLights.c ****        color = StripLights_CLUT[ colorIndex ];
 365:Generated_Source\PSoC4/StripLights.c ****     #else
 366:Generated_Source\PSoC4/StripLights.c ****         color = colorIndex;
 367:Generated_Source\PSoC4/StripLights.c ****     #endif
 368:Generated_Source\PSoC4/StripLights.c **** 
 369:Generated_Source\PSoC4/StripLights.c **** 
 370:Generated_Source\PSoC4/StripLights.c ****     return(color);
 371:Generated_Source\PSoC4/StripLights.c **** }
 372:Generated_Source\PSoC4/StripLights.c **** /*****************************************************************************
 373:Generated_Source\PSoC4/StripLights.c **** * Function Name: StripLights_FISR
 374:Generated_Source\PSoC4/StripLights.c **** ******************************************************************************
ARM GAS  C:\Users\a85495\AppData\Local\Temp\ccIbMymo.s 			page 8


 375:Generated_Source\PSoC4/StripLights.c **** *
 376:Generated_Source\PSoC4/StripLights.c **** * Summary:
 377:Generated_Source\PSoC4/StripLights.c **** *  Interrupt service handler for data transfer for each LED 
 378:Generated_Source\PSoC4/StripLights.c **** *
 379:Generated_Source\PSoC4/StripLights.c **** * Parameters:  
 380:Generated_Source\PSoC4/StripLights.c **** *  void
 381:Generated_Source\PSoC4/StripLights.c **** *
 382:Generated_Source\PSoC4/StripLights.c **** * Return: 
 383:Generated_Source\PSoC4/StripLights.c **** *  void 
 384:Generated_Source\PSoC4/StripLights.c **** *
 385:Generated_Source\PSoC4/StripLights.c **** * Reentrant: 
 386:Generated_Source\PSoC4/StripLights.c **** *  No
 387:Generated_Source\PSoC4/StripLights.c **** *
 388:Generated_Source\PSoC4/StripLights.c **** *****************************************************************************/
 389:Generated_Source\PSoC4/StripLights.c **** CY_ISR( StripLights_FISR)
 390:Generated_Source\PSoC4/StripLights.c **** {
  26              		.loc 1 390 0
  27              		.cfi_startproc
 391:Generated_Source\PSoC4/StripLights.c ****     extern uint32  StripLights_DimMask;
 392:Generated_Source\PSoC4/StripLights.c ****     extern uint32  StripLights_DimShift;
 393:Generated_Source\PSoC4/StripLights.c ****     uint32 static color;
 394:Generated_Source\PSoC4/StripLights.c **** 
 395:Generated_Source\PSoC4/StripLights.c ****     if(StripLights_ledIndex < StripLights_ARRAY_COLS)
  28              		.loc 1 395 0
  29 0000 134B     		ldr	r3, .L4
  30 0002 1B68     		ldr	r3, [r3]
  31 0004 8F2B     		cmp	r3, #143
  32 0006 1ED8     		bhi	.L2
 396:Generated_Source\PSoC4/StripLights.c ****     {
 397:Generated_Source\PSoC4/StripLights.c ****         #if(StripLights_MEMORY_TYPE == StripLights_MEMORY_RGB)
 398:Generated_Source\PSoC4/StripLights.c ****             color = StripLights_ledArray[StripLights_row][StripLights_ledIndex++];
  33              		.loc 1 398 0
  34 0008 1149     		ldr	r1, .L4
  35 000a 4A68     		ldr	r2, [r1, #4]
  36 000c 581C     		add	r0, r3, #1
  37 000e 0860     		str	r0, [r1]
  38 0010 D000     		lsl	r0, r2, #3
  39 0012 8218     		add	r2, r0, r2
  40 0014 1201     		lsl	r2, r2, #4
  41 0016 D318     		add	r3, r2, r3
  42 0018 9B00     		lsl	r3, r3, #2
  43 001a 0E4A     		ldr	r2, .L4+4
  44 001c 9B58     		ldr	r3, [r3, r2]
 399:Generated_Source\PSoC4/StripLights.c ****         #else  /* Else use lookup table */
 400:Generated_Source\PSoC4/StripLights.c ****             color = StripLights_CLUT[ (StripLights_ledArray[StripLights_row][StripLights_ledIndex++
 401:Generated_Source\PSoC4/StripLights.c ****         #endif
 402:Generated_Source\PSoC4/StripLights.c **** 
 403:Generated_Source\PSoC4/StripLights.c ****         color = (color >> StripLights_DimShift) & StripLights_DimMask;  
  45              		.loc 1 403 0
  46 001e 0E4A     		ldr	r2, .L4+8
  47 0020 1268     		ldr	r2, [r2]
  48 0022 D340     		lsr	r3, r3, r2
  49 0024 0D4A     		ldr	r2, .L4+12
  50 0026 1268     		ldr	r2, [r2]
  51 0028 1340     		and	r3, r2
 404:Generated_Source\PSoC4/StripLights.c **** 
 405:Generated_Source\PSoC4/StripLights.c ****         StripLights_DATA = (uint8)(color & 0x000000FF);  // Write Green
ARM GAS  C:\Users\a85495\AppData\Local\Temp\ccIbMymo.s 			page 9


  52              		.loc 1 405 0
  53 002a D8B2     		uxtb	r0, r3
  54 002c 0C4A     		ldr	r2, .L4+16
  55 002e 1070     		strb	r0, [r2]
 406:Generated_Source\PSoC4/StripLights.c ****         color = color >> 8;
  56              		.loc 1 406 0
  57 0030 180A     		lsr	r0, r3, #8
 407:Generated_Source\PSoC4/StripLights.c ****         StripLights_DATA = (uint8)(color & 0x000000FF);  // Write Red
  58              		.loc 1 407 0
  59 0032 C0B2     		uxtb	r0, r0
  60 0034 1070     		strb	r0, [r2]
 408:Generated_Source\PSoC4/StripLights.c ****         color = color >> 8;
  61              		.loc 1 408 0
  62 0036 180C     		lsr	r0, r3, #16
 409:Generated_Source\PSoC4/StripLights.c ****         StripLights_DATA = (uint8)(color & 0x000000FF);  // Write Blue
  63              		.loc 1 409 0
  64 0038 C0B2     		uxtb	r0, r0
  65 003a 1070     		strb	r0, [r2]
 410:Generated_Source\PSoC4/StripLights.c ****         color = color >> 8;
  66              		.loc 1 410 0
  67 003c 1B0E     		lsr	r3, r3, #24
  68 003e 8B60     		str	r3, [r1, #8]
 411:Generated_Source\PSoC4/StripLights.c ****         StripLights_DATA = (uint8)(color & 0x000000FF);  // Write White
  69              		.loc 1 411 0
  70 0040 DBB2     		uxtb	r3, r3
  71 0042 1370     		strb	r3, [r2]
  72 0044 02E0     		b	.L1
  73              	.L2:
 412:Generated_Source\PSoC4/StripLights.c ****     }
 413:Generated_Source\PSoC4/StripLights.c ****     else 
 414:Generated_Source\PSoC4/StripLights.c ****     {
 415:Generated_Source\PSoC4/StripLights.c ****          StripLights_CONTROL = StripLights_ENABLE | StripLights_XFRCMPT_IRQ_EN; 
  74              		.loc 1 415 0
  75 0046 1122     		mov	r2, #17
  76 0048 064B     		ldr	r3, .L4+20
  77 004a 1A70     		strb	r2, [r3]
  78              	.L1:
 416:Generated_Source\PSoC4/StripLights.c ****     }
 417:Generated_Source\PSoC4/StripLights.c **** 
 418:Generated_Source\PSoC4/StripLights.c **** }
  79              		.loc 1 418 0
  80              		@ sp needed
  81 004c 7047     		bx	lr
  82              	.L5:
  83 004e C046     		.align	2
  84              	.L4:
  85 0050 00000000 		.word	.LANCHOR0
  86 0054 00000000 		.word	StripLights_ledArray
  87 0058 00000000 		.word	StripLights_DimShift
  88 005c 00000000 		.word	StripLights_DimMask
  89 0060 42000F40 		.word	1074724930
  90 0064 72000F40 		.word	1074724978
  91              		.cfi_endproc
  92              	.LFE39:
  93              		.size	StripLights_FISR, .-StripLights_FISR
  94              		.section	.text.StripLights_CISR,"ax",%progbits
  95              		.align	2
ARM GAS  C:\Users\a85495\AppData\Local\Temp\ccIbMymo.s 			page 10


  96              		.global	StripLights_CISR
  97              		.code	16
  98              		.thumb_func
  99              		.type	StripLights_CISR, %function
 100              	StripLights_CISR:
 101              	.LFB40:
 419:Generated_Source\PSoC4/StripLights.c **** 
 420:Generated_Source\PSoC4/StripLights.c **** /*****************************************************************************
 421:Generated_Source\PSoC4/StripLights.c **** * Function Name: StripLights_CISR
 422:Generated_Source\PSoC4/StripLights.c **** ******************************************************************************
 423:Generated_Source\PSoC4/StripLights.c **** *
 424:Generated_Source\PSoC4/StripLights.c **** * Summary:
 425:Generated_Source\PSoC4/StripLights.c **** *  Interrupt service handler after each row is complete.
 426:Generated_Source\PSoC4/StripLights.c **** *
 427:Generated_Source\PSoC4/StripLights.c **** * Parameters:  
 428:Generated_Source\PSoC4/StripLights.c **** *  void
 429:Generated_Source\PSoC4/StripLights.c **** *
 430:Generated_Source\PSoC4/StripLights.c **** * Return: 
 431:Generated_Source\PSoC4/StripLights.c **** *  void 
 432:Generated_Source\PSoC4/StripLights.c **** *
 433:Generated_Source\PSoC4/StripLights.c **** * Reentrant: 
 434:Generated_Source\PSoC4/StripLights.c **** *  No
 435:Generated_Source\PSoC4/StripLights.c **** *
 436:Generated_Source\PSoC4/StripLights.c **** *****************************************************************************/
 437:Generated_Source\PSoC4/StripLights.c **** CY_ISR( StripLights_CISR)
 438:Generated_Source\PSoC4/StripLights.c **** {
 102              		.loc 1 438 0
 103              		.cfi_startproc
 439:Generated_Source\PSoC4/StripLights.c ****     extern uint32  StripLights_DimMask;
 440:Generated_Source\PSoC4/StripLights.c ****     extern uint32  StripLights_DimShift;
 441:Generated_Source\PSoC4/StripLights.c ****     uint32 static color;
 442:Generated_Source\PSoC4/StripLights.c ****     extern uint32 StripLights_refreshComplete;
 443:Generated_Source\PSoC4/StripLights.c **** 
 444:Generated_Source\PSoC4/StripLights.c **** 	StripLights_CONTROL = StripLights_ENABLE |StripLights_NEXT_ROW;
 104              		.loc 1 444 0
 105 0000 2122     		mov	r2, #33
 106 0002 174B     		ldr	r3, .L9
 107 0004 1A70     		strb	r2, [r3]
 445:Generated_Source\PSoC4/StripLights.c ****     StripLights_row++;
 108              		.loc 1 445 0
 109 0006 174A     		ldr	r2, .L9+4
 110 0008 5368     		ldr	r3, [r2, #4]
 111 000a 0133     		add	r3, r3, #1
 112 000c 5360     		str	r3, [r2, #4]
 446:Generated_Source\PSoC4/StripLights.c ****     if( StripLights_row < StripLights_ARRAY_ROWS)  /* More Rows to do  */
 113              		.loc 1 446 0
 114 000e 002B     		cmp	r3, #0
 115 0010 22D1     		bne	.L7
 447:Generated_Source\PSoC4/StripLights.c ****     {
 448:Generated_Source\PSoC4/StripLights.c ****         StripLights_Channel = StripLights_row;  
 116              		.loc 1 448 0
 117 0012 DBB2     		uxtb	r3, r3
 118 0014 144A     		ldr	r2, .L9+8
 119 0016 1370     		strb	r3, [r2]
 449:Generated_Source\PSoC4/StripLights.c **** 
 450:Generated_Source\PSoC4/StripLights.c **** 		#if(StripLights_MEMORY_TYPE == StripLights_MEMORY_RGB)
 451:Generated_Source\PSoC4/StripLights.c ****              color = StripLights_ledArray[StripLights_row][0];
ARM GAS  C:\Users\a85495\AppData\Local\Temp\ccIbMymo.s 			page 11


 120              		.loc 1 451 0
 121 0018 1249     		ldr	r1, .L9+4
 122 001a 4B68     		ldr	r3, [r1, #4]
 123 001c DA00     		lsl	r2, r3, #3
 124 001e D318     		add	r3, r2, r3
 125 0020 9B01     		lsl	r3, r3, #6
 126 0022 124A     		ldr	r2, .L9+12
 127 0024 9B58     		ldr	r3, [r3, r2]
 452:Generated_Source\PSoC4/StripLights.c ****         #else  /* Else use lookup table */
 453:Generated_Source\PSoC4/StripLights.c ****              color = StripLights_CLUT[ (StripLights_ledArray[StripLights_row][0]) ];
 454:Generated_Source\PSoC4/StripLights.c ****         #endif
 455:Generated_Source\PSoC4/StripLights.c **** 
 456:Generated_Source\PSoC4/StripLights.c ****         color = (color >> StripLights_DimShift) & StripLights_DimMask;
 128              		.loc 1 456 0
 129 0026 124A     		ldr	r2, .L9+16
 130 0028 1268     		ldr	r2, [r2]
 131 002a D340     		lsr	r3, r3, r2
 132 002c 114A     		ldr	r2, .L9+20
 133 002e 1268     		ldr	r2, [r2]
 134 0030 1340     		and	r3, r2
 457:Generated_Source\PSoC4/StripLights.c ****  
 458:Generated_Source\PSoC4/StripLights.c ****         StripLights_DATA = (uint8)(color & 0x000000FF);  /* Write Red   */
 135              		.loc 1 458 0
 136 0032 D8B2     		uxtb	r0, r3
 137 0034 104A     		ldr	r2, .L9+24
 138 0036 1070     		strb	r0, [r2]
 459:Generated_Source\PSoC4/StripLights.c ****         color = color >> 8;
 139              		.loc 1 459 0
 140 0038 180A     		lsr	r0, r3, #8
 460:Generated_Source\PSoC4/StripLights.c ****         StripLights_DATA = (uint8)(color & 0x000000FF);  /* Write green */
 141              		.loc 1 460 0
 142 003a C0B2     		uxtb	r0, r0
 143 003c 1070     		strb	r0, [r2]
 461:Generated_Source\PSoC4/StripLights.c ****         color = color >> 8;
 144              		.loc 1 461 0
 145 003e 180C     		lsr	r0, r3, #16
 462:Generated_Source\PSoC4/StripLights.c ****         StripLights_DATA = (uint8)(color & 0x000000FF);  /* Write green */
 146              		.loc 1 462 0
 147 0040 C0B2     		uxtb	r0, r0
 148 0042 1070     		strb	r0, [r2]
 463:Generated_Source\PSoC4/StripLights.c ****         color = color >> 8;
 149              		.loc 1 463 0
 150 0044 1B0E     		lsr	r3, r3, #24
 151 0046 CB60     		str	r3, [r1, #12]
 464:Generated_Source\PSoC4/StripLights.c ****         StripLights_DATA = (uint8)(color & 0x000000FF);  /* Write white */
 152              		.loc 1 464 0
 153 0048 DBB2     		uxtb	r3, r3
 154 004a 1370     		strb	r3, [r2]
 465:Generated_Source\PSoC4/StripLights.c **** 
 466:Generated_Source\PSoC4/StripLights.c ****         StripLights_ledIndex = 1;
 155              		.loc 1 466 0
 156 004c 0123     		mov	r3, #1
 157 004e 0B60     		str	r3, [r1]
 467:Generated_Source\PSoC4/StripLights.c **** 		StripLights_CONTROL = StripLights_ENABLE | StripLights_FIFO_IRQ_EN; 
 158              		.loc 1 467 0
 159 0050 0922     		mov	r2, #9
 160 0052 034B     		ldr	r3, .L9
ARM GAS  C:\Users\a85495\AppData\Local\Temp\ccIbMymo.s 			page 12


 161 0054 1A70     		strb	r2, [r3]
 162 0056 02E0     		b	.L6
 163              	.L7:
 468:Generated_Source\PSoC4/StripLights.c **** 		
 469:Generated_Source\PSoC4/StripLights.c ****     }
 470:Generated_Source\PSoC4/StripLights.c ****     else
 471:Generated_Source\PSoC4/StripLights.c ****     {
 472:Generated_Source\PSoC4/StripLights.c ****         StripLights_refreshComplete = 1u;
 164              		.loc 1 472 0
 165 0058 0122     		mov	r2, #1
 166 005a 084B     		ldr	r3, .L9+28
 167 005c 1A60     		str	r2, [r3]
 168              	.L6:
 473:Generated_Source\PSoC4/StripLights.c ****     }
 474:Generated_Source\PSoC4/StripLights.c ****   
 475:Generated_Source\PSoC4/StripLights.c **** }
 169              		.loc 1 475 0
 170              		@ sp needed
 171 005e 7047     		bx	lr
 172              	.L10:
 173              		.align	2
 174              	.L9:
 175 0060 72000F40 		.word	1074724978
 176 0064 00000000 		.word	.LANCHOR0
 177 0068 73000F40 		.word	1074724979
 178 006c 00000000 		.word	StripLights_ledArray
 179 0070 00000000 		.word	StripLights_DimShift
 180 0074 00000000 		.word	StripLights_DimMask
 181 0078 42000F40 		.word	1074724930
 182 007c 00000000 		.word	StripLights_refreshComplete
 183              		.cfi_endproc
 184              	.LFE40:
 185              		.size	StripLights_CISR, .-StripLights_CISR
 186              		.section	.text.StripLights_Trigger,"ax",%progbits
 187              		.align	2
 188              		.global	StripLights_Trigger
 189              		.code	16
 190              		.thumb_func
 191              		.type	StripLights_Trigger, %function
 192              	StripLights_Trigger:
 193              	.LFB35:
 262:Generated_Source\PSoC4/StripLights.c ****     uint32 color;
 194              		.loc 1 262 0
 195              		.cfi_startproc
 196              	.LVL0:
 265:Generated_Source\PSoC4/StripLights.c ****     {
 197              		.loc 1 265 0
 198 0000 0028     		cmp	r0, #0
 199 0002 04D0     		beq	.L12
 267:Generated_Source\PSoC4/StripLights.c ****         StripLights_Channel = 0;
 200              		.loc 1 267 0
 201 0004 0023     		mov	r3, #0
 202 0006 124A     		ldr	r2, .L13
 203 0008 5360     		str	r3, [r2, #4]
 268:Generated_Source\PSoC4/StripLights.c ****     }
 204              		.loc 1 268 0
 205 000a 124A     		ldr	r2, .L13+4
ARM GAS  C:\Users\a85495\AppData\Local\Temp\ccIbMymo.s 			page 13


 206 000c 1370     		strb	r3, [r2]
 207              	.L12:
 272:Generated_Source\PSoC4/StripLights.c ****     #else  /* Else use lookup table */
 208              		.loc 1 272 0
 209 000e 1048     		ldr	r0, .L13
 210              	.LVL1:
 211 0010 4268     		ldr	r2, [r0, #4]
 212 0012 D300     		lsl	r3, r2, #3
 213 0014 9B18     		add	r3, r3, r2
 214 0016 9B01     		lsl	r3, r3, #6
 215 0018 0F4A     		ldr	r2, .L13+8
 216 001a 9B58     		ldr	r3, [r3, r2]
 217              	.LVL2:
 277:Generated_Source\PSoC4/StripLights.c ****      
 218              		.loc 1 277 0
 219 001c 0F4A     		ldr	r2, .L13+12
 220 001e 1268     		ldr	r2, [r2]
 221 0020 D340     		lsr	r3, r3, r2
 222              	.LVL3:
 223 0022 0F4A     		ldr	r2, .L13+16
 224 0024 1268     		ldr	r2, [r2]
 225 0026 1340     		and	r3, r2
 226              	.LVL4:
 279:Generated_Source\PSoC4/StripLights.c ****     color = color >> 8;
 227              		.loc 1 279 0
 228 0028 D9B2     		uxtb	r1, r3
 229 002a 0E4A     		ldr	r2, .L13+20
 230 002c 1170     		strb	r1, [r2]
 280:Generated_Source\PSoC4/StripLights.c ****     StripLights_DATA = (uint8)(color & 0x000000FF);  // Write green
 231              		.loc 1 280 0
 232 002e 190A     		lsr	r1, r3, #8
 233              	.LVL5:
 281:Generated_Source\PSoC4/StripLights.c ****     color = color >> 8;
 234              		.loc 1 281 0
 235 0030 C9B2     		uxtb	r1, r1
 236              	.LVL6:
 237 0032 1170     		strb	r1, [r2]
 282:Generated_Source\PSoC4/StripLights.c ****     StripLights_DATA = (uint8)(color & 0x000000FF);  // Write green
 238              		.loc 1 282 0
 239 0034 190C     		lsr	r1, r3, #16
 240              	.LVL7:
 283:Generated_Source\PSoC4/StripLights.c ****     color = color >> 8;
 241              		.loc 1 283 0
 242 0036 C9B2     		uxtb	r1, r1
 243              	.LVL8:
 244 0038 1170     		strb	r1, [r2]
 245              	.LVL9:
 285:Generated_Source\PSoC4/StripLights.c ****     
 246              		.loc 1 285 0
 247 003a 1B0E     		lsr	r3, r3, #24
 248              	.LVL10:
 249 003c 1370     		strb	r3, [r2]
 287:Generated_Source\PSoC4/StripLights.c ****  //   StripLights_CONTROL = StripLights_ENABLE | StripLights_FIFO_IRQ_EN; 
 250              		.loc 1 287 0
 251 003e 0123     		mov	r3, #1
 252              	.LVL11:
 253 0040 0360     		str	r3, [r0]
ARM GAS  C:\Users\a85495\AppData\Local\Temp\ccIbMymo.s 			page 14


 290:Generated_Source\PSoC4/StripLights.c ****     StripLights_refreshComplete = 0;
 254              		.loc 1 290 0
 255 0042 1922     		mov	r2, #25
 256 0044 084B     		ldr	r3, .L13+24
 257 0046 1A70     		strb	r2, [r3]
 291:Generated_Source\PSoC4/StripLights.c **** }
 258              		.loc 1 291 0
 259 0048 0022     		mov	r2, #0
 260 004a 084B     		ldr	r3, .L13+28
 261 004c 1A60     		str	r2, [r3]
 292:Generated_Source\PSoC4/StripLights.c **** 
 262              		.loc 1 292 0
 263              		@ sp needed
 264 004e 7047     		bx	lr
 265              	.L14:
 266              		.align	2
 267              	.L13:
 268 0050 00000000 		.word	.LANCHOR0
 269 0054 73000F40 		.word	1074724979
 270 0058 00000000 		.word	StripLights_ledArray
 271 005c 00000000 		.word	StripLights_DimShift
 272 0060 00000000 		.word	StripLights_DimMask
 273 0064 42000F40 		.word	1074724930
 274 0068 72000F40 		.word	1074724978
 275 006c 00000000 		.word	StripLights_refreshComplete
 276              		.cfi_endproc
 277              	.LFE35:
 278              		.size	StripLights_Trigger, .-StripLights_Trigger
 279              		.section	.text.StripLights_Ready,"ax",%progbits
 280              		.align	2
 281              		.global	StripLights_Ready
 282              		.code	16
 283              		.thumb_func
 284              		.type	StripLights_Ready, %function
 285              	StripLights_Ready:
 286              	.LFB36:
 308:Generated_Source\PSoC4/StripLights.c ****     if(StripLights_refreshComplete )
 287              		.loc 1 308 0
 288              		.cfi_startproc
 309:Generated_Source\PSoC4/StripLights.c ****     {
 289              		.loc 1 309 0
 290 0000 044B     		ldr	r3, .L17
 291 0002 1868     		ldr	r0, [r3]
 292 0004 0028     		cmp	r0, #0
 293 0006 03D0     		beq	.L16
 311:Generated_Source\PSoC4/StripLights.c ****         return((uint32)1);
 294              		.loc 1 311 0
 295 0008 0022     		mov	r2, #0
 296 000a 034B     		ldr	r3, .L17+4
 297 000c 1A70     		strb	r2, [r3]
 312:Generated_Source\PSoC4/StripLights.c ****     }
 298              		.loc 1 312 0
 299 000e 0120     		mov	r0, #1
 300              	.L16:
 318:Generated_Source\PSoC4/StripLights.c **** 
 301              		.loc 1 318 0
 302              		@ sp needed
ARM GAS  C:\Users\a85495\AppData\Local\Temp\ccIbMymo.s 			page 15


 303 0010 7047     		bx	lr
 304              	.L18:
 305 0012 C046     		.align	2
 306              	.L17:
 307 0014 00000000 		.word	StripLights_refreshComplete
 308 0018 72000F40 		.word	1074724978
 309              		.cfi_endproc
 310              	.LFE36:
 311              		.size	StripLights_Ready, .-StripLights_Ready
 312              		.section	.text.StripLights_Stop,"ax",%progbits
 313              		.align	2
 314              		.global	StripLights_Stop
 315              		.code	16
 316              		.thumb_func
 317              		.type	StripLights_Stop, %function
 318              	StripLights_Stop:
 319              	.LFB37:
 335:Generated_Source\PSoC4/StripLights.c **** 
 320              		.loc 1 335 0
 321              		.cfi_startproc
 337:Generated_Source\PSoC4/StripLights.c **** }
 322              		.loc 1 337 0
 323 0000 0022     		mov	r2, #0
 324 0002 014B     		ldr	r3, .L20
 325 0004 1A70     		strb	r2, [r3]
 338:Generated_Source\PSoC4/StripLights.c **** 
 326              		.loc 1 338 0
 327              		@ sp needed
 328 0006 7047     		bx	lr
 329              	.L21:
 330              		.align	2
 331              	.L20:
 332 0008 72000F40 		.word	1074724978
 333              		.cfi_endproc
 334              	.LFE37:
 335              		.size	StripLights_Stop, .-StripLights_Stop
 336              		.global	__aeabi_uidivmod
 337              		.section	.text.StripLights_ColorInc,"ax",%progbits
 338              		.align	2
 339              		.global	StripLights_ColorInc
 340              		.code	16
 341              		.thumb_func
 342              		.type	StripLights_ColorInc, %function
 343              	StripLights_ColorInc:
 344              	.LFB38:
 355:Generated_Source\PSoC4/StripLights.c ****     uint32 color;
 345              		.loc 1 355 0
 346              		.cfi_startproc
 347              	.LVL12:
 348 0000 10B5     		push	{r4, lr}
 349              		.cfi_def_cfa_offset 8
 350              		.cfi_offset 4, -8
 351              		.cfi_offset 14, -4
 360:Generated_Source\PSoC4/StripLights.c ****     colorIndex = colorIndex % StripLights_COLOR_WHEEL_SIZE;
 352              		.loc 1 360 0
 353 0002 064C     		ldr	r4, .L23
 354 0004 2369     		ldr	r3, [r4, #16]
ARM GAS  C:\Users\a85495\AppData\Local\Temp\ccIbMymo.s 			page 16


 355 0006 9C46     		mov	ip, r3
 356 0008 6044     		add	r0, r0, ip
 357              	.LVL13:
 361:Generated_Source\PSoC4/StripLights.c **** 
 358              		.loc 1 361 0
 359 000a 1821     		mov	r1, #24
 360 000c FFF7FEFF 		bl	__aeabi_uidivmod
 361              	.LVL14:
 362 0010 2161     		str	r1, [r4, #16]
 364:Generated_Source\PSoC4/StripLights.c ****     #else
 363              		.loc 1 364 0
 364 0012 8900     		lsl	r1, r1, #2
 365 0014 024B     		ldr	r3, .L23+4
 366 0016 C858     		ldr	r0, [r1, r3]
 367              	.LVL15:
 371:Generated_Source\PSoC4/StripLights.c **** /*****************************************************************************
 368              		.loc 1 371 0
 369              		@ sp needed
 370 0018 10BD     		pop	{r4, pc}
 371              	.L24:
 372 001a C046     		.align	2
 373              	.L23:
 374 001c 00000000 		.word	.LANCHOR0
 375 0020 20000000 		.word	.LANCHOR1
 376              		.cfi_endproc
 377              	.LFE38:
 378              		.size	StripLights_ColorInc, .-StripLights_ColorInc
 379              		.section	.text.StripLights_MemClear,"ax",%progbits
 380              		.align	2
 381              		.global	StripLights_MemClear
 382              		.code	16
 383              		.thumb_func
 384              		.type	StripLights_MemClear, %function
 385              	StripLights_MemClear:
 386              	.LFB42:
 476:Generated_Source\PSoC4/StripLights.c **** 
 477:Generated_Source\PSoC4/StripLights.c **** 
 478:Generated_Source\PSoC4/StripLights.c **** /*******************************************************************************
 479:Generated_Source\PSoC4/StripLights.c **** * Function Name: StripLights_DisplayClear
 480:Generated_Source\PSoC4/StripLights.c **** ********************************************************************************
 481:Generated_Source\PSoC4/StripLights.c **** * Summary:
 482:Generated_Source\PSoC4/StripLights.c **** *   Clear memory with a given value and update the display.
 483:Generated_Source\PSoC4/StripLights.c **** *
 484:Generated_Source\PSoC4/StripLights.c **** * Parameters:  
 485:Generated_Source\PSoC4/StripLights.c **** *  uint32 color: Color to clear display. 
 486:Generated_Source\PSoC4/StripLights.c **** *
 487:Generated_Source\PSoC4/StripLights.c **** * Return: 
 488:Generated_Source\PSoC4/StripLights.c **** *  void
 489:Generated_Source\PSoC4/StripLights.c **** *
 490:Generated_Source\PSoC4/StripLights.c **** *******************************************************************************/
 491:Generated_Source\PSoC4/StripLights.c **** void StripLights_DisplayClear(uint32 color)
 492:Generated_Source\PSoC4/StripLights.c **** {   
 493:Generated_Source\PSoC4/StripLights.c ****     StripLights_MemClear(color);
 494:Generated_Source\PSoC4/StripLights.c ****     StripLights_Trigger(1);
 495:Generated_Source\PSoC4/StripLights.c **** }
 496:Generated_Source\PSoC4/StripLights.c **** 
 497:Generated_Source\PSoC4/StripLights.c **** /*******************************************************************************
ARM GAS  C:\Users\a85495\AppData\Local\Temp\ccIbMymo.s 			page 17


 498:Generated_Source\PSoC4/StripLights.c **** * Function Name: StripLights_MemClear
 499:Generated_Source\PSoC4/StripLights.c **** ********************************************************************************
 500:Generated_Source\PSoC4/StripLights.c **** * Summary:
 501:Generated_Source\PSoC4/StripLights.c **** *   Clear LED memory with given color, but do not update display.
 502:Generated_Source\PSoC4/StripLights.c **** *
 503:Generated_Source\PSoC4/StripLights.c **** * Parameters:  
 504:Generated_Source\PSoC4/StripLights.c **** *  uint32 color: Color to clear display.  
 505:Generated_Source\PSoC4/StripLights.c **** *
 506:Generated_Source\PSoC4/StripLights.c **** * Return: 
 507:Generated_Source\PSoC4/StripLights.c **** *  void
 508:Generated_Source\PSoC4/StripLights.c **** *
 509:Generated_Source\PSoC4/StripLights.c **** *******************************************************************************/
 510:Generated_Source\PSoC4/StripLights.c **** void StripLights_MemClear(uint32 color)
 511:Generated_Source\PSoC4/StripLights.c **** {
 387              		.loc 1 511 0
 388              		.cfi_startproc
 389              	.LVL16:
 390 0000 10B5     		push	{r4, lr}
 391              		.cfi_def_cfa_offset 8
 392              		.cfi_offset 4, -8
 393              		.cfi_offset 14, -4
 394              	.LVL17:
 512:Generated_Source\PSoC4/StripLights.c ****     uint32  row, col;
 513:Generated_Source\PSoC4/StripLights.c ****     
 514:Generated_Source\PSoC4/StripLights.c ****     for(row=0; row < StripLights_ARRAY_ROWS; row++)
 395              		.loc 1 514 0
 396 0002 0021     		mov	r1, #0
 397 0004 0CE0     		b	.L26
 398              	.LVL18:
 399              	.L27:
 515:Generated_Source\PSoC4/StripLights.c ****     {
 516:Generated_Source\PSoC4/StripLights.c ****         for(col=0; col < StripLights_ARRAY_COLS; col++)
 517:Generated_Source\PSoC4/StripLights.c ****         {
 518:Generated_Source\PSoC4/StripLights.c ****             StripLights_ledArray[row][col] = color;
 400              		.loc 1 518 0 discriminator 3
 401 0006 CB00     		lsl	r3, r1, #3
 402 0008 5B18     		add	r3, r3, r1
 403 000a 1B01     		lsl	r3, r3, #4
 404 000c 9B18     		add	r3, r3, r2
 405 000e 9B00     		lsl	r3, r3, #2
 406 0010 054C     		ldr	r4, .L30
 407 0012 1851     		str	r0, [r3, r4]
 516:Generated_Source\PSoC4/StripLights.c ****         {
 408              		.loc 1 516 0 discriminator 3
 409 0014 0132     		add	r2, r2, #1
 410              	.LVL19:
 411 0016 00E0     		b	.L28
 412              	.LVL20:
 413              	.L29:
 414 0018 0022     		mov	r2, #0
 415              	.L28:
 416              	.LVL21:
 516:Generated_Source\PSoC4/StripLights.c ****         {
 417              		.loc 1 516 0 is_stmt 0 discriminator 1
 418 001a 8F2A     		cmp	r2, #143
 419 001c F3D9     		bls	.L27
 514:Generated_Source\PSoC4/StripLights.c ****     {
ARM GAS  C:\Users\a85495\AppData\Local\Temp\ccIbMymo.s 			page 18


 420              		.loc 1 514 0 is_stmt 1 discriminator 2
 421 001e 0131     		add	r1, r1, #1
 422              	.LVL22:
 423              	.L26:
 514:Generated_Source\PSoC4/StripLights.c ****     {
 424              		.loc 1 514 0 is_stmt 0 discriminator 1
 425 0020 0029     		cmp	r1, #0
 426 0022 F9D0     		beq	.L29
 519:Generated_Source\PSoC4/StripLights.c ****             #if(StripLights_MEMORY_TYPE == StripLights_MEMORY_RGB)
 520:Generated_Source\PSoC4/StripLights.c ****                 StripLights_ledArray[row][col] = color;
 521:Generated_Source\PSoC4/StripLights.c ****             #else  /* Else use lookup table */
 522:Generated_Source\PSoC4/StripLights.c ****                  StripLights_ledArray[row][col] = (uint8)color;
 523:Generated_Source\PSoC4/StripLights.c ****             #endif
 524:Generated_Source\PSoC4/StripLights.c ****         }
 525:Generated_Source\PSoC4/StripLights.c ****     }
 526:Generated_Source\PSoC4/StripLights.c **** }
 427              		.loc 1 526 0 is_stmt 1
 428              		@ sp needed
 429 0024 10BD     		pop	{r4, pc}
 430              	.L31:
 431 0026 C046     		.align	2
 432              	.L30:
 433 0028 00000000 		.word	StripLights_ledArray
 434              		.cfi_endproc
 435              	.LFE42:
 436              		.size	StripLights_MemClear, .-StripLights_MemClear
 437              		.section	.text.StripLights_DisplayClear,"ax",%progbits
 438              		.align	2
 439              		.global	StripLights_DisplayClear
 440              		.code	16
 441              		.thumb_func
 442              		.type	StripLights_DisplayClear, %function
 443              	StripLights_DisplayClear:
 444              	.LFB41:
 492:Generated_Source\PSoC4/StripLights.c ****     StripLights_MemClear(color);
 445              		.loc 1 492 0
 446              		.cfi_startproc
 447              	.LVL23:
 448 0000 08B5     		push	{r3, lr}
 449              		.cfi_def_cfa_offset 8
 450              		.cfi_offset 3, -8
 451              		.cfi_offset 14, -4
 493:Generated_Source\PSoC4/StripLights.c ****     StripLights_Trigger(1);
 452              		.loc 1 493 0
 453 0002 FFF7FEFF 		bl	StripLights_MemClear
 454              	.LVL24:
 494:Generated_Source\PSoC4/StripLights.c **** }
 455              		.loc 1 494 0
 456 0006 0120     		mov	r0, #1
 457 0008 FFF7FEFF 		bl	StripLights_Trigger
 458              	.LVL25:
 495:Generated_Source\PSoC4/StripLights.c **** 
 459              		.loc 1 495 0
 460              		@ sp needed
 461 000c 08BD     		pop	{r3, pc}
 462              		.cfi_endproc
 463              	.LFE41:
ARM GAS  C:\Users\a85495\AppData\Local\Temp\ccIbMymo.s 			page 19


 464              		.size	StripLights_DisplayClear, .-StripLights_DisplayClear
 465 000e C046     		.section	.text.StripLights_WriteColor,"ax",%progbits
 466              		.align	2
 467              		.global	StripLights_WriteColor
 468              		.code	16
 469              		.thumb_func
 470              		.type	StripLights_WriteColor, %function
 471              	StripLights_WriteColor:
 472              	.LFB43:
 527:Generated_Source\PSoC4/StripLights.c **** 
 528:Generated_Source\PSoC4/StripLights.c **** 
 529:Generated_Source\PSoC4/StripLights.c **** 
 530:Generated_Source\PSoC4/StripLights.c **** /*******************************************************************************
 531:Generated_Source\PSoC4/StripLights.c **** * Function Name: StripLights_WriteColor
 532:Generated_Source\PSoC4/StripLights.c **** ********************************************************************************
 533:Generated_Source\PSoC4/StripLights.c **** * Summary:
 534:Generated_Source\PSoC4/StripLights.c **** *   Write given color directly to output register.
 535:Generated_Source\PSoC4/StripLights.c **** *
 536:Generated_Source\PSoC4/StripLights.c **** * Parameters:  
 537:Generated_Source\PSoC4/StripLights.c **** *  uint32 color: Color to write to display. 
 538:Generated_Source\PSoC4/StripLights.c **** *
 539:Generated_Source\PSoC4/StripLights.c **** * Return: 
 540:Generated_Source\PSoC4/StripLights.c **** *  void
 541:Generated_Source\PSoC4/StripLights.c **** *
 542:Generated_Source\PSoC4/StripLights.c **** *******************************************************************************/
 543:Generated_Source\PSoC4/StripLights.c **** void StripLights_WriteColor(uint32 color)
 544:Generated_Source\PSoC4/StripLights.c **** {
 473              		.loc 1 544 0
 474              		.cfi_startproc
 475              	.LVL26:
 476              	.L34:
 545:Generated_Source\PSoC4/StripLights.c ****     while( (StripLights_STATUS & StripLights_FIFO_EMPTY) == 0); 
 477              		.loc 1 545 0 discriminator 1
 478 0000 074B     		ldr	r3, .L35
 479 0002 1B78     		ldrb	r3, [r3]
 480 0004 DB07     		lsl	r3, r3, #31
 481 0006 FBD5     		bpl	.L34
 546:Generated_Source\PSoC4/StripLights.c **** 
 547:Generated_Source\PSoC4/StripLights.c ****     StripLights_DATA = (uint8)(color & 0x000000FF);  // Write Green
 482              		.loc 1 547 0
 483 0008 C2B2     		uxtb	r2, r0
 484 000a 064B     		ldr	r3, .L35+4
 485 000c 1A70     		strb	r2, [r3]
 548:Generated_Source\PSoC4/StripLights.c ****     color = color >> 8;
 486              		.loc 1 548 0
 487 000e 020A     		lsr	r2, r0, #8
 488              	.LVL27:
 549:Generated_Source\PSoC4/StripLights.c ****     StripLights_DATA = (uint8)(color & 0x000000FF);  // Write Red
 489              		.loc 1 549 0
 490 0010 D2B2     		uxtb	r2, r2
 491              	.LVL28:
 492 0012 1A70     		strb	r2, [r3]
 550:Generated_Source\PSoC4/StripLights.c ****     color = color >> 8;
 493              		.loc 1 550 0
 494 0014 020C     		lsr	r2, r0, #16
 495              	.LVL29:
 551:Generated_Source\PSoC4/StripLights.c ****     StripLights_DATA = (uint8)(color & 0x000000FF);  // Write Blue
ARM GAS  C:\Users\a85495\AppData\Local\Temp\ccIbMymo.s 			page 20


 496              		.loc 1 551 0
 497 0016 D2B2     		uxtb	r2, r2
 498              	.LVL30:
 499 0018 1A70     		strb	r2, [r3]
 500              	.LVL31:
 552:Generated_Source\PSoC4/StripLights.c ****     color = color >> 8;
 553:Generated_Source\PSoC4/StripLights.c ****     StripLights_DATA = (uint8)(color & 0x000000FF);  // Write White
 501              		.loc 1 553 0
 502 001a 000E     		lsr	r0, r0, #24
 503              	.LVL32:
 504 001c 1870     		strb	r0, [r3]
 554:Generated_Source\PSoC4/StripLights.c **** }
 505              		.loc 1 554 0
 506              		@ sp needed
 507 001e 7047     		bx	lr
 508              	.L36:
 509              		.align	2
 510              	.L35:
 511 0020 62000F40 		.word	1074724962
 512 0024 42000F40 		.word	1074724930
 513              		.cfi_endproc
 514              	.LFE43:
 515              		.size	StripLights_WriteColor, .-StripLights_WriteColor
 516              		.section	.text.StripLights_Pixel,"ax",%progbits
 517              		.align	2
 518              		.global	StripLights_Pixel
 519              		.code	16
 520              		.thumb_func
 521              		.type	StripLights_Pixel, %function
 522              	StripLights_Pixel:
 523              	.LFB44:
 555:Generated_Source\PSoC4/StripLights.c **** 
 556:Generated_Source\PSoC4/StripLights.c **** 
 557:Generated_Source\PSoC4/StripLights.c **** /*******************************************************************************
 558:Generated_Source\PSoC4/StripLights.c **** * Function Name: StripLights_Pixel
 559:Generated_Source\PSoC4/StripLights.c **** ********************************************************************************
 560:Generated_Source\PSoC4/StripLights.c **** *
 561:Generated_Source\PSoC4/StripLights.c **** * Summary:
 562:Generated_Source\PSoC4/StripLights.c **** *  Draw Pixel  
 563:Generated_Source\PSoC4/StripLights.c **** *
 564:Generated_Source\PSoC4/StripLights.c **** * Parameters:  
 565:Generated_Source\PSoC4/StripLights.c **** *  x,y:    Location to draw the pixel
 566:Generated_Source\PSoC4/StripLights.c **** *  color:  Color of the pixel
 567:Generated_Source\PSoC4/StripLights.c **** *
 568:Generated_Source\PSoC4/StripLights.c **** * Return: 
 569:Generated_Source\PSoC4/StripLights.c **** *  None 
 570:Generated_Source\PSoC4/StripLights.c **** *******************************************************************************/
 571:Generated_Source\PSoC4/StripLights.c **** void StripLights_Pixel(int32 x, int32 y, uint32 color)
 572:Generated_Source\PSoC4/StripLights.c **** {
 524              		.loc 1 572 0
 525              		.cfi_startproc
 526              	.LVL33:
 573:Generated_Source\PSoC4/StripLights.c **** 
 574:Generated_Source\PSoC4/StripLights.c **** 	if((x >= StripLights_MIN_X) && (y >= StripLights_MIN_Y) && (x <= StripLights_MAX_X) && (y <= Strip
 527              		.loc 1 574 0
 528 0000 0028     		cmp	r0, #0
 529 0002 0CDB     		blt	.L37
ARM GAS  C:\Users\a85495\AppData\Local\Temp\ccIbMymo.s 			page 21


 530              		.loc 1 574 0 is_stmt 0 discriminator 1
 531 0004 0029     		cmp	r1, #0
 532 0006 0ADB     		blt	.L37
 533              		.loc 1 574 0 discriminator 2
 534 0008 8F28     		cmp	r0, #143
 535 000a 08DC     		bgt	.L37
 536              		.loc 1 574 0 discriminator 3
 537 000c 0029     		cmp	r1, #0
 538 000e 06DC     		bgt	.L37
 575:Generated_Source\PSoC4/StripLights.c ****     {
 576:Generated_Source\PSoC4/StripLights.c **** 
 577:Generated_Source\PSoC4/StripLights.c ****     #if(StripLights_MEMORY_TYPE == StripLights_MEMORY_RGB)
 578:Generated_Source\PSoC4/StripLights.c ****        StripLights_ledArray[y][x] = color;
 539              		.loc 1 578 0 is_stmt 1
 540 0010 CB00     		lsl	r3, r1, #3
 541 0012 5918     		add	r1, r3, r1
 542              	.LVL34:
 543 0014 0901     		lsl	r1, r1, #4
 544 0016 0818     		add	r0, r1, r0
 545              	.LVL35:
 546 0018 8000     		lsl	r0, r0, #2
 547 001a 014B     		ldr	r3, .L39
 548 001c C250     		str	r2, [r0, r3]
 549              	.L37:
 579:Generated_Source\PSoC4/StripLights.c ****     #else  /* Else use lookup table */
 580:Generated_Source\PSoC4/StripLights.c ****        StripLights_ledArray[y][x] = (uint8)color;
 581:Generated_Source\PSoC4/StripLights.c ****     #endif
 582:Generated_Source\PSoC4/StripLights.c ****     }
 583:Generated_Source\PSoC4/StripLights.c ****   
 584:Generated_Source\PSoC4/StripLights.c **** }
 550              		.loc 1 584 0
 551              		@ sp needed
 552 001e 7047     		bx	lr
 553              	.L40:
 554              		.align	2
 555              	.L39:
 556 0020 00000000 		.word	StripLights_ledArray
 557              		.cfi_endproc
 558              	.LFE44:
 559              		.size	StripLights_Pixel, .-StripLights_Pixel
 560              		.section	.text.StripLights_GetPixel,"ax",%progbits
 561              		.align	2
 562              		.global	StripLights_GetPixel
 563              		.code	16
 564              		.thumb_func
 565              		.type	StripLights_GetPixel, %function
 566              	StripLights_GetPixel:
 567              	.LFB45:
 585:Generated_Source\PSoC4/StripLights.c **** 
 586:Generated_Source\PSoC4/StripLights.c **** /*******************************************************************************
 587:Generated_Source\PSoC4/StripLights.c **** * Function Name: StripLights_GetPixel
 588:Generated_Source\PSoC4/StripLights.c **** ********************************************************************************
 589:Generated_Source\PSoC4/StripLights.c **** *
 590:Generated_Source\PSoC4/StripLights.c **** * Summary:
 591:Generated_Source\PSoC4/StripLights.c **** *  Get Pixel Color  
 592:Generated_Source\PSoC4/StripLights.c **** *
 593:Generated_Source\PSoC4/StripLights.c **** * Parameters:  
ARM GAS  C:\Users\a85495\AppData\Local\Temp\ccIbMymo.s 			page 22


 594:Generated_Source\PSoC4/StripLights.c **** *  x,y:    Location to get pixel color
 595:Generated_Source\PSoC4/StripLights.c **** *
 596:Generated_Source\PSoC4/StripLights.c **** * Return: 
 597:Generated_Source\PSoC4/StripLights.c **** *  None 
 598:Generated_Source\PSoC4/StripLights.c **** *******************************************************************************/
 599:Generated_Source\PSoC4/StripLights.c **** uint32 StripLights_GetPixel(int32 x, int32 y)
 600:Generated_Source\PSoC4/StripLights.c **** {
 568              		.loc 1 600 0
 569              		.cfi_startproc
 570              	.LVL36:
 601:Generated_Source\PSoC4/StripLights.c ****     uint32 color;
 602:Generated_Source\PSoC4/StripLights.c ****     if((x>=0) && (y>=0) && (x < StripLights_ARRAY_COLS) && (y < StripLights_ARRAY_ROWS))
 571              		.loc 1 602 0
 572 0000 0028     		cmp	r0, #0
 573 0002 0CDB     		blt	.L42
 574              		.loc 1 602 0 is_stmt 0 discriminator 1
 575 0004 0029     		cmp	r1, #0
 576 0006 0ADB     		blt	.L42
 577              		.loc 1 602 0 discriminator 2
 578 0008 8F28     		cmp	r0, #143
 579 000a 08DC     		bgt	.L42
 580              		.loc 1 602 0 discriminator 3
 581 000c 0029     		cmp	r1, #0
 582 000e 06DC     		bgt	.L42
 603:Generated_Source\PSoC4/StripLights.c ****     {
 604:Generated_Source\PSoC4/StripLights.c ****     #if(StripLights_MEMORY_TYPE == StripLights_MEMORY_RGB)
 605:Generated_Source\PSoC4/StripLights.c ****        color = StripLights_ledArray[y][x];
 583              		.loc 1 605 0 is_stmt 1
 584 0010 CB00     		lsl	r3, r1, #3
 585 0012 5918     		add	r1, r3, r1
 586              	.LVL37:
 587 0014 0901     		lsl	r1, r1, #4
 588 0016 0818     		add	r0, r1, r0
 589              	.LVL38:
 590 0018 8000     		lsl	r0, r0, #2
 591 001a 024B     		ldr	r3, .L43
 592 001c C358     		ldr	r3, [r0, r3]
 593              	.LVL39:
 594              	.L42:
 606:Generated_Source\PSoC4/StripLights.c ****     #else  /* Else use lookup table */
 607:Generated_Source\PSoC4/StripLights.c ****        color = (uint32)StripLights_ledArray[y][x];
 608:Generated_Source\PSoC4/StripLights.c ****     #endif
 609:Generated_Source\PSoC4/StripLights.c ****     }
 610:Generated_Source\PSoC4/StripLights.c ****     return(color);
 611:Generated_Source\PSoC4/StripLights.c **** }
 595              		.loc 1 611 0
 596 001e 181C     		mov	r0, r3
 597              		@ sp needed
 598 0020 7047     		bx	lr
 599              	.L44:
 600 0022 C046     		.align	2
 601              	.L43:
 602 0024 00000000 		.word	StripLights_ledArray
 603              		.cfi_endproc
 604              	.LFE45:
 605              		.size	StripLights_GetPixel, .-StripLights_GetPixel
 606              		.section	.text.StripLights_DrawCircle,"ax",%progbits
ARM GAS  C:\Users\a85495\AppData\Local\Temp\ccIbMymo.s 			page 23


 607              		.align	2
 608              		.global	StripLights_DrawCircle
 609              		.code	16
 610              		.thumb_func
 611              		.type	StripLights_DrawCircle, %function
 612              	StripLights_DrawCircle:
 613              	.LFB46:
 612:Generated_Source\PSoC4/StripLights.c **** 
 613:Generated_Source\PSoC4/StripLights.c **** /*******************************************************************************
 614:Generated_Source\PSoC4/StripLights.c **** * Function Name: StripLights_DrawCircle
 615:Generated_Source\PSoC4/StripLights.c **** ********************************************************************************
 616:Generated_Source\PSoC4/StripLights.c **** *
 617:Generated_Source\PSoC4/StripLights.c **** * Summary:
 618:Generated_Source\PSoC4/StripLights.c **** *  Draw a circle on the display given a start point and radius.  
 619:Generated_Source\PSoC4/StripLights.c **** *
 620:Generated_Source\PSoC4/StripLights.c **** *  This code uses Bresenham's Circle Algorithm. 
 621:Generated_Source\PSoC4/StripLights.c **** *
 622:Generated_Source\PSoC4/StripLights.c **** * Parameters:  
 623:Generated_Source\PSoC4/StripLights.c **** *  x0, y0: Center of circle
 624:Generated_Source\PSoC4/StripLights.c **** *  radius: Radius of circle
 625:Generated_Source\PSoC4/StripLights.c **** *  color:  Color of circle
 626:Generated_Source\PSoC4/StripLights.c **** *
 627:Generated_Source\PSoC4/StripLights.c **** * Return: 
 628:Generated_Source\PSoC4/StripLights.c **** *  None 
 629:Generated_Source\PSoC4/StripLights.c **** *  
 630:Generated_Source\PSoC4/StripLights.c **** *******************************************************************************/
 631:Generated_Source\PSoC4/StripLights.c **** void StripLights_DrawCircle (int32 x0, int32 y0, int32 radius, uint32 color)
 632:Generated_Source\PSoC4/StripLights.c **** {
 614              		.loc 1 632 0
 615              		.cfi_startproc
 616              	.LVL40:
 617 0000 F0B5     		push	{r4, r5, r6, r7, lr}
 618              		.cfi_def_cfa_offset 20
 619              		.cfi_offset 4, -20
 620              		.cfi_offset 5, -16
 621              		.cfi_offset 6, -12
 622              		.cfi_offset 7, -8
 623              		.cfi_offset 14, -4
 624 0002 5F46     		mov	r7, fp
 625 0004 5646     		mov	r6, r10
 626 0006 4D46     		mov	r5, r9
 627 0008 4446     		mov	r4, r8
 628 000a F0B4     		push	{r4, r5, r6, r7}
 629              		.cfi_def_cfa_offset 36
 630              		.cfi_offset 8, -36
 631              		.cfi_offset 9, -32
 632              		.cfi_offset 10, -28
 633              		.cfi_offset 11, -24
 634 000c 85B0     		sub	sp, sp, #20
 635              		.cfi_def_cfa_offset 56
 636 000e 8146     		mov	r9, r0
 637 0010 8846     		mov	r8, r1
 638 0012 141C     		mov	r4, r2
 639 0014 1D1C     		mov	r5, r3
 640 0016 0193     		str	r3, [sp, #4]
 633:Generated_Source\PSoC4/StripLights.c **** 	int32 f = 1 - radius;
 641              		.loc 1 633 0
ARM GAS  C:\Users\a85495\AppData\Local\Temp\ccIbMymo.s 			page 24


 642 0018 0126     		mov	r6, #1
 643 001a B61A     		sub	r6, r6, r2
 644              	.LVL41:
 634:Generated_Source\PSoC4/StripLights.c **** 	int32 ddF_x = 0;
 635:Generated_Source\PSoC4/StripLights.c **** 	int32 ddF_y = -2 * radius;
 645              		.loc 1 635 0
 646 001c 5300     		lsl	r3, r2, #1
 647              	.LVL42:
 648 001e 5B42     		neg	r3, r3
 649 0020 9A46     		mov	r10, r3
 650              	.LVL43:
 636:Generated_Source\PSoC4/StripLights.c **** 	int32 x = 0;
 637:Generated_Source\PSoC4/StripLights.c **** 	int32 y = radius;
 638:Generated_Source\PSoC4/StripLights.c **** 
 639:Generated_Source\PSoC4/StripLights.c **** 	StripLights_Pixel(x0, y0 + radius, color);
 651              		.loc 1 639 0
 652 0022 8918     		add	r1, r1, r2
 653              	.LVL44:
 654 0024 2A1C     		mov	r2, r5
 655              	.LVL45:
 656 0026 FFF7FEFF 		bl	StripLights_Pixel
 657              	.LVL46:
 640:Generated_Source\PSoC4/StripLights.c **** 	StripLights_Pixel(x0, y0 - radius, color);
 658              		.loc 1 640 0
 659 002a 4346     		mov	r3, r8
 660 002c 191B     		sub	r1, r3, r4
 661 002e 4846     		mov	r0, r9
 662 0030 2A1C     		mov	r2, r5
 663 0032 FFF7FEFF 		bl	StripLights_Pixel
 664              	.LVL47:
 641:Generated_Source\PSoC4/StripLights.c **** 	StripLights_Pixel( x0 + radius, y0, color);
 665              		.loc 1 641 0
 666 0036 4B46     		mov	r3, r9
 667 0038 1819     		add	r0, r3, r4
 668 003a 4146     		mov	r1, r8
 669 003c 2A1C     		mov	r2, r5
 670 003e FFF7FEFF 		bl	StripLights_Pixel
 671              	.LVL48:
 642:Generated_Source\PSoC4/StripLights.c **** 	StripLights_Pixel( x0 - radius, y0, color);
 672              		.loc 1 642 0
 673 0042 4B46     		mov	r3, r9
 674 0044 181B     		sub	r0, r3, r4
 675 0046 4146     		mov	r1, r8
 676 0048 2A1C     		mov	r2, r5
 677 004a FFF7FEFF 		bl	StripLights_Pixel
 678              	.LVL49:
 636:Generated_Source\PSoC4/StripLights.c **** 	int32 y = radius;
 679              		.loc 1 636 0
 680 004e 0025     		mov	r5, #0
 681              	.LVL50:
 634:Generated_Source\PSoC4/StripLights.c **** 	int32 ddF_y = -2 * radius;
 682              		.loc 1 634 0
 683 0050 0023     		mov	r3, #0
 643:Generated_Source\PSoC4/StripLights.c **** 
 644:Generated_Source\PSoC4/StripLights.c **** 	while(x < y)
 684              		.loc 1 644 0
 685 0052 49E0     		b	.L46
ARM GAS  C:\Users\a85495\AppData\Local\Temp\ccIbMymo.s 			page 25


 686              	.LVL51:
 687              	.L48:
 645:Generated_Source\PSoC4/StripLights.c **** 	{
 646:Generated_Source\PSoC4/StripLights.c **** 		if(f >= 0)
 688              		.loc 1 646 0
 689 0054 002E     		cmp	r6, #0
 690 0056 04DB     		blt	.L47
 647:Generated_Source\PSoC4/StripLights.c **** 		{
 648:Generated_Source\PSoC4/StripLights.c **** 			y--;
 691              		.loc 1 648 0
 692 0058 013C     		sub	r4, r4, #1
 693              	.LVL52:
 649:Generated_Source\PSoC4/StripLights.c **** 			ddF_y += 2;
 694              		.loc 1 649 0
 695 005a 0222     		mov	r2, #2
 696 005c 9446     		mov	ip, r2
 697 005e E244     		add	r10, r10, ip
 698              	.LVL53:
 650:Generated_Source\PSoC4/StripLights.c **** 			f += ddF_y;
 699              		.loc 1 650 0
 700 0060 5644     		add	r6, r6, r10
 701              	.LVL54:
 702              	.L47:
 651:Generated_Source\PSoC4/StripLights.c **** 		}
 652:Generated_Source\PSoC4/StripLights.c **** 		x++;
 703              		.loc 1 652 0
 704 0062 0135     		add	r5, r5, #1
 705              	.LVL55:
 653:Generated_Source\PSoC4/StripLights.c **** 		ddF_x += 2;
 706              		.loc 1 653 0
 707 0064 9A1C     		add	r2, r3, #2
 708 0066 9346     		mov	fp, r2
 709              	.LVL56:
 654:Generated_Source\PSoC4/StripLights.c **** 		f += ddF_x + 1;
 710              		.loc 1 654 0
 711 0068 0333     		add	r3, r3, #3
 712 006a F618     		add	r6, r6, r3
 713              	.LVL57:
 655:Generated_Source\PSoC4/StripLights.c **** 
 656:Generated_Source\PSoC4/StripLights.c **** 		StripLights_Pixel(x0 + x, y0 + y, color);
 714              		.loc 1 656 0
 715 006c 4B46     		mov	r3, r9
 716 006e 5F19     		add	r7, r3, r5
 717 0070 4346     		mov	r3, r8
 718 0072 1B19     		add	r3, r3, r4
 719 0074 381C     		mov	r0, r7
 720 0076 0293     		str	r3, [sp, #8]
 721 0078 191C     		mov	r1, r3
 722 007a 019A     		ldr	r2, [sp, #4]
 723              	.LVL58:
 724 007c FFF7FEFF 		bl	StripLights_Pixel
 725              	.LVL59:
 657:Generated_Source\PSoC4/StripLights.c **** 		StripLights_Pixel(x0 - x, y0 + y, color);
 726              		.loc 1 657 0
 727 0080 4A46     		mov	r2, r9
 728 0082 531B     		sub	r3, r2, r5
 729 0084 0393     		str	r3, [sp, #12]
ARM GAS  C:\Users\a85495\AppData\Local\Temp\ccIbMymo.s 			page 26


 730 0086 181C     		mov	r0, r3
 731 0088 0299     		ldr	r1, [sp, #8]
 732 008a 019A     		ldr	r2, [sp, #4]
 733 008c FFF7FEFF 		bl	StripLights_Pixel
 734              	.LVL60:
 658:Generated_Source\PSoC4/StripLights.c **** 		StripLights_Pixel( x0 + x, y0 - y, color);
 735              		.loc 1 658 0
 736 0090 4246     		mov	r2, r8
 737 0092 131B     		sub	r3, r2, r4
 738 0094 381C     		mov	r0, r7
 739 0096 1F1C     		mov	r7, r3
 740 0098 191C     		mov	r1, r3
 741 009a 019A     		ldr	r2, [sp, #4]
 742 009c FFF7FEFF 		bl	StripLights_Pixel
 743              	.LVL61:
 659:Generated_Source\PSoC4/StripLights.c **** 		StripLights_Pixel( x0 - x, y0 - y, color);
 744              		.loc 1 659 0
 745 00a0 0398     		ldr	r0, [sp, #12]
 746 00a2 391C     		mov	r1, r7
 747 00a4 019A     		ldr	r2, [sp, #4]
 748 00a6 FFF7FEFF 		bl	StripLights_Pixel
 749              	.LVL62:
 660:Generated_Source\PSoC4/StripLights.c **** 		StripLights_Pixel( x0 + y, y0 + x, color);
 750              		.loc 1 660 0
 751 00aa 4B46     		mov	r3, r9
 752 00ac 1B19     		add	r3, r3, r4
 753 00ae 4246     		mov	r2, r8
 754 00b0 5719     		add	r7, r2, r5
 755 00b2 0293     		str	r3, [sp, #8]
 756 00b4 181C     		mov	r0, r3
 757 00b6 391C     		mov	r1, r7
 758 00b8 019A     		ldr	r2, [sp, #4]
 759 00ba FFF7FEFF 		bl	StripLights_Pixel
 760              	.LVL63:
 661:Generated_Source\PSoC4/StripLights.c **** 		StripLights_Pixel( x0 - y, y0 + x, color);
 761              		.loc 1 661 0
 762 00be 4A46     		mov	r2, r9
 763 00c0 131B     		sub	r3, r2, r4
 764 00c2 0393     		str	r3, [sp, #12]
 765 00c4 181C     		mov	r0, r3
 766 00c6 391C     		mov	r1, r7
 767 00c8 019A     		ldr	r2, [sp, #4]
 768 00ca FFF7FEFF 		bl	StripLights_Pixel
 769              	.LVL64:
 662:Generated_Source\PSoC4/StripLights.c **** 		StripLights_Pixel( x0 + y, y0 - x, color);
 770              		.loc 1 662 0
 771 00ce 4246     		mov	r2, r8
 772 00d0 571B     		sub	r7, r2, r5
 773 00d2 0298     		ldr	r0, [sp, #8]
 774 00d4 391C     		mov	r1, r7
 775 00d6 019A     		ldr	r2, [sp, #4]
 776 00d8 FFF7FEFF 		bl	StripLights_Pixel
 777              	.LVL65:
 663:Generated_Source\PSoC4/StripLights.c **** 		StripLights_Pixel( x0 - y, y0 - x, color);
 778              		.loc 1 663 0
 779 00dc 0398     		ldr	r0, [sp, #12]
 780 00de 391C     		mov	r1, r7
ARM GAS  C:\Users\a85495\AppData\Local\Temp\ccIbMymo.s 			page 27


 781 00e0 019A     		ldr	r2, [sp, #4]
 782 00e2 FFF7FEFF 		bl	StripLights_Pixel
 783              	.LVL66:
 653:Generated_Source\PSoC4/StripLights.c **** 		f += ddF_x + 1;
 784              		.loc 1 653 0
 785 00e6 5B46     		mov	r3, fp
 786              	.LVL67:
 787              	.L46:
 644:Generated_Source\PSoC4/StripLights.c **** 	{
 788              		.loc 1 644 0
 789 00e8 A542     		cmp	r5, r4
 790 00ea B3DB     		blt	.L48
 664:Generated_Source\PSoC4/StripLights.c **** 	}
 665:Generated_Source\PSoC4/StripLights.c **** }
 791              		.loc 1 665 0
 792 00ec 05B0     		add	sp, sp, #20
 793              		@ sp needed
 794              	.LVL68:
 795              	.LVL69:
 796              	.LVL70:
 797              	.LVL71:
 798              	.LVL72:
 799              	.LVL73:
 800 00ee 3CBC     		pop	{r2, r3, r4, r5}
 801 00f0 9046     		mov	r8, r2
 802 00f2 9946     		mov	r9, r3
 803 00f4 A246     		mov	r10, r4
 804 00f6 AB46     		mov	fp, r5
 805 00f8 F0BD     		pop	{r4, r5, r6, r7, pc}
 806              		.cfi_endproc
 807              	.LFE46:
 808              		.size	StripLights_DrawCircle, .-StripLights_DrawCircle
 809 00fa C046     		.section	.text.StripLights_DrawLine,"ax",%progbits
 810              		.align	2
 811              		.global	StripLights_DrawLine
 812              		.code	16
 813              		.thumb_func
 814              		.type	StripLights_DrawLine, %function
 815              	StripLights_DrawLine:
 816              	.LFB47:
 666:Generated_Source\PSoC4/StripLights.c **** 
 667:Generated_Source\PSoC4/StripLights.c **** 
 668:Generated_Source\PSoC4/StripLights.c **** /*******************************************************************************
 669:Generated_Source\PSoC4/StripLights.c **** * Function Name: StripLights_DrawLine
 670:Generated_Source\PSoC4/StripLights.c **** ********************************************************************************
 671:Generated_Source\PSoC4/StripLights.c **** *
 672:Generated_Source\PSoC4/StripLights.c **** * Summary:
 673:Generated_Source\PSoC4/StripLights.c **** *  Draw a line on the display.  
 674:Generated_Source\PSoC4/StripLights.c **** *
 675:Generated_Source\PSoC4/StripLights.c **** * Parameters:  
 676:Generated_Source\PSoC4/StripLights.c **** *  x0, y0:  The beginning endpoint
 677:Generated_Source\PSoC4/StripLights.c **** *  x1, y1:  The end endpoint.
 678:Generated_Source\PSoC4/StripLights.c **** *  color:   Color of the line.
 679:Generated_Source\PSoC4/StripLights.c **** *
 680:Generated_Source\PSoC4/StripLights.c **** * Return: 
 681:Generated_Source\PSoC4/StripLights.c **** *  None 
 682:Generated_Source\PSoC4/StripLights.c **** *  
ARM GAS  C:\Users\a85495\AppData\Local\Temp\ccIbMymo.s 			page 28


 683:Generated_Source\PSoC4/StripLights.c **** *******************************************************************************/
 684:Generated_Source\PSoC4/StripLights.c **** void StripLights_DrawLine(int32 x0, int32 y0, int32 x1, int32 y1, uint32 color)
 685:Generated_Source\PSoC4/StripLights.c **** {
 817              		.loc 1 685 0
 818              		.cfi_startproc
 819              	.LVL74:
 820 0000 F0B5     		push	{r4, r5, r6, r7, lr}
 821              		.cfi_def_cfa_offset 20
 822              		.cfi_offset 4, -20
 823              		.cfi_offset 5, -16
 824              		.cfi_offset 6, -12
 825              		.cfi_offset 7, -8
 826              		.cfi_offset 14, -4
 827 0002 5F46     		mov	r7, fp
 828 0004 5646     		mov	r6, r10
 829 0006 4D46     		mov	r5, r9
 830 0008 4446     		mov	r4, r8
 831 000a F0B4     		push	{r4, r5, r6, r7}
 832              		.cfi_def_cfa_offset 36
 833              		.cfi_offset 8, -36
 834              		.cfi_offset 9, -32
 835              		.cfi_offset 10, -28
 836              		.cfi_offset 11, -24
 837 000c 83B0     		sub	sp, sp, #12
 838              		.cfi_def_cfa_offset 48
 839 000e 041C     		mov	r4, r0
 840 0010 0D1C     		mov	r5, r1
 841 0012 0192     		str	r2, [sp, #4]
 842 0014 9B46     		mov	fp, r3
 686:Generated_Source\PSoC4/StripLights.c **** 	int32 dy = y1 - y0; /* Difference between y0 and y1 */
 843              		.loc 1 686 0
 844 0016 5B1A     		sub	r3, r3, r1
 845              	.LVL75:
 687:Generated_Source\PSoC4/StripLights.c **** 	int32 dx = x1 - x0; /* Difference between x0 and x1 */
 846              		.loc 1 687 0
 847 0018 171A     		sub	r7, r2, r0
 848              	.LVL76:
 688:Generated_Source\PSoC4/StripLights.c **** 	int32 stepx, stepy;
 689:Generated_Source\PSoC4/StripLights.c **** 
 690:Generated_Source\PSoC4/StripLights.c **** 	if (dy < 0)
 849              		.loc 1 690 0
 850 001a 002B     		cmp	r3, #0
 851 001c 04DA     		bge	.L60
 691:Generated_Source\PSoC4/StripLights.c **** 	{
 692:Generated_Source\PSoC4/StripLights.c **** 		dy = -dy;
 852              		.loc 1 692 0
 853 001e 5B42     		neg	r3, r3
 854              	.LVL77:
 693:Generated_Source\PSoC4/StripLights.c **** 		stepy = -1;
 855              		.loc 1 693 0
 856 0020 0122     		mov	r2, #1
 857              	.LVL78:
 858 0022 5242     		neg	r2, r2
 859 0024 9246     		mov	r10, r2
 860 0026 01E0     		b	.L50
 861              	.LVL79:
 862              	.L60:
ARM GAS  C:\Users\a85495\AppData\Local\Temp\ccIbMymo.s 			page 29


 694:Generated_Source\PSoC4/StripLights.c **** 	}
 695:Generated_Source\PSoC4/StripLights.c **** 	else
 696:Generated_Source\PSoC4/StripLights.c **** 	{
 697:Generated_Source\PSoC4/StripLights.c **** 		stepy = 1;
 863              		.loc 1 697 0
 864 0028 0122     		mov	r2, #1
 865              	.LVL80:
 866 002a 9246     		mov	r10, r2
 867              	.L50:
 868              	.LVL81:
 698:Generated_Source\PSoC4/StripLights.c **** 	}
 699:Generated_Source\PSoC4/StripLights.c **** 
 700:Generated_Source\PSoC4/StripLights.c **** 	if (dx < 0)
 869              		.loc 1 700 0
 870 002c 002F     		cmp	r7, #0
 871 002e 04DA     		bge	.L61
 701:Generated_Source\PSoC4/StripLights.c **** 	{
 702:Generated_Source\PSoC4/StripLights.c **** 		dx = -dx;
 872              		.loc 1 702 0
 873 0030 7F42     		neg	r7, r7
 874              	.LVL82:
 703:Generated_Source\PSoC4/StripLights.c **** 		stepx = -1;
 875              		.loc 1 703 0
 876 0032 0122     		mov	r2, #1
 877 0034 5242     		neg	r2, r2
 878 0036 9146     		mov	r9, r2
 879 0038 01E0     		b	.L51
 880              	.LVL83:
 881              	.L61:
 704:Generated_Source\PSoC4/StripLights.c **** 	}
 705:Generated_Source\PSoC4/StripLights.c **** 	else
 706:Generated_Source\PSoC4/StripLights.c **** 	{
 707:Generated_Source\PSoC4/StripLights.c **** 		stepx = 1;
 882              		.loc 1 707 0
 883 003a 0122     		mov	r2, #1
 884 003c 9146     		mov	r9, r2
 885              	.L51:
 886              	.LVL84:
 708:Generated_Source\PSoC4/StripLights.c **** 	}
 709:Generated_Source\PSoC4/StripLights.c **** 
 710:Generated_Source\PSoC4/StripLights.c **** 	dy <<= 1; /* dy is now 2*dy  */
 887              		.loc 1 710 0
 888 003e 5B00     		lsl	r3, r3, #1
 889              	.LVL85:
 890 0040 9846     		mov	r8, r3
 891              	.LVL86:
 711:Generated_Source\PSoC4/StripLights.c **** 	dx <<= 1; /* dx is now 2*dx  */
 892              		.loc 1 711 0
 893 0042 7F00     		lsl	r7, r7, #1
 894              	.LVL87:
 712:Generated_Source\PSoC4/StripLights.c **** 	StripLights_Pixel(x0, y0, color);
 895              		.loc 1 712 0
 896 0044 201C     		mov	r0, r4
 897              	.LVL88:
 898 0046 291C     		mov	r1, r5
 899              	.LVL89:
 900 0048 0C9A     		ldr	r2, [sp, #48]
ARM GAS  C:\Users\a85495\AppData\Local\Temp\ccIbMymo.s 			page 30


 901 004a FFF7FEFF 		bl	StripLights_Pixel
 902              	.LVL90:
 713:Generated_Source\PSoC4/StripLights.c **** 
 714:Generated_Source\PSoC4/StripLights.c **** 	if (dx > dy) 
 903              		.loc 1 714 0
 904 004e 4745     		cmp	r7, r8
 905 0050 12DD     		ble	.L52
 906              	.LBB2:
 715:Generated_Source\PSoC4/StripLights.c **** 	{
 716:Generated_Source\PSoC4/StripLights.c **** 		int fraction = dy - (dx >> 1);
 907              		.loc 1 716 0
 908 0052 7B10     		asr	r3, r7, #1
 909 0054 4246     		mov	r2, r8
 910 0056 D61A     		sub	r6, r2, r3
 911              	.LVL91:
 717:Generated_Source\PSoC4/StripLights.c **** 		while (x0 != x1)
 912              		.loc 1 717 0
 913 0058 0AE0     		b	.L53
 914              	.L55:
 718:Generated_Source\PSoC4/StripLights.c **** 		{
 719:Generated_Source\PSoC4/StripLights.c **** 			if (fraction >= 0)
 915              		.loc 1 719 0
 916 005a 002E     		cmp	r6, #0
 917 005c 01DB     		blt	.L54
 720:Generated_Source\PSoC4/StripLights.c **** 			{
 721:Generated_Source\PSoC4/StripLights.c **** 				y0 += stepy;
 918              		.loc 1 721 0
 919 005e 5544     		add	r5, r5, r10
 920              	.LVL92:
 722:Generated_Source\PSoC4/StripLights.c **** 				fraction -= dx;
 921              		.loc 1 722 0
 922 0060 F61B     		sub	r6, r6, r7
 923              	.LVL93:
 924              	.L54:
 723:Generated_Source\PSoC4/StripLights.c **** 			}
 724:Generated_Source\PSoC4/StripLights.c **** 			x0 += stepx;
 925              		.loc 1 724 0
 926 0062 4C44     		add	r4, r4, r9
 927              	.LVL94:
 725:Generated_Source\PSoC4/StripLights.c **** 			fraction += dy;
 928              		.loc 1 725 0
 929 0064 4644     		add	r6, r6, r8
 930              	.LVL95:
 726:Generated_Source\PSoC4/StripLights.c **** 			StripLights_Pixel(x0, y0, color);
 931              		.loc 1 726 0
 932 0066 201C     		mov	r0, r4
 933 0068 291C     		mov	r1, r5
 934 006a 0C9A     		ldr	r2, [sp, #48]
 935 006c FFF7FEFF 		bl	StripLights_Pixel
 936              	.LVL96:
 937              	.L53:
 717:Generated_Source\PSoC4/StripLights.c **** 		{
 938              		.loc 1 717 0
 939 0070 019B     		ldr	r3, [sp, #4]
 940 0072 9C42     		cmp	r4, r3
 941 0074 F1D1     		bne	.L55
 942 0076 11E0     		b	.L49
ARM GAS  C:\Users\a85495\AppData\Local\Temp\ccIbMymo.s 			page 31


 943              	.LVL97:
 944              	.L52:
 945              	.LBE2:
 946              	.LBB3:
 727:Generated_Source\PSoC4/StripLights.c **** 		}
 728:Generated_Source\PSoC4/StripLights.c **** 	}
 729:Generated_Source\PSoC4/StripLights.c **** 	else
 730:Generated_Source\PSoC4/StripLights.c **** 	{
 731:Generated_Source\PSoC4/StripLights.c **** 		int fraction = dx - (dy >> 1);
 947              		.loc 1 731 0
 948 0078 4346     		mov	r3, r8
 949 007a 5E10     		asr	r6, r3, #1
 950 007c BE1B     		sub	r6, r7, r6
 951              	.LVL98:
 732:Generated_Source\PSoC4/StripLights.c **** 		while (y0 != y1)
 952              		.loc 1 732 0
 953 007e 0BE0     		b	.L57
 954              	.L59:
 733:Generated_Source\PSoC4/StripLights.c **** 		{
 734:Generated_Source\PSoC4/StripLights.c **** 			if (fraction >= 0)
 955              		.loc 1 734 0
 956 0080 002E     		cmp	r6, #0
 957 0082 02DB     		blt	.L58
 735:Generated_Source\PSoC4/StripLights.c **** 			{
 736:Generated_Source\PSoC4/StripLights.c **** 				x0 += stepx;
 958              		.loc 1 736 0
 959 0084 4C44     		add	r4, r4, r9
 960              	.LVL99:
 737:Generated_Source\PSoC4/StripLights.c **** 				fraction -= dy;
 961              		.loc 1 737 0
 962 0086 4346     		mov	r3, r8
 963 0088 F61A     		sub	r6, r6, r3
 964              	.LVL100:
 965              	.L58:
 738:Generated_Source\PSoC4/StripLights.c **** 			}
 739:Generated_Source\PSoC4/StripLights.c **** 			y0 += stepy;
 966              		.loc 1 739 0
 967 008a 5544     		add	r5, r5, r10
 968              	.LVL101:
 740:Generated_Source\PSoC4/StripLights.c **** 			fraction += dx;
 969              		.loc 1 740 0
 970 008c F619     		add	r6, r6, r7
 971              	.LVL102:
 741:Generated_Source\PSoC4/StripLights.c **** 			StripLights_Pixel( x0, y0, color);
 972              		.loc 1 741 0
 973 008e 201C     		mov	r0, r4
 974 0090 291C     		mov	r1, r5
 975 0092 0C9A     		ldr	r2, [sp, #48]
 976 0094 FFF7FEFF 		bl	StripLights_Pixel
 977              	.LVL103:
 978              	.L57:
 732:Generated_Source\PSoC4/StripLights.c **** 		{
 979              		.loc 1 732 0
 980 0098 5D45     		cmp	r5, fp
 981 009a F1D1     		bne	.L59
 982              	.LVL104:
 983              	.L49:
ARM GAS  C:\Users\a85495\AppData\Local\Temp\ccIbMymo.s 			page 32


 984              	.LBE3:
 742:Generated_Source\PSoC4/StripLights.c **** 		}
 743:Generated_Source\PSoC4/StripLights.c **** 	}
 744:Generated_Source\PSoC4/StripLights.c **** }
 985              		.loc 1 744 0
 986 009c 03B0     		add	sp, sp, #12
 987              		@ sp needed
 988              	.LVL105:
 989              	.LVL106:
 990              	.LVL107:
 991              	.LVL108:
 992              	.LVL109:
 993              	.LVL110:
 994              	.LVL111:
 995 009e 3CBC     		pop	{r2, r3, r4, r5}
 996 00a0 9046     		mov	r8, r2
 997 00a2 9946     		mov	r9, r3
 998 00a4 A246     		mov	r10, r4
 999 00a6 AB46     		mov	fp, r5
 1000 00a8 F0BD     		pop	{r4, r5, r6, r7, pc}
 1001              		.cfi_endproc
 1002              	.LFE47:
 1003              		.size	StripLights_DrawLine, .-StripLights_DrawLine
 1004 00aa C046     		.section	.text.StripLights_DrawRect,"ax",%progbits
 1005              		.align	2
 1006              		.global	StripLights_DrawRect
 1007              		.code	16
 1008              		.thumb_func
 1009              		.type	StripLights_DrawRect, %function
 1010              	StripLights_DrawRect:
 1011              	.LFB48:
 745:Generated_Source\PSoC4/StripLights.c **** 
 746:Generated_Source\PSoC4/StripLights.c **** /*******************************************************************************
 747:Generated_Source\PSoC4/StripLights.c **** * Function Name: StripLights_DrawRect
 748:Generated_Source\PSoC4/StripLights.c **** ********************************************************************************
 749:Generated_Source\PSoC4/StripLights.c **** *
 750:Generated_Source\PSoC4/StripLights.c **** * Summary:
 751:Generated_Source\PSoC4/StripLights.c **** *  Draw a rectangle, filled or not.  
 752:Generated_Source\PSoC4/StripLights.c **** *
 753:Generated_Source\PSoC4/StripLights.c **** * Parameters:  
 754:Generated_Source\PSoC4/StripLights.c **** *  x0, y0:  The upper lefthand corner.
 755:Generated_Source\PSoC4/StripLights.c **** *  x1, y1:  The lower right corner.
 756:Generated_Source\PSoC4/StripLights.c **** *  fill:    Non-Zero if retangle is to be filled.
 757:Generated_Source\PSoC4/StripLights.c **** *  color:   Color for rectangle, border and fill.
 758:Generated_Source\PSoC4/StripLights.c **** *
 759:Generated_Source\PSoC4/StripLights.c **** * Return: 
 760:Generated_Source\PSoC4/StripLights.c **** *  None 
 761:Generated_Source\PSoC4/StripLights.c **** *  
 762:Generated_Source\PSoC4/StripLights.c **** *******************************************************************************/
 763:Generated_Source\PSoC4/StripLights.c **** void StripLights_DrawRect(int32 x0, int32 y0, int32 x1, int32 y1, int32 fill, uint32 color)
 764:Generated_Source\PSoC4/StripLights.c **** {	
 1012              		.loc 1 764 0
 1013              		.cfi_startproc
 1014              	.LVL112:
 1015 0000 F0B5     		push	{r4, r5, r6, r7, lr}
 1016              		.cfi_def_cfa_offset 20
 1017              		.cfi_offset 4, -20
ARM GAS  C:\Users\a85495\AppData\Local\Temp\ccIbMymo.s 			page 33


 1018              		.cfi_offset 5, -16
 1019              		.cfi_offset 6, -12
 1020              		.cfi_offset 7, -8
 1021              		.cfi_offset 14, -4
 1022 0002 85B0     		sub	sp, sp, #20
 1023              		.cfi_def_cfa_offset 40
 1024 0004 041C     		mov	r4, r0
 1025 0006 0291     		str	r1, [sp, #8]
 1026 0008 161C     		mov	r6, r2
 1027 000a 0393     		str	r3, [sp, #12]
 1028 000c 0B9F     		ldr	r7, [sp, #44]
 765:Generated_Source\PSoC4/StripLights.c ****      int xDiff;
 766:Generated_Source\PSoC4/StripLights.c **** 	/* Check if the rectangle is to be filled    */
 767:Generated_Source\PSoC4/StripLights.c **** 	if (fill != 0)
 1029              		.loc 1 767 0
 1030 000e 0A9B     		ldr	r3, [sp, #40]
 1031              	.LVL113:
 1032 0010 002B     		cmp	r3, #0
 1033 0012 15D0     		beq	.L63
 768:Generated_Source\PSoC4/StripLights.c **** 	{	
 769:Generated_Source\PSoC4/StripLights.c ****         /* Find the difference between the x vars */
 770:Generated_Source\PSoC4/StripLights.c **** 		if(x0 > x1)
 1034              		.loc 1 770 0
 1035 0014 9042     		cmp	r0, r2
 1036 0016 01DD     		ble	.L64
 771:Generated_Source\PSoC4/StripLights.c **** 		{
 772:Generated_Source\PSoC4/StripLights.c **** 			xDiff = x0 - x1; 
 1037              		.loc 1 772 0
 1038 0018 851A     		sub	r5, r0, r2
 1039              	.LVL114:
 1040 001a 0EE0     		b	.L65
 1041              	.LVL115:
 1042              	.L64:
 773:Generated_Source\PSoC4/StripLights.c **** 		}
 774:Generated_Source\PSoC4/StripLights.c **** 		else
 775:Generated_Source\PSoC4/StripLights.c **** 		{
 776:Generated_Source\PSoC4/StripLights.c **** 			xDiff = x1 - x0;
 1043              		.loc 1 776 0
 1044 001c 151A     		sub	r5, r2, r0
 1045              	.LVL116:
 1046 001e 0CE0     		b	.L65
 1047              	.LVL117:
 1048              	.L69:
 777:Generated_Source\PSoC4/StripLights.c **** 		}
 778:Generated_Source\PSoC4/StripLights.c **** 	
 779:Generated_Source\PSoC4/StripLights.c **** 	    /* Fill it with lines  */
 780:Generated_Source\PSoC4/StripLights.c **** 		while(xDiff >= 0)
 781:Generated_Source\PSoC4/StripLights.c **** 		{
 782:Generated_Source\PSoC4/StripLights.c **** 			StripLights_DrawLine(x0, y0, x0, y1, color);
 1049              		.loc 1 782 0
 1050 0020 0097     		str	r7, [sp]
 1051 0022 201C     		mov	r0, r4
 1052 0024 0299     		ldr	r1, [sp, #8]
 1053 0026 221C     		mov	r2, r4
 1054 0028 039B     		ldr	r3, [sp, #12]
 1055 002a FFF7FEFF 		bl	StripLights_DrawLine
 1056              	.LVL118:
ARM GAS  C:\Users\a85495\AppData\Local\Temp\ccIbMymo.s 			page 34


 783:Generated_Source\PSoC4/StripLights.c **** 		
 784:Generated_Source\PSoC4/StripLights.c **** 			if(x0 > x1)
 1057              		.loc 1 784 0
 1058 002e B442     		cmp	r4, r6
 1059 0030 01DD     		ble	.L67
 785:Generated_Source\PSoC4/StripLights.c **** 				x0--;
 1060              		.loc 1 785 0
 1061 0032 013C     		sub	r4, r4, #1
 1062              	.LVL119:
 1063 0034 00E0     		b	.L68
 1064              	.L67:
 786:Generated_Source\PSoC4/StripLights.c **** 			else
 787:Generated_Source\PSoC4/StripLights.c **** 				x0++;
 1065              		.loc 1 787 0
 1066 0036 0134     		add	r4, r4, #1
 1067              	.LVL120:
 1068              	.L68:
 788:Generated_Source\PSoC4/StripLights.c **** 		
 789:Generated_Source\PSoC4/StripLights.c **** 			xDiff--;
 1069              		.loc 1 789 0
 1070 0038 013D     		sub	r5, r5, #1
 1071              	.LVL121:
 1072              	.L65:
 780:Generated_Source\PSoC4/StripLights.c **** 		{
 1073              		.loc 1 780 0
 1074 003a 002D     		cmp	r5, #0
 1075 003c F0DA     		bge	.L69
 1076 003e 1AE0     		b	.L62
 1077              	.LVL122:
 1078              	.L63:
 790:Generated_Source\PSoC4/StripLights.c **** 		}
 791:Generated_Source\PSoC4/StripLights.c **** 
 792:Generated_Source\PSoC4/StripLights.c **** 	}
 793:Generated_Source\PSoC4/StripLights.c **** 	else 
 794:Generated_Source\PSoC4/StripLights.c **** 	{
 795:Generated_Source\PSoC4/StripLights.c **** 		/* Draw the four sides of the rectangle */
 796:Generated_Source\PSoC4/StripLights.c **** 		StripLights_DrawLine(x0, y0, x1, y0, color);
 1079              		.loc 1 796 0
 1080 0040 0097     		str	r7, [sp]
 1081 0042 029B     		ldr	r3, [sp, #8]
 1082 0044 191C     		mov	r1, r3
 1083              	.LVL123:
 1084 0046 FFF7FEFF 		bl	StripLights_DrawLine
 1085              	.LVL124:
 797:Generated_Source\PSoC4/StripLights.c **** 		StripLights_DrawLine(x0, y1, x1, y1, color);
 1086              		.loc 1 797 0
 1087 004a 0097     		str	r7, [sp]
 1088 004c 201C     		mov	r0, r4
 1089 004e 039D     		ldr	r5, [sp, #12]
 1090 0050 291C     		mov	r1, r5
 1091 0052 321C     		mov	r2, r6
 1092 0054 2B1C     		mov	r3, r5
 1093 0056 FFF7FEFF 		bl	StripLights_DrawLine
 1094              	.LVL125:
 798:Generated_Source\PSoC4/StripLights.c **** 		StripLights_DrawLine(x0, y0, x0, y1, color);
 1095              		.loc 1 798 0
 1096 005a 0097     		str	r7, [sp]
ARM GAS  C:\Users\a85495\AppData\Local\Temp\ccIbMymo.s 			page 35


 1097 005c 201C     		mov	r0, r4
 1098 005e 0299     		ldr	r1, [sp, #8]
 1099 0060 221C     		mov	r2, r4
 1100 0062 2B1C     		mov	r3, r5
 1101 0064 FFF7FEFF 		bl	StripLights_DrawLine
 1102              	.LVL126:
 799:Generated_Source\PSoC4/StripLights.c **** 		StripLights_DrawLine(x1, y0, x1, y1, color);
 1103              		.loc 1 799 0
 1104 0068 0097     		str	r7, [sp]
 1105 006a 301C     		mov	r0, r6
 1106 006c 0299     		ldr	r1, [sp, #8]
 1107 006e 321C     		mov	r2, r6
 1108 0070 2B1C     		mov	r3, r5
 1109 0072 FFF7FEFF 		bl	StripLights_DrawLine
 1110              	.LVL127:
 1111              	.L62:
 800:Generated_Source\PSoC4/StripLights.c **** 	}
 801:Generated_Source\PSoC4/StripLights.c **** }
 1112              		.loc 1 801 0
 1113 0076 05B0     		add	sp, sp, #20
 1114              		@ sp needed
 1115              	.LVL128:
 1116              	.LVL129:
 1117 0078 F0BD     		pop	{r4, r5, r6, r7, pc}
 1118              		.cfi_endproc
 1119              	.LFE48:
 1120              		.size	StripLights_DrawRect, .-StripLights_DrawRect
 1121 007a C046     		.section	.text.StripLights_Dim,"ax",%progbits
 1122              		.align	2
 1123              		.global	StripLights_Dim
 1124              		.code	16
 1125              		.thumb_func
 1126              		.type	StripLights_Dim, %function
 1127              	StripLights_Dim:
 1128              	.LFB49:
 802:Generated_Source\PSoC4/StripLights.c **** 
 803:Generated_Source\PSoC4/StripLights.c **** /*******************************************************************************
 804:Generated_Source\PSoC4/StripLights.c **** * Function Name: StripLights_Dim
 805:Generated_Source\PSoC4/StripLights.c **** ********************************************************************************
 806:Generated_Source\PSoC4/StripLights.c **** *
 807:Generated_Source\PSoC4/StripLights.c **** * Summary:
 808:Generated_Source\PSoC4/StripLights.c **** *  Dim all output by a specific level (0,1,2,3,4)  
 809:Generated_Source\PSoC4/StripLights.c **** *
 810:Generated_Source\PSoC4/StripLights.c **** * Parameters:  
 811:Generated_Source\PSoC4/StripLights.c **** *  dimLevel:  Dim level 1 to 4, 0 => No dimming.
 812:Generated_Source\PSoC4/StripLights.c **** *
 813:Generated_Source\PSoC4/StripLights.c **** * Return: 
 814:Generated_Source\PSoC4/StripLights.c **** *  None 
 815:Generated_Source\PSoC4/StripLights.c **** *  
 816:Generated_Source\PSoC4/StripLights.c **** *******************************************************************************/
 817:Generated_Source\PSoC4/StripLights.c **** void StripLights_Dim(uint32 dimLevel) 
 818:Generated_Source\PSoC4/StripLights.c **** {
 1129              		.loc 1 818 0
 1130              		.cfi_startproc
 1131              	.LVL130:
 819:Generated_Source\PSoC4/StripLights.c **** extern uint32  StripLights_DimMask;
 820:Generated_Source\PSoC4/StripLights.c **** extern uint32  StripLights_DimShift;
ARM GAS  C:\Users\a85495\AppData\Local\Temp\ccIbMymo.s 			page 36


 821:Generated_Source\PSoC4/StripLights.c **** 
 822:Generated_Source\PSoC4/StripLights.c ****     switch(dimLevel)
 1132              		.loc 1 822 0
 1133 0000 0728     		cmp	r0, #7
 1134 0002 34D8     		bhi	.L72
 1135 0004 8000     		lsl	r0, r0, #2
 1136              	.LVL131:
 1137 0006 1E4B     		ldr	r3, .L82
 1138 0008 1B58     		ldr	r3, [r3, r0]
 1139 000a 9F46     		mov	pc, r3
 1140              		.section	.rodata
 1141              		.align	2
 1142              	.L74:
 1143 0000 6E000000 		.word	.L72
 1144 0004 0C000000 		.word	.L73
 1145 0008 1A000000 		.word	.L75
 1146 000c 28000000 		.word	.L76
 1147 0010 36000000 		.word	.L77
 1148 0014 44000000 		.word	.L78
 1149 0018 52000000 		.word	.L79
 1150 001c 60000000 		.word	.L80
 1151              		.section	.text.StripLights_Dim
 1152              	.L73:
 823:Generated_Source\PSoC4/StripLights.c ****     {
 824:Generated_Source\PSoC4/StripLights.c ****        case 1:  // 1/2 bright
 825:Generated_Source\PSoC4/StripLights.c ****            StripLights_DimMask = 0x7F7F7F7F;
 1153              		.loc 1 825 0
 1154 000c 1D4A     		ldr	r2, .L82+4
 1155 000e 1E4B     		ldr	r3, .L82+8
 1156 0010 1A60     		str	r2, [r3]
 826:Generated_Source\PSoC4/StripLights.c ****            StripLights_DimShift = 1;
 1157              		.loc 1 826 0
 1158 0012 0122     		mov	r2, #1
 1159 0014 1D4B     		ldr	r3, .L82+12
 1160 0016 1A60     		str	r2, [r3]
 827:Generated_Source\PSoC4/StripLights.c ****            break;
 1161              		.loc 1 827 0
 1162 0018 30E0     		b	.L71
 1163              	.L75:
 828:Generated_Source\PSoC4/StripLights.c ****            
 829:Generated_Source\PSoC4/StripLights.c ****        case 2:
 830:Generated_Source\PSoC4/StripLights.c ****            StripLights_DimMask = 0x3F3F3F3F;
 1164              		.loc 1 830 0
 1165 001a 1D4A     		ldr	r2, .L82+16
 1166 001c 1A4B     		ldr	r3, .L82+8
 1167 001e 1A60     		str	r2, [r3]
 831:Generated_Source\PSoC4/StripLights.c ****            StripLights_DimShift = 2;
 1168              		.loc 1 831 0
 1169 0020 0222     		mov	r2, #2
 1170 0022 1A4B     		ldr	r3, .L82+12
 1171 0024 1A60     		str	r2, [r3]
 832:Generated_Source\PSoC4/StripLights.c ****            break;
 1172              		.loc 1 832 0
 1173 0026 29E0     		b	.L71
 1174              	.L76:
 833:Generated_Source\PSoC4/StripLights.c ****            
 834:Generated_Source\PSoC4/StripLights.c ****        case 3:
ARM GAS  C:\Users\a85495\AppData\Local\Temp\ccIbMymo.s 			page 37


 835:Generated_Source\PSoC4/StripLights.c ****            StripLights_DimMask = 0x1F1F1F1F;
 1175              		.loc 1 835 0
 1176 0028 1A4A     		ldr	r2, .L82+20
 1177 002a 174B     		ldr	r3, .L82+8
 1178 002c 1A60     		str	r2, [r3]
 836:Generated_Source\PSoC4/StripLights.c ****            StripLights_DimShift = 3;
 1179              		.loc 1 836 0
 1180 002e 0322     		mov	r2, #3
 1181 0030 164B     		ldr	r3, .L82+12
 1182 0032 1A60     		str	r2, [r3]
 837:Generated_Source\PSoC4/StripLights.c ****            break;
 1183              		.loc 1 837 0
 1184 0034 22E0     		b	.L71
 1185              	.L77:
 838:Generated_Source\PSoC4/StripLights.c ****            
 839:Generated_Source\PSoC4/StripLights.c ****        case 4:
 840:Generated_Source\PSoC4/StripLights.c ****            StripLights_DimMask = 0x0F0F0F0F;
 1186              		.loc 1 840 0
 1187 0036 184A     		ldr	r2, .L82+24
 1188 0038 134B     		ldr	r3, .L82+8
 1189 003a 1A60     		str	r2, [r3]
 841:Generated_Source\PSoC4/StripLights.c ****            StripLights_DimShift = 4;
 1190              		.loc 1 841 0
 1191 003c 0422     		mov	r2, #4
 1192 003e 134B     		ldr	r3, .L82+12
 1193 0040 1A60     		str	r2, [r3]
 842:Generated_Source\PSoC4/StripLights.c ****            break;
 1194              		.loc 1 842 0
 1195 0042 1BE0     		b	.L71
 1196              	.L78:
 843:Generated_Source\PSoC4/StripLights.c **** 
 844:Generated_Source\PSoC4/StripLights.c **** 	   case 5:
 845:Generated_Source\PSoC4/StripLights.c **** 		   StripLights_DimMask = 0x07070707;
 1197              		.loc 1 845 0
 1198 0044 154A     		ldr	r2, .L82+28
 1199 0046 104B     		ldr	r3, .L82+8
 1200 0048 1A60     		str	r2, [r3]
 846:Generated_Source\PSoC4/StripLights.c **** 		   StripLights_DimShift = 5;
 1201              		.loc 1 846 0
 1202 004a 0522     		mov	r2, #5
 1203 004c 0F4B     		ldr	r3, .L82+12
 1204 004e 1A60     		str	r2, [r3]
 847:Generated_Source\PSoC4/StripLights.c **** 		   break;
 1205              		.loc 1 847 0
 1206 0050 14E0     		b	.L71
 1207              	.L79:
 848:Generated_Source\PSoC4/StripLights.c **** 
 849:Generated_Source\PSoC4/StripLights.c **** 	   case 6:
 850:Generated_Source\PSoC4/StripLights.c **** 		   StripLights_DimMask = 0x03030303;
 1208              		.loc 1 850 0
 1209 0052 134A     		ldr	r2, .L82+32
 1210 0054 0C4B     		ldr	r3, .L82+8
 1211 0056 1A60     		str	r2, [r3]
 851:Generated_Source\PSoC4/StripLights.c **** 		   StripLights_DimShift = 6;
 1212              		.loc 1 851 0
 1213 0058 0622     		mov	r2, #6
 1214 005a 0C4B     		ldr	r3, .L82+12
ARM GAS  C:\Users\a85495\AppData\Local\Temp\ccIbMymo.s 			page 38


 1215 005c 1A60     		str	r2, [r3]
 852:Generated_Source\PSoC4/StripLights.c **** 		   break;
 1216              		.loc 1 852 0
 1217 005e 0DE0     		b	.L71
 1218              	.L80:
 853:Generated_Source\PSoC4/StripLights.c **** 
 854:Generated_Source\PSoC4/StripLights.c **** 	   case 7:
 855:Generated_Source\PSoC4/StripLights.c **** 		   StripLights_DimMask = 0x01010101;
 1219              		.loc 1 855 0
 1220 0060 104A     		ldr	r2, .L82+36
 1221 0062 094B     		ldr	r3, .L82+8
 1222 0064 1A60     		str	r2, [r3]
 856:Generated_Source\PSoC4/StripLights.c **** 		   StripLights_DimShift = 7;
 1223              		.loc 1 856 0
 1224 0066 0722     		mov	r2, #7
 1225 0068 084B     		ldr	r3, .L82+12
 1226 006a 1A60     		str	r2, [r3]
 857:Generated_Source\PSoC4/StripLights.c **** 		   break;
 1227              		.loc 1 857 0
 1228 006c 06E0     		b	.L71
 1229              	.L72:
 858:Generated_Source\PSoC4/StripLights.c ****            
 859:Generated_Source\PSoC4/StripLights.c ****        default:
 860:Generated_Source\PSoC4/StripLights.c ****            StripLights_DimMask = 0xFFFFFFFF;
 1230              		.loc 1 860 0
 1231 006e 0122     		mov	r2, #1
 1232 0070 5242     		neg	r2, r2
 1233 0072 054B     		ldr	r3, .L82+8
 1234 0074 1A60     		str	r2, [r3]
 861:Generated_Source\PSoC4/StripLights.c ****            StripLights_DimShift = 0;
 1235              		.loc 1 861 0
 1236 0076 0022     		mov	r2, #0
 1237 0078 044B     		ldr	r3, .L82+12
 1238 007a 1A60     		str	r2, [r3]
 1239              	.L71:
 862:Generated_Source\PSoC4/StripLights.c ****            break;
 863:Generated_Source\PSoC4/StripLights.c ****         
 864:Generated_Source\PSoC4/StripLights.c ****     }
 865:Generated_Source\PSoC4/StripLights.c **** }
 1240              		.loc 1 865 0
 1241              		@ sp needed
 1242 007c 7047     		bx	lr
 1243              	.L83:
 1244 007e C046     		.align	2
 1245              	.L82:
 1246 0080 00000000 		.word	.L74
 1247 0084 7F7F7F7F 		.word	2139062143
 1248 0088 00000000 		.word	StripLights_DimMask
 1249 008c 00000000 		.word	StripLights_DimShift
 1250 0090 3F3F3F3F 		.word	1061109567
 1251 0094 1F1F1F1F 		.word	522133279
 1252 0098 0F0F0F0F 		.word	252645135
 1253 009c 07070707 		.word	117901063
 1254 00a0 03030303 		.word	50529027
 1255 00a4 01010101 		.word	16843009
 1256              		.cfi_endproc
 1257              	.LFE49:
ARM GAS  C:\Users\a85495\AppData\Local\Temp\ccIbMymo.s 			page 39


 1258              		.size	StripLights_Dim, .-StripLights_Dim
 1259              		.section	.text.StripLights_Start,"ax",%progbits
 1260              		.align	2
 1261              		.global	StripLights_Start
 1262              		.code	16
 1263              		.thumb_func
 1264              		.type	StripLights_Start, %function
 1265              	StripLights_Start:
 1266              	.LFB34:
 206:Generated_Source\PSoC4/StripLights.c ****     extern uint8 StripLights_initvar;
 1267              		.loc 1 206 0
 1268              		.cfi_startproc
 1269 0000 10B5     		push	{r4, lr}
 1270              		.cfi_def_cfa_offset 8
 1271              		.cfi_offset 4, -8
 1272              		.cfi_offset 14, -4
 210:Generated_Source\PSoC4/StripLights.c ****     
 1273              		.loc 1 210 0
 1274 0002 0322     		mov	r2, #3
 1275 0004 144B     		ldr	r3, .L86
 1276 0006 1A70     		strb	r2, [r3]
 212:Generated_Source\PSoC4/StripLights.c ****     StripLights_Compare0 = StripLights_DATA_ZERO;
 1277              		.loc 1 212 0
 1278 0008 3832     		add	r2, r2, #56
 1279 000a 144B     		ldr	r3, .L86+4
 1280 000c 1A70     		strb	r2, [r3]
 213:Generated_Source\PSoC4/StripLights.c ****     StripLights_Compare1 = StripLights_DATA_ONE;
 1281              		.loc 1 213 0
 1282 000e 0B3A     		sub	r2, r2, #11
 1283 0010 134B     		ldr	r3, .L86+8
 1284 0012 1A70     		strb	r2, [r3]
 214:Generated_Source\PSoC4/StripLights.c ****     
 1285              		.loc 1 214 0
 1286 0014 143A     		sub	r2, r2, #20
 1287 0016 134B     		ldr	r3, .L86+12
 1288 0018 1A70     		strb	r2, [r3]
 216:Generated_Source\PSoC4/StripLights.c ****     StripLights_MemClear(StripLights_OFF);
 1289              		.loc 1 216 0
 1290 001a 134C     		ldr	r4, .L86+16
 1291 001c 0123     		mov	r3, #1
 1292 001e 2370     		strb	r3, [r4]
 217:Generated_Source\PSoC4/StripLights.c ****     StripLights_CONTROL = StripLights_DISABLE;
 1293              		.loc 1 217 0
 1294 0020 0020     		mov	r0, #0
 1295 0022 FFF7FEFF 		bl	StripLights_MemClear
 1296              	.LVL132:
 218:Generated_Source\PSoC4/StripLights.c ****     
 1297              		.loc 1 218 0
 1298 0026 0023     		mov	r3, #0
 1299 0028 2370     		strb	r3, [r4]
 220:Generated_Source\PSoC4/StripLights.c ****     
 1300              		.loc 1 220 0
 1301 002a 0020     		mov	r0, #0
 1302 002c FFF7FEFF 		bl	StripLights_SetFont
 1303              	.LVL133:
 223:Generated_Source\PSoC4/StripLights.c **** 
 1304              		.loc 1 223 0
ARM GAS  C:\Users\a85495\AppData\Local\Temp\ccIbMymo.s 			page 40


 1305 0030 0020     		mov	r0, #0
 1306 0032 FFF7FEFF 		bl	StripLights_Dim
 1307              	.LVL134:
 226:Generated_Source\PSoC4/StripLights.c ****     {
 1308              		.loc 1 226 0
 1309 0036 0D4B     		ldr	r3, .L86+20
 1310 0038 1B7D     		ldrb	r3, [r3, #20]
 1311 003a 002B     		cmp	r3, #0
 1312 003c 08D1     		bne	.L85
 229:Generated_Source\PSoC4/StripLights.c ****  
 1313              		.loc 1 229 0
 1314 003e 0122     		mov	r2, #1
 1315 0040 0A4B     		ldr	r3, .L86+20
 1316 0042 1A75     		strb	r2, [r3, #20]
 235:Generated_Source\PSoC4/StripLights.c **** 		   StripLights_fisr_StartEx(StripLights_FISR);
 1317              		.loc 1 235 0
 1318 0044 0A48     		ldr	r0, .L86+24
 1319 0046 FFF7FEFF 		bl	StripLights_cisr_StartEx
 1320              	.LVL135:
 236:Generated_Source\PSoC4/StripLights.c ****        }
 1321              		.loc 1 236 0
 1322 004a 0A48     		ldr	r0, .L86+28
 1323 004c FFF7FEFF 		bl	StripLights_fisr_StartEx
 1324              	.LVL136:
 1325              	.L85:
 244:Generated_Source\PSoC4/StripLights.c **** }
 1326              		.loc 1 244 0
 1327 0050 0122     		mov	r2, #1
 1328 0052 094B     		ldr	r3, .L86+32
 1329 0054 1A60     		str	r2, [r3]
 245:Generated_Source\PSoC4/StripLights.c **** 
 1330              		.loc 1 245 0
 1331              		@ sp needed
 1332 0056 10BD     		pop	{r4, pc}
 1333              	.L87:
 1334              		.align	2
 1335              	.L86:
 1336 0058 93000F40 		.word	1074725011
 1337 005c 43000F40 		.word	1074724931
 1338 0060 23000F40 		.word	1074724899
 1339 0064 33000F40 		.word	1074724915
 1340 0068 72000F40 		.word	1074724978
 1341 006c 00000000 		.word	.LANCHOR0
 1342 0070 00000000 		.word	StripLights_CISR
 1343 0074 00000000 		.word	StripLights_FISR
 1344 0078 00000000 		.word	StripLights_refreshComplete
 1345              		.cfi_endproc
 1346              	.LFE34:
 1347              		.size	StripLights_Start, .-StripLights_Start
 1348              		.section	.text.StripLights_bplot,"ax",%progbits
 1349              		.align	2
 1350              		.global	StripLights_bplot
 1351              		.code	16
 1352              		.thumb_func
 1353              		.type	StripLights_bplot, %function
 1354              	StripLights_bplot:
 1355              	.LFB50:
ARM GAS  C:\Users\a85495\AppData\Local\Temp\ccIbMymo.s 			page 41


 866:Generated_Source\PSoC4/StripLights.c **** 
 867:Generated_Source\PSoC4/StripLights.c **** void StripLights_bplot( int32 x, int32 y, uint8 * bitMap, int32 update)
 868:Generated_Source\PSoC4/StripLights.c **** {
 1356              		.loc 1 868 0
 1357              		.cfi_startproc
 1358              	.LVL137:
 1359 0000 F0B5     		push	{r4, r5, r6, r7, lr}
 1360              		.cfi_def_cfa_offset 20
 1361              		.cfi_offset 4, -20
 1362              		.cfi_offset 5, -16
 1363              		.cfi_offset 6, -12
 1364              		.cfi_offset 7, -8
 1365              		.cfi_offset 14, -4
 1366 0002 5F46     		mov	r7, fp
 1367 0004 4646     		mov	r6, r8
 1368 0006 C0B4     		push	{r6, r7}
 1369              		.cfi_def_cfa_offset 28
 1370              		.cfi_offset 8, -28
 1371              		.cfi_offset 11, -24
 1372 0008 83B0     		sub	sp, sp, #12
 1373              		.cfi_def_cfa_offset 40
 1374 000a 0190     		str	r0, [sp, #4]
 1375 000c 0091     		str	r1, [sp]
 1376 000e 171C     		mov	r7, r2
 1377 0010 9B46     		mov	fp, r3
 1378              	.LVL138:
 869:Generated_Source\PSoC4/StripLights.c ****     int32 dx, dy;
 870:Generated_Source\PSoC4/StripLights.c ****     int32 aindex = 0;
 871:Generated_Source\PSoC4/StripLights.c ****     int32 maxX, maxY;
 872:Generated_Source\PSoC4/StripLights.c **** 
 873:Generated_Source\PSoC4/StripLights.c ****     maxX = x + (int32)bitMap[aindex++];
 1379              		.loc 1 873 0
 1380 0012 1378     		ldrb	r3, [r2]
 1381              	.LVL139:
 1382 0014 1E18     		add	r6, r3, r0
 1383              	.LVL140:
 874:Generated_Source\PSoC4/StripLights.c ****     maxY = y  + (int32)bitMap[aindex++];
 1384              		.loc 1 874 0
 1385 0016 7B78     		ldrb	r3, [r7, #1]
 1386 0018 8846     		mov	r8, r1
 1387 001a 9844     		add	r8, r8, r3
 1388              	.LVL141:
 1389 001c 0223     		mov	r3, #2
 875:Generated_Source\PSoC4/StripLights.c **** 
 876:Generated_Source\PSoC4/StripLights.c **** 	for(dy = y; dy < maxY; dy++)
 1390              		.loc 1 876 0
 1391 001e 0EE0     		b	.L89
 1392              	.LVL142:
 1393              	.L90:
 877:Generated_Source\PSoC4/StripLights.c ****     {
 878:Generated_Source\PSoC4/StripLights.c **** 		for(dx = x; dx < maxX; dx++)
 879:Generated_Source\PSoC4/StripLights.c ****         {
 880:Generated_Source\PSoC4/StripLights.c ****             StripLights_Pixel(dx, dy, bitMap[aindex++]);
 1394              		.loc 1 880 0 discriminator 3
 1395 0020 5D1C     		add	r5, r3, #1
 1396              	.LVL143:
 1397 0022 FA5C     		ldrb	r2, [r7, r3]
ARM GAS  C:\Users\a85495\AppData\Local\Temp\ccIbMymo.s 			page 42


 1398 0024 201C     		mov	r0, r4
 1399 0026 0099     		ldr	r1, [sp]
 1400 0028 FFF7FEFF 		bl	StripLights_Pixel
 1401              	.LVL144:
 878:Generated_Source\PSoC4/StripLights.c ****         {
 1402              		.loc 1 878 0 discriminator 3
 1403 002c 0134     		add	r4, r4, #1
 1404              	.LVL145:
 1405              		.loc 1 880 0 discriminator 3
 1406 002e 2B1C     		mov	r3, r5
 1407 0030 00E0     		b	.L91
 1408              	.LVL146:
 1409              	.L93:
 1410 0032 019C     		ldr	r4, [sp, #4]
 1411              	.LVL147:
 1412              	.L91:
 878:Generated_Source\PSoC4/StripLights.c ****         {
 1413              		.loc 1 878 0 discriminator 1
 1414 0034 B442     		cmp	r4, r6
 1415 0036 F3DB     		blt	.L90
 876:Generated_Source\PSoC4/StripLights.c ****     {
 1416              		.loc 1 876 0 discriminator 2
 1417 0038 009A     		ldr	r2, [sp]
 1418 003a 0132     		add	r2, r2, #1
 1419 003c 0092     		str	r2, [sp]
 1420              	.LVL148:
 1421              	.L89:
 876:Generated_Source\PSoC4/StripLights.c ****     {
 1422              		.loc 1 876 0 is_stmt 0 discriminator 1
 1423 003e 009A     		ldr	r2, [sp]
 1424 0040 4245     		cmp	r2, r8
 1425 0042 F6DB     		blt	.L93
 881:Generated_Source\PSoC4/StripLights.c ****         }
 882:Generated_Source\PSoC4/StripLights.c ****     }
 883:Generated_Source\PSoC4/StripLights.c **** 	if(update) StripLights_Trigger(1);
 1426              		.loc 1 883 0 is_stmt 1
 1427 0044 5B46     		mov	r3, fp
 1428              	.LVL149:
 1429 0046 002B     		cmp	r3, #0
 1430 0048 02D0     		beq	.L88
 1431              	.LVL150:
 1432              		.loc 1 883 0 is_stmt 0 discriminator 1
 1433 004a 0120     		mov	r0, #1
 1434 004c FFF7FEFF 		bl	StripLights_Trigger
 1435              	.LVL151:
 1436              	.L88:
 884:Generated_Source\PSoC4/StripLights.c **** }
 1437              		.loc 1 884 0 is_stmt 1
 1438 0050 03B0     		add	sp, sp, #12
 1439              	.LVL152:
 1440              		@ sp needed
 1441              	.LVL153:
 1442              	.LVL154:
 1443              	.LVL155:
 1444              	.LVL156:
 1445 0052 0CBC     		pop	{r2, r3}
 1446 0054 9046     		mov	r8, r2
ARM GAS  C:\Users\a85495\AppData\Local\Temp\ccIbMymo.s 			page 43


 1447 0056 9B46     		mov	fp, r3
 1448 0058 F0BD     		pop	{r4, r5, r6, r7, pc}
 1449              		.cfi_endproc
 1450              	.LFE50:
 1451              		.size	StripLights_bplot, .-StripLights_bplot
 1452              		.global	StripLights_CLUT
 1453              		.comm	StripLights_DimShift,4,4
 1454              		.comm	StripLights_DimMask,4,4
 1455              		.comm	StripLights_refreshComplete,4,4
 1456              		.global	StripLights_row
 1457              		.global	StripLights_ledIndex
 1458              		.comm	StripLights_ledArray,576,4
 1459              		.global	StripLights_initvar
 1460 005a C046     		.section	.rodata
 1461              		.align	2
 1462              		.set	.LANCHOR1,. + 0
 1463              		.type	StripLights_CLUT, %object
 1464              		.size	StripLights_CLUT, 480
 1465              	StripLights_CLUT:
 1466 0020 FFFF0000 		.word	65535
 1467 0024 CCFF0000 		.word	65484
 1468 0028 99FF0000 		.word	65433
 1469 002c 33FF0000 		.word	65331
 1470 0030 00FF0000 		.word	65280
 1471 0034 00B36600 		.word	6730496
 1472 0038 00999900 		.word	10066176
 1473 003c 0066B300 		.word	11757056
 1474 0040 0033CC00 		.word	13382400
 1475 0044 1919B300 		.word	11737369
 1476 0048 33009900 		.word	10027059
 1477 004c 40009900 		.word	10027072
 1478 0050 66009900 		.word	10027110
 1479 0054 99009900 		.word	10027161
 1480 0058 CC009900 		.word	10027212
 1481 005c E6006600 		.word	6684902
 1482 0060 FF000000 		.word	255
 1483 0064 FF330000 		.word	13311
 1484 0068 FF660000 		.word	26367
 1485 006c FF800000 		.word	33023
 1486 0070 FF990000 		.word	39423
 1487 0074 FFB20000 		.word	45823
 1488 0078 FFCC0000 		.word	52479
 1489 007c FFE50000 		.word	58879
 1490 0080 00000000 		.word	0
 1491 0084 00005500 		.word	5570560
 1492 0088 0000AA00 		.word	11141120
 1493 008c 0000FF00 		.word	16711680
 1494 0090 00550000 		.word	21760
 1495 0094 00555500 		.word	5592320
 1496 0098 0055AA00 		.word	11162880
 1497 009c 0055FF00 		.word	16733440
 1498 00a0 00AA0000 		.word	43520
 1499 00a4 00AA5500 		.word	5614080
 1500 00a8 00AAAA00 		.word	11184640
 1501 00ac 00AAFF00 		.word	16755200
 1502 00b0 00FF0000 		.word	65280
 1503 00b4 00FF5500 		.word	5635840
ARM GAS  C:\Users\a85495\AppData\Local\Temp\ccIbMymo.s 			page 44


 1504 00b8 00FFAA00 		.word	11206400
 1505 00bc 00FFFF00 		.word	16776960
 1506 00c0 55000000 		.word	85
 1507 00c4 55005500 		.word	5570645
 1508 00c8 5500AA00 		.word	11141205
 1509 00cc 5500FF00 		.word	16711765
 1510 00d0 55550000 		.word	21845
 1511 00d4 55555500 		.word	5592405
 1512 00d8 5555AA00 		.word	11162965
 1513 00dc 5555FF00 		.word	16733525
 1514 00e0 55AA0000 		.word	43605
 1515 00e4 55AA5500 		.word	5614165
 1516 00e8 55AAAA00 		.word	11184725
 1517 00ec 55AAFF00 		.word	16755285
 1518 00f0 55FF0000 		.word	65365
 1519 00f4 55FF5500 		.word	5635925
 1520 00f8 55FFAA00 		.word	11206485
 1521 00fc 55FFFF00 		.word	16777045
 1522 0100 AA000000 		.word	170
 1523 0104 AA005500 		.word	5570730
 1524 0108 AA00AA00 		.word	11141290
 1525 010c AA00FF00 		.word	16711850
 1526 0110 AA550000 		.word	21930
 1527 0114 AA555500 		.word	5592490
 1528 0118 AA55AA00 		.word	11163050
 1529 011c AA55FF00 		.word	16733610
 1530 0120 AAAA0000 		.word	43690
 1531 0124 AAAA5500 		.word	5614250
 1532 0128 AAAAAA00 		.word	11184810
 1533 012c AAAAFF00 		.word	16755370
 1534 0130 AAFF0000 		.word	65450
 1535 0134 AAFF5500 		.word	5636010
 1536 0138 AAFFAA00 		.word	11206570
 1537 013c AAFFFF00 		.word	16777130
 1538 0140 FF000000 		.word	255
 1539 0144 FF005500 		.word	5570815
 1540 0148 FF00AA00 		.word	11141375
 1541 014c FF0FF000 		.word	15732735
 1542 0150 FF550000 		.word	22015
 1543 0154 FF555500 		.word	5592575
 1544 0158 FF55AA00 		.word	11163135
 1545 015c FF55FF00 		.word	16733695
 1546 0160 FFAA0000 		.word	43775
 1547 0164 FFAA5500 		.word	5614335
 1548 0168 FFAAAA00 		.word	11184895
 1549 016c FFAAFF00 		.word	16755455
 1550 0170 FFFF0000 		.word	65535
 1551 0174 FFFF5500 		.word	5636095
 1552 0178 FFFFAA00 		.word	11206655
 1553 017c FFFFFFFF 		.word	-1
 1554 0180 80FF0000 		.word	65408
 1555 0184 00FF8000 		.word	8453888
 1556 0188 00FFFF00 		.word	16776960
 1557 018c 0080FF00 		.word	16744448
 1558 0190 8000FF00 		.word	16711808
 1559 0194 FF008000 		.word	8388863
 1560 0198 00FF0000 		.word	65280
ARM GAS  C:\Users\a85495\AppData\Local\Temp\ccIbMymo.s 			page 45


 1561 019c 20202000 		.word	2105376
 1562 01a0 00002000 		.word	2097152
 1563 01a4 00000010 		.word	268435456
 1564 01a8 00000000 		.word	0
 1565 01ac 00000000 		.word	0
 1566 01b0 00000000 		.word	0
 1567 01b4 00000000 		.word	0
 1568 01b8 00000000 		.word	0
 1569 01bc 00000000 		.word	0
 1570 01c0 0000FF00 		.word	16711680
 1571 01c4 1000F000 		.word	15728656
 1572 01c8 2000E000 		.word	14680096
 1573 01cc 3000D000 		.word	13631536
 1574 01d0 4000C000 		.word	12582976
 1575 01d4 5000B000 		.word	11534416
 1576 01d8 6000A000 		.word	10485856
 1577 01dc 70009000 		.word	9437296
 1578 01e0 80008000 		.word	8388736
 1579 01e4 90007000 		.word	7340176
 1580 01e8 A0006000 		.word	6291616
 1581 01ec B0005000 		.word	5243056
 1582 01f0 C0004000 		.word	4194496
 1583 01f4 D0003000 		.word	3145936
 1584 01f8 E0002000 		.word	2097376
 1585 01fc FF000000 		.word	255
 1586              		.bss
 1587              		.align	2
 1588              		.set	.LANCHOR0,. + 0
 1589              		.type	StripLights_ledIndex, %object
 1590              		.size	StripLights_ledIndex, 4
 1591              	StripLights_ledIndex:
 1592 0000 00000000 		.space	4
 1593              		.type	StripLights_row, %object
 1594              		.size	StripLights_row, 4
 1595              	StripLights_row:
 1596 0004 00000000 		.space	4
 1597              		.type	color.5511, %object
 1598              		.size	color.5511, 4
 1599              	color.5511:
 1600 0008 00000000 		.space	4
 1601              		.type	color.5519, %object
 1602              		.size	color.5519, 4
 1603              	color.5519:
 1604 000c 00000000 		.space	4
 1605              		.type	colorIndex.5504, %object
 1606              		.size	colorIndex.5504, 4
 1607              	colorIndex.5504:
 1608 0010 00000000 		.space	4
 1609              		.type	StripLights_initvar, %object
 1610              		.size	StripLights_initvar, 1
 1611              	StripLights_initvar:
 1612 0014 00       		.space	1
 1613 0015 000000   		.text
 1614              	.Letext0:
 1615              		.file 2 "Generated_Source\\PSoC4/cytypes.h"
 1616              		.file 3 "Generated_Source\\PSoC4\\StripLights_fonts.h"
 1617              		.file 4 "Generated_Source\\PSoC4/StripLights_cisr.h"
ARM GAS  C:\Users\a85495\AppData\Local\Temp\ccIbMymo.s 			page 46


 1618              		.file 5 "Generated_Source\\PSoC4/StripLights_fisr.h"