ARM GAS  C:\Users\A85590\AppData\Local\Temp\cc53CFAh.s 			page 1


   1              		.syntax unified
   2              		.cpu cortex-m0
   3              		.fpu softvfp
   4              		.eabi_attribute 20, 1
   5              		.eabi_attribute 21, 1
   6              		.eabi_attribute 23, 3
   7              		.eabi_attribute 24, 1
   8              		.eabi_attribute 25, 1
   9              		.eabi_attribute 26, 1
  10              		.eabi_attribute 30, 1
  11              		.eabi_attribute 34, 0
  12              		.eabi_attribute 18, 4
  13              		.thumb
  14              		.syntax unified
  15              		.file	"Madgwick.c"
  16              		.text
  17              	.Ltext0:
  18              		.cfi_sections	.debug_frame
  19              		.global	__aeabi_fmul
  20              		.global	__aeabi_fsub
  21              		.section	.text.invSqrt,"ax",%progbits
  22              		.align	2
  23              		.code	16
  24              		.thumb_func
  25              		.type	invSqrt, %function
  26              	invSqrt:
  27              	.LFB5:
  28              		.file 1 "Madgwick.c"
   1:Madgwick.c    **** //=============================================================================================
   2:Madgwick.c    **** // Madgwick.c
   3:Madgwick.c    **** //=============================================================================================
   4:Madgwick.c    **** //
   5:Madgwick.c    **** // Implementation of Madgwick's IMU and AHRS algorithms.
   6:Madgwick.c    **** // See: http://www.x-io.co.uk/open-source-imu-and-ahrs-algorithms/
   7:Madgwick.c    **** //
   8:Madgwick.c    **** // From the x-io website "Open-source resources available on this website are
   9:Madgwick.c    **** // provided under the GNU General Public Licence unless an alternative licence
  10:Madgwick.c    **** // is provided in source."
  11:Madgwick.c    **** //
  12:Madgwick.c    **** // Date			Author          Notes
  13:Madgwick.c    **** // 29/09/2011	SOH Madgwick    Initial release
  14:Madgwick.c    **** // 02/10/2011	SOH Madgwick	Optimised for reduced CPU load
  15:Madgwick.c    **** // 19/02/2012	SOH Madgwick	Magnetometer measurement is normalised
  16:Madgwick.c    **** //
  17:Madgwick.c    **** //=============================================================================================
  18:Madgwick.c    **** 
  19:Madgwick.c    **** //-------------------------------------------------------------------------------------------
  20:Madgwick.c    **** // Header files
  21:Madgwick.c    **** 
  22:Madgwick.c    **** #include "Madgwick.h"
  23:Madgwick.c    **** #include <stdlib.h>
  24:Madgwick.c    **** #include <stdint.h>
  25:Madgwick.c    **** #include <stdio.h>
  26:Madgwick.c    **** #include <math.h>
  27:Madgwick.c    **** 
  28:Madgwick.c    **** //-------------------------------------------------------------------------------------------
  29:Madgwick.c    **** // Definitions
ARM GAS  C:\Users\A85590\AppData\Local\Temp\cc53CFAh.s 			page 2


  30:Madgwick.c    **** 
  31:Madgwick.c    **** #define sampleFreqDef 512.0f // sample frequency in Hz
  32:Madgwick.c    **** #define betaDef 0.1f		 // 2 * proportional gain
  33:Madgwick.c    **** 
  34:Madgwick.c    **** //--------------------------------------------------------------------------------------------
  35:Madgwick.c    **** 
  36:Madgwick.c    **** static float invSqrt(float x);
  37:Madgwick.c    **** static float beta; // algorithm gain
  38:Madgwick.c    **** static float q0;
  39:Madgwick.c    **** static float q1;
  40:Madgwick.c    **** static float q2;
  41:Madgwick.c    **** static float q3; // quaternion of sensor frame relative to auxiliary frame
  42:Madgwick.c    **** static float invSampleFreq;
  43:Madgwick.c    **** static float roll;
  44:Madgwick.c    **** static float pitch;
  45:Madgwick.c    **** static float yaw;
  46:Madgwick.c    **** static char anglesComputed;
  47:Madgwick.c    **** static void computeAngles();
  48:Madgwick.c    **** 
  49:Madgwick.c    **** //-------------------------------------------------------------------------------------------
  50:Madgwick.c    **** 
  51:Madgwick.c    **** //============================================================================================
  52:Madgwick.c    **** // Functions
  53:Madgwick.c    **** 
  54:Madgwick.c    **** //-------------------------------------------------------------------------------------------
  55:Madgwick.c    **** // AHRS algorithm update
  56:Madgwick.c    **** 
  57:Madgwick.c    **** int Madgwick() //Added "int" to avoid warning msg; hope this causes no issue - Toni
  58:Madgwick.c    **** {
  59:Madgwick.c    **** 	beta = betaDef;
  60:Madgwick.c    **** 	q0 = 1.0f;
  61:Madgwick.c    **** 	q1 = 0.0f;
  62:Madgwick.c    **** 	q2 = 0.0f;
  63:Madgwick.c    **** 	q3 = 0.0f;
  64:Madgwick.c    **** 	invSampleFreq = 1.0f / sampleFreqDef;
  65:Madgwick.c    **** 	anglesComputed = 0;
  66:Madgwick.c    **** }
  67:Madgwick.c    **** 
  68:Madgwick.c    **** void Madgwick_begin(float sampleFrequency)
  69:Madgwick.c    ****  { 
  70:Madgwick.c    **** 	 invSampleFreq = (1.0f / sampleFrequency); 
  71:Madgwick.c    **** }
  72:Madgwick.c    **** 
  73:Madgwick.c    **** void Madgwick_update(float gx, float gy, float gz, float ax, float ay, float az, float mx, float my
  74:Madgwick.c    **** {
  75:Madgwick.c    **** 	float recipNorm;
  76:Madgwick.c    **** 	float s0, s1, s2, s3;
  77:Madgwick.c    **** 	float qDot1, qDot2, qDot3, qDot4;
  78:Madgwick.c    **** 	float hx, hy;
  79:Madgwick.c    **** 	float _2q0mx, _2q0my, _2q0mz, _2q1mx, _2bx, _2bz, _4bx, _4bz, _2q0, _2q1, _2q2, _2q3, _2q0q2, _2q2
  80:Madgwick.c    **** 
  81:Madgwick.c    **** 	// Use IMU algorithm if magnetometer measurement invalid (avoids NaN in magnetometer normalisation
  82:Madgwick.c    **** 	if ((mx == 0.0f) && (my == 0.0f) && (mz == 0.0f))
  83:Madgwick.c    **** 	{
  84:Madgwick.c    **** 		Madgwick_updateIMU(gx, gy, gz, ax, ay, az);
  85:Madgwick.c    **** 		return;
  86:Madgwick.c    **** 	}
ARM GAS  C:\Users\A85590\AppData\Local\Temp\cc53CFAh.s 			page 3


  87:Madgwick.c    **** 
  88:Madgwick.c    **** 	// Convert gyroscope degrees/sec to radians/sec
  89:Madgwick.c    **** 	gx *= 0.0174533f;
  90:Madgwick.c    **** 	gy *= 0.0174533f;
  91:Madgwick.c    **** 	gz *= 0.0174533f;
  92:Madgwick.c    **** 
  93:Madgwick.c    **** 	// Rate of change of quaternion from gyroscope
  94:Madgwick.c    **** 	qDot1 = 0.5f * (-q1 * gx - q2 * gy - q3 * gz);
  95:Madgwick.c    **** 	qDot2 = 0.5f * (q0 * gx + q2 * gz - q3 * gy);
  96:Madgwick.c    **** 	qDot3 = 0.5f * (q0 * gy - q1 * gz + q3 * gx);
  97:Madgwick.c    **** 	qDot4 = 0.5f * (q0 * gz + q1 * gy - q2 * gx);
  98:Madgwick.c    **** 
  99:Madgwick.c    **** 	// Compute feedback only if accelerometer measurement valid (avoids NaN in accelerometer normalisa
 100:Madgwick.c    **** 	if (!((ax == 0.0f) && (ay == 0.0f) && (az == 0.0f)))
 101:Madgwick.c    **** 	{
 102:Madgwick.c    **** 
 103:Madgwick.c    **** 		// Normalise accelerometer measurement
 104:Madgwick.c    **** 		recipNorm = invSqrt(ax * ax + ay * ay + az * az);
 105:Madgwick.c    **** 		ax *= recipNorm;
 106:Madgwick.c    **** 		ay *= recipNorm;
 107:Madgwick.c    **** 		az *= recipNorm;
 108:Madgwick.c    **** 
 109:Madgwick.c    **** 		// Normalise magnetometer measurement
 110:Madgwick.c    **** 		recipNorm = invSqrt(mx * mx + my * my + mz * mz);
 111:Madgwick.c    **** 		mx *= recipNorm;
 112:Madgwick.c    **** 		my *= recipNorm;
 113:Madgwick.c    **** 		mz *= recipNorm;
 114:Madgwick.c    **** 
 115:Madgwick.c    **** 		// Auxiliary variables to avoid repeated arithmetic
 116:Madgwick.c    **** 		_2q0mx = 2.0f * q0 * mx;
 117:Madgwick.c    **** 		_2q0my = 2.0f * q0 * my;
 118:Madgwick.c    **** 		_2q0mz = 2.0f * q0 * mz;
 119:Madgwick.c    **** 		_2q1mx = 2.0f * q1 * mx;
 120:Madgwick.c    **** 		_2q0 = 2.0f * q0;
 121:Madgwick.c    **** 		_2q1 = 2.0f * q1;
 122:Madgwick.c    **** 		_2q2 = 2.0f * q2;
 123:Madgwick.c    **** 		_2q3 = 2.0f * q3;
 124:Madgwick.c    **** 		_2q0q2 = 2.0f * q0 * q2;
 125:Madgwick.c    **** 		_2q2q3 = 2.0f * q2 * q3;
 126:Madgwick.c    **** 		q0q0 = q0 * q0;
 127:Madgwick.c    **** 		q0q1 = q0 * q1;
 128:Madgwick.c    **** 		q0q2 = q0 * q2;
 129:Madgwick.c    **** 		q0q3 = q0 * q3;
 130:Madgwick.c    **** 		q1q1 = q1 * q1;
 131:Madgwick.c    **** 		q1q2 = q1 * q2;
 132:Madgwick.c    **** 		q1q3 = q1 * q3;
 133:Madgwick.c    **** 		q2q2 = q2 * q2;
 134:Madgwick.c    **** 		q2q3 = q2 * q3;
 135:Madgwick.c    **** 		q3q3 = q3 * q3;
 136:Madgwick.c    **** 
 137:Madgwick.c    **** 		// Reference direction of Earth's magnetic field
 138:Madgwick.c    **** 		hx = mx * q0q0 - _2q0my * q3 + _2q0mz * q2 + mx * q1q1 + _2q1 * my * q2 + _2q1 * mz * q3 - mx * q
 139:Madgwick.c    **** 		hy = _2q0mx * q3 + my * q0q0 - _2q0mz * q1 + _2q1mx * q2 - my * q1q1 + my * q2q2 + _2q2 * mz * q3
 140:Madgwick.c    **** 		_2bx = sqrtf(hx * hx + hy * hy);
 141:Madgwick.c    **** 		_2bz = -_2q0mx * q2 + _2q0my * q1 + mz * q0q0 + _2q1mx * q3 - mz * q1q1 + _2q2 * my * q3 - mz * q
 142:Madgwick.c    **** 		_4bx = 2.0f * _2bx;
 143:Madgwick.c    **** 		_4bz = 2.0f * _2bz;
ARM GAS  C:\Users\A85590\AppData\Local\Temp\cc53CFAh.s 			page 4


 144:Madgwick.c    **** 
 145:Madgwick.c    **** 		// Gradient decent algorithm corrective step
 146:Madgwick.c    **** 		s0 = -_2q2 * (2.0f * q1q3 - _2q0q2 - ax) + _2q1 * (2.0f * q0q1 + _2q2q3 - ay) - _2bz * q2 * (_2bx
 147:Madgwick.c    **** 		s1 = _2q3 * (2.0f * q1q3 - _2q0q2 - ax) + _2q0 * (2.0f * q0q1 + _2q2q3 - ay) - 4.0f * q1 * (1 - 2
 148:Madgwick.c    **** 		s2 = -_2q0 * (2.0f * q1q3 - _2q0q2 - ax) + _2q3 * (2.0f * q0q1 + _2q2q3 - ay) - 4.0f * q2 * (1 - 
 149:Madgwick.c    **** 		s3 = _2q1 * (2.0f * q1q3 - _2q0q2 - ax) + _2q2 * (2.0f * q0q1 + _2q2q3 - ay) + (-_4bx * q3 + _2bz
 150:Madgwick.c    **** 		recipNorm = invSqrt(s0 * s0 + s1 * s1 + s2 * s2 + s3 * s3); // normalise step magnitude
 151:Madgwick.c    **** 		s0 *= recipNorm;
 152:Madgwick.c    **** 		s1 *= recipNorm;
 153:Madgwick.c    **** 		s2 *= recipNorm;
 154:Madgwick.c    **** 		s3 *= recipNorm;
 155:Madgwick.c    **** 
 156:Madgwick.c    **** 		// Apply feedback step
 157:Madgwick.c    **** 		qDot1 -= beta * s0;
 158:Madgwick.c    **** 		qDot2 -= beta * s1;
 159:Madgwick.c    **** 		qDot3 -= beta * s2;
 160:Madgwick.c    **** 		qDot4 -= beta * s3;
 161:Madgwick.c    **** 	}
 162:Madgwick.c    **** 
 163:Madgwick.c    **** 	// Integrate rate of change of quaternion to yield quaternion
 164:Madgwick.c    **** 	q0 += qDot1 * invSampleFreq;
 165:Madgwick.c    **** 	q1 += qDot2 * invSampleFreq;
 166:Madgwick.c    **** 	q2 += qDot3 * invSampleFreq;
 167:Madgwick.c    **** 	q3 += qDot4 * invSampleFreq;
 168:Madgwick.c    **** 
 169:Madgwick.c    **** 	// Normalise quaternion
 170:Madgwick.c    **** 	recipNorm = invSqrt(q0 * q0 + q1 * q1 + q2 * q2 + q3 * q3);
 171:Madgwick.c    **** 	q0 *= recipNorm;
 172:Madgwick.c    **** 	q1 *= recipNorm;
 173:Madgwick.c    **** 	q2 *= recipNorm;
 174:Madgwick.c    **** 	q3 *= recipNorm;
 175:Madgwick.c    **** 	anglesComputed = 0;
 176:Madgwick.c    **** }
 177:Madgwick.c    **** 
 178:Madgwick.c    **** //-------------------------------------------------------------------------------------------
 179:Madgwick.c    **** // IMU algorithm update
 180:Madgwick.c    **** 
 181:Madgwick.c    **** void Madgwick_updateIMU(float gx, float gy, float gz, float ax, float ay, float az)
 182:Madgwick.c    **** {
 183:Madgwick.c    **** 	float recipNorm;
 184:Madgwick.c    **** 	float s0, s1, s2, s3;
 185:Madgwick.c    **** 	float qDot1, qDot2, qDot3, qDot4;
 186:Madgwick.c    **** 	float _2q0, _2q1, _2q2, _2q3, _4q0, _4q1, _4q2, _8q1, _8q2, q0q0, q1q1, q2q2, q3q3;
 187:Madgwick.c    **** 
 188:Madgwick.c    **** 	// Convert gyroscope degrees/sec to radians/sec
 189:Madgwick.c    **** 	gx *= 0.0174533f;
 190:Madgwick.c    **** 	gy *= 0.0174533f;
 191:Madgwick.c    **** 	gz *= 0.0174533f;
 192:Madgwick.c    **** 
 193:Madgwick.c    **** 	// Rate of change of quaternion from gyroscope
 194:Madgwick.c    **** 	qDot1 = 0.5f * (-q1 * gx - q2 * gy - q3 * gz);
 195:Madgwick.c    **** 	qDot2 = 0.5f * (q0 * gx + q2 * gz - q3 * gy);
 196:Madgwick.c    **** 	qDot3 = 0.5f * (q0 * gy - q1 * gz + q3 * gx);
 197:Madgwick.c    **** 	qDot4 = 0.5f * (q0 * gz + q1 * gy - q2 * gx);
 198:Madgwick.c    **** 
 199:Madgwick.c    **** 	// Compute feedback only if accelerometer measurement valid (avoids NaN in accelerometer normalisa
 200:Madgwick.c    **** 	if (!((ax == 0.0f) && (ay == 0.0f) && (az == 0.0f)))
ARM GAS  C:\Users\A85590\AppData\Local\Temp\cc53CFAh.s 			page 5


 201:Madgwick.c    **** 	{
 202:Madgwick.c    **** 
 203:Madgwick.c    **** 		// Normalise accelerometer measurement
 204:Madgwick.c    **** 		recipNorm = invSqrt(ax * ax + ay * ay + az * az);
 205:Madgwick.c    **** 		ax *= recipNorm;
 206:Madgwick.c    **** 		ay *= recipNorm;
 207:Madgwick.c    **** 		az *= recipNorm;
 208:Madgwick.c    **** 
 209:Madgwick.c    **** 		// Auxiliary variables to avoid repeated arithmetic
 210:Madgwick.c    **** 		_2q0 = 2.0f * q0;
 211:Madgwick.c    **** 		_2q1 = 2.0f * q1;
 212:Madgwick.c    **** 		_2q2 = 2.0f * q2;
 213:Madgwick.c    **** 		_2q3 = 2.0f * q3;
 214:Madgwick.c    **** 		_4q0 = 4.0f * q0;
 215:Madgwick.c    **** 		_4q1 = 4.0f * q1;
 216:Madgwick.c    **** 		_4q2 = 4.0f * q2;
 217:Madgwick.c    **** 		_8q1 = 8.0f * q1;
 218:Madgwick.c    **** 		_8q2 = 8.0f * q2;
 219:Madgwick.c    **** 		q0q0 = q0 * q0;
 220:Madgwick.c    **** 		q1q1 = q1 * q1;
 221:Madgwick.c    **** 		q2q2 = q2 * q2;
 222:Madgwick.c    **** 		q3q3 = q3 * q3;
 223:Madgwick.c    **** 
 224:Madgwick.c    **** 		// Gradient decent algorithm corrective step
 225:Madgwick.c    **** 		s0 = _4q0 * q2q2 + _2q2 * ax + _4q0 * q1q1 - _2q1 * ay;
 226:Madgwick.c    **** 		s1 = _4q1 * q3q3 - _2q3 * ax + 4.0f * q0q0 * q1 - _2q0 * ay - _4q1 + _8q1 * q1q1 + _8q1 * q2q2 + 
 227:Madgwick.c    **** 		s2 = 4.0f * q0q0 * q2 + _2q0 * ax + _4q2 * q3q3 - _2q3 * ay - _4q2 + _8q2 * q1q1 + _8q2 * q2q2 + 
 228:Madgwick.c    **** 		s3 = 4.0f * q1q1 * q3 - _2q1 * ax + 4.0f * q2q2 * q3 - _2q2 * ay;
 229:Madgwick.c    **** 		recipNorm = invSqrt(s0 * s0 + s1 * s1 + s2 * s2 + s3 * s3); // normalise step magnitude
 230:Madgwick.c    **** 		s0 *= recipNorm;
 231:Madgwick.c    **** 		s1 *= recipNorm;
 232:Madgwick.c    **** 		s2 *= recipNorm;
 233:Madgwick.c    **** 		s3 *= recipNorm;
 234:Madgwick.c    **** 
 235:Madgwick.c    **** 		// Apply feedback step
 236:Madgwick.c    **** 		qDot1 -= beta * s0;
 237:Madgwick.c    **** 		qDot2 -= beta * s1;
 238:Madgwick.c    **** 		qDot3 -= beta * s2;
 239:Madgwick.c    **** 		qDot4 -= beta * s3;
 240:Madgwick.c    **** 	}
 241:Madgwick.c    **** 
 242:Madgwick.c    **** 	// Integrate rate of change of quaternion to yield quaternion
 243:Madgwick.c    **** 	q0 += qDot1 * invSampleFreq;
 244:Madgwick.c    **** 	q1 += qDot2 * invSampleFreq;
 245:Madgwick.c    **** 	q2 += qDot3 * invSampleFreq;
 246:Madgwick.c    **** 	q3 += qDot4 * invSampleFreq;
 247:Madgwick.c    **** 
 248:Madgwick.c    **** 	// Normalise quaternion
 249:Madgwick.c    **** 	recipNorm = invSqrt(q0 * q0 + q1 * q1 + q2 * q2 + q3 * q3);
 250:Madgwick.c    **** 	q0 *= recipNorm;
 251:Madgwick.c    **** 	q1 *= recipNorm;
 252:Madgwick.c    **** 	q2 *= recipNorm;
 253:Madgwick.c    **** 	q3 *= recipNorm;
 254:Madgwick.c    **** 	anglesComputed = 0;
 255:Madgwick.c    **** }
 256:Madgwick.c    **** 
 257:Madgwick.c    **** //-------------------------------------------------------------------------------------------
ARM GAS  C:\Users\A85590\AppData\Local\Temp\cc53CFAh.s 			page 6


 258:Madgwick.c    **** // Fast inverse square-root
 259:Madgwick.c    **** // See: http://en.wikipedia.org/wiki/Fast_inverse_square_root
 260:Madgwick.c    **** 
 261:Madgwick.c    **** float invSqrt(float x)
 262:Madgwick.c    **** {
  29              		.loc 1 262 0
  30              		.cfi_startproc
  31              		@ args = 0, pretend = 0, frame = 0
  32              		@ frame_needed = 0, uses_anonymous_args = 0
  33              	.LVL0:
  34 0000 70B5     		push	{r4, r5, r6, lr}
  35              		.cfi_def_cfa_offset 16
  36              		.cfi_offset 4, -16
  37              		.cfi_offset 5, -12
  38              		.cfi_offset 6, -8
  39              		.cfi_offset 14, -4
  40 0002 041C     		adds	r4, r0, #0
 263:Madgwick.c    **** 	float halfx = 0.5f * x;
  41              		.loc 1 263 0
  42 0004 FC21     		movs	r1, #252
  43 0006 8905     		lsls	r1, r1, #22
  44 0008 FFF7FEFF 		bl	__aeabi_fmul
  45              	.LVL1:
  46 000c 051C     		adds	r5, r0, #0
  47              	.LVL2:
 264:Madgwick.c    **** 	float y = x;
 265:Madgwick.c    **** 	long i = *(long *)&y;
 266:Madgwick.c    **** 	i = 0x5f3759df - (i >> 1);
  48              		.loc 1 266 0
  49 000e 6410     		asrs	r4, r4, #1
  50              	.LVL3:
 267:Madgwick.c    **** 	y = *(float *)&i;
  51              		.loc 1 267 0
  52 0010 124B     		ldr	r3, .L2
  53 0012 1C1B     		subs	r4, r3, r4
  54              	.LVL4:
 268:Madgwick.c    **** 	y = y * (1.5f - (halfx * y * y));
  55              		.loc 1 268 0
  56 0014 211C     		adds	r1, r4, #0
  57 0016 FFF7FEFF 		bl	__aeabi_fmul
  58              	.LVL5:
  59 001a 011C     		adds	r1, r0, #0
  60 001c 201C     		adds	r0, r4, #0
  61 001e FFF7FEFF 		bl	__aeabi_fmul
  62              	.LVL6:
  63 0022 011C     		adds	r1, r0, #0
  64 0024 FF20     		movs	r0, #255
  65 0026 8005     		lsls	r0, r0, #22
  66 0028 FFF7FEFF 		bl	__aeabi_fsub
  67              	.LVL7:
  68 002c 011C     		adds	r1, r0, #0
  69 002e 201C     		adds	r0, r4, #0
  70 0030 FFF7FEFF 		bl	__aeabi_fmul
  71              	.LVL8:
  72 0034 041C     		adds	r4, r0, #0
  73              	.LVL9:
 269:Madgwick.c    **** 	y = y * (1.5f - (halfx * y * y));
ARM GAS  C:\Users\A85590\AppData\Local\Temp\cc53CFAh.s 			page 7


  74              		.loc 1 269 0
  75 0036 011C     		adds	r1, r0, #0
  76 0038 281C     		adds	r0, r5, #0
  77              	.LVL10:
  78 003a FFF7FEFF 		bl	__aeabi_fmul
  79              	.LVL11:
  80 003e 011C     		adds	r1, r0, #0
  81 0040 201C     		adds	r0, r4, #0
  82 0042 FFF7FEFF 		bl	__aeabi_fmul
  83              	.LVL12:
  84 0046 011C     		adds	r1, r0, #0
  85 0048 FF20     		movs	r0, #255
  86 004a 8005     		lsls	r0, r0, #22
  87 004c FFF7FEFF 		bl	__aeabi_fsub
  88              	.LVL13:
  89 0050 011C     		adds	r1, r0, #0
  90 0052 201C     		adds	r0, r4, #0
  91 0054 FFF7FEFF 		bl	__aeabi_fmul
  92              	.LVL14:
 270:Madgwick.c    **** 	return y;
 271:Madgwick.c    **** }
  93              		.loc 1 271 0
  94              		@ sp needed
  95              	.LVL15:
  96 0058 70BD     		pop	{r4, r5, r6, pc}
  97              	.L3:
  98 005a C046     		.align	2
  99              	.L2:
 100 005c DF59375F 		.word	1597463007
 101              		.cfi_endproc
 102              	.LFE5:
 103              		.size	invSqrt, .-invSqrt
 104              		.global	__aeabi_fadd
 105              		.section	.text.computeAngles,"ax",%progbits
 106              		.align	2
 107              		.code	16
 108              		.thumb_func
 109              		.type	computeAngles, %function
 110              	computeAngles:
 111              	.LFB6:
 272:Madgwick.c    **** 
 273:Madgwick.c    **** //-------------------------------------------------------------------------------------------
 274:Madgwick.c    **** 
 275:Madgwick.c    **** void computeAngles()
 276:Madgwick.c    **** {
 112              		.loc 1 276 0
 113              		.cfi_startproc
 114              		@ args = 0, pretend = 0, frame = 8
 115              		@ frame_needed = 0, uses_anonymous_args = 0
 116 0000 F0B5     		push	{r4, r5, r6, r7, lr}
 117              		.cfi_def_cfa_offset 20
 118              		.cfi_offset 4, -20
 119              		.cfi_offset 5, -16
 120              		.cfi_offset 6, -12
 121              		.cfi_offset 7, -8
 122              		.cfi_offset 14, -4
 123 0002 83B0     		sub	sp, sp, #12
ARM GAS  C:\Users\A85590\AppData\Local\Temp\cc53CFAh.s 			page 8


 124              		.cfi_def_cfa_offset 32
 277:Madgwick.c    **** 	roll = atan2f(q0 * q1 + q2 * q3, 0.5f - q1 * q1 - q2 * q2);
 125              		.loc 1 277 0
 126 0004 334E     		ldr	r6, .L5
 127 0006 3568     		ldr	r5, [r6]
 128 0008 7168     		ldr	r1, [r6, #4]
 129 000a 281C     		adds	r0, r5, #0
 130 000c FFF7FEFF 		bl	__aeabi_fmul
 131              	.LVL16:
 132 0010 0190     		str	r0, [sp, #4]
 133 0012 B468     		ldr	r4, [r6, #8]
 134 0014 F168     		ldr	r1, [r6, #12]
 135 0016 201C     		adds	r0, r4, #0
 136 0018 FFF7FEFF 		bl	__aeabi_fmul
 137              	.LVL17:
 138 001c 071C     		adds	r7, r0, #0
 139 001e 291C     		adds	r1, r5, #0
 140 0020 281C     		adds	r0, r5, #0
 141 0022 FFF7FEFF 		bl	__aeabi_fmul
 142              	.LVL18:
 143 0026 011C     		adds	r1, r0, #0
 144 0028 FC20     		movs	r0, #252
 145 002a 8005     		lsls	r0, r0, #22
 146 002c FFF7FEFF 		bl	__aeabi_fsub
 147              	.LVL19:
 148 0030 051C     		adds	r5, r0, #0
 149 0032 211C     		adds	r1, r4, #0
 150 0034 201C     		adds	r0, r4, #0
 151 0036 FFF7FEFF 		bl	__aeabi_fmul
 152              	.LVL20:
 153 003a 011C     		adds	r1, r0, #0
 154 003c 281C     		adds	r0, r5, #0
 155 003e FFF7FEFF 		bl	__aeabi_fsub
 156              	.LVL21:
 157 0042 041C     		adds	r4, r0, #0
 158 0044 391C     		adds	r1, r7, #0
 159 0046 0198     		ldr	r0, [sp, #4]
 160 0048 FFF7FEFF 		bl	__aeabi_fadd
 161              	.LVL22:
 162 004c 211C     		adds	r1, r4, #0
 163 004e FFF7FEFF 		bl	atan2f
 164              	.LVL23:
 165 0052 3061     		str	r0, [r6, #16]
 278:Madgwick.c    **** 	pitch = asinf(-2.0f * (q1 * q3 - q0 * q2));
 166              		.loc 1 278 0
 167 0054 F168     		ldr	r1, [r6, #12]
 168 0056 3068     		ldr	r0, [r6]
 169 0058 FFF7FEFF 		bl	__aeabi_fmul
 170              	.LVL24:
 171 005c 041C     		adds	r4, r0, #0
 172 005e B168     		ldr	r1, [r6, #8]
 173 0060 7068     		ldr	r0, [r6, #4]
 174 0062 FFF7FEFF 		bl	__aeabi_fmul
 175              	.LVL25:
 176 0066 011C     		adds	r1, r0, #0
 177 0068 201C     		adds	r0, r4, #0
 178 006a FFF7FEFF 		bl	__aeabi_fsub
ARM GAS  C:\Users\A85590\AppData\Local\Temp\cc53CFAh.s 			page 9


 179              	.LVL26:
 180 006e C021     		movs	r1, #192
 181 0070 0906     		lsls	r1, r1, #24
 182 0072 FFF7FEFF 		bl	__aeabi_fmul
 183              	.LVL27:
 184 0076 FFF7FEFF 		bl	asinf
 185              	.LVL28:
 186 007a 7061     		str	r0, [r6, #20]
 279:Madgwick.c    **** 	yaw = atan2f(q1 * q2 + q0 * q3, 0.5f - q2 * q2 - q3 * q3);
 187              		.loc 1 279 0
 188 007c B568     		ldr	r5, [r6, #8]
 189 007e 3168     		ldr	r1, [r6]
 190 0080 281C     		adds	r0, r5, #0
 191 0082 FFF7FEFF 		bl	__aeabi_fmul
 192              	.LVL29:
 193 0086 0190     		str	r0, [sp, #4]
 194 0088 F468     		ldr	r4, [r6, #12]
 195 008a 7168     		ldr	r1, [r6, #4]
 196 008c 201C     		adds	r0, r4, #0
 197 008e FFF7FEFF 		bl	__aeabi_fmul
 198              	.LVL30:
 199 0092 071C     		adds	r7, r0, #0
 200 0094 291C     		adds	r1, r5, #0
 201 0096 281C     		adds	r0, r5, #0
 202 0098 FFF7FEFF 		bl	__aeabi_fmul
 203              	.LVL31:
 204 009c 011C     		adds	r1, r0, #0
 205 009e FC20     		movs	r0, #252
 206 00a0 8005     		lsls	r0, r0, #22
 207 00a2 FFF7FEFF 		bl	__aeabi_fsub
 208              	.LVL32:
 209 00a6 051C     		adds	r5, r0, #0
 210 00a8 211C     		adds	r1, r4, #0
 211 00aa 201C     		adds	r0, r4, #0
 212 00ac FFF7FEFF 		bl	__aeabi_fmul
 213              	.LVL33:
 214 00b0 011C     		adds	r1, r0, #0
 215 00b2 281C     		adds	r0, r5, #0
 216 00b4 FFF7FEFF 		bl	__aeabi_fsub
 217              	.LVL34:
 218 00b8 041C     		adds	r4, r0, #0
 219 00ba 391C     		adds	r1, r7, #0
 220 00bc 0198     		ldr	r0, [sp, #4]
 221 00be FFF7FEFF 		bl	__aeabi_fadd
 222              	.LVL35:
 223 00c2 211C     		adds	r1, r4, #0
 224 00c4 FFF7FEFF 		bl	atan2f
 225              	.LVL36:
 226 00c8 B061     		str	r0, [r6, #24]
 280:Madgwick.c    **** 	anglesComputed = 1;
 227              		.loc 1 280 0
 228 00ca 0123     		movs	r3, #1
 229 00cc 3377     		strb	r3, [r6, #28]
 281:Madgwick.c    **** }
 230              		.loc 1 281 0
 231 00ce 03B0     		add	sp, sp, #12
 232              		@ sp needed
ARM GAS  C:\Users\A85590\AppData\Local\Temp\cc53CFAh.s 			page 10


 233 00d0 F0BD     		pop	{r4, r5, r6, r7, pc}
 234              	.L6:
 235 00d2 C046     		.align	2
 236              	.L5:
 237 00d4 00000000 		.word	.LANCHOR0
 238              		.cfi_endproc
 239              	.LFE6:
 240              		.size	computeAngles, .-computeAngles
 241              		.section	.text.Madgwick,"ax",%progbits
 242              		.align	2
 243              		.global	Madgwick
 244              		.code	16
 245              		.thumb_func
 246              		.type	Madgwick, %function
 247              	Madgwick:
 248              	.LFB1:
  58:Madgwick.c    **** 	beta = betaDef;
 249              		.loc 1 58 0
 250              		.cfi_startproc
 251              		@ args = 0, pretend = 0, frame = 0
 252              		@ frame_needed = 0, uses_anonymous_args = 0
 253              		@ link register save eliminated.
  59:Madgwick.c    **** 	q0 = 1.0f;
 254              		.loc 1 59 0
 255 0000 074B     		ldr	r3, .L8
 256 0002 084A     		ldr	r2, .L8+4
 257 0004 1A62     		str	r2, [r3, #32]
  60:Madgwick.c    **** 	q1 = 0.0f;
 258              		.loc 1 60 0
 259 0006 FE22     		movs	r2, #254
 260 0008 9205     		lsls	r2, r2, #22
 261 000a 5A60     		str	r2, [r3, #4]
  61:Madgwick.c    **** 	q2 = 0.0f;
 262              		.loc 1 61 0
 263 000c 0022     		movs	r2, #0
 264 000e 1A60     		str	r2, [r3]
  62:Madgwick.c    **** 	q3 = 0.0f;
 265              		.loc 1 62 0
 266 0010 9A60     		str	r2, [r3, #8]
  63:Madgwick.c    **** 	invSampleFreq = 1.0f / sampleFreqDef;
 267              		.loc 1 63 0
 268 0012 DA60     		str	r2, [r3, #12]
  64:Madgwick.c    **** 	anglesComputed = 0;
 269              		.loc 1 64 0
 270 0014 EC22     		movs	r2, #236
 271 0016 9205     		lsls	r2, r2, #22
 272 0018 5A62     		str	r2, [r3, #36]
  65:Madgwick.c    **** }
 273              		.loc 1 65 0
 274 001a 0022     		movs	r2, #0
 275 001c 1A77     		strb	r2, [r3, #28]
  66:Madgwick.c    **** 
 276              		.loc 1 66 0
 277              		@ sp needed
 278 001e 7047     		bx	lr
 279              	.L9:
 280              		.align	2
ARM GAS  C:\Users\A85590\AppData\Local\Temp\cc53CFAh.s 			page 11


 281              	.L8:
 282 0020 00000000 		.word	.LANCHOR0
 283 0024 CDCCCC3D 		.word	1036831949
 284              		.cfi_endproc
 285              	.LFE1:
 286              		.size	Madgwick, .-Madgwick
 287              		.global	__aeabi_fdiv
 288              		.section	.text.Madgwick_begin,"ax",%progbits
 289              		.align	2
 290              		.global	Madgwick_begin
 291              		.code	16
 292              		.thumb_func
 293              		.type	Madgwick_begin, %function
 294              	Madgwick_begin:
 295              	.LFB2:
  69:Madgwick.c    **** 	 invSampleFreq = (1.0f / sampleFrequency); 
 296              		.loc 1 69 0
 297              		.cfi_startproc
 298              		@ args = 0, pretend = 0, frame = 0
 299              		@ frame_needed = 0, uses_anonymous_args = 0
 300              	.LVL37:
 301 0000 10B5     		push	{r4, lr}
 302              		.cfi_def_cfa_offset 8
 303              		.cfi_offset 4, -8
 304              		.cfi_offset 14, -4
 305 0002 011C     		adds	r1, r0, #0
  70:Madgwick.c    **** }
 306              		.loc 1 70 0
 307 0004 FE20     		movs	r0, #254
 308              	.LVL38:
 309 0006 8005     		lsls	r0, r0, #22
 310 0008 FFF7FEFF 		bl	__aeabi_fdiv
 311              	.LVL39:
 312 000c 014B     		ldr	r3, .L11
 313 000e 5862     		str	r0, [r3, #36]
  71:Madgwick.c    **** 
 314              		.loc 1 71 0
 315              		@ sp needed
 316 0010 10BD     		pop	{r4, pc}
 317              	.L12:
 318 0012 C046     		.align	2
 319              	.L11:
 320 0014 00000000 		.word	.LANCHOR0
 321              		.cfi_endproc
 322              	.LFE2:
 323              		.size	Madgwick_begin, .-Madgwick_begin
 324              		.global	__aeabi_fcmpeq
 325              		.section	.text.Madgwick_updateIMU,"ax",%progbits
 326              		.align	2
 327              		.global	Madgwick_updateIMU
 328              		.code	16
 329              		.thumb_func
 330              		.type	Madgwick_updateIMU, %function
 331              	Madgwick_updateIMU:
 332              	.LFB4:
 182:Madgwick.c    **** 	float recipNorm;
 333              		.loc 1 182 0
ARM GAS  C:\Users\A85590\AppData\Local\Temp\cc53CFAh.s 			page 12


 334              		.cfi_startproc
 335              		@ args = 8, pretend = 0, frame = 88
 336              		@ frame_needed = 0, uses_anonymous_args = 0
 337              	.LVL40:
 338 0000 F0B5     		push	{r4, r5, r6, r7, lr}
 339              		.cfi_def_cfa_offset 20
 340              		.cfi_offset 4, -20
 341              		.cfi_offset 5, -16
 342              		.cfi_offset 6, -12
 343              		.cfi_offset 7, -8
 344              		.cfi_offset 14, -4
 345 0002 97B0     		sub	sp, sp, #92
 346              		.cfi_def_cfa_offset 112
 347 0004 0D1C     		adds	r5, r1, #0
 348 0006 161C     		adds	r6, r2, #0
 349 0008 0493     		str	r3, [sp, #16]
 189:Madgwick.c    **** 	gy *= 0.0174533f;
 350              		.loc 1 189 0
 351 000a 4B49     		ldr	r1, .L17
 352              	.LVL41:
 353 000c FFF7FEFF 		bl	__aeabi_fmul
 354              	.LVL42:
 355 0010 041C     		adds	r4, r0, #0
 356              	.LVL43:
 190:Madgwick.c    **** 	gz *= 0.0174533f;
 357              		.loc 1 190 0
 358 0012 4949     		ldr	r1, .L17
 359 0014 281C     		adds	r0, r5, #0
 360              	.LVL44:
 361 0016 FFF7FEFF 		bl	__aeabi_fmul
 362              	.LVL45:
 363 001a 051C     		adds	r5, r0, #0
 364              	.LVL46:
 191:Madgwick.c    **** 
 365              		.loc 1 191 0
 366 001c 4649     		ldr	r1, .L17
 367 001e 301C     		adds	r0, r6, #0
 368              	.LVL47:
 369 0020 FFF7FEFF 		bl	__aeabi_fmul
 370              	.LVL48:
 371 0024 0390     		str	r0, [sp, #12]
 372              	.LVL49:
 194:Madgwick.c    **** 	qDot2 = 0.5f * (q0 * gx + q2 * gz - q3 * gy);
 373              		.loc 1 194 0
 374 0026 454F     		ldr	r7, .L17+4
 375 0028 3E68     		ldr	r6, [r7]
 376 002a 8022     		movs	r2, #128
 377 002c 1206     		lsls	r2, r2, #24
 378 002e B118     		adds	r1, r6, r2
 379 0030 201C     		adds	r0, r4, #0
 380              	.LVL50:
 381 0032 FFF7FEFF 		bl	__aeabi_fmul
 382              	.LVL51:
 383 0036 0290     		str	r0, [sp, #8]
 384 0038 BA68     		ldr	r2, [r7, #8]
 385 003a 0192     		str	r2, [sp, #4]
 386 003c 111C     		adds	r1, r2, #0
ARM GAS  C:\Users\A85590\AppData\Local\Temp\cc53CFAh.s 			page 13


 387 003e 281C     		adds	r0, r5, #0
 388 0040 FFF7FEFF 		bl	__aeabi_fmul
 389              	.LVL52:
 390 0044 011C     		adds	r1, r0, #0
 391 0046 0298     		ldr	r0, [sp, #8]
 392 0048 FFF7FEFF 		bl	__aeabi_fsub
 393              	.LVL53:
 394 004c 0590     		str	r0, [sp, #20]
 395 004e F968     		ldr	r1, [r7, #12]
 396 0050 0291     		str	r1, [sp, #8]
 397 0052 0398     		ldr	r0, [sp, #12]
 398 0054 FFF7FEFF 		bl	__aeabi_fmul
 399              	.LVL54:
 400 0058 011C     		adds	r1, r0, #0
 401 005a 0598     		ldr	r0, [sp, #20]
 402 005c FFF7FEFF 		bl	__aeabi_fsub
 403              	.LVL55:
 404 0060 FC21     		movs	r1, #252
 405 0062 8905     		lsls	r1, r1, #22
 406 0064 FFF7FEFF 		bl	__aeabi_fmul
 407              	.LVL56:
 408 0068 0690     		str	r0, [sp, #24]
 409              	.LVL57:
 195:Madgwick.c    **** 	qDot3 = 0.5f * (q0 * gy - q1 * gz + q3 * gx);
 410              		.loc 1 195 0
 411 006a 7F68     		ldr	r7, [r7, #4]
 412 006c 391C     		adds	r1, r7, #0
 413 006e 201C     		adds	r0, r4, #0
 414              	.LVL58:
 415 0070 FFF7FEFF 		bl	__aeabi_fmul
 416              	.LVL59:
 417 0074 0590     		str	r0, [sp, #20]
 418 0076 0199     		ldr	r1, [sp, #4]
 419 0078 0398     		ldr	r0, [sp, #12]
 420 007a FFF7FEFF 		bl	__aeabi_fmul
 421              	.LVL60:
 422 007e 011C     		adds	r1, r0, #0
 423 0080 0598     		ldr	r0, [sp, #20]
 424 0082 FFF7FEFF 		bl	__aeabi_fadd
 425              	.LVL61:
 426 0086 0590     		str	r0, [sp, #20]
 427 0088 0299     		ldr	r1, [sp, #8]
 428 008a 281C     		adds	r0, r5, #0
 429 008c FFF7FEFF 		bl	__aeabi_fmul
 430              	.LVL62:
 431 0090 011C     		adds	r1, r0, #0
 432 0092 0598     		ldr	r0, [sp, #20]
 433 0094 FFF7FEFF 		bl	__aeabi_fsub
 434              	.LVL63:
 435 0098 FC21     		movs	r1, #252
 436 009a 8905     		lsls	r1, r1, #22
 437 009c FFF7FEFF 		bl	__aeabi_fmul
 438              	.LVL64:
 439 00a0 0790     		str	r0, [sp, #28]
 440              	.LVL65:
 196:Madgwick.c    **** 	qDot4 = 0.5f * (q0 * gz + q1 * gy - q2 * gx);
 441              		.loc 1 196 0
ARM GAS  C:\Users\A85590\AppData\Local\Temp\cc53CFAh.s 			page 14


 442 00a2 391C     		adds	r1, r7, #0
 443 00a4 281C     		adds	r0, r5, #0
 444              	.LVL66:
 445 00a6 FFF7FEFF 		bl	__aeabi_fmul
 446              	.LVL67:
 447 00aa 0590     		str	r0, [sp, #20]
 448 00ac 311C     		adds	r1, r6, #0
 449 00ae 0398     		ldr	r0, [sp, #12]
 450 00b0 FFF7FEFF 		bl	__aeabi_fmul
 451              	.LVL68:
 452 00b4 011C     		adds	r1, r0, #0
 453 00b6 0598     		ldr	r0, [sp, #20]
 454 00b8 FFF7FEFF 		bl	__aeabi_fsub
 455              	.LVL69:
 456 00bc 0590     		str	r0, [sp, #20]
 457 00be 0299     		ldr	r1, [sp, #8]
 458 00c0 201C     		adds	r0, r4, #0
 459 00c2 FFF7FEFF 		bl	__aeabi_fmul
 460              	.LVL70:
 461 00c6 011C     		adds	r1, r0, #0
 462 00c8 0598     		ldr	r0, [sp, #20]
 463 00ca FFF7FEFF 		bl	__aeabi_fadd
 464              	.LVL71:
 465 00ce FC21     		movs	r1, #252
 466 00d0 8905     		lsls	r1, r1, #22
 467 00d2 FFF7FEFF 		bl	__aeabi_fmul
 468              	.LVL72:
 469 00d6 0890     		str	r0, [sp, #32]
 470              	.LVL73:
 197:Madgwick.c    **** 
 471              		.loc 1 197 0
 472 00d8 391C     		adds	r1, r7, #0
 473 00da 0398     		ldr	r0, [sp, #12]
 474              	.LVL74:
 475 00dc FFF7FEFF 		bl	__aeabi_fmul
 476              	.LVL75:
 477 00e0 0390     		str	r0, [sp, #12]
 478              	.LVL76:
 479 00e2 311C     		adds	r1, r6, #0
 480 00e4 281C     		adds	r0, r5, #0
 481 00e6 FFF7FEFF 		bl	__aeabi_fmul
 482              	.LVL77:
 483 00ea 011C     		adds	r1, r0, #0
 484 00ec 0398     		ldr	r0, [sp, #12]
 485 00ee FFF7FEFF 		bl	__aeabi_fadd
 486              	.LVL78:
 487 00f2 051C     		adds	r5, r0, #0
 488              	.LVL79:
 489 00f4 0199     		ldr	r1, [sp, #4]
 490 00f6 201C     		adds	r0, r4, #0
 491 00f8 FFF7FEFF 		bl	__aeabi_fmul
 492              	.LVL80:
 493 00fc 011C     		adds	r1, r0, #0
 494 00fe 281C     		adds	r0, r5, #0
 495 0100 FFF7FEFF 		bl	__aeabi_fsub
 496              	.LVL81:
 497 0104 FC21     		movs	r1, #252
ARM GAS  C:\Users\A85590\AppData\Local\Temp\cc53CFAh.s 			page 15


 498 0106 8905     		lsls	r1, r1, #22
 499 0108 FFF7FEFF 		bl	__aeabi_fmul
 500              	.LVL82:
 501 010c 0990     		str	r0, [sp, #36]
 502              	.LVL83:
 200:Madgwick.c    **** 	{
 503              		.loc 1 200 0
 504 010e 0021     		movs	r1, #0
 505 0110 0498     		ldr	r0, [sp, #16]
 506              	.LVL84:
 507 0112 FFF7FEFF 		bl	__aeabi_fcmpeq
 508              	.LVL85:
 509 0116 0028     		cmp	r0, #0
 510 0118 12D0     		beq	.L14
 200:Madgwick.c    **** 	{
 511              		.loc 1 200 0 is_stmt 0 discriminator 1
 512 011a 0021     		movs	r1, #0
 513 011c 1C98     		ldr	r0, [sp, #112]
 514 011e FFF7FEFF 		bl	__aeabi_fcmpeq
 515              	.LVL86:
 516 0122 0028     		cmp	r0, #0
 517 0124 0CD0     		beq	.L14
 200:Madgwick.c    **** 	{
 518              		.loc 1 200 0 discriminator 2
 519 0126 0021     		movs	r1, #0
 520 0128 1D98     		ldr	r0, [sp, #116]
 521 012a FFF7FEFF 		bl	__aeabi_fcmpeq
 522              	.LVL87:
 523 012e 0028     		cmp	r0, #0
 524 0130 00D0     		beq	.LCB490
 525 0132 A8E1     		b	.L15	@long jump
 526              	.LCB490:
 527 0134 04E0     		b	.L18
 528              	.L19:
 529 0136 C046     		.align	2
 530              	.L17:
 531 0138 39FA8E3C 		.word	1016003129
 532 013c 00000000 		.word	.LANCHOR0
 533              	.L18:
 534              	.L14:
 204:Madgwick.c    **** 		ax *= recipNorm;
 535              		.loc 1 204 0 is_stmt 1
 536 0140 049D     		ldr	r5, [sp, #16]
 537 0142 291C     		adds	r1, r5, #0
 538 0144 281C     		adds	r0, r5, #0
 539 0146 FFF7FEFF 		bl	__aeabi_fmul
 540              	.LVL88:
 541 014a 041C     		adds	r4, r0, #0
 542              	.LVL89:
 543 014c 1C99     		ldr	r1, [sp, #112]
 544 014e 081C     		adds	r0, r1, #0
 545 0150 FFF7FEFF 		bl	__aeabi_fmul
 546              	.LVL90:
 547 0154 011C     		adds	r1, r0, #0
 548 0156 201C     		adds	r0, r4, #0
 549 0158 FFF7FEFF 		bl	__aeabi_fadd
 550              	.LVL91:
ARM GAS  C:\Users\A85590\AppData\Local\Temp\cc53CFAh.s 			page 16


 551 015c 041C     		adds	r4, r0, #0
 552 015e 1D99     		ldr	r1, [sp, #116]
 553 0160 081C     		adds	r0, r1, #0
 554 0162 FFF7FEFF 		bl	__aeabi_fmul
 555              	.LVL92:
 556 0166 011C     		adds	r1, r0, #0
 557 0168 201C     		adds	r0, r4, #0
 558 016a FFF7FEFF 		bl	__aeabi_fadd
 559              	.LVL93:
 560 016e FFF7FEFF 		bl	invSqrt
 561              	.LVL94:
 562 0172 041C     		adds	r4, r0, #0
 563              	.LVL95:
 205:Madgwick.c    **** 		ay *= recipNorm;
 564              		.loc 1 205 0
 565 0174 011C     		adds	r1, r0, #0
 566 0176 281C     		adds	r0, r5, #0
 567              	.LVL96:
 568 0178 FFF7FEFF 		bl	__aeabi_fmul
 569              	.LVL97:
 570 017c 0390     		str	r0, [sp, #12]
 571              	.LVL98:
 206:Madgwick.c    **** 		az *= recipNorm;
 572              		.loc 1 206 0
 573 017e 211C     		adds	r1, r4, #0
 574 0180 1C98     		ldr	r0, [sp, #112]
 575              	.LVL99:
 576 0182 FFF7FEFF 		bl	__aeabi_fmul
 577              	.LVL100:
 578 0186 0490     		str	r0, [sp, #16]
 579              	.LVL101:
 207:Madgwick.c    **** 
 580              		.loc 1 207 0
 581 0188 211C     		adds	r1, r4, #0
 582 018a 1D98     		ldr	r0, [sp, #116]
 583              	.LVL102:
 584 018c FFF7FEFF 		bl	__aeabi_fmul
 585              	.LVL103:
 586 0190 0E90     		str	r0, [sp, #56]
 587              	.LVL104:
 210:Madgwick.c    **** 		_2q1 = 2.0f * q1;
 588              		.loc 1 210 0
 589 0192 391C     		adds	r1, r7, #0
 590 0194 381C     		adds	r0, r7, #0
 591              	.LVL105:
 592 0196 FFF7FEFF 		bl	__aeabi_fadd
 593              	.LVL106:
 594 019a 0F90     		str	r0, [sp, #60]
 595              	.LVL107:
 211:Madgwick.c    **** 		_2q2 = 2.0f * q2;
 596              		.loc 1 211 0
 597 019c 311C     		adds	r1, r6, #0
 598 019e 301C     		adds	r0, r6, #0
 599              	.LVL108:
 600 01a0 FFF7FEFF 		bl	__aeabi_fadd
 601              	.LVL109:
 602 01a4 1090     		str	r0, [sp, #64]
ARM GAS  C:\Users\A85590\AppData\Local\Temp\cc53CFAh.s 			page 17


 603              	.LVL110:
 212:Madgwick.c    **** 		_2q3 = 2.0f * q3;
 604              		.loc 1 212 0
 605 01a6 019D     		ldr	r5, [sp, #4]
 606 01a8 291C     		adds	r1, r5, #0
 607 01aa 281C     		adds	r0, r5, #0
 608              	.LVL111:
 609 01ac FFF7FEFF 		bl	__aeabi_fadd
 610              	.LVL112:
 611 01b0 1190     		str	r0, [sp, #68]
 612              	.LVL113:
 213:Madgwick.c    **** 		_4q0 = 4.0f * q0;
 613              		.loc 1 213 0
 614 01b2 029A     		ldr	r2, [sp, #8]
 615 01b4 111C     		adds	r1, r2, #0
 616 01b6 101C     		adds	r0, r2, #0
 617              	.LVL114:
 618 01b8 FFF7FEFF 		bl	__aeabi_fadd
 619              	.LVL115:
 620 01bc 1290     		str	r0, [sp, #72]
 621              	.LVL116:
 214:Madgwick.c    **** 		_4q1 = 4.0f * q1;
 622              		.loc 1 214 0
 623 01be 8121     		movs	r1, #129
 624 01c0 C905     		lsls	r1, r1, #23
 625 01c2 381C     		adds	r0, r7, #0
 626              	.LVL117:
 627 01c4 FFF7FEFF 		bl	__aeabi_fmul
 628              	.LVL118:
 629 01c8 041C     		adds	r4, r0, #0
 630              	.LVL119:
 215:Madgwick.c    **** 		_4q2 = 4.0f * q2;
 631              		.loc 1 215 0
 632 01ca 8121     		movs	r1, #129
 633 01cc C905     		lsls	r1, r1, #23
 634 01ce 301C     		adds	r0, r6, #0
 635              	.LVL120:
 636 01d0 FFF7FEFF 		bl	__aeabi_fmul
 637              	.LVL121:
 638 01d4 0A90     		str	r0, [sp, #40]
 639              	.LVL122:
 216:Madgwick.c    **** 		_8q1 = 8.0f * q1;
 640              		.loc 1 216 0
 641 01d6 8121     		movs	r1, #129
 642 01d8 C905     		lsls	r1, r1, #23
 643 01da 281C     		adds	r0, r5, #0
 644              	.LVL123:
 645 01dc FFF7FEFF 		bl	__aeabi_fmul
 646              	.LVL124:
 647 01e0 0B90     		str	r0, [sp, #44]
 648              	.LVL125:
 217:Madgwick.c    **** 		_8q2 = 8.0f * q2;
 649              		.loc 1 217 0
 650 01e2 8221     		movs	r1, #130
 651 01e4 C905     		lsls	r1, r1, #23
 652 01e6 301C     		adds	r0, r6, #0
 653              	.LVL126:
ARM GAS  C:\Users\A85590\AppData\Local\Temp\cc53CFAh.s 			page 18


 654 01e8 FFF7FEFF 		bl	__aeabi_fmul
 655              	.LVL127:
 656 01ec 1390     		str	r0, [sp, #76]
 657              	.LVL128:
 218:Madgwick.c    **** 		q0q0 = q0 * q0;
 658              		.loc 1 218 0
 659 01ee 8221     		movs	r1, #130
 660 01f0 C905     		lsls	r1, r1, #23
 661 01f2 0195     		str	r5, [sp, #4]
 662 01f4 281C     		adds	r0, r5, #0
 663              	.LVL129:
 664 01f6 FFF7FEFF 		bl	__aeabi_fmul
 665              	.LVL130:
 666 01fa 1490     		str	r0, [sp, #80]
 667              	.LVL131:
 219:Madgwick.c    **** 		q1q1 = q1 * q1;
 668              		.loc 1 219 0
 669 01fc 391C     		adds	r1, r7, #0
 670 01fe 381C     		adds	r0, r7, #0
 671              	.LVL132:
 672 0200 FFF7FEFF 		bl	__aeabi_fmul
 673              	.LVL133:
 674 0204 051C     		adds	r5, r0, #0
 675              	.LVL134:
 220:Madgwick.c    **** 		q2q2 = q2 * q2;
 676              		.loc 1 220 0
 677 0206 311C     		adds	r1, r6, #0
 678 0208 301C     		adds	r0, r6, #0
 679              	.LVL135:
 680 020a FFF7FEFF 		bl	__aeabi_fmul
 681              	.LVL136:
 682 020e 0C90     		str	r0, [sp, #48]
 683              	.LVL137:
 221:Madgwick.c    **** 		q3q3 = q3 * q3;
 684              		.loc 1 221 0
 685 0210 019B     		ldr	r3, [sp, #4]
 686 0212 191C     		adds	r1, r3, #0
 687 0214 181C     		adds	r0, r3, #0
 688              	.LVL138:
 689 0216 FFF7FEFF 		bl	__aeabi_fmul
 690              	.LVL139:
 691 021a 0590     		str	r0, [sp, #20]
 692              	.LVL140:
 222:Madgwick.c    **** 
 693              		.loc 1 222 0
 694 021c 029A     		ldr	r2, [sp, #8]
 695 021e 111C     		adds	r1, r2, #0
 696 0220 101C     		adds	r0, r2, #0
 697              	.LVL141:
 698 0222 FFF7FEFF 		bl	__aeabi_fmul
 699              	.LVL142:
 700 0226 1590     		str	r0, [sp, #84]
 701              	.LVL143:
 225:Madgwick.c    **** 		s1 = _4q1 * q3q3 - _2q3 * ax + 4.0f * q0q0 * q1 - _2q0 * ay - _4q1 + _8q1 * q1q1 + _8q1 * q2q2 + 
 702              		.loc 1 225 0
 703 0228 0599     		ldr	r1, [sp, #20]
 704 022a 201C     		adds	r0, r4, #0
ARM GAS  C:\Users\A85590\AppData\Local\Temp\cc53CFAh.s 			page 19


 705              	.LVL144:
 706 022c FFF7FEFF 		bl	__aeabi_fmul
 707              	.LVL145:
 708 0230 0D90     		str	r0, [sp, #52]
 709 0232 1199     		ldr	r1, [sp, #68]
 710 0234 0398     		ldr	r0, [sp, #12]
 711 0236 FFF7FEFF 		bl	__aeabi_fmul
 712              	.LVL146:
 713 023a 011C     		adds	r1, r0, #0
 714 023c 0D98     		ldr	r0, [sp, #52]
 715 023e FFF7FEFF 		bl	__aeabi_fadd
 716              	.LVL147:
 717 0242 0D90     		str	r0, [sp, #52]
 718 0244 0C99     		ldr	r1, [sp, #48]
 719 0246 201C     		adds	r0, r4, #0
 720 0248 FFF7FEFF 		bl	__aeabi_fmul
 721              	.LVL148:
 722 024c 011C     		adds	r1, r0, #0
 723 024e 0D98     		ldr	r0, [sp, #52]
 724 0250 FFF7FEFF 		bl	__aeabi_fadd
 725              	.LVL149:
 726 0254 041C     		adds	r4, r0, #0
 727              	.LVL150:
 728 0256 1099     		ldr	r1, [sp, #64]
 729 0258 0498     		ldr	r0, [sp, #16]
 730 025a FFF7FEFF 		bl	__aeabi_fmul
 731              	.LVL151:
 732 025e 011C     		adds	r1, r0, #0
 733 0260 201C     		adds	r0, r4, #0
 734 0262 FFF7FEFF 		bl	__aeabi_fsub
 735              	.LVL152:
 736 0266 0D90     		str	r0, [sp, #52]
 737              	.LVL153:
 226:Madgwick.c    **** 		s2 = 4.0f * q0q0 * q2 + _2q0 * ax + _4q2 * q3q3 - _2q3 * ay - _4q2 + _8q2 * q1q1 + _8q2 * q2q2 + 
 738              		.loc 1 226 0
 739 0268 1599     		ldr	r1, [sp, #84]
 740 026a 0A98     		ldr	r0, [sp, #40]
 741              	.LVL154:
 742 026c FFF7FEFF 		bl	__aeabi_fmul
 743              	.LVL155:
 744 0270 041C     		adds	r4, r0, #0
 745 0272 1299     		ldr	r1, [sp, #72]
 746 0274 0398     		ldr	r0, [sp, #12]
 747 0276 FFF7FEFF 		bl	__aeabi_fmul
 748              	.LVL156:
 749 027a 011C     		adds	r1, r0, #0
 750 027c 201C     		adds	r0, r4, #0
 751 027e FFF7FEFF 		bl	__aeabi_fsub
 752              	.LVL157:
 753 0282 041C     		adds	r4, r0, #0
 754 0284 8121     		movs	r1, #129
 755 0286 C905     		lsls	r1, r1, #23
 756 0288 281C     		adds	r0, r5, #0
 757 028a FFF7FEFF 		bl	__aeabi_fmul
 758              	.LVL158:
 759 028e 051C     		adds	r5, r0, #0
 760              	.LVL159:
ARM GAS  C:\Users\A85590\AppData\Local\Temp\cc53CFAh.s 			page 20


 761 0290 011C     		adds	r1, r0, #0
 762 0292 301C     		adds	r0, r6, #0
 763 0294 FFF7FEFF 		bl	__aeabi_fmul
 764              	.LVL160:
 765 0298 011C     		adds	r1, r0, #0
 766 029a 201C     		adds	r0, r4, #0
 767 029c FFF7FEFF 		bl	__aeabi_fadd
 768              	.LVL161:
 769 02a0 041C     		adds	r4, r0, #0
 770 02a2 0F99     		ldr	r1, [sp, #60]
 771 02a4 0498     		ldr	r0, [sp, #16]
 772 02a6 FFF7FEFF 		bl	__aeabi_fmul
 773              	.LVL162:
 774 02aa 011C     		adds	r1, r0, #0
 775 02ac 201C     		adds	r0, r4, #0
 776 02ae FFF7FEFF 		bl	__aeabi_fsub
 777              	.LVL163:
 778 02b2 0A99     		ldr	r1, [sp, #40]
 779 02b4 FFF7FEFF 		bl	__aeabi_fsub
 780              	.LVL164:
 781 02b8 041C     		adds	r4, r0, #0
 782 02ba 0C99     		ldr	r1, [sp, #48]
 783 02bc 1398     		ldr	r0, [sp, #76]
 784 02be FFF7FEFF 		bl	__aeabi_fmul
 785              	.LVL165:
 786 02c2 011C     		adds	r1, r0, #0
 787 02c4 201C     		adds	r0, r4, #0
 788 02c6 FFF7FEFF 		bl	__aeabi_fadd
 789              	.LVL166:
 790 02ca 041C     		adds	r4, r0, #0
 791 02cc 0599     		ldr	r1, [sp, #20]
 792 02ce 1398     		ldr	r0, [sp, #76]
 793 02d0 FFF7FEFF 		bl	__aeabi_fmul
 794              	.LVL167:
 795 02d4 011C     		adds	r1, r0, #0
 796 02d6 201C     		adds	r0, r4, #0
 797 02d8 FFF7FEFF 		bl	__aeabi_fadd
 798              	.LVL168:
 799 02dc 041C     		adds	r4, r0, #0
 800 02de 0A99     		ldr	r1, [sp, #40]
 801 02e0 0E98     		ldr	r0, [sp, #56]
 802 02e2 FFF7FEFF 		bl	__aeabi_fmul
 803              	.LVL169:
 804 02e6 011C     		adds	r1, r0, #0
 805 02e8 201C     		adds	r0, r4, #0
 806 02ea FFF7FEFF 		bl	__aeabi_fadd
 807              	.LVL170:
 808 02ee 0A90     		str	r0, [sp, #40]
 809              	.LVL171:
 227:Madgwick.c    **** 		s3 = 4.0f * q1q1 * q3 - _2q1 * ax + 4.0f * q2q2 * q3 - _2q2 * ay;
 810              		.loc 1 227 0
 811 02f0 291C     		adds	r1, r5, #0
 812 02f2 0198     		ldr	r0, [sp, #4]
 813              	.LVL172:
 814 02f4 FFF7FEFF 		bl	__aeabi_fmul
 815              	.LVL173:
 816 02f8 041C     		adds	r4, r0, #0
ARM GAS  C:\Users\A85590\AppData\Local\Temp\cc53CFAh.s 			page 21


 817 02fa 0F99     		ldr	r1, [sp, #60]
 818 02fc 0398     		ldr	r0, [sp, #12]
 819 02fe FFF7FEFF 		bl	__aeabi_fmul
 820              	.LVL174:
 821 0302 011C     		adds	r1, r0, #0
 822 0304 201C     		adds	r0, r4, #0
 823 0306 FFF7FEFF 		bl	__aeabi_fadd
 824              	.LVL175:
 825 030a 041C     		adds	r4, r0, #0
 826 030c 1599     		ldr	r1, [sp, #84]
 827 030e 0B9D     		ldr	r5, [sp, #44]
 828 0310 281C     		adds	r0, r5, #0
 829 0312 FFF7FEFF 		bl	__aeabi_fmul
 830              	.LVL176:
 831 0316 011C     		adds	r1, r0, #0
 832 0318 201C     		adds	r0, r4, #0
 833 031a FFF7FEFF 		bl	__aeabi_fadd
 834              	.LVL177:
 835 031e 041C     		adds	r4, r0, #0
 836 0320 1299     		ldr	r1, [sp, #72]
 837 0322 0498     		ldr	r0, [sp, #16]
 838 0324 FFF7FEFF 		bl	__aeabi_fmul
 839              	.LVL178:
 840 0328 011C     		adds	r1, r0, #0
 841 032a 201C     		adds	r0, r4, #0
 842 032c FFF7FEFF 		bl	__aeabi_fsub
 843              	.LVL179:
 844 0330 0B95     		str	r5, [sp, #44]
 845              	.LVL180:
 846 0332 291C     		adds	r1, r5, #0
 847 0334 FFF7FEFF 		bl	__aeabi_fsub
 848              	.LVL181:
 849 0338 041C     		adds	r4, r0, #0
 850 033a 0C9D     		ldr	r5, [sp, #48]
 851              	.LVL182:
 852 033c 291C     		adds	r1, r5, #0
 853 033e 1498     		ldr	r0, [sp, #80]
 854 0340 FFF7FEFF 		bl	__aeabi_fmul
 855              	.LVL183:
 856 0344 011C     		adds	r1, r0, #0
 857 0346 201C     		adds	r0, r4, #0
 858 0348 FFF7FEFF 		bl	__aeabi_fadd
 859              	.LVL184:
 860 034c 041C     		adds	r4, r0, #0
 861 034e 0599     		ldr	r1, [sp, #20]
 862 0350 1498     		ldr	r0, [sp, #80]
 863 0352 FFF7FEFF 		bl	__aeabi_fmul
 864              	.LVL185:
 865 0356 011C     		adds	r1, r0, #0
 866 0358 201C     		adds	r0, r4, #0
 867 035a FFF7FEFF 		bl	__aeabi_fadd
 868              	.LVL186:
 869 035e 041C     		adds	r4, r0, #0
 870 0360 0B99     		ldr	r1, [sp, #44]
 871 0362 0E98     		ldr	r0, [sp, #56]
 872 0364 FFF7FEFF 		bl	__aeabi_fmul
 873              	.LVL187:
ARM GAS  C:\Users\A85590\AppData\Local\Temp\cc53CFAh.s 			page 22


 874 0368 011C     		adds	r1, r0, #0
 875 036a 201C     		adds	r0, r4, #0
 876 036c FFF7FEFF 		bl	__aeabi_fadd
 877              	.LVL188:
 878 0370 0B90     		str	r0, [sp, #44]
 879              	.LVL189:
 228:Madgwick.c    **** 		recipNorm = invSqrt(s0 * s0 + s1 * s1 + s2 * s2 + s3 * s3); // normalise step magnitude
 880              		.loc 1 228 0
 881 0372 8121     		movs	r1, #129
 882 0374 C905     		lsls	r1, r1, #23
 883 0376 281C     		adds	r0, r5, #0
 884              	.LVL190:
 885 0378 FFF7FEFF 		bl	__aeabi_fmul
 886              	.LVL191:
 887 037c 011C     		adds	r1, r0, #0
 888 037e 029D     		ldr	r5, [sp, #8]
 889 0380 281C     		adds	r0, r5, #0
 890 0382 FFF7FEFF 		bl	__aeabi_fmul
 891              	.LVL192:
 892 0386 041C     		adds	r4, r0, #0
 893 0388 1099     		ldr	r1, [sp, #64]
 894 038a 0398     		ldr	r0, [sp, #12]
 895 038c FFF7FEFF 		bl	__aeabi_fmul
 896              	.LVL193:
 897 0390 011C     		adds	r1, r0, #0
 898 0392 201C     		adds	r0, r4, #0
 899 0394 FFF7FEFF 		bl	__aeabi_fsub
 900              	.LVL194:
 901 0398 041C     		adds	r4, r0, #0
 902 039a 8121     		movs	r1, #129
 903 039c C905     		lsls	r1, r1, #23
 904 039e 0598     		ldr	r0, [sp, #20]
 905 03a0 FFF7FEFF 		bl	__aeabi_fmul
 906              	.LVL195:
 907 03a4 011C     		adds	r1, r0, #0
 908 03a6 281C     		adds	r0, r5, #0
 909 03a8 FFF7FEFF 		bl	__aeabi_fmul
 910              	.LVL196:
 911 03ac 011C     		adds	r1, r0, #0
 912 03ae 201C     		adds	r0, r4, #0
 913 03b0 FFF7FEFF 		bl	__aeabi_fadd
 914              	.LVL197:
 915 03b4 041C     		adds	r4, r0, #0
 916 03b6 1199     		ldr	r1, [sp, #68]
 917 03b8 0498     		ldr	r0, [sp, #16]
 918 03ba FFF7FEFF 		bl	__aeabi_fmul
 919              	.LVL198:
 920 03be 011C     		adds	r1, r0, #0
 921 03c0 201C     		adds	r0, r4, #0
 922 03c2 FFF7FEFF 		bl	__aeabi_fsub
 923              	.LVL199:
 924 03c6 051C     		adds	r5, r0, #0
 925              	.LVL200:
 229:Madgwick.c    **** 		s0 *= recipNorm;
 926              		.loc 1 229 0
 927 03c8 0D9C     		ldr	r4, [sp, #52]
 928 03ca 211C     		adds	r1, r4, #0
ARM GAS  C:\Users\A85590\AppData\Local\Temp\cc53CFAh.s 			page 23


 929 03cc 201C     		adds	r0, r4, #0
 930              	.LVL201:
 931 03ce FFF7FEFF 		bl	__aeabi_fmul
 932              	.LVL202:
 933 03d2 041C     		adds	r4, r0, #0
 934 03d4 0A9A     		ldr	r2, [sp, #40]
 935 03d6 111C     		adds	r1, r2, #0
 936 03d8 101C     		adds	r0, r2, #0
 937 03da FFF7FEFF 		bl	__aeabi_fmul
 938              	.LVL203:
 939 03de 011C     		adds	r1, r0, #0
 940 03e0 201C     		adds	r0, r4, #0
 941 03e2 FFF7FEFF 		bl	__aeabi_fadd
 942              	.LVL204:
 943 03e6 041C     		adds	r4, r0, #0
 944 03e8 0B9B     		ldr	r3, [sp, #44]
 945 03ea 191C     		adds	r1, r3, #0
 946 03ec 181C     		adds	r0, r3, #0
 947 03ee FFF7FEFF 		bl	__aeabi_fmul
 948              	.LVL205:
 949 03f2 011C     		adds	r1, r0, #0
 950 03f4 201C     		adds	r0, r4, #0
 951 03f6 FFF7FEFF 		bl	__aeabi_fadd
 952              	.LVL206:
 953 03fa 041C     		adds	r4, r0, #0
 954 03fc 291C     		adds	r1, r5, #0
 955 03fe 281C     		adds	r0, r5, #0
 956 0400 FFF7FEFF 		bl	__aeabi_fmul
 957              	.LVL207:
 958 0404 011C     		adds	r1, r0, #0
 959 0406 201C     		adds	r0, r4, #0
 960 0408 FFF7FEFF 		bl	__aeabi_fadd
 961              	.LVL208:
 962 040c FFF7FEFF 		bl	invSqrt
 963              	.LVL209:
 964 0410 041C     		adds	r4, r0, #0
 965              	.LVL210:
 230:Madgwick.c    **** 		s1 *= recipNorm;
 966              		.loc 1 230 0
 967 0412 011C     		adds	r1, r0, #0
 968 0414 0D98     		ldr	r0, [sp, #52]
 969              	.LVL211:
 970 0416 FFF7FEFF 		bl	__aeabi_fmul
 971              	.LVL212:
 972 041a 0390     		str	r0, [sp, #12]
 973              	.LVL213:
 231:Madgwick.c    **** 		s2 *= recipNorm;
 974              		.loc 1 231 0
 975 041c 211C     		adds	r1, r4, #0
 976 041e 0A98     		ldr	r0, [sp, #40]
 977              	.LVL214:
 978 0420 FFF7FEFF 		bl	__aeabi_fmul
 979              	.LVL215:
 980 0424 0490     		str	r0, [sp, #16]
 981              	.LVL216:
 232:Madgwick.c    **** 		s3 *= recipNorm;
 982              		.loc 1 232 0
ARM GAS  C:\Users\A85590\AppData\Local\Temp\cc53CFAh.s 			page 24


 983 0426 211C     		adds	r1, r4, #0
 984 0428 0B98     		ldr	r0, [sp, #44]
 985              	.LVL217:
 986 042a FFF7FEFF 		bl	__aeabi_fmul
 987              	.LVL218:
 988 042e 0590     		str	r0, [sp, #20]
 989              	.LVL219:
 233:Madgwick.c    **** 
 990              		.loc 1 233 0
 991 0430 211C     		adds	r1, r4, #0
 992 0432 281C     		adds	r0, r5, #0
 993              	.LVL220:
 994 0434 FFF7FEFF 		bl	__aeabi_fmul
 995              	.LVL221:
 996 0438 051C     		adds	r5, r0, #0
 997              	.LVL222:
 236:Madgwick.c    **** 		qDot2 -= beta * s1;
 998              		.loc 1 236 0
 999 043a 444B     		ldr	r3, .L20
 1000 043c 1C6A     		ldr	r4, [r3, #32]
 1001              	.LVL223:
 1002 043e 211C     		adds	r1, r4, #0
 1003 0440 0398     		ldr	r0, [sp, #12]
 1004              	.LVL224:
 1005 0442 FFF7FEFF 		bl	__aeabi_fmul
 1006              	.LVL225:
 1007 0446 011C     		adds	r1, r0, #0
 1008 0448 0698     		ldr	r0, [sp, #24]
 1009 044a FFF7FEFF 		bl	__aeabi_fsub
 1010              	.LVL226:
 1011 044e 0690     		str	r0, [sp, #24]
 1012              	.LVL227:
 237:Madgwick.c    **** 		qDot3 -= beta * s2;
 1013              		.loc 1 237 0
 1014 0450 211C     		adds	r1, r4, #0
 1015 0452 0498     		ldr	r0, [sp, #16]
 1016              	.LVL228:
 1017 0454 FFF7FEFF 		bl	__aeabi_fmul
 1018              	.LVL229:
 1019 0458 011C     		adds	r1, r0, #0
 1020 045a 0798     		ldr	r0, [sp, #28]
 1021 045c FFF7FEFF 		bl	__aeabi_fsub
 1022              	.LVL230:
 1023 0460 0790     		str	r0, [sp, #28]
 1024              	.LVL231:
 238:Madgwick.c    **** 		qDot4 -= beta * s3;
 1025              		.loc 1 238 0
 1026 0462 211C     		adds	r1, r4, #0
 1027 0464 0598     		ldr	r0, [sp, #20]
 1028              	.LVL232:
 1029 0466 FFF7FEFF 		bl	__aeabi_fmul
 1030              	.LVL233:
 1031 046a 011C     		adds	r1, r0, #0
 1032 046c 0898     		ldr	r0, [sp, #32]
 1033 046e FFF7FEFF 		bl	__aeabi_fsub
 1034              	.LVL234:
 1035 0472 0890     		str	r0, [sp, #32]
ARM GAS  C:\Users\A85590\AppData\Local\Temp\cc53CFAh.s 			page 25


 1036              	.LVL235:
 239:Madgwick.c    **** 	}
 1037              		.loc 1 239 0
 1038 0474 211C     		adds	r1, r4, #0
 1039 0476 281C     		adds	r0, r5, #0
 1040              	.LVL236:
 1041 0478 FFF7FEFF 		bl	__aeabi_fmul
 1042              	.LVL237:
 1043 047c 011C     		adds	r1, r0, #0
 1044 047e 0998     		ldr	r0, [sp, #36]
 1045 0480 FFF7FEFF 		bl	__aeabi_fsub
 1046              	.LVL238:
 1047 0484 0990     		str	r0, [sp, #36]
 1048              	.LVL239:
 1049              	.L15:
 243:Madgwick.c    **** 	q1 += qDot2 * invSampleFreq;
 1050              		.loc 1 243 0
 1051 0486 314D     		ldr	r5, .L20
 1052 0488 6C6A     		ldr	r4, [r5, #36]
 1053 048a 211C     		adds	r1, r4, #0
 1054 048c 0698     		ldr	r0, [sp, #24]
 1055 048e FFF7FEFF 		bl	__aeabi_fmul
 1056              	.LVL240:
 1057 0492 011C     		adds	r1, r0, #0
 1058 0494 381C     		adds	r0, r7, #0
 1059 0496 FFF7FEFF 		bl	__aeabi_fadd
 1060              	.LVL241:
 1061 049a 071C     		adds	r7, r0, #0
 244:Madgwick.c    **** 	q2 += qDot3 * invSampleFreq;
 1062              		.loc 1 244 0
 1063 049c 211C     		adds	r1, r4, #0
 1064 049e 0798     		ldr	r0, [sp, #28]
 1065 04a0 FFF7FEFF 		bl	__aeabi_fmul
 1066              	.LVL242:
 1067 04a4 011C     		adds	r1, r0, #0
 1068 04a6 301C     		adds	r0, r6, #0
 1069 04a8 FFF7FEFF 		bl	__aeabi_fadd
 1070              	.LVL243:
 1071 04ac 061C     		adds	r6, r0, #0
 245:Madgwick.c    **** 	q3 += qDot4 * invSampleFreq;
 1072              		.loc 1 245 0
 1073 04ae 211C     		adds	r1, r4, #0
 1074 04b0 0898     		ldr	r0, [sp, #32]
 1075 04b2 FFF7FEFF 		bl	__aeabi_fmul
 1076              	.LVL244:
 1077 04b6 011C     		adds	r1, r0, #0
 1078 04b8 0198     		ldr	r0, [sp, #4]
 1079 04ba FFF7FEFF 		bl	__aeabi_fadd
 1080              	.LVL245:
 1081 04be 0190     		str	r0, [sp, #4]
 246:Madgwick.c    **** 
 1082              		.loc 1 246 0
 1083 04c0 211C     		adds	r1, r4, #0
 1084 04c2 0998     		ldr	r0, [sp, #36]
 1085 04c4 FFF7FEFF 		bl	__aeabi_fmul
 1086              	.LVL246:
 1087 04c8 011C     		adds	r1, r0, #0
ARM GAS  C:\Users\A85590\AppData\Local\Temp\cc53CFAh.s 			page 26


 1088 04ca 0298     		ldr	r0, [sp, #8]
 1089 04cc FFF7FEFF 		bl	__aeabi_fadd
 1090              	.LVL247:
 1091 04d0 0290     		str	r0, [sp, #8]
 249:Madgwick.c    **** 	q0 *= recipNorm;
 1092              		.loc 1 249 0
 1093 04d2 391C     		adds	r1, r7, #0
 1094 04d4 381C     		adds	r0, r7, #0
 1095 04d6 FFF7FEFF 		bl	__aeabi_fmul
 1096              	.LVL248:
 1097 04da 041C     		adds	r4, r0, #0
 1098 04dc 311C     		adds	r1, r6, #0
 1099 04de 301C     		adds	r0, r6, #0
 1100 04e0 FFF7FEFF 		bl	__aeabi_fmul
 1101              	.LVL249:
 1102 04e4 011C     		adds	r1, r0, #0
 1103 04e6 201C     		adds	r0, r4, #0
 1104 04e8 FFF7FEFF 		bl	__aeabi_fadd
 1105              	.LVL250:
 1106 04ec 041C     		adds	r4, r0, #0
 1107 04ee 019A     		ldr	r2, [sp, #4]
 1108 04f0 111C     		adds	r1, r2, #0
 1109 04f2 101C     		adds	r0, r2, #0
 1110 04f4 FFF7FEFF 		bl	__aeabi_fmul
 1111              	.LVL251:
 1112 04f8 011C     		adds	r1, r0, #0
 1113 04fa 201C     		adds	r0, r4, #0
 1114 04fc FFF7FEFF 		bl	__aeabi_fadd
 1115              	.LVL252:
 1116 0500 041C     		adds	r4, r0, #0
 1117 0502 029B     		ldr	r3, [sp, #8]
 1118 0504 191C     		adds	r1, r3, #0
 1119 0506 181C     		adds	r0, r3, #0
 1120 0508 FFF7FEFF 		bl	__aeabi_fmul
 1121              	.LVL253:
 1122 050c 011C     		adds	r1, r0, #0
 1123 050e 201C     		adds	r0, r4, #0
 1124 0510 FFF7FEFF 		bl	__aeabi_fadd
 1125              	.LVL254:
 1126 0514 FFF7FEFF 		bl	invSqrt
 1127              	.LVL255:
 1128 0518 041C     		adds	r4, r0, #0
 1129              	.LVL256:
 250:Madgwick.c    **** 	q1 *= recipNorm;
 1130              		.loc 1 250 0
 1131 051a 011C     		adds	r1, r0, #0
 1132 051c 381C     		adds	r0, r7, #0
 1133              	.LVL257:
 1134 051e FFF7FEFF 		bl	__aeabi_fmul
 1135              	.LVL258:
 1136 0522 6860     		str	r0, [r5, #4]
 251:Madgwick.c    **** 	q2 *= recipNorm;
 1137              		.loc 1 251 0
 1138 0524 211C     		adds	r1, r4, #0
 1139 0526 301C     		adds	r0, r6, #0
 1140 0528 FFF7FEFF 		bl	__aeabi_fmul
 1141              	.LVL259:
ARM GAS  C:\Users\A85590\AppData\Local\Temp\cc53CFAh.s 			page 27


 1142 052c 2860     		str	r0, [r5]
 252:Madgwick.c    **** 	q3 *= recipNorm;
 1143              		.loc 1 252 0
 1144 052e 211C     		adds	r1, r4, #0
 1145 0530 0198     		ldr	r0, [sp, #4]
 1146 0532 FFF7FEFF 		bl	__aeabi_fmul
 1147              	.LVL260:
 1148 0536 A860     		str	r0, [r5, #8]
 253:Madgwick.c    **** 	anglesComputed = 0;
 1149              		.loc 1 253 0
 1150 0538 211C     		adds	r1, r4, #0
 1151 053a 0298     		ldr	r0, [sp, #8]
 1152 053c FFF7FEFF 		bl	__aeabi_fmul
 1153              	.LVL261:
 1154 0540 E860     		str	r0, [r5, #12]
 254:Madgwick.c    **** }
 1155              		.loc 1 254 0
 1156 0542 0023     		movs	r3, #0
 1157 0544 2B77     		strb	r3, [r5, #28]
 255:Madgwick.c    **** 
 1158              		.loc 1 255 0
 1159 0546 17B0     		add	sp, sp, #92
 1160              		@ sp needed
 1161              	.LVL262:
 1162 0548 F0BD     		pop	{r4, r5, r6, r7, pc}
 1163              	.L21:
 1164 054a C046     		.align	2
 1165              	.L20:
 1166 054c 00000000 		.word	.LANCHOR0
 1167              		.cfi_endproc
 1168              	.LFE4:
 1169              		.size	Madgwick_updateIMU, .-Madgwick_updateIMU
 1170              		.section	.text.Madgwick_update,"ax",%progbits
 1171              		.align	2
 1172              		.global	Madgwick_update
 1173              		.code	16
 1174              		.thumb_func
 1175              		.type	Madgwick_update, %function
 1176              	Madgwick_update:
 1177              	.LFB3:
  74:Madgwick.c    **** 	float recipNorm;
 1178              		.loc 1 74 0
 1179              		.cfi_startproc
 1180              		@ args = 20, pretend = 0, frame = 128
 1181              		@ frame_needed = 0, uses_anonymous_args = 0
 1182              	.LVL263:
 1183 0000 F0B5     		push	{r4, r5, r6, r7, lr}
 1184              		.cfi_def_cfa_offset 20
 1185              		.cfi_offset 4, -20
 1186              		.cfi_offset 5, -16
 1187              		.cfi_offset 6, -12
 1188              		.cfi_offset 7, -8
 1189              		.cfi_offset 14, -4
 1190 0002 4F46     		mov	r7, r9
 1191 0004 4646     		mov	r6, r8
 1192 0006 C0B4     		push	{r6, r7}
 1193              		.cfi_def_cfa_offset 28
ARM GAS  C:\Users\A85590\AppData\Local\Temp\cc53CFAh.s 			page 28


 1194              		.cfi_offset 8, -28
 1195              		.cfi_offset 9, -24
 1196 0008 A3B0     		sub	sp, sp, #140
 1197              		.cfi_def_cfa_offset 168
 1198 000a 041C     		adds	r4, r0, #0
 1199 000c 0D1C     		adds	r5, r1, #0
 1200 000e 161C     		adds	r6, r2, #0
 1201 0010 0793     		str	r3, [sp, #28]
  82:Madgwick.c    **** 	{
 1202              		.loc 1 82 0
 1203 0012 0021     		movs	r1, #0
 1204              	.LVL264:
 1205 0014 2C98     		ldr	r0, [sp, #176]
 1206              	.LVL265:
 1207 0016 FFF7FEFF 		bl	__aeabi_fcmpeq
 1208              	.LVL266:
 1209 001a 0028     		cmp	r0, #0
 1210 001c 17D0     		beq	.L23
  82:Madgwick.c    **** 	{
 1211              		.loc 1 82 0 is_stmt 0 discriminator 1
 1212 001e 0021     		movs	r1, #0
 1213 0020 2D98     		ldr	r0, [sp, #180]
 1214 0022 FFF7FEFF 		bl	__aeabi_fcmpeq
 1215              	.LVL267:
 1216 0026 0028     		cmp	r0, #0
 1217 0028 11D0     		beq	.L23
  82:Madgwick.c    **** 	{
 1218              		.loc 1 82 0 discriminator 2
 1219 002a 0021     		movs	r1, #0
 1220 002c 2E98     		ldr	r0, [sp, #184]
 1221 002e FFF7FEFF 		bl	__aeabi_fcmpeq
 1222              	.LVL268:
 1223 0032 0028     		cmp	r0, #0
 1224 0034 0BD0     		beq	.L23
  84:Madgwick.c    **** 		return;
 1225              		.loc 1 84 0 is_stmt 1
 1226 0036 2B9B     		ldr	r3, [sp, #172]
 1227 0038 0193     		str	r3, [sp, #4]
 1228 003a 2A9B     		ldr	r3, [sp, #168]
 1229 003c 0093     		str	r3, [sp]
 1230 003e 079B     		ldr	r3, [sp, #28]
 1231 0040 321C     		adds	r2, r6, #0
 1232 0042 291C     		adds	r1, r5, #0
 1233 0044 201C     		adds	r0, r4, #0
 1234 0046 FFF7FEFF 		bl	Madgwick_updateIMU
 1235              	.LVL269:
  85:Madgwick.c    **** 	}
 1236              		.loc 1 85 0
 1237 004a 00F0DAFC 		bl	.L22	@ far jump
 1238              	.L23:
  89:Madgwick.c    **** 	gy *= 0.0174533f;
 1239              		.loc 1 89 0
 1240 004e 4B49     		ldr	r1, .L34
 1241 0050 201C     		adds	r0, r4, #0
 1242 0052 FFF7FEFF 		bl	__aeabi_fmul
 1243              	.LVL270:
 1244 0056 0490     		str	r0, [sp, #16]
ARM GAS  C:\Users\A85590\AppData\Local\Temp\cc53CFAh.s 			page 29


 1245              	.LVL271:
  90:Madgwick.c    **** 	gz *= 0.0174533f;
 1246              		.loc 1 90 0
 1247 0058 4849     		ldr	r1, .L34
 1248 005a 281C     		adds	r0, r5, #0
 1249              	.LVL272:
 1250 005c FFF7FEFF 		bl	__aeabi_fmul
 1251              	.LVL273:
 1252 0060 0590     		str	r0, [sp, #20]
 1253              	.LVL274:
  91:Madgwick.c    **** 
 1254              		.loc 1 91 0
 1255 0062 4649     		ldr	r1, .L34
 1256 0064 301C     		adds	r0, r6, #0
 1257              	.LVL275:
 1258 0066 FFF7FEFF 		bl	__aeabi_fmul
 1259              	.LVL276:
 1260 006a 0690     		str	r0, [sp, #24]
 1261              	.LVL277:
  94:Madgwick.c    **** 	qDot2 = 0.5f * (q0 * gx + q2 * gz - q3 * gy);
 1262              		.loc 1 94 0
 1263 006c 444C     		ldr	r4, .L34+4
 1264 006e 2768     		ldr	r7, [r4]
 1265 0070 8023     		movs	r3, #128
 1266 0072 1B06     		lsls	r3, r3, #24
 1267 0074 F918     		adds	r1, r7, r3
 1268 0076 0498     		ldr	r0, [sp, #16]
 1269              	.LVL278:
 1270 0078 FFF7FEFF 		bl	__aeabi_fmul
 1271              	.LVL279:
 1272 007c 051C     		adds	r5, r0, #0
 1273 007e A668     		ldr	r6, [r4, #8]
 1274 0080 311C     		adds	r1, r6, #0
 1275 0082 0598     		ldr	r0, [sp, #20]
 1276 0084 FFF7FEFF 		bl	__aeabi_fmul
 1277              	.LVL280:
 1278 0088 011C     		adds	r1, r0, #0
 1279 008a 281C     		adds	r0, r5, #0
 1280 008c FFF7FEFF 		bl	__aeabi_fsub
 1281              	.LVL281:
 1282 0090 0390     		str	r0, [sp, #12]
 1283 0092 E568     		ldr	r5, [r4, #12]
 1284 0094 291C     		adds	r1, r5, #0
 1285 0096 0698     		ldr	r0, [sp, #24]
 1286 0098 FFF7FEFF 		bl	__aeabi_fmul
 1287              	.LVL282:
 1288 009c 011C     		adds	r1, r0, #0
 1289 009e 0398     		ldr	r0, [sp, #12]
 1290 00a0 FFF7FEFF 		bl	__aeabi_fsub
 1291              	.LVL283:
 1292 00a4 FC21     		movs	r1, #252
 1293 00a6 8905     		lsls	r1, r1, #22
 1294 00a8 FFF7FEFF 		bl	__aeabi_fmul
 1295              	.LVL284:
 1296 00ac 1090     		str	r0, [sp, #64]
 1297              	.LVL285:
  95:Madgwick.c    **** 	qDot3 = 0.5f * (q0 * gy - q1 * gz + q3 * gx);
ARM GAS  C:\Users\A85590\AppData\Local\Temp\cc53CFAh.s 			page 30


 1298              		.loc 1 95 0
 1299 00ae 6368     		ldr	r3, [r4, #4]
 1300 00b0 0393     		str	r3, [sp, #12]
 1301 00b2 191C     		adds	r1, r3, #0
 1302 00b4 0498     		ldr	r0, [sp, #16]
 1303              	.LVL286:
 1304 00b6 FFF7FEFF 		bl	__aeabi_fmul
 1305              	.LVL287:
 1306 00ba 041C     		adds	r4, r0, #0
 1307 00bc 311C     		adds	r1, r6, #0
 1308 00be 0698     		ldr	r0, [sp, #24]
 1309 00c0 FFF7FEFF 		bl	__aeabi_fmul
 1310              	.LVL288:
 1311 00c4 011C     		adds	r1, r0, #0
 1312 00c6 201C     		adds	r0, r4, #0
 1313 00c8 FFF7FEFF 		bl	__aeabi_fadd
 1314              	.LVL289:
 1315 00cc 041C     		adds	r4, r0, #0
 1316 00ce 291C     		adds	r1, r5, #0
 1317 00d0 0598     		ldr	r0, [sp, #20]
 1318 00d2 FFF7FEFF 		bl	__aeabi_fmul
 1319              	.LVL290:
 1320 00d6 011C     		adds	r1, r0, #0
 1321 00d8 201C     		adds	r0, r4, #0
 1322 00da FFF7FEFF 		bl	__aeabi_fsub
 1323              	.LVL291:
 1324 00de FC21     		movs	r1, #252
 1325 00e0 8905     		lsls	r1, r1, #22
 1326 00e2 FFF7FEFF 		bl	__aeabi_fmul
 1327              	.LVL292:
 1328 00e6 1190     		str	r0, [sp, #68]
 1329              	.LVL293:
  96:Madgwick.c    **** 	qDot4 = 0.5f * (q0 * gz + q1 * gy - q2 * gx);
 1330              		.loc 1 96 0
 1331 00e8 0399     		ldr	r1, [sp, #12]
 1332 00ea 0598     		ldr	r0, [sp, #20]
 1333              	.LVL294:
 1334 00ec FFF7FEFF 		bl	__aeabi_fmul
 1335              	.LVL295:
 1336 00f0 041C     		adds	r4, r0, #0
 1337 00f2 391C     		adds	r1, r7, #0
 1338 00f4 0698     		ldr	r0, [sp, #24]
 1339 00f6 FFF7FEFF 		bl	__aeabi_fmul
 1340              	.LVL296:
 1341 00fa 011C     		adds	r1, r0, #0
 1342 00fc 201C     		adds	r0, r4, #0
 1343 00fe FFF7FEFF 		bl	__aeabi_fsub
 1344              	.LVL297:
 1345 0102 041C     		adds	r4, r0, #0
 1346 0104 291C     		adds	r1, r5, #0
 1347 0106 0498     		ldr	r0, [sp, #16]
 1348 0108 FFF7FEFF 		bl	__aeabi_fmul
 1349              	.LVL298:
 1350 010c 011C     		adds	r1, r0, #0
 1351 010e 201C     		adds	r0, r4, #0
 1352 0110 FFF7FEFF 		bl	__aeabi_fadd
 1353              	.LVL299:
ARM GAS  C:\Users\A85590\AppData\Local\Temp\cc53CFAh.s 			page 31


 1354 0114 FC21     		movs	r1, #252
 1355 0116 8905     		lsls	r1, r1, #22
 1356 0118 FFF7FEFF 		bl	__aeabi_fmul
 1357              	.LVL300:
 1358 011c 1290     		str	r0, [sp, #72]
 1359              	.LVL301:
  97:Madgwick.c    **** 
 1360              		.loc 1 97 0
 1361 011e 0399     		ldr	r1, [sp, #12]
 1362 0120 0698     		ldr	r0, [sp, #24]
 1363              	.LVL302:
 1364 0122 FFF7FEFF 		bl	__aeabi_fmul
 1365              	.LVL303:
 1366 0126 041C     		adds	r4, r0, #0
 1367 0128 391C     		adds	r1, r7, #0
 1368 012a 0598     		ldr	r0, [sp, #20]
 1369 012c FFF7FEFF 		bl	__aeabi_fmul
 1370              	.LVL304:
 1371 0130 011C     		adds	r1, r0, #0
 1372 0132 201C     		adds	r0, r4, #0
 1373 0134 FFF7FEFF 		bl	__aeabi_fadd
 1374              	.LVL305:
 1375 0138 041C     		adds	r4, r0, #0
 1376 013a 311C     		adds	r1, r6, #0
 1377 013c 0498     		ldr	r0, [sp, #16]
 1378 013e FFF7FEFF 		bl	__aeabi_fmul
 1379              	.LVL306:
 1380 0142 011C     		adds	r1, r0, #0
 1381 0144 201C     		adds	r0, r4, #0
 1382 0146 FFF7FEFF 		bl	__aeabi_fsub
 1383              	.LVL307:
 1384 014a FC21     		movs	r1, #252
 1385 014c 8905     		lsls	r1, r1, #22
 1386 014e FFF7FEFF 		bl	__aeabi_fmul
 1387              	.LVL308:
 1388 0152 1390     		str	r0, [sp, #76]
 1389              	.LVL309:
 100:Madgwick.c    **** 	{
 1390              		.loc 1 100 0
 1391 0154 0021     		movs	r1, #0
 1392 0156 0798     		ldr	r0, [sp, #28]
 1393              	.LVL310:
 1394 0158 FFF7FEFF 		bl	__aeabi_fcmpeq
 1395              	.LVL311:
 1396 015c 0028     		cmp	r0, #0
 1397 015e 11D0     		beq	.L28
 100:Madgwick.c    **** 	{
 1398              		.loc 1 100 0 is_stmt 0 discriminator 1
 1399 0160 0021     		movs	r1, #0
 1400 0162 2A98     		ldr	r0, [sp, #168]
 1401 0164 FFF7FEFF 		bl	__aeabi_fcmpeq
 1402              	.LVL312:
 1403 0168 0028     		cmp	r0, #0
 1404 016a 0BD0     		beq	.L28
 100:Madgwick.c    **** 	{
 1405              		.loc 1 100 0 discriminator 2
 1406 016c 0021     		movs	r1, #0
ARM GAS  C:\Users\A85590\AppData\Local\Temp\cc53CFAh.s 			page 32


 1407 016e 2B98     		ldr	r0, [sp, #172]
 1408 0170 FFF7FEFF 		bl	__aeabi_fcmpeq
 1409              	.LVL313:
 1410 0174 0028     		cmp	r0, #0
 1411 0176 00D0     		beq	.LCB1442
 1412 0178 E7E3     		b	.L29	@long jump
 1413              	.LCB1442:
 1414 017a 03E0     		b	.L35
 1415              	.L36:
 1416              		.align	2
 1417              	.L34:
 1418 017c 39FA8E3C 		.word	1016003129
 1419 0180 00000000 		.word	.LANCHOR0
 1420              	.L35:
 1421              	.L28:
 104:Madgwick.c    **** 		ax *= recipNorm;
 1422              		.loc 1 104 0 is_stmt 1
 1423 0184 079B     		ldr	r3, [sp, #28]
 1424 0186 191C     		adds	r1, r3, #0
 1425 0188 181C     		adds	r0, r3, #0
 1426 018a FFF7FEFF 		bl	__aeabi_fmul
 1427              	.LVL314:
 1428 018e 041C     		adds	r4, r0, #0
 1429 0190 2A99     		ldr	r1, [sp, #168]
 1430 0192 081C     		adds	r0, r1, #0
 1431 0194 FFF7FEFF 		bl	__aeabi_fmul
 1432              	.LVL315:
 1433 0198 011C     		adds	r1, r0, #0
 1434 019a 201C     		adds	r0, r4, #0
 1435 019c FFF7FEFF 		bl	__aeabi_fadd
 1436              	.LVL316:
 1437 01a0 041C     		adds	r4, r0, #0
 1438 01a2 2B99     		ldr	r1, [sp, #172]
 1439 01a4 081C     		adds	r0, r1, #0
 1440 01a6 FFF7FEFF 		bl	__aeabi_fmul
 1441              	.LVL317:
 1442 01aa 011C     		adds	r1, r0, #0
 1443 01ac 201C     		adds	r0, r4, #0
 1444 01ae FFF7FEFF 		bl	__aeabi_fadd
 1445              	.LVL318:
 1446 01b2 FFF7FEFF 		bl	invSqrt
 1447              	.LVL319:
 1448 01b6 041C     		adds	r4, r0, #0
 1449              	.LVL320:
 105:Madgwick.c    **** 		ay *= recipNorm;
 1450              		.loc 1 105 0
 1451 01b8 011C     		adds	r1, r0, #0
 1452 01ba 0798     		ldr	r0, [sp, #28]
 1453              	.LVL321:
 1454 01bc FFF7FEFF 		bl	__aeabi_fmul
 1455              	.LVL322:
 1456 01c0 1A90     		str	r0, [sp, #104]
 1457              	.LVL323:
 106:Madgwick.c    **** 		az *= recipNorm;
 1458              		.loc 1 106 0
 1459 01c2 211C     		adds	r1, r4, #0
 1460 01c4 2A98     		ldr	r0, [sp, #168]
ARM GAS  C:\Users\A85590\AppData\Local\Temp\cc53CFAh.s 			page 33


 1461              	.LVL324:
 1462 01c6 FFF7FEFF 		bl	__aeabi_fmul
 1463              	.LVL325:
 1464 01ca 1B90     		str	r0, [sp, #108]
 1465              	.LVL326:
 107:Madgwick.c    **** 
 1466              		.loc 1 107 0
 1467 01cc 211C     		adds	r1, r4, #0
 1468 01ce 2B98     		ldr	r0, [sp, #172]
 1469              	.LVL327:
 1470 01d0 FFF7FEFF 		bl	__aeabi_fmul
 1471              	.LVL328:
 1472 01d4 1C90     		str	r0, [sp, #112]
 1473              	.LVL329:
 110:Madgwick.c    **** 		mx *= recipNorm;
 1474              		.loc 1 110 0
 1475 01d6 2C99     		ldr	r1, [sp, #176]
 1476 01d8 081C     		adds	r0, r1, #0
 1477              	.LVL330:
 1478 01da FFF7FEFF 		bl	__aeabi_fmul
 1479              	.LVL331:
 1480 01de 041C     		adds	r4, r0, #0
 1481              	.LVL332:
 1482 01e0 2D99     		ldr	r1, [sp, #180]
 1483 01e2 081C     		adds	r0, r1, #0
 1484 01e4 FFF7FEFF 		bl	__aeabi_fmul
 1485              	.LVL333:
 1486 01e8 011C     		adds	r1, r0, #0
 1487 01ea 201C     		adds	r0, r4, #0
 1488 01ec FFF7FEFF 		bl	__aeabi_fadd
 1489              	.LVL334:
 1490 01f0 041C     		adds	r4, r0, #0
 1491 01f2 2E99     		ldr	r1, [sp, #184]
 1492 01f4 081C     		adds	r0, r1, #0
 1493 01f6 FFF7FEFF 		bl	__aeabi_fmul
 1494              	.LVL335:
 1495 01fa 011C     		adds	r1, r0, #0
 1496 01fc 201C     		adds	r0, r4, #0
 1497 01fe FFF7FEFF 		bl	__aeabi_fadd
 1498              	.LVL336:
 1499 0202 FFF7FEFF 		bl	invSqrt
 1500              	.LVL337:
 1501 0206 041C     		adds	r4, r0, #0
 1502              	.LVL338:
 111:Madgwick.c    **** 		my *= recipNorm;
 1503              		.loc 1 111 0
 1504 0208 011C     		adds	r1, r0, #0
 1505 020a 2C98     		ldr	r0, [sp, #176]
 1506              	.LVL339:
 1507 020c FFF7FEFF 		bl	__aeabi_fmul
 1508              	.LVL340:
 1509 0210 0490     		str	r0, [sp, #16]
 1510              	.LVL341:
 112:Madgwick.c    **** 		mz *= recipNorm;
 1511              		.loc 1 112 0
 1512 0212 211C     		adds	r1, r4, #0
 1513 0214 2D98     		ldr	r0, [sp, #180]
ARM GAS  C:\Users\A85590\AppData\Local\Temp\cc53CFAh.s 			page 34


 1514              	.LVL342:
 1515 0216 FFF7FEFF 		bl	__aeabi_fmul
 1516              	.LVL343:
 1517 021a 0590     		str	r0, [sp, #20]
 1518              	.LVL344:
 113:Madgwick.c    **** 
 1519              		.loc 1 113 0
 1520 021c 211C     		adds	r1, r4, #0
 1521 021e 2E98     		ldr	r0, [sp, #184]
 1522              	.LVL345:
 1523 0220 FFF7FEFF 		bl	__aeabi_fmul
 1524              	.LVL346:
 1525 0224 041C     		adds	r4, r0, #0
 1526              	.LVL347:
 116:Madgwick.c    **** 		_2q0my = 2.0f * q0 * my;
 1527              		.loc 1 116 0
 1528 0226 039B     		ldr	r3, [sp, #12]
 1529 0228 191C     		adds	r1, r3, #0
 1530 022a 181C     		adds	r0, r3, #0
 1531              	.LVL348:
 1532 022c FFF7FEFF 		bl	__aeabi_fadd
 1533              	.LVL349:
 1534 0230 0A90     		str	r0, [sp, #40]
 1535 0232 011C     		adds	r1, r0, #0
 1536 0234 0498     		ldr	r0, [sp, #16]
 1537 0236 FFF7FEFF 		bl	__aeabi_fmul
 1538              	.LVL350:
 1539 023a 0790     		str	r0, [sp, #28]
 1540              	.LVL351:
 117:Madgwick.c    **** 		_2q0mz = 2.0f * q0 * mz;
 1541              		.loc 1 117 0
 1542 023c 0A99     		ldr	r1, [sp, #40]
 1543 023e 0598     		ldr	r0, [sp, #20]
 1544              	.LVL352:
 1545 0240 FFF7FEFF 		bl	__aeabi_fmul
 1546              	.LVL353:
 1547 0244 1590     		str	r0, [sp, #84]
 1548              	.LVL354:
 118:Madgwick.c    **** 		_2q1mx = 2.0f * q1 * mx;
 1549              		.loc 1 118 0
 1550 0246 0A99     		ldr	r1, [sp, #40]
 1551 0248 0994     		str	r4, [sp, #36]
 1552 024a 201C     		adds	r0, r4, #0
 1553              	.LVL355:
 1554 024c FFF7FEFF 		bl	__aeabi_fmul
 1555              	.LVL356:
 1556 0250 0D90     		str	r0, [sp, #52]
 1557              	.LVL357:
 119:Madgwick.c    **** 		_2q0 = 2.0f * q0;
 1558              		.loc 1 119 0
 1559 0252 391C     		adds	r1, r7, #0
 1560 0254 381C     		adds	r0, r7, #0
 1561              	.LVL358:
 1562 0256 FFF7FEFF 		bl	__aeabi_fadd
 1563              	.LVL359:
 1564 025a 0E90     		str	r0, [sp, #56]
 1565 025c 011C     		adds	r1, r0, #0
ARM GAS  C:\Users\A85590\AppData\Local\Temp\cc53CFAh.s 			page 35


 1566 025e 049C     		ldr	r4, [sp, #16]
 1567              	.LVL360:
 1568 0260 201C     		adds	r0, r4, #0
 1569 0262 FFF7FEFF 		bl	__aeabi_fmul
 1570              	.LVL361:
 1571 0266 1690     		str	r0, [sp, #88]
 1572              	.LVL362:
 122:Madgwick.c    **** 		_2q3 = 2.0f * q3;
 1573              		.loc 1 122 0
 1574 0268 311C     		adds	r1, r6, #0
 1575 026a 301C     		adds	r0, r6, #0
 1576              	.LVL363:
 1577 026c FFF7FEFF 		bl	__aeabi_fadd
 1578              	.LVL364:
 1579 0270 0B90     		str	r0, [sp, #44]
 1580              	.LVL365:
 123:Madgwick.c    **** 		_2q0q2 = 2.0f * q0 * q2;
 1581              		.loc 1 123 0
 1582 0272 291C     		adds	r1, r5, #0
 1583 0274 281C     		adds	r0, r5, #0
 1584              	.LVL366:
 1585 0276 FFF7FEFF 		bl	__aeabi_fadd
 1586              	.LVL367:
 1587 027a 1790     		str	r0, [sp, #92]
 1588              	.LVL368:
 124:Madgwick.c    **** 		_2q2q3 = 2.0f * q2 * q3;
 1589              		.loc 1 124 0
 1590 027c 0A99     		ldr	r1, [sp, #40]
 1591 027e 301C     		adds	r0, r6, #0
 1592              	.LVL369:
 1593 0280 FFF7FEFF 		bl	__aeabi_fmul
 1594              	.LVL370:
 1595 0284 1D90     		str	r0, [sp, #116]
 1596              	.LVL371:
 125:Madgwick.c    **** 		q0q0 = q0 * q0;
 1597              		.loc 1 125 0
 1598 0286 0B99     		ldr	r1, [sp, #44]
 1599 0288 281C     		adds	r0, r5, #0
 1600              	.LVL372:
 1601 028a FFF7FEFF 		bl	__aeabi_fmul
 1602              	.LVL373:
 1603 028e 1E90     		str	r0, [sp, #120]
 1604              	.LVL374:
 126:Madgwick.c    **** 		q0q1 = q0 * q1;
 1605              		.loc 1 126 0
 1606 0290 039B     		ldr	r3, [sp, #12]
 1607 0292 191C     		adds	r1, r3, #0
 1608 0294 181C     		adds	r0, r3, #0
 1609              	.LVL375:
 1610 0296 FFF7FEFF 		bl	__aeabi_fmul
 1611              	.LVL376:
 1612 029a 0890     		str	r0, [sp, #32]
 1613              	.LVL377:
 127:Madgwick.c    **** 		q0q2 = q0 * q2;
 1614              		.loc 1 127 0
 1615 029c 0399     		ldr	r1, [sp, #12]
 1616 029e 381C     		adds	r0, r7, #0
ARM GAS  C:\Users\A85590\AppData\Local\Temp\cc53CFAh.s 			page 36


 1617              	.LVL378:
 1618 02a0 FFF7FEFF 		bl	__aeabi_fmul
 1619              	.LVL379:
 1620 02a4 1490     		str	r0, [sp, #80]
 1621              	.LVL380:
 128:Madgwick.c    **** 		q0q3 = q0 * q3;
 1622              		.loc 1 128 0
 1623 02a6 0399     		ldr	r1, [sp, #12]
 1624 02a8 301C     		adds	r0, r6, #0
 1625              	.LVL381:
 1626 02aa FFF7FEFF 		bl	__aeabi_fmul
 1627              	.LVL382:
 1628 02ae 1890     		str	r0, [sp, #96]
 1629              	.LVL383:
 129:Madgwick.c    **** 		q1q1 = q1 * q1;
 1630              		.loc 1 129 0
 1631 02b0 0399     		ldr	r1, [sp, #12]
 1632 02b2 281C     		adds	r0, r5, #0
 1633              	.LVL384:
 1634 02b4 FFF7FEFF 		bl	__aeabi_fmul
 1635              	.LVL385:
 1636 02b8 1F90     		str	r0, [sp, #124]
 1637              	.LVL386:
 130:Madgwick.c    **** 		q1q2 = q1 * q2;
 1638              		.loc 1 130 0
 1639 02ba 391C     		adds	r1, r7, #0
 1640 02bc 381C     		adds	r0, r7, #0
 1641              	.LVL387:
 1642 02be FFF7FEFF 		bl	__aeabi_fmul
 1643              	.LVL388:
 1644 02c2 0C90     		str	r0, [sp, #48]
 1645              	.LVL389:
 131:Madgwick.c    **** 		q1q3 = q1 * q3;
 1646              		.loc 1 131 0
 1647 02c4 311C     		adds	r1, r6, #0
 1648 02c6 381C     		adds	r0, r7, #0
 1649              	.LVL390:
 1650 02c8 FFF7FEFF 		bl	__aeabi_fmul
 1651              	.LVL391:
 1652 02cc 2090     		str	r0, [sp, #128]
 1653              	.LVL392:
 132:Madgwick.c    **** 		q2q2 = q2 * q2;
 1654              		.loc 1 132 0
 1655 02ce 291C     		adds	r1, r5, #0
 1656 02d0 381C     		adds	r0, r7, #0
 1657              	.LVL393:
 1658 02d2 FFF7FEFF 		bl	__aeabi_fmul
 1659              	.LVL394:
 1660 02d6 0F90     		str	r0, [sp, #60]
 1661              	.LVL395:
 133:Madgwick.c    **** 		q2q3 = q2 * q3;
 1662              		.loc 1 133 0
 1663 02d8 311C     		adds	r1, r6, #0
 1664 02da 301C     		adds	r0, r6, #0
 1665              	.LVL396:
 1666 02dc FFF7FEFF 		bl	__aeabi_fmul
 1667              	.LVL397:
ARM GAS  C:\Users\A85590\AppData\Local\Temp\cc53CFAh.s 			page 37


 1668 02e0 0690     		str	r0, [sp, #24]
 1669              	.LVL398:
 134:Madgwick.c    **** 		q3q3 = q3 * q3;
 1670              		.loc 1 134 0
 1671 02e2 291C     		adds	r1, r5, #0
 1672 02e4 301C     		adds	r0, r6, #0
 1673              	.LVL399:
 1674 02e6 FFF7FEFF 		bl	__aeabi_fmul
 1675              	.LVL400:
 1676 02ea 2190     		str	r0, [sp, #132]
 1677              	.LVL401:
 135:Madgwick.c    **** 
 1678              		.loc 1 135 0
 1679 02ec 291C     		adds	r1, r5, #0
 1680 02ee 281C     		adds	r0, r5, #0
 1681              	.LVL402:
 1682 02f0 FFF7FEFF 		bl	__aeabi_fmul
 1683              	.LVL403:
 1684 02f4 0390     		str	r0, [sp, #12]
 1685              	.LVL404:
 138:Madgwick.c    **** 		hy = _2q0mx * q3 + my * q0q0 - _2q0mz * q1 + _2q1mx * q2 - my * q1q1 + my * q2q2 + _2q2 * mz * q3
 1686              		.loc 1 138 0
 1687 02f6 0899     		ldr	r1, [sp, #32]
 1688 02f8 0494     		str	r4, [sp, #16]
 1689              	.LVL405:
 1690 02fa 201C     		adds	r0, r4, #0
 1691              	.LVL406:
 1692 02fc FFF7FEFF 		bl	__aeabi_fmul
 1693              	.LVL407:
 1694 0300 041C     		adds	r4, r0, #0
 1695              	.LVL408:
 1696 0302 1599     		ldr	r1, [sp, #84]
 1697 0304 281C     		adds	r0, r5, #0
 1698 0306 FFF7FEFF 		bl	__aeabi_fmul
 1699              	.LVL409:
 1700 030a 011C     		adds	r1, r0, #0
 1701 030c 201C     		adds	r0, r4, #0
 1702 030e FFF7FEFF 		bl	__aeabi_fsub
 1703              	.LVL410:
 1704 0312 041C     		adds	r4, r0, #0
 1705 0314 0D99     		ldr	r1, [sp, #52]
 1706 0316 301C     		adds	r0, r6, #0
 1707 0318 FFF7FEFF 		bl	__aeabi_fmul
 1708              	.LVL411:
 1709 031c 011C     		adds	r1, r0, #0
 1710 031e 201C     		adds	r0, r4, #0
 1711 0320 FFF7FEFF 		bl	__aeabi_fadd
 1712              	.LVL412:
 1713 0324 041C     		adds	r4, r0, #0
 1714 0326 0C99     		ldr	r1, [sp, #48]
 1715 0328 0498     		ldr	r0, [sp, #16]
 1716 032a FFF7FEFF 		bl	__aeabi_fmul
 1717              	.LVL413:
 1718 032e 011C     		adds	r1, r0, #0
 1719 0330 201C     		adds	r0, r4, #0
 1720 0332 FFF7FEFF 		bl	__aeabi_fadd
 1721              	.LVL414:
ARM GAS  C:\Users\A85590\AppData\Local\Temp\cc53CFAh.s 			page 38


 1722 0336 041C     		adds	r4, r0, #0
 1723 0338 0E99     		ldr	r1, [sp, #56]
 1724 033a 0598     		ldr	r0, [sp, #20]
 1725 033c FFF7FEFF 		bl	__aeabi_fmul
 1726              	.LVL415:
 1727 0340 011C     		adds	r1, r0, #0
 1728 0342 301C     		adds	r0, r6, #0
 1729 0344 FFF7FEFF 		bl	__aeabi_fmul
 1730              	.LVL416:
 1731 0348 011C     		adds	r1, r0, #0
 1732 034a 201C     		adds	r0, r4, #0
 1733 034c FFF7FEFF 		bl	__aeabi_fadd
 1734              	.LVL417:
 1735 0350 041C     		adds	r4, r0, #0
 1736 0352 0E99     		ldr	r1, [sp, #56]
 1737 0354 0998     		ldr	r0, [sp, #36]
 1738 0356 FFF7FEFF 		bl	__aeabi_fmul
 1739              	.LVL418:
 1740 035a 011C     		adds	r1, r0, #0
 1741 035c 281C     		adds	r0, r5, #0
 1742 035e FFF7FEFF 		bl	__aeabi_fmul
 1743              	.LVL419:
 1744 0362 011C     		adds	r1, r0, #0
 1745 0364 201C     		adds	r0, r4, #0
 1746 0366 FFF7FEFF 		bl	__aeabi_fadd
 1747              	.LVL420:
 1748 036a 041C     		adds	r4, r0, #0
 1749 036c 0699     		ldr	r1, [sp, #24]
 1750 036e 0498     		ldr	r0, [sp, #16]
 1751 0370 FFF7FEFF 		bl	__aeabi_fmul
 1752              	.LVL421:
 1753 0374 011C     		adds	r1, r0, #0
 1754 0376 201C     		adds	r0, r4, #0
 1755 0378 FFF7FEFF 		bl	__aeabi_fsub
 1756              	.LVL422:
 1757 037c 041C     		adds	r4, r0, #0
 1758 037e 0399     		ldr	r1, [sp, #12]
 1759 0380 0498     		ldr	r0, [sp, #16]
 1760 0382 FFF7FEFF 		bl	__aeabi_fmul
 1761              	.LVL423:
 1762 0386 011C     		adds	r1, r0, #0
 1763 0388 201C     		adds	r0, r4, #0
 1764 038a FFF7FEFF 		bl	__aeabi_fsub
 1765              	.LVL424:
 1766 038e 1990     		str	r0, [sp, #100]
 1767              	.LVL425:
 139:Madgwick.c    **** 		_2bx = sqrtf(hx * hx + hy * hy);
 1768              		.loc 1 139 0
 1769 0390 0799     		ldr	r1, [sp, #28]
 1770 0392 281C     		adds	r0, r5, #0
 1771              	.LVL426:
 1772 0394 FFF7FEFF 		bl	__aeabi_fmul
 1773              	.LVL427:
 1774 0398 041C     		adds	r4, r0, #0
 1775 039a 0899     		ldr	r1, [sp, #32]
 1776 039c 0598     		ldr	r0, [sp, #20]
 1777 039e FFF7FEFF 		bl	__aeabi_fmul
ARM GAS  C:\Users\A85590\AppData\Local\Temp\cc53CFAh.s 			page 39


 1778              	.LVL428:
 1779 03a2 011C     		adds	r1, r0, #0
 1780 03a4 201C     		adds	r0, r4, #0
 1781 03a6 FFF7FEFF 		bl	__aeabi_fadd
 1782              	.LVL429:
 1783 03aa 041C     		adds	r4, r0, #0
 1784 03ac 0D99     		ldr	r1, [sp, #52]
 1785 03ae 381C     		adds	r0, r7, #0
 1786 03b0 FFF7FEFF 		bl	__aeabi_fmul
 1787              	.LVL430:
 1788 03b4 011C     		adds	r1, r0, #0
 1789 03b6 201C     		adds	r0, r4, #0
 1790 03b8 FFF7FEFF 		bl	__aeabi_fsub
 1791              	.LVL431:
 1792 03bc 041C     		adds	r4, r0, #0
 1793 03be 1699     		ldr	r1, [sp, #88]
 1794 03c0 301C     		adds	r0, r6, #0
 1795 03c2 FFF7FEFF 		bl	__aeabi_fmul
 1796              	.LVL432:
 1797 03c6 011C     		adds	r1, r0, #0
 1798 03c8 201C     		adds	r0, r4, #0
 1799 03ca FFF7FEFF 		bl	__aeabi_fadd
 1800              	.LVL433:
 1801 03ce 041C     		adds	r4, r0, #0
 1802 03d0 0C99     		ldr	r1, [sp, #48]
 1803 03d2 059E     		ldr	r6, [sp, #20]
 1804 03d4 301C     		adds	r0, r6, #0
 1805 03d6 FFF7FEFF 		bl	__aeabi_fmul
 1806              	.LVL434:
 1807 03da 011C     		adds	r1, r0, #0
 1808 03dc 201C     		adds	r0, r4, #0
 1809 03de FFF7FEFF 		bl	__aeabi_fsub
 1810              	.LVL435:
 1811 03e2 041C     		adds	r4, r0, #0
 1812 03e4 0699     		ldr	r1, [sp, #24]
 1813 03e6 301C     		adds	r0, r6, #0
 1814 03e8 FFF7FEFF 		bl	__aeabi_fmul
 1815              	.LVL436:
 1816 03ec 011C     		adds	r1, r0, #0
 1817 03ee 201C     		adds	r0, r4, #0
 1818 03f0 FFF7FEFF 		bl	__aeabi_fadd
 1819              	.LVL437:
 1820 03f4 041C     		adds	r4, r0, #0
 1821 03f6 0B99     		ldr	r1, [sp, #44]
 1822 03f8 0998     		ldr	r0, [sp, #36]
 1823 03fa FFF7FEFF 		bl	__aeabi_fmul
 1824              	.LVL438:
 1825 03fe 011C     		adds	r1, r0, #0
 1826 0400 281C     		adds	r0, r5, #0
 1827 0402 FFF7FEFF 		bl	__aeabi_fmul
 1828              	.LVL439:
 1829 0406 011C     		adds	r1, r0, #0
 1830 0408 201C     		adds	r0, r4, #0
 1831 040a FFF7FEFF 		bl	__aeabi_fadd
 1832              	.LVL440:
 1833 040e 041C     		adds	r4, r0, #0
 1834 0410 0399     		ldr	r1, [sp, #12]
ARM GAS  C:\Users\A85590\AppData\Local\Temp\cc53CFAh.s 			page 40


 1835 0412 0596     		str	r6, [sp, #20]
 1836              	.LVL441:
 1837 0414 301C     		adds	r0, r6, #0
 1838 0416 FFF7FEFF 		bl	__aeabi_fmul
 1839              	.LVL442:
 1840 041a 011C     		adds	r1, r0, #0
 1841 041c 201C     		adds	r0, r4, #0
 1842 041e FFF7FEFF 		bl	__aeabi_fsub
 1843              	.LVL443:
 1844 0422 041C     		adds	r4, r0, #0
 1845              	.LVL444:
 140:Madgwick.c    **** 		_2bz = -_2q0mx * q2 + _2q0my * q1 + mz * q0q0 + _2q1mx * q3 - mz * q1q1 + _2q2 * my * q3 - mz * q
 1846              		.loc 1 140 0
 1847 0424 199F     		ldr	r7, [sp, #100]
 1848 0426 391C     		adds	r1, r7, #0
 1849 0428 381C     		adds	r0, r7, #0
 1850              	.LVL445:
 1851 042a FFF7FEFF 		bl	__aeabi_fmul
 1852              	.LVL446:
 1853 042e 051C     		adds	r5, r0, #0
 1854 0430 211C     		adds	r1, r4, #0
 1855 0432 201C     		adds	r0, r4, #0
 1856 0434 FFF7FEFF 		bl	__aeabi_fmul
 1857              	.LVL447:
 1858 0438 011C     		adds	r1, r0, #0
 1859 043a 281C     		adds	r0, r5, #0
 1860 043c FFF7FEFF 		bl	__aeabi_fadd
 1861              	.LVL448:
 1862 0440 FFF7FEFF 		bl	sqrtf
 1863              	.LVL449:
 1864 0444 071C     		adds	r7, r0, #0
 1865              	.LVL450:
 141:Madgwick.c    **** 		_4bx = 2.0f * _2bx;
 1866              		.loc 1 141 0
 1867 0446 079C     		ldr	r4, [sp, #28]
 1868              	.LVL451:
 1869 0448 8026     		movs	r6, #128
 1870              	.LVL452:
 1871 044a 3606     		lsls	r6, r6, #24
 1872 044c B446     		mov	ip, r6
 1873 044e 6444     		add	r4, r4, ip
 1874 0450 2000     		movs	r0, r4
 1875              	.LVL453:
 1876 0452 FE4E     		ldr	r6, .L37
 1877 0454 B268     		ldr	r2, [r6, #8]
 1878 0456 0792     		str	r2, [sp, #28]
 1879              	.LVL454:
 1880 0458 111C     		adds	r1, r2, #0
 1881 045a FFF7FEFF 		bl	__aeabi_fmul
 1882              	.LVL455:
 1883 045e 041C     		adds	r4, r0, #0
 1884 0460 3368     		ldr	r3, [r6]
 1885 0462 0D93     		str	r3, [sp, #52]
 1886              	.LVL456:
 1887 0464 191C     		adds	r1, r3, #0
 1888 0466 1598     		ldr	r0, [sp, #84]
 1889 0468 FFF7FEFF 		bl	__aeabi_fmul
ARM GAS  C:\Users\A85590\AppData\Local\Temp\cc53CFAh.s 			page 41


 1890              	.LVL457:
 1891 046c 011C     		adds	r1, r0, #0
 1892 046e 201C     		adds	r0, r4, #0
 1893 0470 FFF7FEFF 		bl	__aeabi_fadd
 1894              	.LVL458:
 1895 0474 041C     		adds	r4, r0, #0
 1896 0476 0899     		ldr	r1, [sp, #32]
 1897 0478 099D     		ldr	r5, [sp, #36]
 1898 047a 281C     		adds	r0, r5, #0
 1899 047c FFF7FEFF 		bl	__aeabi_fmul
 1900              	.LVL459:
 1901 0480 011C     		adds	r1, r0, #0
 1902 0482 201C     		adds	r0, r4, #0
 1903 0484 FFF7FEFF 		bl	__aeabi_fadd
 1904              	.LVL460:
 1905 0488 041C     		adds	r4, r0, #0
 1906 048a F368     		ldr	r3, [r6, #12]
 1907 048c 0893     		str	r3, [sp, #32]
 1908              	.LVL461:
 1909 048e 191C     		adds	r1, r3, #0
 1910 0490 1698     		ldr	r0, [sp, #88]
 1911 0492 FFF7FEFF 		bl	__aeabi_fmul
 1912              	.LVL462:
 1913 0496 011C     		adds	r1, r0, #0
 1914 0498 201C     		adds	r0, r4, #0
 1915 049a FFF7FEFF 		bl	__aeabi_fadd
 1916              	.LVL463:
 1917 049e 041C     		adds	r4, r0, #0
 1918 04a0 0C99     		ldr	r1, [sp, #48]
 1919 04a2 281C     		adds	r0, r5, #0
 1920 04a4 FFF7FEFF 		bl	__aeabi_fmul
 1921              	.LVL464:
 1922 04a8 011C     		adds	r1, r0, #0
 1923 04aa 201C     		adds	r0, r4, #0
 1924 04ac FFF7FEFF 		bl	__aeabi_fsub
 1925              	.LVL465:
 1926 04b0 041C     		adds	r4, r0, #0
 1927 04b2 0B99     		ldr	r1, [sp, #44]
 1928 04b4 0598     		ldr	r0, [sp, #20]
 1929 04b6 FFF7FEFF 		bl	__aeabi_fmul
 1930              	.LVL466:
 1931 04ba 011C     		adds	r1, r0, #0
 1932 04bc 0898     		ldr	r0, [sp, #32]
 1933 04be FFF7FEFF 		bl	__aeabi_fmul
 1934              	.LVL467:
 1935 04c2 011C     		adds	r1, r0, #0
 1936 04c4 201C     		adds	r0, r4, #0
 1937 04c6 FFF7FEFF 		bl	__aeabi_fadd
 1938              	.LVL468:
 1939 04ca 041C     		adds	r4, r0, #0
 1940 04cc 0699     		ldr	r1, [sp, #24]
 1941 04ce 281C     		adds	r0, r5, #0
 1942 04d0 FFF7FEFF 		bl	__aeabi_fmul
 1943              	.LVL469:
 1944 04d4 011C     		adds	r1, r0, #0
 1945 04d6 201C     		adds	r0, r4, #0
 1946 04d8 FFF7FEFF 		bl	__aeabi_fsub
ARM GAS  C:\Users\A85590\AppData\Local\Temp\cc53CFAh.s 			page 42


 1947              	.LVL470:
 1948 04dc 041C     		adds	r4, r0, #0
 1949 04de 0399     		ldr	r1, [sp, #12]
 1950 04e0 0995     		str	r5, [sp, #36]
 1951              	.LVL471:
 1952 04e2 281C     		adds	r0, r5, #0
 1953 04e4 FFF7FEFF 		bl	__aeabi_fmul
 1954              	.LVL472:
 1955 04e8 011C     		adds	r1, r0, #0
 1956 04ea 201C     		adds	r0, r4, #0
 1957 04ec FFF7FEFF 		bl	__aeabi_fadd
 1958              	.LVL473:
 1959 04f0 041C     		adds	r4, r0, #0
 1960              	.LVL474:
 142:Madgwick.c    **** 		_4bz = 2.0f * _2bz;
 1961              		.loc 1 142 0
 1962 04f2 391C     		adds	r1, r7, #0
 1963 04f4 381C     		adds	r0, r7, #0
 1964              	.LVL475:
 1965 04f6 FFF7FEFF 		bl	__aeabi_fadd
 1966              	.LVL476:
 1967 04fa 8146     		mov	r9, r0
 1968              	.LVL477:
 143:Madgwick.c    **** 
 1969              		.loc 1 143 0
 1970 04fc 211C     		adds	r1, r4, #0
 1971 04fe 201C     		adds	r0, r4, #0
 1972              	.LVL478:
 1973 0500 FFF7FEFF 		bl	__aeabi_fadd
 1974              	.LVL479:
 1975 0504 1990     		str	r0, [sp, #100]
 1976              	.LVL480:
 146:Madgwick.c    **** 		s1 = _2q3 * (2.0f * q1q3 - _2q0q2 - ax) + _2q0 * (2.0f * q0q1 + _2q2q3 - ay) - 4.0f * q1 * (1 - 2
 1977              		.loc 1 146 0
 1978 0506 0B9D     		ldr	r5, [sp, #44]
 1979 0508 A846     		mov	r8, r5
 1980 050a 8025     		movs	r5, #128
 1981 050c 2D06     		lsls	r5, r5, #24
 1982 050e AC46     		mov	ip, r5
 1983 0510 E044     		add	r8, r8, ip
 1984 0512 0F9A     		ldr	r2, [sp, #60]
 1985 0514 111C     		adds	r1, r2, #0
 1986 0516 101C     		adds	r0, r2, #0
 1987              	.LVL481:
 1988 0518 FFF7FEFF 		bl	__aeabi_fadd
 1989              	.LVL482:
 1990 051c 1D99     		ldr	r1, [sp, #116]
 1991 051e FFF7FEFF 		bl	__aeabi_fsub
 1992              	.LVL483:
 1993 0522 1A99     		ldr	r1, [sp, #104]
 1994 0524 FFF7FEFF 		bl	__aeabi_fsub
 1995              	.LVL484:
 1996 0528 1590     		str	r0, [sp, #84]
 1997              	.LVL485:
 1998 052a 011C     		adds	r1, r0, #0
 1999 052c 4046     		mov	r0, r8
 2000 052e FFF7FEFF 		bl	__aeabi_fmul
ARM GAS  C:\Users\A85590\AppData\Local\Temp\cc53CFAh.s 			page 43


 2001              	.LVL486:
 2002 0532 051C     		adds	r5, r0, #0
 2003 0534 149B     		ldr	r3, [sp, #80]
 2004 0536 191C     		adds	r1, r3, #0
 2005 0538 181C     		adds	r0, r3, #0
 2006 053a FFF7FEFF 		bl	__aeabi_fadd
 2007              	.LVL487:
 2008 053e 011C     		adds	r1, r0, #0
 2009 0540 1E98     		ldr	r0, [sp, #120]
 2010 0542 FFF7FEFF 		bl	__aeabi_fadd
 2011              	.LVL488:
 2012 0546 1B99     		ldr	r1, [sp, #108]
 2013 0548 FFF7FEFF 		bl	__aeabi_fsub
 2014              	.LVL489:
 2015 054c 1690     		str	r0, [sp, #88]
 2016              	.LVL490:
 2017 054e 011C     		adds	r1, r0, #0
 2018 0550 0E98     		ldr	r0, [sp, #56]
 2019 0552 FFF7FEFF 		bl	__aeabi_fmul
 2020              	.LVL491:
 2021 0556 011C     		adds	r1, r0, #0
 2022 0558 281C     		adds	r0, r5, #0
 2023 055a FFF7FEFF 		bl	__aeabi_fadd
 2024              	.LVL492:
 2025 055e 051C     		adds	r5, r0, #0
 2026 0560 211C     		adds	r1, r4, #0
 2027 0562 0798     		ldr	r0, [sp, #28]
 2028 0564 FFF7FEFF 		bl	__aeabi_fmul
 2029              	.LVL493:
 2030 0568 1A90     		str	r0, [sp, #104]
 2031              	.LVL494:
 2032 056a 0699     		ldr	r1, [sp, #24]
 2033 056c FC20     		movs	r0, #252
 2034 056e 8005     		lsls	r0, r0, #22
 2035 0570 FFF7FEFF 		bl	__aeabi_fsub
 2036              	.LVL495:
 2037 0574 0399     		ldr	r1, [sp, #12]
 2038 0576 FFF7FEFF 		bl	__aeabi_fsub
 2039              	.LVL496:
 2040 057a 011C     		adds	r1, r0, #0
 2041 057c 0397     		str	r7, [sp, #12]
 2042              	.LVL497:
 2043 057e 381C     		adds	r0, r7, #0
 2044 0580 FFF7FEFF 		bl	__aeabi_fmul
 2045              	.LVL498:
 2046 0584 071C     		adds	r7, r0, #0
 2047              	.LVL499:
 2048 0586 1899     		ldr	r1, [sp, #96]
 2049 0588 0F98     		ldr	r0, [sp, #60]
 2050 058a FFF7FEFF 		bl	__aeabi_fsub
 2051              	.LVL500:
 2052 058e 011C     		adds	r1, r0, #0
 2053 0590 201C     		adds	r0, r4, #0
 2054 0592 FFF7FEFF 		bl	__aeabi_fmul
 2055              	.LVL501:
 2056 0596 011C     		adds	r1, r0, #0
 2057 0598 381C     		adds	r0, r7, #0
ARM GAS  C:\Users\A85590\AppData\Local\Temp\cc53CFAh.s 			page 44


 2058 059a FFF7FEFF 		bl	__aeabi_fadd
 2059              	.LVL502:
 2060 059e 0499     		ldr	r1, [sp, #16]
 2061 05a0 FFF7FEFF 		bl	__aeabi_fsub
 2062              	.LVL503:
 2063 05a4 0490     		str	r0, [sp, #16]
 2064              	.LVL504:
 2065 05a6 011C     		adds	r1, r0, #0
 2066 05a8 1A98     		ldr	r0, [sp, #104]
 2067 05aa FFF7FEFF 		bl	__aeabi_fmul
 2068              	.LVL505:
 2069 05ae 011C     		adds	r1, r0, #0
 2070 05b0 281C     		adds	r0, r5, #0
 2071 05b2 FFF7FEFF 		bl	__aeabi_fsub
 2072              	.LVL506:
 2073 05b6 051C     		adds	r5, r0, #0
 2074 05b8 039F     		ldr	r7, [sp, #12]
 2075 05ba B846     		mov	r8, r7
 2076 05bc 8023     		movs	r3, #128
 2077 05be 1B06     		lsls	r3, r3, #24
 2078 05c0 9C46     		mov	ip, r3
 2079 05c2 E044     		add	r8, r8, ip
 2080 05c4 4746     		mov	r7, r8
 2081 05c6 1B97     		str	r7, [sp, #108]
 2082              	.LVL507:
 2083 05c8 4146     		mov	r1, r8
 2084 05ca 0898     		ldr	r0, [sp, #32]
 2085 05cc FFF7FEFF 		bl	__aeabi_fmul
 2086              	.LVL508:
 2087 05d0 071C     		adds	r7, r0, #0
 2088 05d2 211C     		adds	r1, r4, #0
 2089 05d4 0D98     		ldr	r0, [sp, #52]
 2090 05d6 FFF7FEFF 		bl	__aeabi_fmul
 2091              	.LVL509:
 2092 05da 1D90     		str	r0, [sp, #116]
 2093              	.LVL510:
 2094 05dc 011C     		adds	r1, r0, #0
 2095 05de 381C     		adds	r0, r7, #0
 2096 05e0 FFF7FEFF 		bl	__aeabi_fadd
 2097              	.LVL511:
 2098 05e4 1E90     		str	r0, [sp, #120]
 2099              	.LVL512:
 2100 05e6 1F99     		ldr	r1, [sp, #124]
 2101 05e8 2098     		ldr	r0, [sp, #128]
 2102 05ea FFF7FEFF 		bl	__aeabi_fsub
 2103              	.LVL513:
 2104 05ee 011C     		adds	r1, r0, #0
 2105 05f0 0398     		ldr	r0, [sp, #12]
 2106 05f2 FFF7FEFF 		bl	__aeabi_fmul
 2107              	.LVL514:
 2108 05f6 071C     		adds	r7, r0, #0
 2109 05f8 2199     		ldr	r1, [sp, #132]
 2110 05fa 1498     		ldr	r0, [sp, #80]
 2111 05fc FFF7FEFF 		bl	__aeabi_fadd
 2112              	.LVL515:
 2113 0600 011C     		adds	r1, r0, #0
 2114 0602 201C     		adds	r0, r4, #0
ARM GAS  C:\Users\A85590\AppData\Local\Temp\cc53CFAh.s 			page 45


 2115 0604 FFF7FEFF 		bl	__aeabi_fmul
 2116              	.LVL516:
 2117 0608 011C     		adds	r1, r0, #0
 2118 060a 381C     		adds	r0, r7, #0
 2119 060c FFF7FEFF 		bl	__aeabi_fadd
 2120              	.LVL517:
 2121 0610 0599     		ldr	r1, [sp, #20]
 2122 0612 FFF7FEFF 		bl	__aeabi_fsub
 2123              	.LVL518:
 2124 0616 0590     		str	r0, [sp, #20]
 2125              	.LVL519:
 2126 0618 011C     		adds	r1, r0, #0
 2127 061a 1E98     		ldr	r0, [sp, #120]
 2128 061c FFF7FEFF 		bl	__aeabi_fmul
 2129              	.LVL520:
 2130 0620 011C     		adds	r1, r0, #0
 2131 0622 281C     		adds	r0, r5, #0
 2132 0624 FFF7FEFF 		bl	__aeabi_fadd
 2133              	.LVL521:
 2134 0628 051C     		adds	r5, r0, #0
 2135 062a 0799     		ldr	r1, [sp, #28]
 2136 062c 039F     		ldr	r7, [sp, #12]
 2137 062e 381C     		adds	r0, r7, #0
 2138 0630 FFF7FEFF 		bl	__aeabi_fmul
 2139              	.LVL522:
 2140 0634 1490     		str	r0, [sp, #80]
 2141              	.LVL523:
 2142 0636 0F99     		ldr	r1, [sp, #60]
 2143 0638 1898     		ldr	r0, [sp, #96]
 2144 063a FFF7FEFF 		bl	__aeabi_fadd
 2145              	.LVL524:
 2146 063e 011C     		adds	r1, r0, #0
 2147 0640 0397     		str	r7, [sp, #12]
 2148              	.LVL525:
 2149 0642 381C     		adds	r0, r7, #0
 2150 0644 FFF7FEFF 		bl	__aeabi_fmul
 2151              	.LVL526:
 2152 0648 071C     		adds	r7, r0, #0
 2153              	.LVL527:
 2154 064a 0C99     		ldr	r1, [sp, #48]
 2155 064c FC20     		movs	r0, #252
 2156 064e 8005     		lsls	r0, r0, #22
 2157 0650 FFF7FEFF 		bl	__aeabi_fsub
 2158              	.LVL528:
 2159 0654 0699     		ldr	r1, [sp, #24]
 2160 0656 FFF7FEFF 		bl	__aeabi_fsub
 2161              	.LVL529:
 2162 065a 011C     		adds	r1, r0, #0
 2163 065c 201C     		adds	r0, r4, #0
 2164 065e FFF7FEFF 		bl	__aeabi_fmul
 2165              	.LVL530:
 2166 0662 011C     		adds	r1, r0, #0
 2167 0664 381C     		adds	r0, r7, #0
 2168 0666 FFF7FEFF 		bl	__aeabi_fadd
 2169              	.LVL531:
 2170 066a 0999     		ldr	r1, [sp, #36]
 2171 066c FFF7FEFF 		bl	__aeabi_fsub
ARM GAS  C:\Users\A85590\AppData\Local\Temp\cc53CFAh.s 			page 46


 2172              	.LVL532:
 2173 0670 011C     		adds	r1, r0, #0
 2174 0672 0990     		str	r0, [sp, #36]
 2175 0674 1498     		ldr	r0, [sp, #80]
 2176 0676 FFF7FEFF 		bl	__aeabi_fmul
 2177              	.LVL533:
 2178 067a 011C     		adds	r1, r0, #0
 2179 067c 281C     		adds	r0, r5, #0
 2180 067e FFF7FEFF 		bl	__aeabi_fadd
 2181              	.LVL534:
 2182 0682 0F90     		str	r0, [sp, #60]
 2183              	.LVL535:
 147:Madgwick.c    **** 		s2 = -_2q0 * (2.0f * q1q3 - _2q0q2 - ax) + _2q3 * (2.0f * q0q1 + _2q2q3 - ay) - 4.0f * q2 * (1 - 
 2184              		.loc 1 147 0
 2185 0684 1599     		ldr	r1, [sp, #84]
 2186 0686 1798     		ldr	r0, [sp, #92]
 2187              	.LVL536:
 2188 0688 FFF7FEFF 		bl	__aeabi_fmul
 2189              	.LVL537:
 2190 068c 051C     		adds	r5, r0, #0
 2191 068e 1699     		ldr	r1, [sp, #88]
 2192 0690 0A98     		ldr	r0, [sp, #40]
 2193 0692 FFF7FEFF 		bl	__aeabi_fmul
 2194              	.LVL538:
 2195 0696 011C     		adds	r1, r0, #0
 2196 0698 281C     		adds	r0, r5, #0
 2197 069a FFF7FEFF 		bl	__aeabi_fadd
 2198              	.LVL539:
 2199 069e 051C     		adds	r5, r0, #0
 2200 06a0 8121     		movs	r1, #129
 2201 06a2 C905     		lsls	r1, r1, #23
 2202 06a4 0D98     		ldr	r0, [sp, #52]
 2203 06a6 FFF7FEFF 		bl	__aeabi_fmul
 2204              	.LVL540:
 2205 06aa 071C     		adds	r7, r0, #0
 2206 06ac 0C9A     		ldr	r2, [sp, #48]
 2207 06ae 111C     		adds	r1, r2, #0
 2208 06b0 101C     		adds	r0, r2, #0
 2209 06b2 FFF7FEFF 		bl	__aeabi_fadd
 2210              	.LVL541:
 2211 06b6 011C     		adds	r1, r0, #0
 2212 06b8 FE20     		movs	r0, #254
 2213 06ba 8005     		lsls	r0, r0, #22
 2214 06bc FFF7FEFF 		bl	__aeabi_fsub
 2215              	.LVL542:
 2216 06c0 0C90     		str	r0, [sp, #48]
 2217              	.LVL543:
 2218 06c2 069B     		ldr	r3, [sp, #24]
 2219 06c4 191C     		adds	r1, r3, #0
 2220 06c6 181C     		adds	r0, r3, #0
 2221 06c8 FFF7FEFF 		bl	__aeabi_fadd
 2222              	.LVL544:
 2223 06cc 011C     		adds	r1, r0, #0
 2224 06ce 0C98     		ldr	r0, [sp, #48]
 2225 06d0 FFF7FEFF 		bl	__aeabi_fsub
 2226              	.LVL545:
 2227 06d4 1C99     		ldr	r1, [sp, #112]
ARM GAS  C:\Users\A85590\AppData\Local\Temp\cc53CFAh.s 			page 47


 2228 06d6 FFF7FEFF 		bl	__aeabi_fsub
 2229              	.LVL546:
 2230 06da 011C     		adds	r1, r0, #0
 2231 06dc 0690     		str	r0, [sp, #24]
 2232              	.LVL547:
 2233 06de 381C     		adds	r0, r7, #0
 2234 06e0 FFF7FEFF 		bl	__aeabi_fmul
 2235              	.LVL548:
 2236 06e4 011C     		adds	r1, r0, #0
 2237 06e6 281C     		adds	r0, r5, #0
 2238 06e8 FFF7FEFF 		bl	__aeabi_fsub
 2239              	.LVL549:
 2240 06ec 051C     		adds	r5, r0, #0
 2241 06ee 211C     		adds	r1, r4, #0
 2242 06f0 0898     		ldr	r0, [sp, #32]
 2243 06f2 FFF7FEFF 		bl	__aeabi_fmul
 2244              	.LVL550:
 2245 06f6 011C     		adds	r1, r0, #0
 2246 06f8 0C90     		str	r0, [sp, #48]
 2247 06fa 0498     		ldr	r0, [sp, #16]
 2248 06fc FFF7FEFF 		bl	__aeabi_fmul
 2249              	.LVL551:
 2250 0700 011C     		adds	r1, r0, #0
 2251 0702 281C     		adds	r0, r5, #0
 2252 0704 FFF7FEFF 		bl	__aeabi_fadd
 2253              	.LVL552:
 2254 0708 071C     		adds	r7, r0, #0
 2255 070a 7568     		ldr	r5, [r6, #4]
 2256 070c 291C     		adds	r1, r5, #0
 2257 070e 201C     		adds	r0, r4, #0
 2258 0710 FFF7FEFF 		bl	__aeabi_fmul
 2259              	.LVL553:
 2260 0714 1890     		str	r0, [sp, #96]
 2261              	.LVL554:
 2262 0716 011C     		adds	r1, r0, #0
 2263 0718 1498     		ldr	r0, [sp, #80]
 2264 071a FFF7FEFF 		bl	__aeabi_fadd
 2265              	.LVL555:
 2266 071e 011C     		adds	r1, r0, #0
 2267 0720 0598     		ldr	r0, [sp, #20]
 2268 0722 FFF7FEFF 		bl	__aeabi_fmul
 2269              	.LVL556:
 2270 0726 011C     		adds	r1, r0, #0
 2271 0728 381C     		adds	r0, r7, #0
 2272 072a FFF7FEFF 		bl	__aeabi_fadd
 2273              	.LVL557:
 2274 072e 071C     		adds	r7, r0, #0
 2275 0730 0899     		ldr	r1, [sp, #32]
 2276 0732 0398     		ldr	r0, [sp, #12]
 2277 0734 FFF7FEFF 		bl	__aeabi_fmul
 2278              	.LVL558:
 2279 0738 041C     		adds	r4, r0, #0
 2280              	.LVL559:
 2281 073a 1999     		ldr	r1, [sp, #100]
 2282 073c 0D98     		ldr	r0, [sp, #52]
 2283 073e FFF7FEFF 		bl	__aeabi_fmul
 2284              	.LVL560:
ARM GAS  C:\Users\A85590\AppData\Local\Temp\cc53CFAh.s 			page 48


 2285 0742 011C     		adds	r1, r0, #0
 2286 0744 201C     		adds	r0, r4, #0
 2287 0746 FFF7FEFF 		bl	__aeabi_fsub
 2288              	.LVL561:
 2289 074a 011C     		adds	r1, r0, #0
 2290 074c 0998     		ldr	r0, [sp, #36]
 2291 074e FFF7FEFF 		bl	__aeabi_fmul
 2292              	.LVL562:
 2293 0752 011C     		adds	r1, r0, #0
 2294 0754 381C     		adds	r0, r7, #0
 2295 0756 FFF7FEFF 		bl	__aeabi_fadd
 2296              	.LVL563:
 2297 075a 1490     		str	r0, [sp, #80]
 2298              	.LVL564:
 148:Madgwick.c    **** 		s3 = _2q1 * (2.0f * q1q3 - _2q0q2 - ax) + _2q2 * (2.0f * q0q1 + _2q2q3 - ay) + (-_4bx * q3 + _2bz
 2299              		.loc 1 148 0
 2300 075c 0A9C     		ldr	r4, [sp, #40]
 2301 075e 8022     		movs	r2, #128
 2302 0760 1206     		lsls	r2, r2, #24
 2303 0762 9446     		mov	ip, r2
 2304 0764 6444     		add	r4, r4, ip
 2305 0766 2100     		movs	r1, r4
 2306 0768 1598     		ldr	r0, [sp, #84]
 2307              	.LVL565:
 2308 076a FFF7FEFF 		bl	__aeabi_fmul
 2309              	.LVL566:
 2310 076e 071C     		adds	r7, r0, #0
 2311 0770 1699     		ldr	r1, [sp, #88]
 2312 0772 1798     		ldr	r0, [sp, #92]
 2313 0774 FFF7FEFF 		bl	__aeabi_fmul
 2314              	.LVL567:
 2315 0778 011C     		adds	r1, r0, #0
 2316 077a 381C     		adds	r0, r7, #0
 2317 077c FFF7FEFF 		bl	__aeabi_fadd
 2318              	.LVL568:
 2319 0780 071C     		adds	r7, r0, #0
 2320 0782 8121     		movs	r1, #129
 2321 0784 C905     		lsls	r1, r1, #23
 2322 0786 0798     		ldr	r0, [sp, #28]
 2323 0788 FFF7FEFF 		bl	__aeabi_fmul
 2324              	.LVL569:
 2325 078c 011C     		adds	r1, r0, #0
 2326 078e 0698     		ldr	r0, [sp, #24]
 2327 0790 FFF7FEFF 		bl	__aeabi_fmul
 2328              	.LVL570:
 2329 0794 011C     		adds	r1, r0, #0
 2330 0796 381C     		adds	r0, r7, #0
 2331 0798 FFF7FEFF 		bl	__aeabi_fsub
 2332              	.LVL571:
 2333 079c 061C     		adds	r6, r0, #0
 2334 079e 8024     		movs	r4, #128
 2335 07a0 2406     		lsls	r4, r4, #24
 2336 07a2 4C44     		add	r4, r4, r9
 2337 07a4 211C     		adds	r1, r4, #0
 2338 07a6 0798     		ldr	r0, [sp, #28]
 2339 07a8 FFF7FEFF 		bl	__aeabi_fmul
 2340              	.LVL572:
ARM GAS  C:\Users\A85590\AppData\Local\Temp\cc53CFAh.s 			page 49


 2341 07ac 1899     		ldr	r1, [sp, #96]
 2342 07ae FFF7FEFF 		bl	__aeabi_fsub
 2343              	.LVL573:
 2344 07b2 011C     		adds	r1, r0, #0
 2345 07b4 0498     		ldr	r0, [sp, #16]
 2346 07b6 FFF7FEFF 		bl	__aeabi_fmul
 2347              	.LVL574:
 2348 07ba 011C     		adds	r1, r0, #0
 2349 07bc 301C     		adds	r0, r6, #0
 2350 07be FFF7FEFF 		bl	__aeabi_fadd
 2351              	.LVL575:
 2352 07c2 061C     		adds	r6, r0, #0
 2353 07c4 0D99     		ldr	r1, [sp, #52]
 2354 07c6 039F     		ldr	r7, [sp, #12]
 2355 07c8 381C     		adds	r0, r7, #0
 2356 07ca FFF7FEFF 		bl	__aeabi_fmul
 2357              	.LVL576:
 2358 07ce 0390     		str	r0, [sp, #12]
 2359              	.LVL577:
 2360 07d0 011C     		adds	r1, r0, #0
 2361 07d2 0C98     		ldr	r0, [sp, #48]
 2362 07d4 FFF7FEFF 		bl	__aeabi_fadd
 2363              	.LVL578:
 2364 07d8 011C     		adds	r1, r0, #0
 2365 07da 0598     		ldr	r0, [sp, #20]
 2366 07dc FFF7FEFF 		bl	__aeabi_fmul
 2367              	.LVL579:
 2368 07e0 011C     		adds	r1, r0, #0
 2369 07e2 301C     		adds	r0, r6, #0
 2370 07e4 FFF7FEFF 		bl	__aeabi_fadd
 2371              	.LVL580:
 2372 07e8 061C     		adds	r6, r0, #0
 2373 07ea 291C     		adds	r1, r5, #0
 2374 07ec 381C     		adds	r0, r7, #0
 2375 07ee FFF7FEFF 		bl	__aeabi_fmul
 2376              	.LVL581:
 2377 07f2 071C     		adds	r7, r0, #0
 2378              	.LVL582:
 2379 07f4 1999     		ldr	r1, [sp, #100]
 2380 07f6 0798     		ldr	r0, [sp, #28]
 2381 07f8 FFF7FEFF 		bl	__aeabi_fmul
 2382              	.LVL583:
 2383 07fc 011C     		adds	r1, r0, #0
 2384 07fe 381C     		adds	r0, r7, #0
 2385 0800 FFF7FEFF 		bl	__aeabi_fsub
 2386              	.LVL584:
 2387 0804 011C     		adds	r1, r0, #0
 2388 0806 0998     		ldr	r0, [sp, #36]
 2389 0808 FFF7FEFF 		bl	__aeabi_fmul
 2390              	.LVL585:
 2391 080c 011C     		adds	r1, r0, #0
 2392 080e 301C     		adds	r0, r6, #0
 2393 0810 FFF7FEFF 		bl	__aeabi_fadd
 2394              	.LVL586:
 2395 0814 071C     		adds	r7, r0, #0
 2396              	.LVL587:
 149:Madgwick.c    **** 		recipNorm = invSqrt(s0 * s0 + s1 * s1 + s2 * s2 + s3 * s3); // normalise step magnitude
ARM GAS  C:\Users\A85590\AppData\Local\Temp\cc53CFAh.s 			page 50


 2397              		.loc 1 149 0
 2398 0816 1599     		ldr	r1, [sp, #84]
 2399 0818 0E98     		ldr	r0, [sp, #56]
 2400              	.LVL588:
 2401 081a FFF7FEFF 		bl	__aeabi_fmul
 2402              	.LVL589:
 2403 081e 061C     		adds	r6, r0, #0
 2404 0820 1699     		ldr	r1, [sp, #88]
 2405 0822 0B98     		ldr	r0, [sp, #44]
 2406 0824 FFF7FEFF 		bl	__aeabi_fmul
 2407              	.LVL590:
 2408 0828 011C     		adds	r1, r0, #0
 2409 082a 301C     		adds	r0, r6, #0
 2410 082c FFF7FEFF 		bl	__aeabi_fadd
 2411              	.LVL591:
 2412 0830 061C     		adds	r6, r0, #0
 2413 0832 211C     		adds	r1, r4, #0
 2414 0834 0898     		ldr	r0, [sp, #32]
 2415 0836 FFF7FEFF 		bl	__aeabi_fmul
 2416              	.LVL592:
 2417 083a 011C     		adds	r1, r0, #0
 2418 083c 1D98     		ldr	r0, [sp, #116]
 2419 083e FFF7FEFF 		bl	__aeabi_fadd
 2420              	.LVL593:
 2421 0842 011C     		adds	r1, r0, #0
 2422 0844 0498     		ldr	r0, [sp, #16]
 2423 0846 FFF7FEFF 		bl	__aeabi_fmul
 2424              	.LVL594:
 2425 084a 01E0     		b	.L38
 2426              	.L39:
 2427              		.align	2
 2428              	.L37:
 2429 084c 00000000 		.word	.LANCHOR0
 2430              	.L38:
 2431 0850 011C     		adds	r1, r0, #0
 2432 0852 301C     		adds	r0, r6, #0
 2433 0854 FFF7FEFF 		bl	__aeabi_fadd
 2434              	.LVL595:
 2435 0858 041C     		adds	r4, r0, #0
 2436 085a 291C     		adds	r1, r5, #0
 2437 085c 1B98     		ldr	r0, [sp, #108]
 2438 085e FFF7FEFF 		bl	__aeabi_fmul
 2439              	.LVL596:
 2440 0862 011C     		adds	r1, r0, #0
 2441 0864 1A98     		ldr	r0, [sp, #104]
 2442 0866 FFF7FEFF 		bl	__aeabi_fadd
 2443              	.LVL597:
 2444 086a 011C     		adds	r1, r0, #0
 2445 086c 0598     		ldr	r0, [sp, #20]
 2446 086e FFF7FEFF 		bl	__aeabi_fmul
 2447              	.LVL598:
 2448 0872 011C     		adds	r1, r0, #0
 2449 0874 201C     		adds	r0, r4, #0
 2450 0876 FFF7FEFF 		bl	__aeabi_fadd
 2451              	.LVL599:
 2452 087a 041C     		adds	r4, r0, #0
 2453 087c 0399     		ldr	r1, [sp, #12]
ARM GAS  C:\Users\A85590\AppData\Local\Temp\cc53CFAh.s 			page 51


 2454 087e 0998     		ldr	r0, [sp, #36]
 2455 0880 FFF7FEFF 		bl	__aeabi_fmul
 2456              	.LVL600:
 2457 0884 011C     		adds	r1, r0, #0
 2458 0886 201C     		adds	r0, r4, #0
 2459 0888 FFF7FEFF 		bl	__aeabi_fadd
 2460              	.LVL601:
 2461 088c 051C     		adds	r5, r0, #0
 2462              	.LVL602:
 150:Madgwick.c    **** 		s0 *= recipNorm;
 2463              		.loc 1 150 0
 2464 088e 0F9B     		ldr	r3, [sp, #60]
 2465 0890 191C     		adds	r1, r3, #0
 2466 0892 181C     		adds	r0, r3, #0
 2467              	.LVL603:
 2468 0894 FFF7FEFF 		bl	__aeabi_fmul
 2469              	.LVL604:
 2470 0898 041C     		adds	r4, r0, #0
 2471 089a 149E     		ldr	r6, [sp, #80]
 2472 089c 311C     		adds	r1, r6, #0
 2473 089e 301C     		adds	r0, r6, #0
 2474 08a0 FFF7FEFF 		bl	__aeabi_fmul
 2475              	.LVL605:
 2476 08a4 011C     		adds	r1, r0, #0
 2477 08a6 201C     		adds	r0, r4, #0
 2478 08a8 FFF7FEFF 		bl	__aeabi_fadd
 2479              	.LVL606:
 2480 08ac 041C     		adds	r4, r0, #0
 2481 08ae 391C     		adds	r1, r7, #0
 2482 08b0 381C     		adds	r0, r7, #0
 2483 08b2 FFF7FEFF 		bl	__aeabi_fmul
 2484              	.LVL607:
 2485 08b6 011C     		adds	r1, r0, #0
 2486 08b8 201C     		adds	r0, r4, #0
 2487 08ba FFF7FEFF 		bl	__aeabi_fadd
 2488              	.LVL608:
 2489 08be 041C     		adds	r4, r0, #0
 2490 08c0 291C     		adds	r1, r5, #0
 2491 08c2 281C     		adds	r0, r5, #0
 2492 08c4 FFF7FEFF 		bl	__aeabi_fmul
 2493              	.LVL609:
 2494 08c8 011C     		adds	r1, r0, #0
 2495 08ca 201C     		adds	r0, r4, #0
 2496 08cc FFF7FEFF 		bl	__aeabi_fadd
 2497              	.LVL610:
 2498 08d0 FFF7FEFF 		bl	invSqrt
 2499              	.LVL611:
 2500 08d4 041C     		adds	r4, r0, #0
 2501              	.LVL612:
 151:Madgwick.c    **** 		s1 *= recipNorm;
 2502              		.loc 1 151 0
 2503 08d6 011C     		adds	r1, r0, #0
 2504 08d8 0F98     		ldr	r0, [sp, #60]
 2505              	.LVL613:
 2506 08da FFF7FEFF 		bl	__aeabi_fmul
 2507              	.LVL614:
 2508 08de 0390     		str	r0, [sp, #12]
ARM GAS  C:\Users\A85590\AppData\Local\Temp\cc53CFAh.s 			page 52


 2509              	.LVL615:
 152:Madgwick.c    **** 		s2 *= recipNorm;
 2510              		.loc 1 152 0
 2511 08e0 211C     		adds	r1, r4, #0
 2512 08e2 301C     		adds	r0, r6, #0
 2513              	.LVL616:
 2514 08e4 FFF7FEFF 		bl	__aeabi_fmul
 2515              	.LVL617:
 2516 08e8 061C     		adds	r6, r0, #0
 2517              	.LVL618:
 153:Madgwick.c    **** 		s3 *= recipNorm;
 2518              		.loc 1 153 0
 2519 08ea 211C     		adds	r1, r4, #0
 2520 08ec 381C     		adds	r0, r7, #0
 2521              	.LVL619:
 2522 08ee FFF7FEFF 		bl	__aeabi_fmul
 2523              	.LVL620:
 2524 08f2 071C     		adds	r7, r0, #0
 2525              	.LVL621:
 154:Madgwick.c    **** 
 2526              		.loc 1 154 0
 2527 08f4 211C     		adds	r1, r4, #0
 2528 08f6 281C     		adds	r0, r5, #0
 2529              	.LVL622:
 2530 08f8 FFF7FEFF 		bl	__aeabi_fmul
 2531              	.LVL623:
 2532 08fc 051C     		adds	r5, r0, #0
 2533              	.LVL624:
 157:Madgwick.c    **** 		qDot2 -= beta * s1;
 2534              		.loc 1 157 0
 2535 08fe 434B     		ldr	r3, .L40
 2536 0900 1C6A     		ldr	r4, [r3, #32]
 2537              	.LVL625:
 2538 0902 211C     		adds	r1, r4, #0
 2539 0904 0398     		ldr	r0, [sp, #12]
 2540              	.LVL626:
 2541 0906 FFF7FEFF 		bl	__aeabi_fmul
 2542              	.LVL627:
 2543 090a 011C     		adds	r1, r0, #0
 2544 090c 1098     		ldr	r0, [sp, #64]
 2545 090e FFF7FEFF 		bl	__aeabi_fsub
 2546              	.LVL628:
 2547 0912 1090     		str	r0, [sp, #64]
 2548              	.LVL629:
 158:Madgwick.c    **** 		qDot3 -= beta * s2;
 2549              		.loc 1 158 0
 2550 0914 211C     		adds	r1, r4, #0
 2551 0916 301C     		adds	r0, r6, #0
 2552              	.LVL630:
 2553 0918 FFF7FEFF 		bl	__aeabi_fmul
 2554              	.LVL631:
 2555 091c 011C     		adds	r1, r0, #0
 2556 091e 1198     		ldr	r0, [sp, #68]
 2557 0920 FFF7FEFF 		bl	__aeabi_fsub
 2558              	.LVL632:
 2559 0924 1190     		str	r0, [sp, #68]
 2560              	.LVL633:
ARM GAS  C:\Users\A85590\AppData\Local\Temp\cc53CFAh.s 			page 53


 159:Madgwick.c    **** 		qDot4 -= beta * s3;
 2561              		.loc 1 159 0
 2562 0926 211C     		adds	r1, r4, #0
 2563 0928 381C     		adds	r0, r7, #0
 2564              	.LVL634:
 2565 092a FFF7FEFF 		bl	__aeabi_fmul
 2566              	.LVL635:
 2567 092e 011C     		adds	r1, r0, #0
 2568 0930 1298     		ldr	r0, [sp, #72]
 2569 0932 FFF7FEFF 		bl	__aeabi_fsub
 2570              	.LVL636:
 2571 0936 1290     		str	r0, [sp, #72]
 2572              	.LVL637:
 160:Madgwick.c    **** 	}
 2573              		.loc 1 160 0
 2574 0938 211C     		adds	r1, r4, #0
 2575 093a 281C     		adds	r0, r5, #0
 2576              	.LVL638:
 2577 093c FFF7FEFF 		bl	__aeabi_fmul
 2578              	.LVL639:
 2579 0940 011C     		adds	r1, r0, #0
 2580 0942 1398     		ldr	r0, [sp, #76]
 2581 0944 FFF7FEFF 		bl	__aeabi_fsub
 2582              	.LVL640:
 2583 0948 1390     		str	r0, [sp, #76]
 2584              	.LVL641:
 2585              	.L29:
 164:Madgwick.c    **** 	q1 += qDot2 * invSampleFreq;
 2586              		.loc 1 164 0
 2587 094a 304D     		ldr	r5, .L40
 2588 094c 6C6A     		ldr	r4, [r5, #36]
 2589 094e 211C     		adds	r1, r4, #0
 2590 0950 1098     		ldr	r0, [sp, #64]
 2591 0952 FFF7FEFF 		bl	__aeabi_fmul
 2592              	.LVL642:
 2593 0956 6968     		ldr	r1, [r5, #4]
 2594 0958 FFF7FEFF 		bl	__aeabi_fadd
 2595              	.LVL643:
 2596 095c 071C     		adds	r7, r0, #0
 165:Madgwick.c    **** 	q2 += qDot3 * invSampleFreq;
 2597              		.loc 1 165 0
 2598 095e 211C     		adds	r1, r4, #0
 2599 0960 1198     		ldr	r0, [sp, #68]
 2600 0962 FFF7FEFF 		bl	__aeabi_fmul
 2601              	.LVL644:
 2602 0966 2968     		ldr	r1, [r5]
 2603 0968 FFF7FEFF 		bl	__aeabi_fadd
 2604              	.LVL645:
 2605 096c 061C     		adds	r6, r0, #0
 166:Madgwick.c    **** 	q3 += qDot4 * invSampleFreq;
 2606              		.loc 1 166 0
 2607 096e 211C     		adds	r1, r4, #0
 2608 0970 1298     		ldr	r0, [sp, #72]
 2609 0972 FFF7FEFF 		bl	__aeabi_fmul
 2610              	.LVL646:
 2611 0976 A968     		ldr	r1, [r5, #8]
 2612 0978 FFF7FEFF 		bl	__aeabi_fadd
ARM GAS  C:\Users\A85590\AppData\Local\Temp\cc53CFAh.s 			page 54


 2613              	.LVL647:
 2614 097c 0390     		str	r0, [sp, #12]
 167:Madgwick.c    **** 
 2615              		.loc 1 167 0
 2616 097e 211C     		adds	r1, r4, #0
 2617 0980 1398     		ldr	r0, [sp, #76]
 2618 0982 FFF7FEFF 		bl	__aeabi_fmul
 2619              	.LVL648:
 2620 0986 E968     		ldr	r1, [r5, #12]
 2621 0988 FFF7FEFF 		bl	__aeabi_fadd
 2622              	.LVL649:
 2623 098c 0490     		str	r0, [sp, #16]
 170:Madgwick.c    **** 	q0 *= recipNorm;
 2624              		.loc 1 170 0
 2625 098e 391C     		adds	r1, r7, #0
 2626 0990 381C     		adds	r0, r7, #0
 2627 0992 FFF7FEFF 		bl	__aeabi_fmul
 2628              	.LVL650:
 2629 0996 041C     		adds	r4, r0, #0
 2630 0998 311C     		adds	r1, r6, #0
 2631 099a 301C     		adds	r0, r6, #0
 2632 099c FFF7FEFF 		bl	__aeabi_fmul
 2633              	.LVL651:
 2634 09a0 011C     		adds	r1, r0, #0
 2635 09a2 201C     		adds	r0, r4, #0
 2636 09a4 FFF7FEFF 		bl	__aeabi_fadd
 2637              	.LVL652:
 2638 09a8 041C     		adds	r4, r0, #0
 2639 09aa 039A     		ldr	r2, [sp, #12]
 2640 09ac 111C     		adds	r1, r2, #0
 2641 09ae 101C     		adds	r0, r2, #0
 2642 09b0 FFF7FEFF 		bl	__aeabi_fmul
 2643              	.LVL653:
 2644 09b4 011C     		adds	r1, r0, #0
 2645 09b6 201C     		adds	r0, r4, #0
 2646 09b8 FFF7FEFF 		bl	__aeabi_fadd
 2647              	.LVL654:
 2648 09bc 041C     		adds	r4, r0, #0
 2649 09be 049B     		ldr	r3, [sp, #16]
 2650 09c0 191C     		adds	r1, r3, #0
 2651 09c2 181C     		adds	r0, r3, #0
 2652 09c4 FFF7FEFF 		bl	__aeabi_fmul
 2653              	.LVL655:
 2654 09c8 011C     		adds	r1, r0, #0
 2655 09ca 201C     		adds	r0, r4, #0
 2656 09cc FFF7FEFF 		bl	__aeabi_fadd
 2657              	.LVL656:
 2658 09d0 FFF7FEFF 		bl	invSqrt
 2659              	.LVL657:
 2660 09d4 041C     		adds	r4, r0, #0
 2661              	.LVL658:
 171:Madgwick.c    **** 	q1 *= recipNorm;
 2662              		.loc 1 171 0
 2663 09d6 011C     		adds	r1, r0, #0
 2664 09d8 381C     		adds	r0, r7, #0
 2665              	.LVL659:
 2666 09da FFF7FEFF 		bl	__aeabi_fmul
ARM GAS  C:\Users\A85590\AppData\Local\Temp\cc53CFAh.s 			page 55


 2667              	.LVL660:
 2668 09de 6860     		str	r0, [r5, #4]
 172:Madgwick.c    **** 	q2 *= recipNorm;
 2669              		.loc 1 172 0
 2670 09e0 211C     		adds	r1, r4, #0
 2671 09e2 301C     		adds	r0, r6, #0
 2672 09e4 FFF7FEFF 		bl	__aeabi_fmul
 2673              	.LVL661:
 2674 09e8 2860     		str	r0, [r5]
 173:Madgwick.c    **** 	q3 *= recipNorm;
 2675              		.loc 1 173 0
 2676 09ea 211C     		adds	r1, r4, #0
 2677 09ec 0398     		ldr	r0, [sp, #12]
 2678 09ee FFF7FEFF 		bl	__aeabi_fmul
 2679              	.LVL662:
 2680 09f2 A860     		str	r0, [r5, #8]
 174:Madgwick.c    **** 	anglesComputed = 0;
 2681              		.loc 1 174 0
 2682 09f4 211C     		adds	r1, r4, #0
 2683 09f6 0498     		ldr	r0, [sp, #16]
 2684 09f8 FFF7FEFF 		bl	__aeabi_fmul
 2685              	.LVL663:
 2686 09fc E860     		str	r0, [r5, #12]
 175:Madgwick.c    **** }
 2687              		.loc 1 175 0
 2688 09fe 0023     		movs	r3, #0
 2689 0a00 2B77     		strb	r3, [r5, #28]
 2690              	.LVL664:
 2691              	.L22:
 176:Madgwick.c    **** 
 2692              		.loc 1 176 0
 2693 0a02 23B0     		add	sp, sp, #140
 2694              		@ sp needed
 2695 0a04 0CBC     		pop	{r2, r3}
 2696 0a06 9046     		mov	r8, r2
 2697 0a08 9946     		mov	r9, r3
 2698 0a0a F0BD     		pop	{r4, r5, r6, r7, pc}
 2699              	.L41:
 2700              		.align	2
 2701              	.L40:
 2702 0a0c 00000000 		.word	.LANCHOR0
 2703              		.cfi_endproc
 2704              	.LFE3:
 2705              		.size	Madgwick_update, .-Madgwick_update
 2706              		.section	.text.getRoll,"ax",%progbits
 2707              		.align	2
 2708              		.global	getRoll
 2709              		.code	16
 2710              		.thumb_func
 2711              		.type	getRoll, %function
 2712              	getRoll:
 2713              	.LFB7:
 282:Madgwick.c    **** 
 283:Madgwick.c    ****     //float getPitch(){return atan2f(2.0f * q2 * q3 - 2.0f * q0 * q1, 2.0f * q0 * q0 + 2.0f * q3 * 
 284:Madgwick.c    ****     //float getRoll(){return -1.0f * asinf(2.0f * q1 * q3 + 2.0f * q0 * q2);};
 285:Madgwick.c    ****     //float getYaw(){return atan2f(2.0f * q1 * q2 - 2.0f * q0 * q3, 2.0f * q0 * q0 + 2.0f * q1 * q1
 286:Madgwick.c    ****     float getRoll() {
ARM GAS  C:\Users\A85590\AppData\Local\Temp\cc53CFAh.s 			page 56


 2714              		.loc 1 286 0
 2715              		.cfi_startproc
 2716              		@ args = 0, pretend = 0, frame = 0
 2717              		@ frame_needed = 0, uses_anonymous_args = 0
 2718 0000 10B5     		push	{r4, lr}
 2719              		.cfi_def_cfa_offset 8
 2720              		.cfi_offset 4, -8
 2721              		.cfi_offset 14, -4
 287:Madgwick.c    ****         if (!anglesComputed) computeAngles();
 2722              		.loc 1 287 0
 2723 0002 064B     		ldr	r3, .L44
 2724 0004 1B7F     		ldrb	r3, [r3, #28]
 2725 0006 002B     		cmp	r3, #0
 2726 0008 01D1     		bne	.L43
 2727              		.loc 1 287 0 is_stmt 0 discriminator 1
 2728 000a FFF7FEFF 		bl	computeAngles
 2729              	.LVL665:
 2730              	.L43:
 288:Madgwick.c    ****         return roll * 57.29578f;
 2731              		.loc 1 288 0 is_stmt 1
 2732 000e 034B     		ldr	r3, .L44
 2733 0010 1869     		ldr	r0, [r3, #16]
 2734 0012 0349     		ldr	r1, .L44+4
 2735 0014 FFF7FEFF 		bl	__aeabi_fmul
 2736              	.LVL666:
 289:Madgwick.c    ****     }
 2737              		.loc 1 289 0
 2738              		@ sp needed
 2739 0018 10BD     		pop	{r4, pc}
 2740              	.L45:
 2741 001a C046     		.align	2
 2742              	.L44:
 2743 001c 00000000 		.word	.LANCHOR0
 2744 0020 E12E6542 		.word	1113927393
 2745              		.cfi_endproc
 2746              	.LFE7:
 2747              		.size	getRoll, .-getRoll
 2748              		.section	.text.getPitch,"ax",%progbits
 2749              		.align	2
 2750              		.global	getPitch
 2751              		.code	16
 2752              		.thumb_func
 2753              		.type	getPitch, %function
 2754              	getPitch:
 2755              	.LFB8:
 290:Madgwick.c    ****     float getPitch() {
 2756              		.loc 1 290 0
 2757              		.cfi_startproc
 2758              		@ args = 0, pretend = 0, frame = 0
 2759              		@ frame_needed = 0, uses_anonymous_args = 0
 2760 0000 10B5     		push	{r4, lr}
 2761              		.cfi_def_cfa_offset 8
 2762              		.cfi_offset 4, -8
 2763              		.cfi_offset 14, -4
 291:Madgwick.c    ****         if (!anglesComputed) computeAngles();
 2764              		.loc 1 291 0
 2765 0002 064B     		ldr	r3, .L48
ARM GAS  C:\Users\A85590\AppData\Local\Temp\cc53CFAh.s 			page 57


 2766 0004 1B7F     		ldrb	r3, [r3, #28]
 2767 0006 002B     		cmp	r3, #0
 2768 0008 01D1     		bne	.L47
 2769              		.loc 1 291 0 is_stmt 0 discriminator 1
 2770 000a FFF7FEFF 		bl	computeAngles
 2771              	.LVL667:
 2772              	.L47:
 292:Madgwick.c    ****         return pitch * 57.29578f;
 2773              		.loc 1 292 0 is_stmt 1
 2774 000e 034B     		ldr	r3, .L48
 2775 0010 5869     		ldr	r0, [r3, #20]
 2776 0012 0349     		ldr	r1, .L48+4
 2777 0014 FFF7FEFF 		bl	__aeabi_fmul
 2778              	.LVL668:
 293:Madgwick.c    ****     }
 2779              		.loc 1 293 0
 2780              		@ sp needed
 2781 0018 10BD     		pop	{r4, pc}
 2782              	.L49:
 2783 001a C046     		.align	2
 2784              	.L48:
 2785 001c 00000000 		.word	.LANCHOR0
 2786 0020 E12E6542 		.word	1113927393
 2787              		.cfi_endproc
 2788              	.LFE8:
 2789              		.size	getPitch, .-getPitch
 2790              		.section	.text.getYaw,"ax",%progbits
 2791              		.align	2
 2792              		.global	getYaw
 2793              		.code	16
 2794              		.thumb_func
 2795              		.type	getYaw, %function
 2796              	getYaw:
 2797              	.LFB9:
 294:Madgwick.c    ****     float getYaw() {
 2798              		.loc 1 294 0
 2799              		.cfi_startproc
 2800              		@ args = 0, pretend = 0, frame = 0
 2801              		@ frame_needed = 0, uses_anonymous_args = 0
 2802 0000 10B5     		push	{r4, lr}
 2803              		.cfi_def_cfa_offset 8
 2804              		.cfi_offset 4, -8
 2805              		.cfi_offset 14, -4
 295:Madgwick.c    ****         if (!anglesComputed) computeAngles();
 2806              		.loc 1 295 0
 2807 0002 074B     		ldr	r3, .L52
 2808 0004 1B7F     		ldrb	r3, [r3, #28]
 2809 0006 002B     		cmp	r3, #0
 2810 0008 01D1     		bne	.L51
 2811              		.loc 1 295 0 is_stmt 0 discriminator 1
 2812 000a FFF7FEFF 		bl	computeAngles
 2813              	.LVL669:
 2814              	.L51:
 296:Madgwick.c    ****         return yaw * 57.29578f + 180.0f;
 2815              		.loc 1 296 0 is_stmt 1
 2816 000e 0549     		ldr	r1, .L52+4
 2817 0010 034B     		ldr	r3, .L52
ARM GAS  C:\Users\A85590\AppData\Local\Temp\cc53CFAh.s 			page 58


 2818 0012 9869     		ldr	r0, [r3, #24]
 2819 0014 FFF7FEFF 		bl	__aeabi_fmul
 2820              	.LVL670:
 2821 0018 0349     		ldr	r1, .L52+8
 2822 001a FFF7FEFF 		bl	__aeabi_fadd
 2823              	.LVL671:
 297:Madgwick.c    ****     }
 2824              		.loc 1 297 0
 2825              		@ sp needed
 2826 001e 10BD     		pop	{r4, pc}
 2827              	.L53:
 2828              		.align	2
 2829              	.L52:
 2830 0020 00000000 		.word	.LANCHOR0
 2831 0024 E12E6542 		.word	1113927393
 2832 0028 00003443 		.word	1127481344
 2833              		.cfi_endproc
 2834              	.LFE9:
 2835              		.size	getYaw, .-getYaw
 2836              		.section	.text.getRollRadians,"ax",%progbits
 2837              		.align	2
 2838              		.global	getRollRadians
 2839              		.code	16
 2840              		.thumb_func
 2841              		.type	getRollRadians, %function
 2842              	getRollRadians:
 2843              	.LFB10:
 298:Madgwick.c    ****     float getRollRadians() {
 2844              		.loc 1 298 0
 2845              		.cfi_startproc
 2846              		@ args = 0, pretend = 0, frame = 0
 2847              		@ frame_needed = 0, uses_anonymous_args = 0
 2848 0000 10B5     		push	{r4, lr}
 2849              		.cfi_def_cfa_offset 8
 2850              		.cfi_offset 4, -8
 2851              		.cfi_offset 14, -4
 299:Madgwick.c    ****         if (!anglesComputed) computeAngles();
 2852              		.loc 1 299 0
 2853 0002 044B     		ldr	r3, .L56
 2854 0004 1B7F     		ldrb	r3, [r3, #28]
 2855 0006 002B     		cmp	r3, #0
 2856 0008 01D1     		bne	.L55
 2857              		.loc 1 299 0 is_stmt 0 discriminator 1
 2858 000a FFF7FEFF 		bl	computeAngles
 2859              	.LVL672:
 2860              	.L55:
 300:Madgwick.c    ****         return roll;
 2861              		.loc 1 300 0 is_stmt 1
 2862 000e 014B     		ldr	r3, .L56
 2863 0010 1869     		ldr	r0, [r3, #16]
 301:Madgwick.c    ****     }
 2864              		.loc 1 301 0
 2865              		@ sp needed
 2866 0012 10BD     		pop	{r4, pc}
 2867              	.L57:
 2868              		.align	2
 2869              	.L56:
ARM GAS  C:\Users\A85590\AppData\Local\Temp\cc53CFAh.s 			page 59


 2870 0014 00000000 		.word	.LANCHOR0
 2871              		.cfi_endproc
 2872              	.LFE10:
 2873              		.size	getRollRadians, .-getRollRadians
 2874              		.section	.text.getPitchRadians,"ax",%progbits
 2875              		.align	2
 2876              		.global	getPitchRadians
 2877              		.code	16
 2878              		.thumb_func
 2879              		.type	getPitchRadians, %function
 2880              	getPitchRadians:
 2881              	.LFB11:
 302:Madgwick.c    ****     float getPitchRadians() {
 2882              		.loc 1 302 0
 2883              		.cfi_startproc
 2884              		@ args = 0, pretend = 0, frame = 0
 2885              		@ frame_needed = 0, uses_anonymous_args = 0
 2886 0000 10B5     		push	{r4, lr}
 2887              		.cfi_def_cfa_offset 8
 2888              		.cfi_offset 4, -8
 2889              		.cfi_offset 14, -4
 303:Madgwick.c    ****         if (!anglesComputed) computeAngles();
 2890              		.loc 1 303 0
 2891 0002 044B     		ldr	r3, .L60
 2892 0004 1B7F     		ldrb	r3, [r3, #28]
 2893 0006 002B     		cmp	r3, #0
 2894 0008 01D1     		bne	.L59
 2895              		.loc 1 303 0 is_stmt 0 discriminator 1
 2896 000a FFF7FEFF 		bl	computeAngles
 2897              	.LVL673:
 2898              	.L59:
 304:Madgwick.c    ****         return pitch;
 2899              		.loc 1 304 0 is_stmt 1
 2900 000e 014B     		ldr	r3, .L60
 2901 0010 5869     		ldr	r0, [r3, #20]
 305:Madgwick.c    ****     }
 2902              		.loc 1 305 0
 2903              		@ sp needed
 2904 0012 10BD     		pop	{r4, pc}
 2905              	.L61:
 2906              		.align	2
 2907              	.L60:
 2908 0014 00000000 		.word	.LANCHOR0
 2909              		.cfi_endproc
 2910              	.LFE11:
 2911              		.size	getPitchRadians, .-getPitchRadians
 2912              		.section	.text.getYawRadians,"ax",%progbits
 2913              		.align	2
 2914              		.global	getYawRadians
 2915              		.code	16
 2916              		.thumb_func
 2917              		.type	getYawRadians, %function
 2918              	getYawRadians:
 2919              	.LFB12:
 306:Madgwick.c    ****     float getYawRadians() {
 2920              		.loc 1 306 0
 2921              		.cfi_startproc
ARM GAS  C:\Users\A85590\AppData\Local\Temp\cc53CFAh.s 			page 60


 2922              		@ args = 0, pretend = 0, frame = 0
 2923              		@ frame_needed = 0, uses_anonymous_args = 0
 2924 0000 10B5     		push	{r4, lr}
 2925              		.cfi_def_cfa_offset 8
 2926              		.cfi_offset 4, -8
 2927              		.cfi_offset 14, -4
 307:Madgwick.c    ****         if (!anglesComputed) computeAngles();
 2928              		.loc 1 307 0
 2929 0002 044B     		ldr	r3, .L64
 2930 0004 1B7F     		ldrb	r3, [r3, #28]
 2931 0006 002B     		cmp	r3, #0
 2932 0008 01D1     		bne	.L63
 2933              		.loc 1 307 0 is_stmt 0 discriminator 1
 2934 000a FFF7FEFF 		bl	computeAngles
 2935              	.LVL674:
 2936              	.L63:
 308:Madgwick.c    ****         return yaw;
 2937              		.loc 1 308 0 is_stmt 1
 2938 000e 014B     		ldr	r3, .L64
 2939 0010 9869     		ldr	r0, [r3, #24]
 309:Madgwick.c    ****     }
 2940              		.loc 1 309 0
 2941              		@ sp needed
 2942 0012 10BD     		pop	{r4, pc}
 2943              	.L65:
 2944              		.align	2
 2945              	.L64:
 2946 0014 00000000 		.word	.LANCHOR0
 2947              		.cfi_endproc
 2948              	.LFE12:
 2949              		.size	getYawRadians, .-getYawRadians
 2950              		.section	.text.getQuaternion,"ax",%progbits
 2951              		.align	2
 2952              		.global	getQuaternion
 2953              		.code	16
 2954              		.thumb_func
 2955              		.type	getQuaternion, %function
 2956              	getQuaternion:
 2957              	.LFB13:
 310:Madgwick.c    **** 	void getQuaternion(float *w, float *x, float *y, float *z) {
 2958              		.loc 1 310 0
 2959              		.cfi_startproc
 2960              		@ args = 0, pretend = 0, frame = 0
 2961              		@ frame_needed = 0, uses_anonymous_args = 0
 2962              	.LVL675:
 2963 0000 30B5     		push	{r4, r5, lr}
 2964              		.cfi_def_cfa_offset 12
 2965              		.cfi_offset 4, -12
 2966              		.cfi_offset 5, -8
 2967              		.cfi_offset 14, -4
 311:Madgwick.c    ****        *w = q0;
 2968              		.loc 1 311 0
 2969 0002 054C     		ldr	r4, .L67
 2970 0004 6568     		ldr	r5, [r4, #4]
 2971 0006 0560     		str	r5, [r0]
 312:Madgwick.c    ****        *x = q1;
 2972              		.loc 1 312 0
ARM GAS  C:\Users\A85590\AppData\Local\Temp\cc53CFAh.s 			page 61


 2973 0008 2068     		ldr	r0, [r4]
 2974              	.LVL676:
 2975 000a 0860     		str	r0, [r1]
 313:Madgwick.c    ****        *y = q2;
 2976              		.loc 1 313 0
 2977 000c A168     		ldr	r1, [r4, #8]
 2978              	.LVL677:
 2979 000e 1160     		str	r1, [r2]
 314:Madgwick.c    ****        *z = q3;
 2980              		.loc 1 314 0
 2981 0010 E268     		ldr	r2, [r4, #12]
 2982              	.LVL678:
 2983 0012 1A60     		str	r2, [r3]
 315:Madgwick.c    ****    }...
 2984              		.loc 1 315 0
 2985              		@ sp needed
 2986 0014 30BD     		pop	{r4, r5, pc}
 2987              	.L68:
 2988 0016 C046     		.align	2
 2989              	.L67:
 2990 0018 00000000 		.word	.LANCHOR0
 2991              		.cfi_endproc
 2992              	.LFE13:
 2993              		.size	getQuaternion, .-getQuaternion
 2994              		.bss
 2995              		.align	2
 2996              		.set	.LANCHOR0,. + 0
 2997              		.type	q1, %object
 2998              		.size	q1, 4
 2999              	q1:
 3000 0000 00000000 		.space	4
 3001              		.type	q0, %object
 3002              		.size	q0, 4
 3003              	q0:
 3004 0004 00000000 		.space	4
 3005              		.type	q2, %object
 3006              		.size	q2, 4
 3007              	q2:
 3008 0008 00000000 		.space	4
 3009              		.type	q3, %object
 3010              		.size	q3, 4
 3011              	q3:
 3012 000c 00000000 		.space	4
 3013              		.type	roll, %object
 3014              		.size	roll, 4
 3015              	roll:
 3016 0010 00000000 		.space	4
 3017              		.type	pitch, %object
 3018              		.size	pitch, 4
 3019              	pitch:
 3020 0014 00000000 		.space	4
 3021              		.type	yaw, %object
 3022              		.size	yaw, 4
 3023              	yaw:
 3024 0018 00000000 		.space	4
 3025              		.type	anglesComputed, %object
 3026              		.size	anglesComputed, 1
ARM GAS  C:\Users\A85590\AppData\Local\Temp\cc53CFAh.s 			page 62


 3027              	anglesComputed:
 3028 001c 00       		.space	1
 3029 001d 000000   		.space	3
 3030              		.type	beta, %object
 3031              		.size	beta, 4
 3032              	beta:
 3033 0020 00000000 		.space	4
 3034              		.type	invSampleFreq, %object
 3035              		.size	invSampleFreq, 4
 3036              	invSampleFreq:
 3037 0024 00000000 		.space	4
 3038              		.text
 3039              	.Letext0:
 3040              		.file 2 "c:\\program files (x86)\\cypress\\psoc creator\\4.1\\psoc creator\\import\\gnu\\arm\\5.4.