ARM GAS  C:\Users\A85590\AppData\Local\Temp\cc53CFAh.s 			page 1


   1              		.syntax unified
   2              		.cpu cortex-m0
   3              		.fpu softvfp
   4              		.eabi_attribute 20, 1
   5              		.eabi_attribute 21, 1
   6              		.eabi_attribute 23, 3
   7              		.eabi_attribute 24, 1
   8              		.eabi_attribute 25, 1
   9              		.eabi_attribute 26, 1
  10              		.eabi_attribute 30, 1
  11              		.eabi_attribute 34, 0
  12              		.eabi_attribute 18, 4
  13              		.thumb
  14              		.syntax unified
  15              		.file	"Madgwick.c"
  16              		.text
  17              	.Ltext0:
  18              		.cfi_sections	.debug_frame
  19              		.global	__aeabi_fmul
  20              		.global	__aeabi_fsub
  21              		.section	.text.invSqrt,"ax",%progbits
  22              		.align	2
  23              		.code	16
  24              		.thumb_func
  25              		.type	invSqrt, %function
  26              	invSqrt:
  27              	.LFB5:
  28              		.file 1 "Madgwick.c"
   1:Madgwick.c    **** //=============================================================================================
   2:Madgwick.c    **** // Madgwick.c
   3:Madgwick.c    **** //=============================================================================================
   4:Madgwick.c    **** //
   5:Madgwick.c    **** // Implementation of Madgwick's IMU and AHRS algorithms.
   6:Madgwick.c    **** // See: http://www.x-io.co.uk/open-source-imu-and-ahrs-algorithms/
   7:Madgwick.c    **** //
   8:Madgwick.c    **** // From the x-io website "Open-source resources available on this website are
   9:Madgwick.c    **** // provided under the GNU General Public Licence unless an alternative licence
  10:Madgwick.c    **** // is provided in source."
  11:Madgwick.c    **** //
  12:Madgwick.c    **** // Date			Author          Notes
  13:Madgwick.c    **** // 29/09/2011	SOH Madgwick    Initial release
  14:Madgwick.c    **** // 02/10/2011	SOH Madgwick	Optimised for reduced CPU load
  15:Madgwick.c    **** // 19/02/2012	SOH Madgwick	Magnetometer measurement is normalised
  16:Madgwick.c    **** //
  17:Madgwick.c    **** //=============================================================================================
  18:Madgwick.c    **** 
  19:Madgwick.c    **** //-------------------------------------------------------------------------------------------
  20:Madgwick.c    **** // Header files
  21:Madgwick.c    **** 
  22:Madgwick.c    **** #include "Madgwick.h"
  23:Madgwick.c    **** #include <stdlib.h>
  24:Madgwick.c    **** #include <stdint.h>
  25:Madgwick.c    **** #include <stdio.h>
  26:Madgwick.c    **** #include <math.h>
  27:Madgwick.c    **** 
  28:Madgwick.c    **** //-------------------------------------------------------------------------------------------
  29:Madgwick.c    **** // Definitions
ARM GAS  C:\Users\A85590\AppData\Local\Temp\cc53CFAh.s 			page 2


  30:Madgwick.c    **** 
  31:Madgwick.c    **** #define sampleFreqDef 512.0f // sample frequency in Hz
  32:Madgwick.c    **** #define betaDef 0.1f		 // 2 * proportional gain
  33:Madgwick.c    **** 
  34:Madgwick.c    **** //--------------------------------------------------------------------------------------------
  35:Madgwick.c    **** 
  36:Madgwick.c    **** static float invSqrt(float x);
  37:Madgwick.c    **** static float beta; // algorithm gain
  38:Madgwick.c    **** static float q0;
  39:Madgwick.c    **** static float q1;
  40:Madgwick.c    **** static float q2;
  41:Madgwick.c    **** static float q3; // quaternion of sensor frame relative to auxiliary frame
  42:Madgwick.c    **** static float invSampleFreq;
  43:Madgwick.c    **** static float roll;
  44:Madgwick.c    **** static float pitch;
  45:Madgwick.c    **** static float yaw;
  46:Madgwick.c    **** static char anglesComputed;
  47:Madgwick.c    **** static void computeAngles();
  48:Madgwick.c    **** 
  49:Madgwick.c    **** //-------------------------------------------------------------------------------------------
  50:Madgwick.c    **** 
  51:Madgwick.c    **** //============================================================================================
  52:Madgwick.c    **** // Functions
  53:Madgwick.c    **** 
  54:Madgwick.c    **** //-------------------------------------------------------------------------------------------
  55:Madgwick.c    **** // AHRS algorithm update
  56:Madgwick.c    **** 
  57:Madgwick.c    **** int Madgwick() //Added "int" to avoid warning msg; hope this causes no issue - Toni
  58:Madgwick.c    **** {
  59:Madgwick.c    **** 	beta = betaDef;
  60:Madgwick.c    **** 	q0 = 1.0f;
  61:Madgwick.c    **** 	q1 = 0.0f;
  62:Madgwick.c    **** 	q2 = 0.0f;
  63:Madgwick.c    **** 	q3 = 0.0f;
  64:Madgwick.c    **** 	invSampleFreq = 1.0f / sampleFreqDef;
  65:Madgwick.c    **** 	anglesComputed = 0;
  66:Madgwick.c    **** }
  67:Madgwick.c    **** 
  68:Madgwick.c    **** void Madgwick_begin(float sampleFrequency)
  69:Madgwick.c    ****  { 
  70:Madgwick.c    **** 	 invSampleFreq = (1.0f / sampleFrequency); 
  71:Madgwick.c    **** }
  72:Madgwick.c    **** 
  73:Madgwick.c    **** void Madgwick_update(float gx, float gy, float gz, float ax, float ay, float az, float mx, float my
  74:Madgwick.c    **** {
  75:Madgwick.c    **** 	float recipNorm;
  76:Madgwick.c    **** 	float s0, s1, s2, s3;
  77:Madgwick.c    **** 	float qDot1, qDot2, qDot3, qDot4;
  78:Madgwick.c    **** 	float hx, hy;
  79:Madgwick.c    **** 	float _2q0mx, _2q0my, _2q0mz, _2q1mx, _2bx, _2bz, _4bx, _4bz, _2q0, _2q1, _2q2, _2q3, _2q0q2, _2q2
  80:Madgwick.c    **** 
  81:Madgwick.c    **** 	// Use IMU algorithm if magnetometer measurement invalid (avoids NaN in magnetometer normalisation
  82:Madgwick.c    **** 	if ((mx == 0.0f) && (my == 0.0f) && (mz == 0.0f))
  83:Madgwick.c    **** 	{
  84:Madgwick.c    **** 		Madgwick_updateIMU(gx, gy, gz, ax, ay, az);
  85:Madgwick.c    **** 		return;
  86:Madgwick.c    **** 	}
ARM GAS  C:\Users\A85590\AppData\Local\Temp\cc53CFAh.s 			page 3


  87:Madgwick.c    **** 
  88:Madgwick.c    **** 	// Convert gyroscope degrees/sec to radians/sec
  89:Madgwick.c    **** 	gx *= 0.0174533f;
  90:Madgwick.c    **** 	gy *= 0.0174533f;
  91:Madgwick.c    **** 	gz *= 0.0174533f;
  92:Madgwick.c    **** 
  93:Madgwick.c    **** 	// Rate of change of quaternion from gyroscope
  94:Madgwick.c    **** 	qDot1 = 0.5f * (-q1 * gx - q2 * gy - q3 * gz);
  95:Madgwick.c    **** 	qDot2 = 0.5f * (q0 * gx + q2 * gz - q3 * gy);
  96:Madgwick.c    **** 	qDot3 = 0.5f * (q0 * gy - q1 * gz + q3 * gx);
  97:Madgwick.c    **** 	qDot4 = 0.5f * (q0 * gz + q1 * gy - q2 * gx);
  98:Madgwick.c    **** 
  99:Madgwick.c    **** 	// Compute feedback only if accelerometer measurement valid (avoids NaN in accelerometer normalisa
 100:Madgwick.c    **** 	if (!((ax == 0.0f) && (ay == 0.0f) && (az == 0.0f)))
 101:Madgwick.c    **** 	{
 102:Madgwick.c    **** 
 103:Madgwick.c    **** 		// Normalise accelerometer measurement
 104:Madgwick.c    **** 		recipNorm = invSqrt(ax * ax + ay * ay + az * az);
 105:Madgwick.c    **** 		ax *= recipNorm;
 106:Madgwick.c    **** 		ay *= recipNorm;
 107:Madgwick.c    **** 		az *= recipNorm;
 108:Madgwick.c    **** 
 109:Madgwick.c    **** 		// Normalise magnetometer measurement
 110:Madgwick.c    **** 		recipNorm = invSqrt(mx * mx + my * my + mz * mz);
 111:Madgwick.c    **** 		mx *= recipNorm;
 112:Madgwick.c    **** 		my *= recipNorm;
 113:Madgwick.c    **** 		mz *= recipNorm;
 114:Madgwick.c    **** 
 115:Madgwick.c    **** 		// Auxiliary variables to avoid repeated arithmetic
 116:Madgwick.c    **** 		_2q0mx = 2.0f * q0 * mx;
 117:Madgwick.c    **** 		_2q0my = 2.0f * q0 * my;
 118:Madgwick.c    **** 		_2q0mz = 2.0f * q0 * mz;
 119:Madgwick.c    **** 		_2q1mx = 2.0f * q1 * mx;
 120:Madgwick.c    **** 		_2q0 = 2.0f * q0;
 121:Madgwick.c    **** 		_2q1 = 2.0f * q1;
 122:Madgwick.c    **** 		_2q2 = 2.0f * q2;
 123:Madgwick.c    **** 		_2q3 = 2.0f * q3;
 124:Madgwick.c    **** 		_2q0q2 = 2.0f * q0 * q2;
 125:Madgwick.c    **** 		_2q2q3 = 2.0f * q2 * q3;
 126:Madgwick.c    **** 		q0q0 = q0 * q0;
 127:Madgwick.c    **** 		q0q1 = q0 * q1;
 128:Madgwick.c    **** 		q0q2 = q0 * q2;
 129:Madgwick.c    **** 		q0q3 = q0 * q3;
 130:Madgwick.c    **** 		q1q1 = q1 * q1;
 131:Madgwick.c    **** 		q1q2 = q1 * q2;
 132:Madgwick.c    **** 		q1q3 = q1 * q3;
 133:Madgwick.c    **** 		q2q2 = q2 * q2;
 134:Madgwick.c    **** 		q2q3 = q2 * q3;
 135:Madgwick.c    **** 		q3q3 = q3 * q3;
 136:Madgwick.c    **** 
 137:Madgwick.c    **** 		// Reference direction of Earth's magnetic field
 138:Madgwick.c    **** 		hx = mx * q0q0 - _2q0my * q3 + _2q0mz * q2 + mx * q1q1 + _2q1 * my * q2 + _2q1 * mz * q3 - mx * q
 139:Madgwick.c    **** 		hy = _2q0mx * q3 + my * q0q0 - _2q0mz * q1 + _2q1mx * q2 - my * q1q1 + my * q2q2 + _2q2 * mz * q3
 140:Madgwick.c    **** 		_2bx = sqrtf(hx * hx + hy * hy);
 141:Madgwick.c    **** 		_2bz = -_2q0mx * q2 + _2q0my * q1 + mz * q0q0 + _2q1mx * q3 - mz * q1q1 + _2q2 * my * q3 - mz * q
 142:Madgwick.c    **** 		_4bx = 2.0f * _2bx;
 143:Madgwick.c    **** 		_4bz = 2.0f * _2bz;
ARM GAS  C:\Users\A85590\AppData\Local\Temp\cc53CFAh.s 			page 4


 144:Madgwick.c    **** 
 145:Madgwick.c    **** 		// Gradient decent algorithm corrective step
 146:Madgwick.c    **** 		s0 = -_2q2 * (2.0f * q1q3 - _2q0q2 - ax) + _2q1 * (2.0f * q0q1 + _2q2q3 - ay) - _2bz * q2 * (_2bx
 147:Madgwick.c    **** 		s1 = _2q3 * (2.0f * q1q3 - _2q0q2 - ax) + _2q0 * (2.0f * q0q1 + _2q2q3 - ay) - 4.0f * q1 * (1 - 2
 148:Madgwick.c    **** 		s2 = -_2q0 * (2.0f * q1q3 - _2q0q2 - ax) + _2q3 * (2.0f * q0q1 + _2q2q3 - ay) - 4.0f * q2 * (1 - 
 149:Madgwick.c    **** 		s3 = _2q1 * (2.0f * q1q3 - _2q0q2 - ax) + _2q2 * (2.0f * q0q1 + _2q2q3 - ay) + (-_4bx * q3 + _2bz
 150:Madgwick.c    **** 		recipNorm = invSqrt(s0 * s0 + s1 * s1 + s2 * s2 + s3 * s3); // normalise step magnitude
 151:Madgwick.c    **** 		s0 *= recipNorm;
 152:Madgwick.c    **** 		s1 *= recipNorm;
 153:Madgwick.c    **** 		s2 *= recipNorm;
 154:Madgwick.c    **** 		s3 *= recipNorm;
 155:Madgwick.c    **** 
 156:Madgwick.c    **** 		// Apply feedback step
 157:Madgwick.c    **** 		qDot1 -= beta * s0;
 158:Madgwick.c    **** 		qDot2 -= beta * s1;
 159:Madgwick.c    **** 		qDot3 -= beta * s2;
 160:Madgwick.c    **** 		qDot4 -= beta * s3;
 161:Madgwick.c    **** 	}
 162:Madgwick.c    **** 
 163:Madgwick.c    **** 	// Integrate rate of change of quaternion to yield quaternion
 164:Madgwick.c    **** 	q0 += qDot1 * invSampleFreq;
 165:Madgwick.c    **** 	q1 += qDot2 * invSampleFreq;
 166:Madgwick.c    **** 	q2 += qDot3 * invSampleFreq;
 167:Madgwick.c    **** 	q3 += qDot4 * invSampleFreq;
 168:Madgwick.c    **** 
 169:Madgwick.c    **** 	// Normalise quaternion
 170:Madgwick.c    **** 	recipNorm = invSqrt(q0 * q0 + q1 * q1 + q2 * q2 + q3 * q3);
 171:Madgwick.c    **** 	q0 *= recipNorm;
 172:Madgwick.c    **** 	q1 *= recipNorm;
 173:Madgwick.c    **** 	q2 *= recipNorm;
 174:Madgwick.c    **** 	q3 *= recipNorm;
 175:Madgwick.c    **** 	anglesComputed = 0;
 176:Madgwick.c    **** }
 177:Madgwick.c    **** 
 178:Madgwick.c    **** //-------------------------------------------------------------------------------------------
 179:Madgwick.c    **** // IMU algorithm update
 180:Madgwick.c    **** 
 181:Madgwick.c    **** void Madgwick_updateIMU(float gx, float gy, float gz, float ax, float ay, float az)
 182:Madgwick.c    **** {
 183:Madgwick.c    **** 	float recipNorm;
 184:Madgwick.c    **** 	float s0, s1, s2, s3;
 185:Madgwick.c    **** 	float qDot1, qDot2, qDot3, qDot4;
 186:Madgwick.c    **** 	float _2q0, _2q1, _2q2, _2q3, _4q0, _4q1, _4q2, _8q1, _8q2, q0q0, q1q1, q2q2, q3q3;
 187:Madgwick.c    **** 
 188:Madgwick.c    **** 	// Convert gyroscope degrees/sec to radians/sec
 189:Madgwick.c    **** 	gx *= 0.0174533f;
 190:Madgwick.c    **** 	gy *= 0.0174533f;
 191:Madgwick.c    **** 	gz *= 0.0174533f;
 192:Madgwick.c    **** 
 193:Madgwick.c    **** 	// Rate of change of quaternion from gyroscope
 194:Madgwick.c    **** 	qDot1 = 0.5f * (-q1 * gx - q2 * gy - q3 * gz);
 195:Madgwick.c    **** 	qDot2 = 0.5f * (q0 * gx + q2 * gz - q3 * gy);
 196:Madgwick.c    **** 	qDot3 = 0.5f * (q0 * gy - q1 * gz + q3 * gx);
 197:Madgwick.c    **** 	qDot4 = 0.5f * (q0 * gz + q1 * gy - q2 * gx);
 198:Madgwick.c    **** 
 199:Madgwick.c    **** 	// Compute feedback only if accelerometer measurement valid (avoids NaN in accelerometer normalisa
 200:Madgwick.c    **** 	if (!((ax == 0.0f) && (ay == 0.0f) && (az == 0.0f)))
ARM GAS  C:\Users\A85590\AppData\Local\Temp\cc53CFAh.s 			page 5


 201:Madgwick.c    **** 	{
 202:Madgwick.c    **** 
 203:Madgwick.c    **** 		// Normalise accelerometer measurement
 204:Madgwick.c    **** 		recipNorm = invSqrt(ax * ax + ay * ay + az * az);
 205:Madgwick.c    **** 		ax *= recipNorm;
 206:Madgwick.c    **** 		ay *= recipNorm;
 207:Madgwick.c    **** 		az *= recipNorm;
 208:Madgwick.c    **** 
 209:Madgwick.c    **** 		// Auxiliary variables to avoid repeated arithmetic
 210:Madgwick.c    **** 		_2q0 = 2.0f * q0;
 211:Madgwick.c    **** 		_2q1 = 2.0f * q1;
 212:Madgwick.c    **** 		_2q2 = 2.0f * q2;
 213:Madgwick.c    **** 		_2q3 = 2.0f * q3;
 214:Madgwick.c    **** 		_4q0 = 4.0f * q0;
 215:Madgwick.c    **** 		_4q1 = 4.0f * q1;
 216:Madgwick.c    **** 		_4q2 = 4.0f * q2;
 217:Madgwick.c    **** 		_8q1 = 8.0f * q1;
 218:Madgwick.c    **** 		_8q2 = 8.0f * q2;
 219:Madgwick.c    **** 		q0q0 = q0 * q0;
 220:Madgwick.c    **** 		q1q1 = q1 * q1;
 221:Madgwick.c    **** 		q2q2 = q2 * q2;
 222:Madgwick.c    **** 		q3q3 = q3 * q3;
 223:Madgwick.c    **** 
 224:Madgwick.c    **** 		// Gradient decent algorithm corrective step
 225:Madgwick.c    **** 		s0 = _4q0 * q2q2 + _2q2 * ax + _4q0 * q1q1 - _2q1 * ay;
 226:Madgwick.c    **** 		s1 = _4q1 * q3q3 - _2q3 * ax + 4.0f * q0q0 * q1 - _2q0 * ay - _4q1 + _8q1 * q1q1 + _8q1 * q2q2 + 
 227:Madgwick.c    **** 		s2 = 4.0f * q0q0 * q2 + _2q0 * ax + _4q2 * q3q3 - _2q3 * ay - _4q2 + _8q2 * q1q1 + _8q2 * q2q2 + 
 228:Madgwick.c    **** 		s3 = 4.0f * q1q1 * q3 - _2q1 * ax + 4.0f * q2q2 * q3 - _2q2 * ay;
 229:Madgwick.c    **** 		recipNorm = invSqrt(s0 * s0 + s1 * s1 + s2 * s2 + s3 * s3); // normalise step magnitude
 230:Madgwick.c    **** 		s0 *= recipNorm;
 231:Madgwick.c    **** 		s1 *= recipNorm;
 232:Madgwick.c    **** 		s2 *= recipNorm;
 233:Madgwick.c    **** 		s3 *= recipNorm;
 234:Madgwick.c    **** 
 235:Madgwick.c    **** 		// Apply feedback step
 236:Madgwick.c    **** 		qDot1 -= beta * s0;
 237:Madgwick.c    **** 		qDot2 -= beta * s1;
 238:Madgwick.c    **** 		qDot3 -= beta * s2;
 239:Madgwick.c    **** 		qDot4 -= beta * s3;
 240:Madgwick.c    **** 	}
 241:Madgwick.c    **** 
 242:Madgwick.c    **** 	// Integrate rate of change of quaternion to yield quaternion
 243:Madgwick.c    **** 	q0 += qDot1 * invSampleFreq;
 244:Madgwick.c    **** 	q1 += qDot2 * invSampleFreq;
 245:Madgwick.c    **** 	q2 += qDot3 * invSampleFreq;
 246:Madgwick.c    **** 	q3 += qDot4 * invSampleFreq;
 247:Madgwick.c    **** 
 248:Madgwick.c    **** 	// Normalise quaternion
 249:Madgwick.c    **** 	recipNorm = invSqrt(q0 * q0 + q1 * q1 + q2 * q2 + q3 * q3);
 250:Madgwick.c    **** 	q0 *= recipNorm;
 251:Madgwick.c    **** 	q1 *= recipNorm;
 252:Madgwick.c    **** 	q2 *= recipNorm;
 253:Madgwick.c    **** 	q3 *= recipNorm;
 254:Madgwick.c    **** 	anglesComputed = 0;
 255:Madgwick.c    **** }
 256:Madgwick.c    **** 
 257:Madgwick.c    **** //-------------------------------------------------------------------------------------------
ARM GAS  C:\Users\A85590\AppData\Local\Temp\cc53CFAh.s 			page 6


 258:Madgwick.c    **** // Fast inverse square-root
 259:Madgwick.c    **** // See: http://en.wikipedia.org/wiki/Fast_inverse_square_root
 260:Madgwick.c    **** 
 261:Madgwick.c    **** float invSqrt(float x)
 262:Madgwick.c    **** {
  29              		.loc 1 262 0
  30              		.cfi_startproc
  31              		@ args = 0, pretend = 0, frame = 0
  32              		@ frame_needed = 0, uses_anonymous_args = 0
  33              	.LVL0:
  34 0000 70B5     		push	{r4, r5, r6, lr}
  35              		.cfi_def_cfa_offset 16
  36              		.cfi_offset 4, -16
  37              		.cfi_offset 5, -12
  38              		.cfi_offset 6, -8
  39              		.cfi_offset 14, -4
  40 0002 041C     		adds	r4, r0, #0
 263:Madgwick.c    **** 	float halfx = 0.5f * x;
  41              		.loc 1 263 0
  42 0004 FC21     		movs	r1, #252
  43 0006 8905     		lsls	r1, r1, #22
  44 0008 FFF7FEFF 		bl	__aeabi_fmul
  45              	.LVL1:
  46 000c 051C     		adds	r5, r0, #0
  47              	.LVL2:
 264:Madgwick.c    **** 	float y = x;
 265:Madgwick.c    **** 	long i = *(long *)&y;
 266:Madgwick.c    **** 	i = 0x5f3759df - (i >> 1);
  48              		.loc 1 266 0
  49 000e 6410     		asrs	r4, r4, #1
  50              	.LVL3:
 267:Madgwick.c    **** 	y = *(float *)&i;
  51              		.loc 1 267 0
  52 0010 124B     		ldr	r3, .L2
  53 0012 1C1B     		subs	r4, r3, r4
  54              	.LVL4:
 268:Madgwick.c    **** 	y = y * (1.5f - (halfx * y * y));
  55              		.loc 1 268 0
  56 0014 211C     		adds	r1, r4, #0
  57 0016 FFF7FEFF 		bl	__aeabi_fmul
  58              	.LVL5:
  59 001a 011C     		adds	r1, r0, #0
  60 001c 201C     		adds	r0, r4, #0
  61 001e FFF7FEFF 		bl	__aeabi_fmul
  62              	.LVL6:
  63 0022 011C     		adds	r1, r0, #0
  64 0024 FF20     		movs	r0, #255
  65 0026 8005     		lsls	r0, r0, #22
  66 0028 FFF7FEFF 		bl	__aeabi_fsub
  67              	.LVL7:
  68 002c 011C     		adds	r1, r0, #0
  69 002e 201C     		adds	r0, r4, #0
  70 0030 FFF7FEFF 		bl	__aeabi_fmul
  71              	.LVL8:
  72 0034 041C     		adds	r4, r0, #0
  73              	.LVL9:
 269:Madgwick.c    **** 	y = y * (1.5f - (halfx * y * y));
ARM GAS  C:\Users\A85590\AppData\Local\Temp\cc53CFAh.s 			page 7


  74              		.loc 1 269 0
  75 0036 011C     		adds	r1, r0, #0
  76 0038 281C     		adds	r0, r5, #0
  77              	.LVL10:
  78 003a FFF7FEFF 		bl	__aeabi_fmul
  79              	.LVL11:
  80 003e 011C     		adds	r1, r0, #0
  81 0040 201C     		adds	r0, r4, #0
  82 0042 FFF7FEFF 		bl	__aeabi_fmul
  83              	.LVL12:
  84 0046 011C     		adds	r1, r0, #0
  85 0048 FF20     		movs	r0, #255
  86 004a 8005     		lsls	r0, r0, #22
  87 004c FFF7FEFF 		bl	__aeabi_fsub
  88              	.LVL13:
  89 0050 011C     		adds	r1, r0, #0
  90 0052 201C     		adds	r0, r4, #0
  91 0054 FFF7FEFF 		bl	__aeabi_fmul
  92              	.LVL14:
 270:Madgwick.c    **** 	return y;
 271:Madgwick.c    **** }
  93              		.loc 1 271 0
  94              		@ sp needed
  95              	.LVL15:
  96 0058 70BD     		pop	{r4, r5, r6, pc}
  97              	.L3:
  98 005a C046     		.align	2
  99              	.L2:
 100 005c DF59375F 		.word	1597463007
 101              		.cfi_endproc
 102              	.LFE5:
 103              		.size	invSqrt, .-invSqrt
 104              		.global	__aeabi_fadd
 105              		.section	.text.computeAngles,"ax",%progbits
 106              		.align	2
 107              		.code	16
 108              		.thumb_func
 109              		.type	computeAngles, %function
 110              	computeAngles:
 111              	.LFB6:
 272:Madgwick.c    **** 
 273:Madgwick.c    **** //-------------------------------------------------------------------------------------------
 274:Madgwick.c    **** 
 275:Madgwick.c    **** void computeAngles()
 276:Madgwick.c    **** {
 112              		.loc 1 276 0
 113              		.cfi_startproc
 114              		@ args = 0, pretend = 0, frame = 8
 115              		@ frame_needed = 0, uses_anonymous_args = 0
 116 0000 F0B5     		push	{r4, r5, r6, r7, lr}
 117              		.cfi_def_cfa_offset 20
 118              		.cfi_offset 4, -20
 119              		.cfi_offset 5, -16
 120              		.cfi_offset 6, -12
 121              		.cfi_offset 7, -8
 122              		.cfi_offset 14, -4
 123 0002 83B0     		sub	sp, sp, #12
ARM GAS  C:\Users\A85590\AppData\Local\Temp\cc53CFAh.s 			page 8


 124              		.cfi_def_cfa_offset 32
 277:Madgwick.c    **** 	roll = atan2f(q0 * q1 + q2 * q3, 0.5f - q1 * q1 - q2 * q2);
 125              		.loc 1 277 0
 126 0004 334E     		ldr	r6, .L5
 127 0006 3568     		ldr	r5, [r6]
 128 0008 7168     		ldr	r1, [r6, #4]
 129 000a 281C     		adds	r0, r5, #0
 130 000c FFF7FEFF 		bl	__aeabi_fmul
 131              	.LVL16:
 132 0010 0190     		str	r0, [sp, #4]
 133 0012 B468     		ldr	r4, [r6, #8]
 134 0014 F168     		ldr	r1, [r6, #12]
 135 0016 201C     		adds	r0, r4, #0
 136 0018 FFF7FEFF 		bl	__aeabi_fmul
 137              	.LVL17:
 138 001c 071C     		adds	r7, r0, #0
 139 001e 291C     		adds	r1, r5, #0
 140 0020 281C     		adds	r0, r5, #0
 141 0022 FFF7FEFF 		bl	__aeabi_fmul
 142              	.LVL18:
 143 0026 011C     		adds	r1, r0, #0
 144 0028 FC20     		movs	r0, #252
 145 002a 8005     		lsls	r0, r0, #22
 146 002c FFF7FEFF 		bl	__aeabi_fsub
 147              	.LVL19:
 148 0030 051C     		adds	r5, r0, #0
 149 0032 211C     		adds	r1, r4, #0
 150 0034 201C     		adds	r0, r4, #0
 151 0036 FFF7FEFF 		bl	__aeabi_fmul
 152              	.LVL20:
 153 003a 011C     		adds	r1, r0, #0
 154 003c 281C     		adds	r0, r5, #0
 155 003e FFF7FEFF 		bl	__aeabi_fsub
 156              	.LVL21:
 157 0042 041C     		adds	r4, r0, #0
 158 0044 391C     		adds	r1, r7, #0
 159 0046 0198     		ldr	r0, [sp, #4]
 160 0048 FFF7FEFF 		bl	__aeabi_fadd
 161              	.LVL22:
 162 004c 211C     		adds	r1, r4, #0
 163 004e FFF7FEFF 		bl	atan2f
 164              	.LVL23:
 165 0052 3061     		str	r0, [r6, #16]
 278:Madgwick.c    **** 	pitch = asinf(-2.0f * (q1 * q3 - q0 * q2));
 166              		.loc 1 278 0
 167 0054 F168     		ldr	r1, [r6, #12]
 168 0056 3068     		ldr	r0, [r6]
 169 0058 FFF7FEFF 		bl	__aeabi_fmul
 170              	.LVL24:
 171 005c 041C     		adds	r4, r0, #0
 172 005e B168     		ldr	r1, [r6, #8]
 173 0060 7068     		ldr	r0, [r6, #4]
 174 0062 FFF7FEFF 		bl	__aeabi_fmul
 175              	.LVL25:
 176 0066 011C     		adds	r1, r0, #0
 177 0068 201C     		adds	r0, r4, #0
 178 006a FFF7FEFF 		bl	__aeabi_fsub
ARM GAS  C:\Users\A85590\AppData\Local\Temp\cc53CFAh.s 			page 9


 179              	.LVL26:
 180 006e C021     		movs	r1, #192
 181 0070 0906     		lsls	r1, r1, #24
 182 0072 FFF7FEFF 		bl	__aeabi_fmul
 183              	.LVL27:
 184 0076 FFF7FEFF 		bl	asinf
 185              	.LVL28:
 186 007a 7061     		str	r0, [r6, #20]
 279:Madgwick.c    **** 	yaw = atan2f(q1 * q2 + q0 * q3, 0.5f - q2 * q2 - q3 * q3);
 187              		.loc 1 279 0
 188 007c B568     		ldr	r5, [r6, #8]
 189 007e 3168     		ldr	r1, [r6]
 190 0080 281C     		adds	r0, r5, #0
 191 0082 FFF7FEFF 		bl	__aeabi_fmul
 192              	.LVL29:
 193 0086 0190     		str	r0, [sp, #4]
 194 0088 F468     		ldr	r4, [r6, #12]
 195 008a 7168     		ldr	r1, [r6, #4]
 196 008c 201C     		adds	r0, r4, #0
 197 008e FFF7FEFF 		bl	__aeabi_fmul
 198              	.LVL30:
 199 0092 071C     		adds	r7, r0, #0
 200 0094 291C     		adds	r1, r5, #0
 201 0096 281C     		adds	r0, r5, #0
 202 0098 FFF7FEFF 		bl	__aeabi_fmul
 203              	.LVL31:
 204 009c 011C     		adds	r1, r0, #0
 205 009e FC20     		movs	r0, #252
 206 00a0 8005     		lsls	r0, r0, #22
 207 00a2 FFF7FEFF 		bl	__aeabi_fsub
 208              	.LVL32:
 209 00a6 051C     		adds	r5, r0, #0
 210 00a8 211C     		adds	r1, r4, #0
 211 00aa 201C     		adds	r0, r4, #0
 212 00ac FFF7FEFF 		bl	__aeabi_fmul
 213              	.LVL33:
 214 00b0 011C     		adds	r1, r0, #0
 215 00b2 281C     		adds	r0, r5, #0
 216 00b4 FFF7FEFF 		bl	__aeabi_fsub
 217              	.LVL34:
 218 00b8 041C     		adds	r4, r0, #0
 219 00ba 391C     		adds	r1, r7, #0
 220 00bc 0198     		ldr	r0, [sp, #4]
 221 00be FFF7FEFF 		bl	__aeabi_fadd
 222              	.LVL35:
 223 00c2 211C     		adds	r1, r4, #0
 224 00c4 FFF7FEFF 		bl	atan2f
 225              	.LVL36:
 226 00c8 B061     		str	r0, [r6, #24]
 280:Madgwick.c    **** 	anglesComputed = 1;
 227              		.loc 1 280 0
 228 00ca 0123     		movs	r3, #1
 229 00cc 3377     		strb	r3, [r6, #28]
 281:Madgwick.c    **** }
 230              		.loc 1 281 0
 231 00ce 03B0     		add	sp, sp, #12
 232              		@ sp needed
ARM GAS  C:\Users\A85590\AppData\Local\Temp\cc53CFAh.s 			page 10


 233 00d0 F0BD     		pop	{r4, r5, r6, r7, pc}
 234              	.L6:
 235 00d2 C046     		.align	2
 236              	.L5:
 237 00d4 00000000 		.word	.LANCHOR0
 238              		.cfi_endproc
 239              	.LFE6:
 240              		.size	computeAngles, .-computeAngles
 241              		.section	.text.Madgwick,"ax",%progbits
 242              		.align	2
 243              		.global	Madgwick
 244              		.code	16
 245              		.thumb_func
 246              		.type	Madgwick, %function
 247              	Madgwick:
 248              	.LFB1:
  58:Madgwick.c    **** 	beta = betaDef;
 249              		.loc 1 58 0
 250              		.cfi_startproc
 251              		@ args = 0, pretend = 0, frame = 0
 252              		@ frame_needed = 0, uses_anonymous_args = 0
 253              		@ link register save eliminated.
  59:Madgwick.c    **** 	q0 = 1.0f;
 254              		.loc 1 59 0
 255 0000 074B     		ldr	r3, .L8
 256 0002 084A     		ldr	r2, .L8+4
 257 0004 1A62     		str	r2, [r3, #32]
  60:Madgwick.c    **** 	q1 = 0.0f;
 258              		.loc 1 60 0
 259 0006 FE22     		movs	r2, #254
 260 0008 9205     		lsls	r2, r2, #22
 261 000a 5A60     		str	r2, [r3, #4]
  61:Madgwick.c    **** 	q2 = 0.0f;
 262              		.loc 1 61 0
 263 000c 0022     		movs	r2, #0
 264 000e 1A60     		str	r2, [r3]
  62:Madgwick.c    **** 	q3 = 0.0f;
 265              		.loc 1 62 0
 266 0010 9A60     		str	r2, [r3, #8]
  63:Madgwick.c    **** 	invSampleFreq = 1.0f / sampleFreqDef;
 267              		.loc 1 63 0
 268 0012 DA60     		str	r2, [r3, #12]
  64:Madgwick.c    **** 	anglesComputed = 0;
 269              		.loc 1 64 0
 270 0014 EC22     		movs	r2, #236
 271 0016 9205     		lsls	r2, r2, #22
 272 0018 5A62     		str	r2, [r3, #36]
  65:Madgwick.c    **** }
 273              		.loc 1 65 0
 274 001a 0022     		movs	r2, #0
 275 001c 1A77     		strb	r2, [r3, #28]
  66:Madgwick.c    **** 
 276              		.loc 1 66 0
 277              		@ sp needed
 278 001e 7047     		bx	lr
 279              	.L9:
 280              		.align	2
ARM GAS  C:\Users\A85590\AppData\Local\Temp\cc53CFAh.s 			page 11


 281              	.L8:
 282 0020 00000000 		.word	.LANCHOR0
 283 0024 CDCCCC3D 		.word	1036831949
 284              		.cfi_endproc
 285              	.LFE1:
 286              		.size	Madgwick, .-Madgwick
 287              		.global	__aeabi_fdiv
 288              		.section	.text.Madgwick_begin,"ax",%progbits
 289              		.align	2
 290              		.global	Madgwick_begin
 291              		.code	16
 292              		.thumb_func
 293              		.type	Madgwick_begin, %function
 294              	Madgwick_begin:
 295              	.LFB2:
  69:Madgwick.c    **** 	 invSampleFreq = (1.0f / sampleFrequency); 
 296              		.loc 1 69 0
 297              		.cfi_startproc
 298              		@ args = 0, pretend = 0, frame = 0
 299              		@ frame_needed = 0, uses_anonymous_args = 0
 300              	.LVL37:
 301 0000 10B5     		push	{r4, lr}
 302              		.cfi_def_cfa_offset 8
 303              		.cfi_offset 4, -8
 304              		.cfi_offset 14, -4
 305 0002 011C     		adds	r1, r0, #0
  70:Madgwick.c    **** }
 306              		.loc 1 70 0
 307 0004 FE20     		movs	r0, #254
 308              	.LVL38:
 309 0006 8005     		lsls	r0, r0, #22
 310 0008 FFF7FEFF 		bl	__aeabi_fdiv
 311              	.LVL39:
 312 000c 014B     		ldr	r3, .L11
 313 000e 5862     		str	r0, [r3, #36]
  71:Madgwick.c    **** 
 314              		.loc 1 71 0
 315              		@ sp needed
 316 0010 10BD     		pop	{r4, pc}
 317              	.L12:
 318 0012 C046     		.align	2
 319              	.L11:
 320 0014 00000000 		.word	.LANCHOR0
 321              		.cfi_endproc
 322              	.LFE2:
 323              		.size	Madgwick_begin, .-Madgwick_begin
 324              		.global	__aeabi_fcmpeq
 325              		.section	.text.Madgwick_updateIMU,"ax",%progbits
 326              		.align	2
 327              		.global	Madgwick_updateIMU
 328              		.code	16
 329              		.thumb_func
 330              		.type	Madgwick_updateIMU, %function
 331              	Madgwick_updateIMU:
 332              	.LFB4:
 182:Madgwick.c    **** 	float recipNorm;
 333              		.loc 1 182 0
ARM GAS  C:\Users\A85590\AppData\Local\Temp\cc53CFAh.s 			page 12


 334              		.cfi_startproc
 335              		@ args = 8, pretend = 0, frame = 88
 336              		@ frame_needed = 0, uses_anonymous_args = 0
 337              	.LVL40:
 338 0000 F0B5     		push	{r4, r5, r6, r7, lr}
 339              		.cfi_def_cfa_offset 20
 340              		.cfi_offset 4, -20
 341              		.cfi_offset 5, -16
 342              		.cfi_offset 6, -12
 343              		.cfi_offset 7, -8
 344              		.cfi_offset 14, -4
 345 0002 97B0     		sub	sp, sp, #92
 346              		.cfi_def_cfa_offset 112
 347 0004 0D1C     		adds	r5, r1, #0
 348 0006 161C     		adds	r6, r2, #0
 349 0008 0493     		str	r3, [sp, #16]
 189:Madgwick.c    **** 	gy *= 0.0174533f;
 350              		.loc 1 189 0
 351 000a 4B49     		ldr	r1, .L17
 352              	.LVL41:
 353 000c FFF7FEFF 		bl	__aeabi_fmul
 354              	.LVL42:
 355 0010 041C     		adds	r4, r0, #0
 356              	.LVL43:
 190:Madgwick.c    **** 	gz *= 0.0174533f;
 357              		.loc 1 190 0
 358 0012 4949     		ldr	r1, .L17
 359 0014 281C     		adds	r0, r5, #0
 360              	.LVL44:
 361 0016 FFF7FEFF 		bl	__aeabi_fmul
 362              	.LVL45:
 363 001a 051C     		adds	r5, r0, #0
 364              	.LVL46:
 191:Madgwick.c    **** 
 365              		.loc 1 191 0
 366 001c 4649     		ldr	r1, .L17
 367 001e 301C     		adds	r0, r6, #0
 368              	.LVL47:
 369 0020 FFF7FEFF 		bl	__aeabi_fmul
 370              	.LVL48:
 371 0024 0390     		str	r0, [sp, #12]
 372              	.LVL49:
 194:Madgwick.c    **** 	qDot2 = 0.5f * (q0 * gx + q2 * gz - q3 * gy);
 373              		.loc 1 194 0
 374 0026 454F     		ldr	r7, .L17+4
 375 0028 3E68     		ldr	r6, [r7]
 376 002a 8022     		movs	r2, #128
 377 002c 1206     		lsls	r2, r2, #24
 378 002e B118     		adds	r1, r6, r2
 379 0030 201C     		adds	r0, r4, #0
 380              	.LVL50:
 381 0032 FFF7FEFF 		bl	__aeabi_fmul
 382              	.LVL51:
 383 0036 0290     		str	r0, [sp, #8]
 384 0038 BA68     		ldr	r2, [r7, #8]
 385 003a 0192     		str	r2, [sp, #4]
 386 003c 111C     		adds	r1, r2, #0
ARM GAS  C:\Users\A85590\AppData\Local\Temp\cc53CFAh.s 			page 13


 387 003e 281C     		adds	r0, r5, #0
 388 0040 FFF7FEFF 		bl	__aeabi_fmul
 389              	.LVL52:
 390 0044 011C     		adds	r1, r0, #0
 391 0046 0298     		ldr	r0, [sp, #8]
 392 0048 FFF7FEFF 		bl	__aeabi_fsub
 393              	.LVL53:
 394 004c 0590     		str	r0, [sp, #20]
 395 004e F968     		ldr	r1, [r7, #12]
 396 0050 0291     		str	r1, [sp, #8]
 397 0052 0398     		ldr	r0, [sp, #12]
 398 0054 FFF7FEFF 		bl	__aeabi_fmul
 399              	.LVL54:
 400 0058 011C     		adds	r1, r0, #0
 401 005a 0598     		ldr	r0, [sp, #20]
 402 005c FFF7FEFF 		bl	__aeabi_fsub
 403              	.LVL55:
 404 0060 FC21     		movs	r1, #252
 405 0062 8905     		lsls	r1, r1, #22
 406 0064 FFF7FEFF 		bl	__aeabi_fmul
 407              	.LVL56:
 408 0068 0690     		str	r0, [sp, #24]
 409              	.LVL57:
 195:Madgwick.c    **** 	qDot3 = 0.5f * (q0 * gy - q1 * gz + q3 * gx);
 410              		.loc 1 195 0
 411 006a 7F68     		ldr	r7, [r7, #4]
 412 006c 391C     		adds	r1, r7, #0
 413 006e 201C     		adds	r0, r4, #0
 414              	.LVL58:
 415 0070 FFF7FEFF 		bl	__aeabi_fmul
 416              	.LVL59:
 417 0074 0590     		str	r0, [sp, #20]
 418 0076 0199     		ldr	r1, [sp, #4]
 419 0078 0398     		ldr	r0, [sp, #12]
 420 007a FFF7FEFF 		bl	__aeabi_fmul
 421              	.LVL60:
 422 007e 011C     		adds	r1, r0, #0
 423 0080 0598     		ldr	r0, [sp, #20]
 424 0082 FFF7FEFF 		bl	__aeabi_fadd
 425              	.LVL61:
 426 0086 0590     		str	r0, [sp, #20]
 427 0088 0299     		ldr	r1, [sp, #8]
 428 008a 281C     		adds	r0, r5, #0
 429 008c FFF7FEFF 		bl	__aeabi_fmul
 430              	.LVL62:
 431 0090 011C     		adds	r1, r0, #0
 432 0092 0598     		ldr	r0, [sp, #20]
 433 0094 FFF7FEFF 		bl	__aeabi_fsub
 434              	.LVL63:
 435 0098 FC21     		movs	r1, #252
 436 009a 8905     		lsls	r1, r1, #22
 437 009c FFF7FEFF 		bl	__aeabi_fmul
 438              	.LVL64:
 439 00a0 0790     		str	r0, [sp, #28]
 440              	.LVL65:
 196:Madgwick.c    **** 	qDot4 = 0.5f * (q0 * gz + q1 * gy - q2 * gx);
 441              		.loc 1 196 0
ARM GAS  C:\Users\A85590\AppData\Local\Temp\cc53CFAh.s 			page 14


 442 00a2 391C     		adds	r1, r7, #0
 443 00a4 281C     		adds	r0, r5, #0
 444              	.LVL66:
 445 00a6 FFF7FEFF 		bl	__aeabi_fmul
 446              	.LVL67:
 447 00aa 0590     		str	r0, [sp, #20]
 448 00ac 311C     		adds	r1, r6, #0
 449 00ae 0398     		ldr	r0, [sp, #12]
 450 00b0 FFF7FEFF 		bl	__aeabi_fmul
 451              	.LVL68:
 452 00b4 011C     		adds	r1, r0, #0
 453 00b6 0598     		ldr	r0, [sp, #20]
 454 00b8 FFF7FEFF 		bl	__aeabi_fsub
 455              	.LVL69:
 456 00bc 0590     		str	r0, [sp, #20]
 457 00be 0299     		ldr	r1, [sp, #8]
 458 00c0 201C     		adds	r0, r4, #0
 459 00c2 FFF7FEFF 		bl	__aeabi_fmul
 460              	.LVL70:
 461 00c6 011C     		adds	r1, r0, #0
 462 00c8 0598     		ldr	r0, [sp, #20]
 463 00ca FFF7FEFF 		bl	__aeabi_fadd
 464              	.LVL71:
 465 00ce FC21     		movs	r1, #252
 466 00d0 8905     		lsls	r1, r1, #22
 467 00d2 FFF7FEFF 		bl	__aeabi_fmul
 468              	.LVL72:
 469 00d6 0890     		str	r0, [sp, #32]
 470              	.LVL73:
 197:Madgwick.c    **** 
 471              		.loc 1 197 0
 472 00d8 391C     		adds	r1, r7, #0
 473 00da 0398     		ldr	r0, [sp, #12]
 474              	.LVL74:
 475 00dc FFF7FEFF 		bl	__aeabi_fmul
 476              	.LVL75:
 477 00e0 0390     		str	r0, [sp, #12]
 478              	.LVL76:
 479 00e2 311C     		adds	r1, r6, #0
 480 00e4 281C     		adds	r0, r5, #0
 481 00e6 FFF7FEFF 		bl	__aeabi_fmul
 482              	.LVL77:
 483 00ea 011C     		adds	r1, r0, #0
 484 00ec 0398     		ldr	r0, [sp, #12]
 485 00ee FFF7FEFF 		bl	__aeabi_fadd
 486              	.LVL78:
 487 00f2 051C     		adds	r5, r0, #0
 488              	.LVL79:
 489 00f4 0199     		ldr	r1, [sp, #4]
 490 00f6 201C     		adds	r0, r4, #0
 491 00f8 FFF7FEFF 		bl	__aeabi_fmul
 492              	.LVL80:
 493 00fc 011C     		adds	r1, r0, #0
 494 00fe 281C     		adds	r0, r5, #0
 495 0100 FFF7FEFF 		bl	__aeabi_fsub
 496              	.LVL81:
 497 0104 FC21     		movs	r1, #252
ARM GAS  C:\Users\A85590\AppData\Local\Temp\cc53CFAh.s 			page 15


 498 0106 8905     		lsls	r1, r1, #22
 499 0108 FFF7FEFF 		bl	__aeabi_fmul
 500              	.LVL82:
 501 010c 0990     		str	r0, [sp, #36]
 502              	.LVL83:
 200:Madgwick.c    **** 	{
 503              		.loc 1 200 0
 504 010e 0021     		movs	r1, #0
 505 0110 0498     		ldr	r0, [sp, #16]
 506              	.LVL84:
 507 0112 FFF7FEFF 		bl	__aeabi_fcmpeq
 508              	.LVL85:
 509 0116 0028     		cmp	r0, #0
 510 0118 12D0     		beq	.L14
 200:Madgwick.c    **** 	{
 511              		.loc 1 200 0 is_stmt 0 discriminator 1
 512 011a 0021     		movs	r1, #0
 513 011c 1C98     		ldr	r0, [sp, #112]
 514 011e FFF7FEFF 		bl	__aeabi_fcmpeq
 515              	.LVL86:
 516 0122 0028     		cmp	r0, #0
 517 0124 0CD0     		beq	.L14
 200:Madgwick.c    **** 	{
 518              		.loc 1 200 0 discriminator 2
 519 0126 0021     		movs	r1, #0
 520 0128 1D98     		ldr	r0, [sp, #116]
 521 012a FFF7FEFF 		bl	__aeabi_fcmpeq
 522              	.LVL87:
 523 012e 0028     		cmp	r0, #0
 524 0130 00D0     		beq	.LCB490
 525 0132 A8E1     		b	.L15	@long jump
 526              	.LCB490:
 527 0134 04E0     		b	.L18
 528              	.L19:
 529 0136 C046     		.align	2
 530              	.L17:
 531 0138 39FA8E3C 		.word	1016003129
 532 013c 00000000 		.word	.LANCHOR0
 533              	.L18:
 534              	.L14:
 204:Madgwick.c    **** 		ax *= recipNorm;
 535              		.loc 1 204 0 is_stmt 1
 536 0140 049D     		ldr	r5, [sp, #16]
 537 0142 291C     		adds	r1, r5, #0
 538 0144 281C     		adds	r0, r5, #0
 539 0146 FFF7FEFF 		bl	__aeabi_fmul
 540              	.LVL88:
 541 014a 041C     		adds	r4, r0, #0
 542              	.LVL89:
 543 014c 1C99     		ldr	r1, [sp, #112]
 544 014e 081C     		adds	r0, r1, #0
 545 0150 FFF7FEFF 		bl	__aeabi_fmul
 546              	.LVL90:
 547 0154 011C     		adds	r1, r0, #0
 548 0156 201C     		adds	r0, r4, #0
 549 0158 FFF7FEFF 		bl	__aeabi_fadd
 550              	.LVL91:
ARM GAS  C:\Users\A85590\AppData\Local\Temp\cc53CFAh.s 			page 16


 551 015c 041C     		adds	r4, r0, #0
 552 015e 1D99     		ldr	r1, [sp, #116]
 553 0160 081C     		adds	r0, r1, #0
 554 0162 FFF7FEFF 		bl	__aeabi_fmul
 555              	.LVL92:
 556 0166 011C     		adds	r1, r0, #0
 557 0168 201C     		adds	r0, r4, #0
 558 016a FFF7FEFF 		bl	__aeabi_fadd
 559              	.LVL93:
 560 016e FFF7FEFF 		bl	invSqrt
 561              	.LVL94:
 562 0172 041C     		adds	r4, r0, #0
 563              	.LVL95:
 205:Madgwick.c    **** 		ay *= recipNorm;
 564              		.loc 1 205 0
 565 0174 011C     		adds	r1, r0, #0
 566 0176 281C     		adds	r0, r5, #0
 567              	.LVL96:
 568 0178 FFF7FEFF 		bl	__aeabi_fmul
 569              	.LVL97:
 570 017c 0390     		str	r0, [sp, #12]
 571              	.LVL98:
 206:Madgwick.c    **** 		az *= recipNorm;
 572              		.loc 1 206 0
 573 017e 211C     		adds	r1, r4, #0
 574 0180 1C98     		ldr	r0, [sp, #112]
 575              	.LVL99:
 576 0182 FFF7FEFF 		bl	__aeabi_fmul
 577              	.LVL100:
 578 0186 0490     		str	r0, [sp, #16]
 579              	.LVL101:
 207:Madgwick.c    **** 
 580              		.loc 1 207 0
 581 0188 211C     		adds	r1, r4, #0
 582 018a 1D98     		ldr	r0, [sp, #116]
 583              	.LVL102:
 584 018c FFF7FEFF 		bl	__aeabi_fmul
 585              	.LVL103:
 586 0190 0E90     		str	r0, [sp, #56]
 587              	.LVL104:
 210:Madgwick.c    **** 		_2q1 = 2.0f * q1;
 588              		.loc 1 210 0
 589 0192 391C     		adds	r1, r7, #0
 590 0194 381C     		adds	r0, r7, #0
 591              	.LVL105:
 592 0196 FFF7FEFF 		bl	__aeabi_fadd
 593              	.LVL106:
 594 019a 0F90     		str	r0, [sp, #60]
 595              	.LVL107:
 211:Madgwick.c    **** 		_2q2 = 2.0f * q2;
 596              		.loc 1 211 0
 597 019c 311C     		adds	r1, r6, #0
 598 019e 301C     		adds	r0, r6, #0
 599              	.LVL108:
 600 01a0 FFF7FEFF 		bl	__aeabi_fadd
 601              	.LVL109:
 602 01a4 1090     		str	r0, [sp, #64]
ARM GAS  C:\Users\A85590\AppData\Local\Temp\cc53CFAh.s 			page 17


 603              	.LVL110:
 212:Madgwick.c    **** 		_2q3 = 2.0f * q3;
 604              		.loc 1 212 0
 605 01a6 019D     		ldr	r5, [sp, #4]
 606 01a8 291C     		adds	r1, r5, #0
 607 01aa 281C     		adds	r0, r5, #0
 608              	.LVL111:
 609 01ac FFF7FEFF 		bl	__aeabi_fadd
 610              	.LVL112:
 611 01b0 1190     		str	r0, [sp, #68]
 612              	.LVL113:
 213:Madgwick.c    **** 		_4q0 = 4.0f * q0;
 613              		.loc 1 213 0
 614 01b2 029A     		ldr	r2, [sp, #8]
 615 01b4 111C     		adds	r1, r2, #0
 616 01b6 101C     		adds	r0, r2, #0
 617              	.LVL114:
 618 01b8 FFF7FEFF 		bl	__aeabi_fadd
 619              	.LVL115:
 620 01bc 1290     		str	r0, [sp, #72]
 621              	.LVL116:
 214:Madgwick.c    **** 		_4q1 = 4.0f * q1;
 622              		.loc 1 214 0
 623 01be 8121     		movs	r1, #129
 624 01c0 C905     		lsls	r1, r1, #23
 625 01c2 381C     		adds	r0, r7, #0
 626              	.LVL117:
 627 01c4 FFF7FEFF 		bl	__aeabi_fmul
 628              	.LVL118:
 629 01c8 041C     		adds	r4, r0, #0
 630              	.LVL119:
 215:Madgwick.c    **** 		_4q2 = 4.0f * q2;
 631              		.loc 1 215 0
 632 01ca 8121     		movs	r1, #129
 633 01cc C905     		lsls	r1, r1, #23
 634 01ce 301C     		adds	r0, r6, #0
 635              	.LVL120:
 636 01d0 FFF7FEFF 		bl	__aeabi_fmul
 637              	.LVL121:
 638 01d4 0A90     		str	r0, [sp, #40]
 639              	.LVL122:
 216:Madgwick.c    **** 		_8q1 = 8.0f * q1;
 640              		.loc 1 216 0
 641 01d6 8121     		movs	r1, #129
 642 01d8 C905     		lsls	r1, r1, #23
 643 01da 281C     		adds	r0, r5, #0
 644              	.LVL123:
 645 01dc FFF7FEFF 		bl	__aeabi_fmul
 646              	.LVL124:
 647 01e0 0B90     		str	r0, [sp, #44]
 648              	.LVL125:
 217:Madgwick.c    **** 		_8q2 = 8.0f * q2;
 649              		.loc 1 217 0
 650 01e2 8221     		movs	r1, #130
 651 01e4 C905     		lsls	r1, r1, #23
 652 01e6 301C     		adds	r0, r6, #0
 653              	.LVL126:
ARM GAS  C:\Users\A85590\AppData\Local\Temp\cc53CFAh.s 			page 18


 654 01e8 FFF7FEFF 		bl	__aeabi_fmul
 655              	.LVL127:
 656 01ec 1390     		str	r0, [sp, #76]
 657              	.LVL128:
 218:Madgwick.c    **** 		q0q0 = q0 * q0;
 658              		.loc 1 218 0
 659 01ee 8221     		movs	r1, #130
 660 01f0 C905     		lsls	r1, r1, #23
 661 01f2 0195     		str	r5, [sp, #4]
 662 01f4 281C     		adds	r0, r5, #0
 663              	.LVL129:
 664 01f6 FFF7FEFF 		bl	__aeabi_fmul
 665              	.LVL130:
 666 01fa 1490     		str	r0, [sp, #80]
 667              	.LVL131:
 219:Madgwick.c    **** 		q1q1 = q1 * q1;
 668              		.loc 1 219 0
 669 01fc 391C     		adds	r1, r7, #0
 670 01fe 381C     		adds	r0, r7, #0
 671              	.LVL132:
 672 0200 FFF7FEFF 		bl	__aeabi_fmul
 673              	.LVL133:
 674 0204 051C     		adds	r5, r0, #0
 675              	.LVL134:
 220:Madgwick.c    **** 		q2q2 = q2 * q2;
 676              		.loc 1 220 0
 677 0206 311C     		adds	r1, r6, #0
 678 0208 301C     		adds	r0, r6, #0
 679              	.LVL135:
 680 020a FFF7FEFF 		bl	__aeabi_fmul
 681              	.LVL136:
 682 020e 0C90     		str	r0, [sp, #48]
 683              	.LVL137:
 221:Madgwick.c    **** 		q3q3 = q3 * q3;
 684              		.loc 1 221 0
 685 0210 019B     		ldr	r3, [sp, #4]
 686 0212 191C     		adds	r1, r3, #0
 687 0214 181C     		adds	r0, r3, #0
 688              	.LVL138:
 689 0216 FFF7FEFF 		bl	__aeabi_fmul
 690              	.LVL139:
 691 021a 0590     		str	r0, [sp, #20]
 692              	.LVL140:
 222:Madgwick.c    **** 
 693              		.loc 1 222 0
 694 021c 029A     		ldr	r2, [sp, #8]
 695 021e 111C     		adds	r1, r2, #0
 696 0220 101C     		adds	r0, r2, #0
 697              	.LVL141:
 698 0222 FFF7FEFF 		bl	__aeabi_fmul
 699              	.LVL142:
 700 0226 1590     		str	r0, [sp, #84]
 701              	.LVL143:
 225:Madgwick.c    **** 		s1 = _4q1 * q3q3 - _2q3 * ax + 4.0f * q0q0 * q1 - _2q0 * ay - _4q1 + _8q1 * q1q1 + _8q1 * q2q2 + 
 702              		.loc 1 225 0
 703 0228 0599     		ldr	r1, [sp, #20]
 704 022a 201C     		adds	r0, r4, #0
ARM GAS  C:\Users\A85590\AppData\Local\Temp\cc53CFAh.s 			page 19


 705              	.LVL144:
 706 022c FFF7FEFF 		bl	__aeabi_fmul
 707              	.LVL145:
 708 0230 0D90     		str	r0, [sp, #52]
 709 0232 1199     		ldr	r1, [sp, #68]
 710 0234 0398     		ldr	r0, [sp, #12]
 711 0236 FFF7FEFF 		bl	__aeabi_fmul
 712              	.LVL146:
 713 023a 011C     		adds	r1, r0, #0
 714 023c 0D98     		ldr	r0, [sp, #52]
 715 023e FFF7FEFF 		bl	__aeabi_fadd
 716              	.LVL147:
 717 0242 0D90     		str	r0, [sp, #52]
 718 0244 0C99     		ldr	r1, [sp, #48]
 719 0246 201C     		adds	r0, r4, #0
 720 0248 FFF7FEFF 		bl	__aeabi_fmul
 721              	.LVL148:
 722 024c 011C     		adds	r1, r0, #0
 723 024e 0D98     		ldr	r0, [sp, #52]
 724 0250 FFF7FEFF 		bl	__aeabi_fadd
 725              	.LVL149:
 726 0254 041C     		adds	r4, r0, #0
 727              	.LVL150:
 728 0256 1099     		ldr	r1, [sp, #64]
 729 0258 0498     		ldr	r0, [sp, #16]
 730 025a FFF7FEFF 		bl	__aeabi_fmul
 731              	.LVL151:
 732 025e 011C     		adds	r1, r0, #0
 733 0260 201C     		adds	r0, r4, #0
 734 0262 FFF7FEFF 		bl	__aeabi_fsub
 735              	.LVL152:
 736 0266 0D90     		str	r0, [sp, #52]
 737              	.LVL153:
 226:Madgwick.c    **** 		s2 = 4.0f * q0q0 * q2 + _2q0 * ax + _4q2 * q3q3 - _2q3 * ay - _4q2 + _8q2 * q1q1 + _8q2 * q2q2 + 
 738              		.loc 1 226 0
 739 0268 1599     		ldr	r1, [sp, #84]
 740 026a 0A98     		ldr	r0, [sp, #40]
 741              	.LVL154:
 742 026c FFF7FEFF 		bl	__aeabi_fmul
 743              	.LVL155:
 744 0270 041C     		adds	r4, r0, #0
 745 0272 1299     		ldr	r1, [sp, #72]
 746 0274 0398     		ldr	r0, [sp, #12]
 747 0276 FFF7FEFF 		bl	__aeabi_fmul
 748              	.LVL156:
 749 027a 011C     		adds	r1, r0, #0
 750 027c 201C     		adds	r0, r4, #0
 751 027e FFF7FEFF 		bl	__aeabi_fsub
 752              	.LVL157:
 753 0282 041C     		adds	r4, r0, #0
 754 0284 8121     		movs	r1, #129
 755 0286 C905     		lsls	r1, r1, #23
 756 0288 281C     		adds	r0, r5, #0
 757 028a FFF7FEFF 		bl	__aeabi_fmul
 758              	.LVL158:
 759 028e 051C     		adds	r5, r0, #0
 760              	.LVL159:
ARM GAS  C:\Users\A85590\AppData\Local\Temp\cc53CFAh.s 			page 20


 761 0290 011C     		adds	r1, r0, #0
 762 0292 301C     		adds	r0, r6, #0
 763 0294 FFF7FEFF 		bl	__aeabi_fmul
 764              	.LVL160:
 765 0298 011C     		adds	r1, r0, #0
 766 029a 201C     		adds	r0, r4, #0
 767 029c FFF7FEFF 		bl	__aeabi_fadd
 768              	.LVL161:
 769 02a0 041C     		adds	r4, r0, #0
 770 02a2 0F99     		ldr	r1, [sp, #60]
 771 02a4 0498     		ldr	r0, [sp, #16]
 772 02a6 FFF7FEFF 		bl	__aeabi_fmul
 773              	.LVL162:
 774 02aa 011C     		adds	r1, r0, #0
 775 02ac 201C     		adds	r0, r4, #0
 776 02ae FFF7FEFF 		bl	__aeabi_fsub
 777              	.LVL163:
 778 02b2 0A99     		ldr	r1, [sp, #40]
 779 02b4 FFF7FEFF 		bl	__aeabi_fsub
 780              	.LVL164:
 781 02b8 041C     		adds	r4, r0, #0
 782 02ba 0C99     		ldr	r1, [sp, #48]
 783 02bc 1398     		ldr	r0, [sp, #76]
 784 02be FFF7FEFF 		bl	__aeabi_fmul
 785              	.LVL165:
 786 02c2 011C     		adds	r1, r0, #0
 787 02c4 201C     		adds	r0, r4, #0
 788 02c6 FFF7FEFF 		bl	__aeabi_fadd
 789              	.LVL166:
 790 02ca 041C     		adds	r4, r0, #0
 791 02cc 0599     		ldr	r1, [sp, #20]
 792 02ce 1398     		ldr	r0, [sp, #76]
 793 02d0 FFF7FEFF 		bl	__aeabi_fmul
 794              	.LVL167:
 795 02d4 011C     		adds	r1, r0, #0
 796 02d6 201C     		adds	r0, r4, #0
 797 02d8 FFF7FEFF 		bl	__aeabi_fadd
 798              	.LVL168:
 799 02dc 041C     		adds	r4, r0, #0
 800 02de 0A99     		ldr	r1, [sp, #40]
 801 02e0 0E98     		ldr	r0, [sp, #56]
 802 02e2 FFF7FEFF 		bl	__aeabi_fmul
 803              	.LVL169:
 804 02e6 011C     		adds	r1, r0, #0
 805 02e8 201C     		adds	r0, r4, #0
 806 02ea FFF7FEFF 		bl	__aeabi_fadd
 807              	.LVL170:
 808 02ee 0A90     		str	r0, [sp, #40]
 809              	.LVL171:
 227:Madgwick.c    **** 		s3 = 4.0f * q1q1 * q3 - _2q1 * ax + 4.0f * q2q2 * q3 - _2q2 * ay;
 810              		.loc 1 227 0
 811 02f0 291C     		adds	r1, r5, #0
 812 02f2 0198     		ldr	r0, [sp, #4]
 813              	.LVL172:
 814 02f4 FFF7FEFF 		bl	__aeabi_fmul
 815              	.LVL173:
 816 02f8 041C     		adds	r4, r0, #0
ARM GAS  C:\Users\A85590\AppData\Local\Temp\cc53CFAh.s 			page 21


 817 02fa 0F99     		ldr	r1, [sp, #60]
 818 02fc 0398     		ldr	r0, [sp, #12]
 819 02fe FFF7FEFF 		bl	__aeabi_fmul
 820              	.LVL174:
 821 0302 011C     		adds	r1, r0, #0
 822 0304 201C     		adds	r0, r4, #0
 823 0306 FFF7FEFF 		bl	__aeabi_fadd
 824              	.LVL175:
 825 030a 041C     		adds	r4, r0, #0
 826 030c 1599     		ldr	r1, [sp, #84]
 827 030e 0B9D     		ldr	r5, [sp, #44]
 828 0310 281C     		adds	r0, r5, #0
 829 0312 FFF7FEFF 		bl	__aeabi_fmul
 830              	.LVL176:
 831 0316 011C     		adds	r1, r0, #0
 832 0318 201C     		adds	r0, r4, #0
 833 031a FFF7FEFF 		bl	__aeabi_fadd
 834              	.LVL177:
 835 031e 041C     		adds	r4, r0, #0
 836 0320 1299     		ldr	r1, [sp, #72]
 837 0322 0498     		ldr	r0, [sp, #16]
 838 0324 FFF7FEFF 		bl	__aeabi_fmul
 839              	.LVL178:
 840 0328 011C     		adds	r1, r0, #0
 841 032a 201C     		adds	r0, r4, #0
 842 032c FFF7FEFF 		bl	__aeabi_fsub
 843              	.LVL179:
 844 0330 0B95     		str	r5, [sp, #44]
 845              	.LVL180:
 846 0332 291C     		adds	r1, r5, #0
 847 0334 FFF7FEFF 		bl	__aeabi_fsub
 848              	.LVL181:
 849 0338 041C     		adds	r4, r0, #0
 850 033a 0C9D     		ldr	r5, [sp, #48]
 851              	.LVL182:
 852 033c 291C     		adds	r1, r5, #0
 853 033e 1498     		ldr	r0, [sp, #80]
 854 0340 FFF7FEFF 		bl	__aeabi_fmul
 855              	.LVL183:
 856 0344 011C     		adds	r1, r0, #0
 857 0346 201C     		adds	r0, r4, #0
 858 0348 FFF7FEFF 		bl	__aeabi_fadd
 859              	.LVL184:
 860 034c 041C     		adds	r4, r0, #0
 861 034e 0599     		ldr	r1, [sp, #20]
 862 0350 1498     		ldr	r0, [sp, #80]
 863 0352 FFF7FEFF 		bl	__aeabi_fmul
 864              	.LVL185:
 865 0356 011C     		adds	r1, r0, #0
 866 0358 201C     		adds	r0, r4, #0
 867 035a FFF7FEFF 		bl	__aeabi_fadd
 868              	.LVL186:
 869 035e 041C     		adds	r4, r0, #0
 870 0360 0B99     		ldr	r1, [sp, #44]
 871 0362 0E98     		ldr	r0, [sp, #56]
 872 0364 FFF7FEFF 		bl	__aeabi_fmul
 873              	.LVL187:
ARM GAS  C:\Users\A85590\AppData\Local\Temp\cc53CFAh.s 			page 22


 874 0368 011C     		adds	r1, r0, #0
 875 036a 201C     		adds	r0, r4, #0
 876 036c FFF7FEFF 		bl	__aeabi_fadd
 877              	.LVL188:
 878 0370 0B90     		str	r0, [sp, #44]
 879              	.LVL189:
 228:Madgwick.c    **** 		recipNorm = invSqrt(s0 * s0 + s1 * s1 + s2 * s2 + s3 * s3); // normalise step magnitude
 880              		.loc 1 228 0
 881 0372 8121     		movs	r1, #129
 882 0374 C905     		lsls	r1, r1, #23
 883 0376 281C     		adds	r0, r5, #0
 884              	.LVL190:
 885 0378 FFF7FEFF 		bl	__aeabi_fmul
 886              	.LVL191:
 887 037c 011C     		adds	r1, r0, #0
 888 037e 029D     		ldr	r5, [sp, #8]
 889 0380 281C     		adds	r0, r5, #0
 890 0382 FFF7FEFF 		bl	__aeabi_fmul
 891              	.LVL192:
 892 0386 041C     		adds	r4, r0, #0
 893 0388 1099     		ldr	r1, [sp, #64]
 894 038a 0398     		ldr	r0, [sp, #12]
 895 038c FFF7FEFF 		bl	__aeabi_fmul
 896              	.LVL193:
 897 0390 011C     		adds	r1, r0, #0
 898 0392 201C     		adds	r0, r4, #0
 899 0394 FFF7FEFF 		bl	__aeabi_fsub
 900              	.LVL194:
 901 0398 041C     		adds	r4, r0, #0
 902 039a 8121     		movs	r1, #129
 903 039c C905     		lsls	r1, r1, #23
 904 039e 0598     		ldr	r0, [sp, #20]
 905 03a0 FFF7FEFF 		bl	__aeabi_fmul
 906              	.LVL195:
 907 03a4 011C     		adds	r1, r0, #0
 908 03a6 281C     		adds	r0, r5, #0
 909 03a8 FFF7FEFF 		bl	__aeabi_fmul
 910              	.LVL196:
 911 03ac 011C     		adds	r1, r0, #0
 912 03ae 201C     		adds	r0, r4, #0
 913 03b0 FFF7FEFF 		bl	__aeabi_fadd
 914              	.LVL197:
 915 03b4 041C     		adds	r4, r0, #0
 916 03b6 1199     		ldr	r1, [sp, #68]
 917 03b8 0498     		ldr	r0, [sp, #16]
 918 03ba FFF7FEFF 		bl	__aeabi_fmul
 919              	.LVL198:
 920 03be 011C     		adds	r1, r0, #0
 921 03c0 201C     		adds	r0, r4, #0
 922 03c2 FFF7FEFF 		bl	__aeabi_fsub
 923              	.LVL199:
 924 03c6 051C     		adds	r5, r0, #0
 925              	.LVL200:
 229:Madgwick.c    **** 		s0 *= recipNorm;
 926              		.loc 1 229 0
 927 03c8 0D9C     		ldr	r4, [sp, #52]
 928 03ca 211C     		adds	r1, r4, #0
ARM GAS  C:\Users\A85590\AppData\Local\Temp\cc53CFAh.s 			page 23


 929 03cc 201C     		adds	r0, r4, #0
 930              	.LVL201:
 931 03ce FFF7FEFF 		bl	__aeabi_fmul
 932              	.LVL202:
 933 03d2 041C     		adds	r4, r0, #0
 934 03d4 0A9A     		ldr	r2, [sp, #40]
 935 03d6 111C     		adds	r1, r2, #0
 936 03d8 101C     		adds	r0, r2, #0
 937 03da FFF7FEFF 		bl	__aeabi_fmul
 938              	.LVL203:
 939 03de 011C     		adds	r1, r0, #0
 940 03e0 201C     		adds	r0, r4, #0
 941 03e2 FFF7FEFF 		bl	__aeabi_fadd
 942              	.LVL204:
 943 03e6 041C     		adds	r4, r0, #0
 944 03e8 0B9B     		ldr	r3, [sp, #44]
 945 03ea 191C     		adds	r1, r3, #0
 946 03ec 181C     		adds	r0, r3, #0
 947 03ee FFF7FEFF 		bl	__aeabi_fmul
 948              	.LVL205:
 949 03f2 011C     		adds	r1, r0, #0
 950 03f4 201C     		adds	r0, r4, #0
 951 03f6 FFF7FEFF 		bl	__aeabi_fadd
 952              	.LVL206:
 953 03fa 041C     		adds	r4, r0, #0
 954 03fc 291C     		adds	r1, r5, #0
 955 03fe 281C     		adds	r0, r5, #0
 956 0400 FFF7FEFF 		bl	__aeabi_fmul
 957              	.LVL207:
 958 0404 011C     		adds	r1, r0, #0
 959 0406 201C     		adds	r0, r4, #0
 960 0408 FFF7FEFF 		bl	__aeabi_fadd
 961              	.LVL208:
 962 040c FFF7FEFF 		bl	invSqrt
 963              	.LVL209:
 964 0410 041C     		adds	r4, r0, #0
 965              	.LVL210:
 230:Madgwick.c    **** 		s1 *= recipNorm;
 966              		.loc 1 230 0
 967 0412 011C     		adds	r1, r0, #0
 968 0414 0D98     		ldr	r0, [sp, #52]
 969              	.LVL211:
 970 0416 FFF7FEFF 		bl	__aeabi_fmul
 971              	.LVL212:
 972 041a 0390     		str	r0, [sp, #12]
 973              	.LVL213:
 231:Madgwick.c    **** 		s2 *= recipNorm;
 974              		.loc 1 231 0
 975 041c 211C     		adds	r1, r4, #0
 976 041e 0A98     		ldr	r0, [sp, #40]
 977              	.LVL214:
 978 0420 FFF7FEFF 		bl	__aeabi_fmul
 979              	.LVL215:
 980 0424 0490     		str	r0, [sp, #16]
 981              	.LVL216:
 232:Madgwick.c    **** 		s3 *= recipNorm;
 982              		.loc 1 232 0
ARM GAS  C:\Users\A85590\AppData\Local\Temp\cc53CFAh.s 			page 24


 983 0426 211C     		adds	r1, r4, #0
 984 0428 0B98     		ldr	r0, [sp, #44]
 985              	.LVL217:
 986 042a FFF7FEFF 		bl	__aeabi_fmul
 987              	.LVL218:
 988 042e 0590     		str	r0, [sp, #20]
 989              	.LVL219:
 233:Madgwick.c    **** 
 990              		.loc 1 233 0
 991 0430 211C     		adds	r1, r4, #0
 992 0432 281C     		adds	r0, r5, #0
 993              	.LVL220:
 994 0434 FFF7FEFF 		bl	__aeabi_fmul
 995              	.LVL221:
 996 0438 051C     		adds	r5, r0, #0
 997              	.LVL222:
 236:Madgwick.c    **** 		qDot2 -= beta * s1;
 998              		.loc 1 236 0
 999 043a 444B     		ldr	r3, .L20
 1000 043c 1C6A     		ldr	r4, [r3, #32]
 1001              	.LVL223:
 1002 043e 211C     		adds	r1, r4, #0
 1003 0440 0398     		ldr	r0, [sp, #12]
 1004              	.LVL224:
 1005 0442 FFF7FEFF 		bl	__aeabi_fmul
 1006              	.LVL225:
 1007 0446 011C     		adds	r1, r0, #0
 1008 0448 0698     		ldr	r0, [sp, #24]
 1009 044a FFF7FEFF 		bl	__aeabi_fsub
 1010              	.LVL226:
 1011 044e 0690     		str	r0, [sp, #24]
 1012              	.LVL227:
 237:Madgwick.c    **** 		qDot3 -= beta * s2;
 1013              		.loc 1 237 0
 1014 0450 211C     		adds	r1, r4, #0
 1015 0452 0498     		ldr	r0, [sp, #16]
 1016              	.LVL228:
 1017 0454 FFF7FEFF 		bl	__aeabi_fmul
 1018              	.LVL229:
 1019 0458 011C     		adds	r1, r0, #0
 1020 045a 0798     		ldr	r0, [sp, #28]
 1021 045c FFF7FEFF 		bl	__aeabi_fsub
 1022              	.LVL230:
 1023 0460 0790     		str	r0, [sp, #28]
 1024              	.LVL231:
 238:Madgwick.c    **** 		qDot4 -= beta * s3;
 1025              		.loc 1 238 0
 1026 0462 211C     		adds	r1, r4, #0
 1027 0464 0598     		ldr	r0, [sp, #20]
 1028              	.LVL232:
 1029 0466 FFF7FEFF 		bl	__aeabi_fmul
 1030              	.LVL233:
 1031 046a 011C     		adds	r1, r0, #0
 1032 046c 0898     		ldr	r0, [sp, #32]
 1033 046e FFF7FEFF 		bl	__aeabi_fsub
 1034              	.LVL234:
 1035 0472 0890     		str	r0, [sp, #32]
ARM GAS  C:\Users\A85590\AppData\Local\Temp\cc53CFAh.s 			page 25


 1036              	.LVL235:
 239:Madgwick.c    **** 	}
 1037              		.loc 1 239 0
 1038 0474 211C     		adds	r1, r4, #0
 1039 0476 281C     		adds	r0, r5, #0
 1040              	.LVL236:
 1041 0478 FFF7FEFF 		bl	__aeabi_fmul
 1042              	.LVL237:
 1043 047c 011C     		adds	r1, r0, #0
 1044 047e 0998     		ldr	r0, [sp, #36]
 1045 0480 FFF7FEFF 		bl	__aeabi_fsub
 1046              	.LVL238:
 1047 0484 0990     		str	r0, [sp, #36]
 1048              	.LVL239:
 1049              	.L15:
 243:Madgwick.c    **** 	q1 += qDot2 * invSampleFreq;
 1050              		.loc 1 243 0
 1051 0486 314D     		ldr	r5, .L20
 1052 0488 6C6A     		ldr	r4, [r5, #36]
 1053 048a 211C     		adds	r1, r4, #0
 1054 048c 0698     		ldr	r0, [sp, #24]
 1055 048e FFF7FEFF 		bl	__aeabi_fmul
 1056              	.LVL240:
 1057 0492 011C     		adds	r1, r0, #0
 1058 0494 381C     		adds	r0, r7, #0
 1059 0496 FFF7FEFF 		bl	__aeabi_fadd
 1060              	.LVL241:
 1061 049a 071C     		adds	r7, r0, #0
 244:Madgwick.c    **** 	q2 += qDot3 * invSampleFreq;
 1062              		.loc 1 244 0
 1063 049c 211C     		adds	r1, r4, #0
 1064 049e 0798     		ldr	r0, [sp, #28]
 1065 04a0 FFF7FEFF 		bl	__aeabi_fmul
 1066              	.LVL242:
 1067 04a4 011C     		adds	r1, r0, #0
 1068 04a6 301C     		adds	r0, r6, #0
 1069 04a8 FFF7FEFF 		bl	__aeabi_fadd
 1070              	.LVL243:
 1071 04ac 061C     		adds	r6, r0, #0
 245:Madgwick.c    **** 	q3 += qDot4 * invSampleFreq;
 1072              		.loc 1 245 0
 1073 04ae 211C     		adds	r1, r4, #0
 1074 04b0 0898     		ldr	r0, [sp, #32]
 1075 04b2 FFF7FEFF 		bl	__aeabi_fmul
 1076              	.LVL244:
 1077 04b6 011C     		adds	r1, r0, #0
 1078 04b8 0198     		ldr	r0, [sp, #4]
 1079 04ba FFF7FEFF 		bl	__aeabi_fadd
 1080              	.LVL245:
 1081 04be 0190     		str	r0, [sp, #4]
 246:Madgwick.c    **** 
 1082              		.loc 1 246 0
 1083 04c0 211C     		adds	r1, r4, #0
 1084 04c2 0998     		ldr	r0, [sp, #36]
 1085 04c4 FFF7FEFF 		bl	__aeabi_fmul
 1086              	.LVL246:
 1087 04c8 011C     		adds	r1, r0, #0
ARM GAS  C:\Users\A85590\AppData\Local\Temp\cc53CFAh.s 			page 26


 1088 04ca 0298     		ldr	r0, [sp, #8]
 1089 04cc FFF7FEFF 		bl	__aeabi_fadd
 1090              	.LVL247:
 1091 04d0 0290     		str	r0, [sp, #8]
 249:Madgwick.c    **** 	q0 *= recipNorm;
 1092              		.loc 1 249 0
 1093 04d2 391C     		adds	r1, r7, #0
 1094 04d4 381C     		adds	r0, r7, #0
 1095 04d6 FFF7FEFF 		bl	__aeabi_fmul
 1096              	.LVL248:
 1097 04da 041C     		adds	r4, r0, #0
 1098 04dc 311C     		adds	r1, r6, #0
 1099 04de 301C     		adds	r0, r6, #0
 1100 04e0 FFF7FEFF 		bl	__aeabi_fmul
 1101              	.LVL249:
 1102 04e4 011C     		adds	r1, r0, #0
 1103 04e6 201C     		adds	r0, r4, #0
 1104 04e8 FFF7FEFF 		bl	__aeabi_fadd
 1105              	.LVL250:
 1106 04ec 041C     		adds	r4, r0, #0
 1107 04ee 019A     		ldr	r2, [sp, #4]
 1108 04f0 111C     		adds	r1, r2, #0
 1109 04f2 101C     		adds	r0, r2, #0
 1110 04f4 FFF7FEFF 		bl	__aeabi_fmul
 1111              	.LVL251:
 1112 04f8 011C     		adds	r1, r0, #0
 1113 04fa 201C     		adds	r0, r4, #0
 1114 04fc FFF7FEFF 		bl	__aeabi_fadd
 1115              	.LVL252:
 1116 0500 041C     		adds	r4, r0, #0
 1117 0502 029B     		ldr	r3, [sp, #8]
 1118 0504 191C     		adds	r1, r3, #0
 1119 0506 181C     		adds	r0, r3, #0
 1120 0508 FFF7FEFF 		bl	__aeabi_fmul
 1121              	.LVL253:
 1122 050c 011C     		adds	r1, r0, #0
 1123 050e 201C     		adds	r0, r4, #0
 1124 0510 FFF7FEFF 		bl	__aeabi_fadd
 1125              	.LVL254:
 1126 0514 FFF7FEFF 		bl	invSqrt
 1127              	.LVL255:
 1128 0518 041C     		adds	r4, r0, #0
 1129              	.LVL256:
 250:Madgwick.c    **** 	q1 *= recipNorm;
 1130              		.loc 1 250 0
 1131 051a 011C     		adds	r1, r0, #0
 1132 051c 381C     		adds	r0, r7, #0
 1133              	.LVL257:
 1134 051e FFF7FEFF 		bl	__aeabi_fmul
 1135              	.LVL258:
 1136 0522 6860     		str	r0, [r5, #4]
 251:Madgwick.c    **** 	q2 *= recipNorm;
 1137              		.loc 1 251 0
 1138 0524 211C     		adds	r1, r4, #0
 1139 0526 301C     		adds	r0, r6, #0
 1140 0528 FFF7FEFF 		bl	__aeabi_fmul
 1141              	.LVL259:
ARM GAS  C:\Users\A85590\AppData\Local\Temp\cc53CFAh.s 			page 27


 1142 052c 2860     		str	r0, [r5]
 252:Madgwick.c    **** 	q3 *= recipNorm;
 1143              		.loc 1 252 0
 1144 052e 211C     		adds	r1, r4, #0
 1145 0530 0198     		ldr	r0, [sp, #4]
 1146 0532 FFF7FEFF 		bl	__aeabi_fmul
 1147              	.LVL260:
 1148 0536 A860     		str	r0, [r5, #8]
 253:Madgwick.c    **** 	anglesComputed = 0;
 1149              		.loc 1 253 0
 1150 0538 211C     		adds	r1, r4, #0
 1151 053a 0298     		ldr	r0, [sp, #8]
 1152 053c FFF7FEFF 		bl	__aeabi_fmul
 1153              	.LVL261:
 1154 0540 E860     		str	r0, [r5, #12]
 254:Madgwick.c    **** }
 1155              		.loc 1 254 0
 1156 0542 0023     		movs	r3, #0
 1157 0544 2B77     		strb	r3, [r5, #28]
 255:Madgwick.c    **** 
 1158              		.loc 1 255 0
 1159 0546 17B0     		add	sp, sp, #92
 1160              		@ sp needed
 1161              	.LVL262:
 1162 0548 F0BD     		pop	{r4, r5, r6, r7, pc}
 1163              	.L21:
 1164 054a C046     		.align	2
 1165              	.L20:
 1166 054c 00000000 		.word	.LANCHOR0
 1167              		.cfi_endproc
 1168              	.LFE4:
 1169              		.size	Madgwick_updateIMU, .-Madgwick_updateIMU
 1170              		.section	.text.Madgwick_update,"ax",%progbits
 1171              		.align	2
 1172              		.global	Madgwick_update
 1173              		.code	16
 1174              		.thumb_func
 1175              		.type	Madgwick_update, %function
 1176              	Madgwick_update:
 1177              	.LFB3:
  74:Madgwick.c    **** 	float recipNorm;
 1178              		.loc 1 74 0
 1179              		.cfi_startproc
 1180              		@ args = 20, pretend = 0, frame = 128
 1181              		@ frame_needed = 0, uses_anonymous_args = 0
 1182              	.LVL263:
 1183 0000 F0B5     		push	{r4, r5, r6, r7, lr}
 1184              		.cfi_def_cfa_offset 20
 1185              		.cfi_offset 4, -20
 1186              		.cfi_offset 5, -16
 1187              		.cfi_offset 6, -12
 1188              		.cfi_offset 7, -8
 1189              		.cfi_offset 14, -4
 1190 0002 4F46     		mov	r7, r9
 1191 0004 4646     		mov	r6, r8
 1192 0006 C0B4     		push	{r6, r7}
 1193              		.cfi_def_cfa_offset 28
ARM GAS  C:\Users\A85590\AppData\Local\Temp\cc53CFAh.s 			page 28


 1194              		.cfi_offset 8, -28
 1195              		.cfi_offset 9, -24
 1196 0008 A3B0     		sub	sp, sp, #140
 1197              		.cfi_def_cfa_offset 168
 1198 000a 041C     		adds	r4, r0, #0
 1199 000c 0D1C     		adds	r5, r1, #0
 1200 000e 161C     		adds	r6, r2, #0
 1201 0010 0793     		str	r3, [sp, #28]
  82:Madgwick.c    **** 	{
 1202              		.loc 1 82 0
 1203 0012 0021     		movs	r1, #0
 1204              	.LVL264:
 1205 0014 2C98     		ldr	r0, [sp, #176]
 1206              	.LVL265:
 1207 0016 FFF7FEFF 		bl	__aeabi_fcmpeq
 1208              	.LVL266:
 1209 001a 0028     		cmp	r0, #0
 1210 001c 17D0     		beq	.L23
  82:Madgwick.c    **** 	{
 1211              		.loc 1 82 0 is_stmt 0 discriminator 1
 1212 001e 0021     		movs	r1, #0
 1213 0020 2D98     		ldr	r0, [sp, #180]
 1214 0022 FFF7FEFF 		bl	__aeabi_fcmpeq
 1215              	.LVL267:
 1216 0026 0028     		cmp	r0, #0
 1217 0028 11D0     		beq	.L23
  82:Madgwick.c    **** 	{
 1218              		.loc 1 82 0 discriminator 2
 1219 002a 0021     		movs	r1, #0
 1220 002c 2E98     		ldr	r0, [sp, #184]
 1221 002e FFF7FEFF 		bl	__aeabi_fcmpeq
 1222              	.LVL268:
 1223 0032 0028     		cmp	r0, #0
 1224 0034 0BD0     		beq	.L23
  84:Madgwick.c    **** 		return;
 1225              		.loc 1 84 0 is_stmt 1
 1226 0036 2B9B     		ldr	r3, [sp, #172]
 1227 0038 0193     		str	r3, [sp, #4]
 1228 003a 2A9B     		ldr	r3, [sp, #168]
 1229 003c 0093     		str	r3, [sp]
 1230 003e 079B     		ldr	r3, [sp, #28]
 1231 0040 321C     		adds	r2, r6, #0
 1232 0042 291C     		adds	r1, r5, #0
 1233 0044 201C     		adds	r0, r4, #0
 1234 0046 FFF7FEFF 		bl	Madgwick_updateIMU
 1235              	.LVL269:
  85:Madgwick.c    **** 	}
 1236              		.loc 1 85 0
 1237 004a 00F0DAFC 		bl	.L22	@ far jump
 1238              	.L23:
  89:Madgwick.c    **** 	gy *= 0.0174533f;
 1239              		.loc 1 89 0
 1240 004e 4B49     		ldr	r1, .L34
 1241 0050 201C     		adds	r0, r4, #0
 1242 0052 FFF7FEFF 		bl	__aeabi_fmul
 1243              	.LVL270:
 1244 0056 0490     		str	r0, [sp, #16]
ARM GAS  C:\Users\A85590\AppData\Local\Temp\cc53CFAh.s 			page 29


 1245              	.LVL271:
  90:Madgwick.c    **** 	gz *= 0.0174533f;
 1246              		.loc 1 90 0
 1247 0058 4849     		ldr	r1, .L34
 1248 005a 281C     		adds	r0, r5, #0
 1249              	.LVL272:
 1250 005c FFF7FEFF 		bl	__aeabi_fmul
 1251              	.LVL273:
 1252 0060 0590     		str	r0, [sp, #20]
 1253              	.LVL274:
  91:Madgwick.c    **** 
 1254              		.loc 1 91 0
 1255 0062 4649     		ldr	r1, .L34
 1256 0064 301C     		adds	r0, r6, #0
 1257              	.LVL275:
 1258 0066 FFF7FEFF 		bl	__aeabi_fmul
 1259              	.LVL276:
 1260 006a 0690     		str	r0, [sp, #24]
 1261              	.LVL277:
  94:Madgwick.c    **** 	qDot2 = 0.5f * (q0 * gx + q2 * gz - q3 * gy);
 1262              		.loc 1 94 0
 1263 006c 444C     		ldr	r4, .L34+4
 1264 006e 2768     		ldr	r7, [r4]
 1265 0070 8023     		movs	r3, #128
 1266 0072 1B06     		lsls	r3, r3, #24
 1267 0074 F918     		adds	r1, r7, r3
 1268 0076 0498     		ldr	r0, [sp, #16]
 1269              	.LVL278:
 1270 0078 FFF7FEFF 		bl	__aeabi_fmul
 1271              	.LVL279:
 1272 007c 051C     		adds	r5, r0, #0
 1273 007e A668     		ldr	r6, [r4, #8]
 1274 0080 311C     		adds	r1, r6, #0
 1275 0082 0598     		ldr	r0, [sp, #20]
 1276 0084 FFF7FEFF 		bl	__aeabi_fmul
 1277              	.LVL280:
 1278 0088 011C     		adds	r1, r0, #0
 1279 008a 281C     		adds	r0, r5, #0
 1280 008c FFF7FEFF 		bl	__aeabi_fsub
 1281              	.LVL281:
 1282 0090 0390     		str	r0, [sp, #12]
 1283 0092 E568     		ldr	r5, [r4, #12]
 1284 0094 291C     		adds	r1, r5, #0
 1285 0096 0698     		ldr	r0, [sp, #24]
 1286 0098 FFF7FEFF 		bl	__aeabi_fmul
 1287              	.LVL282:
 1288 009c 011C     		adds	r1, r0, #0
 1289 009e 0398     		ldr	r0, [sp, #12]
 1290 00a0 FFF7FEFF 		bl	__aeabi_fsub
 1291              	.LVL283:
 1292 00a4 FC21     		movs	r1, #252
 1293 00a6 8905     		lsls	r1, r1, #22
 1294 00a8 FFF7FEFF 		bl	__aeabi_fmul
 1295              	.LVL284:
 1296 00ac 1090     		str	r0, [sp, #64]
 1297              	.LVL285:
  95:Madgwick.c    **** 	qDot3 = 0.5f * (q0 * gy - q1 * gz + q3 * gx);
ARM GAS  C:\Users\A85590\AppData\Local\Temp\cc53CFAh.s 			page 30


 1298              		.loc 1 95 0
 1299 00ae 6368     		ldr	r3, [r4, #4]
 1300 00b0 0393     		str	r3, [sp, #12]
 1301 00b2 191C     		adds	r1, r3, #0
 1302 00b4 0498     		ldr	r0, [sp, #16]
 1303              	.LVL286:
 1304 00b6 FFF7FEFF 		bl	__aeabi_fmul
 1305              	.LVL287:
 1306 00ba 041C     		adds	r4, r0, #0
 1307 00bc 311C     		adds	r1, r6, #0
 1308 00be 0698     		ldr	r0, [sp, #24]
 1309 00c0 FFF7FEFF 		bl	__aeabi_fmul
 1310              	.LVL288:
 1311 00c4 011C     		adds	r1, r0, #0
 1312 00c6 201C     		adds	r0, r4, #0
 1313 00c8 FFF7FEFF 		bl	__aeabi_fadd
 1314              	.LVL289:
 1315 00cc 041C     		adds	r4, r0, #0
 1316 00ce 291C     		adds	r1, r5, #0
 1317 00d0 0598     		ldr	r0, [sp, #20]
 1318 00d2 FFF7FEFF 		bl	__aeabi_fmul
 1319              	.LVL290:
 1320 00d6 011C     		adds	r1, r0, #0
 1321 00d8 201C     		adds	r0, r4, #0
 1322 00da FFF7FEFF 		bl	__aeabi_fsub
 1323              	.LVL291:
 1324 00de FC21     		movs	r1, #252
 1325 00e0 8905     		lsls	r1, r1, #22
 1326 00e2 FFF7FEFF 		bl	__aeabi_fmul
 1327              	.LVL292:
 1328 00e6 1190     		str	r0, [sp, #68]
 1329              	.LVL293:
  96:Madgwick.c    **** 	qDot4 = 0.5f * (q0 * gz + q1 * gy - q2 * gx);
 1330              		.loc 1 96 0
 1331 00e8 0399     		ldr	r1, [sp, #12]
 1332 00ea 0598     		ldr	r0, [sp, #20]
 1333              	.LVL294:
 1334 00ec FFF7FEFF 		bl	__aeabi_fmul
 1335              	.LVL295:
 1336 00f0 041C     		adds	r4, r0, #0
 1337 00f2 391C     		adds	r1, r7, #0
 1338 00f4 0698     		ldr	r0, [sp, #24]
 1339 00f6 FFF7FEFF 		bl	__aeabi_fmul
 1340              	.LVL296:
 1341 00fa 011C     		adds	r1, r0, #0
 1342 00fc 201C     		adds	r0, r4, #0
 1343 00fe FFF7FEFF 		bl	__aeabi_fsub
 1344              	.LVL297:
 1345 0102 041C     		adds	r4, r0, #0
 1346 0104 291C     		adds	r1, r5, #0
 1347 0106 0498     		ldr	r0, [sp, #16]
 1348 0108 FFF7FEFF 		bl	__aeabi_fmul
 1349              	.LVL298:
 1350 010c 011C     		adds	r1, r0, #0
 1351 010e 201C     		adds	r0, r4, #0
 1352 0110 FFF7FEFF 		bl	__aeabi_fadd
 1353              	.LVL299:
ARM GAS  C:\Users\A85590\AppData\Local\Temp\cc53CFAh.s 			page 31


 1354 0114 FC21     		movs	r1, #252
 1355 0116 8905     		lsls	r1, r1, #22
 1356 0118 FFF7FEFF 		bl	__aeabi_fmul
 1357              	.LVL300:
 1358 011c 1290     		str	r0, [sp, #72]
 1359              	.LVL301:
  97:Madgwick.c    **** 
 1360              		.loc 1 97 0
 1361 011e 0399     		ldr	r1, [sp, #12]
 1362 0120 0698     		ldr	r0, [sp, #24]
 1363              	.LVL302:
 1364 0122 FFF7FEFF 		bl	__aeabi_fmul
 1365              	.LVL303:
 1366 0126 041C     		adds	r4, r0, #0
 1367 0128 391C     		adds	r1, r7, #0
 1368 012a 0598     		ldr	r0, [sp, #20]
 1369 012c FFF7FEFF 		bl	__aeabi_fmul
 1370              	.LVL304:
 1371 0130 011C     		adds	r1, r0, #0
 1372 0132 201C     		adds	r0, r4, #0
 1373 0134 FFF7FEFF 		bl	__aeabi_fadd
 1374              	.LVL305:
 1375 0138 041C     		adds	r4, r0, #0
 1376 013a 311C     		adds	r1, r6, #0
 1377 013c 0498     		ldr	r0, [sp, #16]
 1378 013e FFF7FEFF 		bl	__aeabi_fmul
 1379              	.LVL306:
 1380 0142 011C     		adds	r1, r0, #0
 1381 0144 201C     		adds	r0, r4, #0
 1382 0146 FFF7FEFF 		bl	__aeabi_fsub
 1383              	.LVL307:
 1384 014a FC21     		movs	r1, #252
 1385 014c 8905     		lsls	r1, r1, #22
 1386 014e FFF7FEFF 		bl	__aeabi_fmul
 1387              	.LVL308:
 1388 0152 1390     		str	r0, [sp, #76]
 1389              	.LVL309:
 100:Madgwick.c    **** 	{
 1390              		.loc 1 100 0
 1391 0154 0021     		movs	r1, #0
 1392 0156 0798     		ldr	r0, [sp, #28]
 1393              	.LVL310:
 1394 0158 FFF7FEFF 		bl	__aeabi_fcmpeq
 1395              	.LVL311:
 1396 015c 0028     		cmp	r0, #0
 1397 015e 11D0     		beq	.L28
 100:Madgwick.c    **** 	{
 1398              		.loc 1 100 0 is_stmt 0 discriminator 1
 1399 0160 0021     		movs	r1, #0
 1400 0162 2A98     		ldr	r0, [sp, #168]
 1401 0164 FFF7FEFF 		bl	__aeabi_fcmpeq
 1402              	.LVL312:
 1403 0168 0028     		cmp	r0, #0
 1404 016a 0BD0     		beq	.L28
 100:Madgwick.c    **** 	{
 1405              		.loc 1 100 0 discriminator 2
 1406 016c 0021     		movs	r1, #0
ARM GAS  C:\Users\A85590\AppData\Local\Temp\cc53CFAh.s 			page 32


 1407 016e 2B98     		ldr	r0, [sp, #172]
 1408 0170 FFF7FEFF 		bl	__aeabi_fcmpeq
 1409              	.LVL313:
 1410 0174 0028     		cmp	r0, #0
 1411 0176 00D0     		beq	.LCB1442
 1412 0178 E7E3     		b	.L29	@long jump
 1413              	.LCB1442:
 1414 017a 03E0     		b	.L35
 1415              	.L36:
 1416              		.align	2
 1417              	.L34:
 1418 017c 39FA8E3C 		.word	1016003129
 1419 0180 00000000 		.word	.LANCHOR0
 1420              	.L35:
 1421              	.L28:
 104:Madgwick.c    **** 		ax *= recipNorm;
 1422              		.loc 1 104 0 is_stmt 1
 1423 0184 079B     		ldr	r3, [sp, #28]
 1424 0186 191C     		adds	r1, r3, #0
 1425 0188 181C     		adds	r0, r3, #0
 1426 018a FFF7FEFF 		bl	__aeabi_fmul
 1427              	.LVL314:
 1428 018e 041C     		adds	r4, r0, #0
 1429 0190 2A99     		ldr	r1, [sp, #168]
 1430 0192 081C     		adds	r0, r1, #0
 1431 0194 FFF7FEFF 		bl	__aeabi_fmul
 1432              	.LVL315:
 1433 0198 011C     		adds	r1, r0, #0
 1434 019a 201C     		adds	r0, r4, #0
 1435 019c FFF7FEFF 		bl	__aeabi_fadd
 1436              	.LVL316:
 1437 01a0 041C     		adds	r4, r0, #0
 1438 01a2 2B99     		ldr	r1, [sp, #172]
 1439 01a4 081C     		adds	r0, r1, #0
 1440 01a6 FFF7FEFF 		bl	__aeabi_fmul
 1441              	.LVL317:
 1442 01aa 011C     		adds	r1, r0, #0
 1443 01ac 201C     		adds	r0, r4, #0
 1444 01ae FFF7FEFF 		bl	__aeabi_fadd
 1445              	.LVL318:
 1446 01b2 FFF7FEFF 		bl	invSqrt
 1447              	.LVL319:
 1448 01b6 041C     		adds	r4, r0, #0
 1449              	.LVL320:
 105:Madgwick.c    **** 		ay *= recipNorm;
 1450              		.loc 1 105 0
 1451 01b8 011C     		adds	r1, r0, #0
 1452 01ba 0798     		ldr	r0, [sp, #28]
 1453              	.LVL321:
 1454 01bc FFF7FEFF 		bl	__aeabi_fmul
 1455              	.LVL322:
 1456 01c0 1A90     		str	r0, [sp, #104]
 1457              	.LVL323:
 106:Madgwick.c    **** 		az *= recipNorm;
 1458              		.loc 1 106 0
 1459 01c2 211C     		adds	r1, r4, #0
 1460 01c4 2A98     		ldr	r0, [sp, #168]
ARM GAS  C:\Users\A85590\AppData\Local\Temp\cc53CFAh.s 			page 33


 1461              	.LVL324:
 1462 01c6 FFF7FEFF 		bl	__aeabi_fmul
 1463              	.LVL325:
 1464 01ca 1B90     		str	r0, [sp, #108]
 1465              	.LVL326:
 107:Madgwick.c    **** 
 1466              		.loc 1 107 0
 1467 01cc 211C     		adds	r1, r4, #0
 1468 01ce 2B98     		ldr	r0, [sp, #172]
 1469              	.LVL327:
 1470 01d0 FFF7FEFF 		bl	__aeabi_fmul
 1471              	.LVL328:
 1472 01d4 1C90     		str	r0, [sp, #112]
 1473              	.LVL329:
 110:Madgwick.c    **** 		mx *= recipNorm;
 1474              		.loc 1 110 0
 1475 01d6 2C99     		ldr	r1, [sp, #176]
 1476 01d8 081C     		adds	r0, r1, #0
 1477              	.LVL330:
 1478 01da FFF7FEFF 		bl	__aeabi_fmul
 1479              	.LVL331:
 1480 01de 041C     		adds	r4, r0, #0
 1481              	.LVL332:
 1482 01e0 2D99     		ldr	r1, [sp, #180]
 1483 01e2 081C     		adds	r0, r1, #0
 1484 01e4 FFF7FEFF 		bl	__aeabi_fmul
 1485              	.LVL333:
 1486 01e8 011C     		adds	r1, r0, #0
 1487 01ea 201C     		adds	r0, r4, #0
 1488 01ec FFF7FEFF 		bl	__aeabi_fadd
 1489              	.LVL334:
 1490 01f0 041C     		adds	r4, r0, #0
 1491 01f2 2E99     		ldr	r1, [sp, #184]
 1492 01f4 081C     		adds	r0, r1, #0
 1493 01f6 FFF7FEFF 		bl	__aeabi_fmul
 1494              	.LVL335:
 1495 01fa 011C     		adds	r1, r0, #0
 1496 01fc 201C     		adds	r0, r4, #0
 1497 01fe FFF7FEFF 		bl	__aeabi_fadd
 1498              	.LVL336:
 1499 0202 FFF7FEFF 		bl	invSqrt
 1500              	.LVL337:
 1501 0206 041C     		adds	r4, r0, #0
 1502              	.LVL338:
 111:Madgwick.c    **** 		my *= recipNorm;
 1503              		.loc 1 111 0
 1504 0208 011C     		adds	r1, r0, #0
 1505 020a 2C98     		ldr	r0, [sp, #176]
 1506              	.LVL339:
 1507 020c FFF7FEFF 		bl	__aeabi_fmul
 1508              	.LVL340:
 1509 0210 0490     		str	r0, [sp, #16]
 1510              	.LVL341:
 112:Madgwick.c    **** 		mz *= recipNorm;
 1511              		.loc 1 112 0
 1512 0212 211C     		adds	r1, r4, #0
 1513 0214 2D98     		ldr	r0, [sp, #180]
ARM GAS  C:\Users\A85590\AppData\Local\Temp\cc53CFAh.s 			page 34


 1514              	.LVL342:
 1515 0216 FFF7FEFF 		bl	__aeabi_fmul
 1516              	.LVL343:
 1517 021a 0590     		str	r0, [sp, #20]
 1518              	.LVL344:
 113:Madgwick.c    **** 
 1519              		.loc 1 113 0
 1520 021c 211C     		adds	r1, r4, #0
 1521 021e 2E98     		ldr	r0, [sp, #184]
 1522              	.LVL345:
 1523 0220 FFF7FEFF 		bl	__aeabi_fmul
 1524              	.LVL346:
 1525 0224 041C     		adds	r4, r0, #0
 1526              	.LVL347:
 116:Madgwick.c    **** 		_2q0my = 2.0f * q0 * my;
 1527              		.loc 1 116 0
 1528 0226 039B     		ldr	r3, [sp, #12]
 1529 0228 191C     		adds	r1, r3, #0
 1530 022a 181C     		adds	r0, r3, #0
 1531              	.LVL348:
 1532 022c FFF7FEFF 		bl	__aeabi_fadd
 1533              	.LVL349:
 1534 0230 0A90     		str	r0, [sp, #40]
 1535 0232 011C     		adds	r1, r0, #0
 1536 0234 0498     		ldr	r0, [sp, #16]
 1537 0236 FFF7FEFF 		bl	__aeabi_fmul
 1538              	.LVL350:
 1539 023a 0790     		str	r0, [sp, #28]
 1540              	.LVL351:
 117:Madgwick.c    **** 		_2q0mz = 2.0f * q0 * mz;
 1541              		.loc 1 117 0
 1542 023c 0A99     		ldr	r1, [sp, #40]
 1543 023e 0598     		ldr	r0, [sp, #20]
 1544              	.LVL352:
 1545 0240 FFF7FEFF 		bl	__aeabi_fmul
 1546              	.LVL353:
 1547 0244 1590     		str	r0, [sp, #84]
 1548              	.LVL354:
 118:Madgwick.c    **** 		_2q1mx = 2.0f * q1 * mx;
 1549              		.loc 1 118 0
 1550 0246 0A99     		ldr	r1, [sp, #40]
 1551 0248 0994     		str	r4, [sp, #36]
 1552 024a 201C     		adds	r0, r4, #0
 1553              	.LVL355:
 1554 024c FFF7FEFF 		bl	__aeabi_fmul
 1555              	.LVL356:
 1556 0250 0D90     		str	r0, [sp, #52]
 1557              	.LVL357:
 119:Madgwick.c    **** 		_2q0 = 2.0f * q0;
 1558              		.loc 1 119 0
 1559 0252 391C     		adds	r1, r7, #0
 1560 0254 381C     		adds	r0, r7, #0
 1561              	.LVL358:
 1562 0256 FFF7FEFF 		bl	__aeabi_fadd
 1563              	.LVL359:
 1564 025a 0E90     		str	r0, [sp, #56]
 1565 025c 011C     		adds	r1, r0, #0
ARM GAS  C:\Users\A85590\AppData\Local\Temp\cc53CFAh.s 			page 35


 1566 025e 049C     		ldr	r4, [sp, #16]
 1567              	.LVL360:
 1568 0260 201C     		adds	r0, r4, #0
 1569 0262 FFF7FEFF 		bl	__aeabi_fmul
 1570              	.LVL361:
 1571 0266 1690     		str	r0, [sp, #88]
 1572              	.LVL362:
 122:Madgwick.c    **** 		_2q3 = 2.0f * q3;
 1573              		.loc 1 122 0
 1574 0268 311C     		adds	r1, r6, #0
 1575 026a 301C     		adds	r0, r6, #0
 1576              	.LVL363:
 1577 026c FFF7FEFF 		bl	__aeabi_fadd
 1578              	.LVL364:
 1579 0270 0B90     		str	r0, [sp, #44]
 1580              	.LVL365:
 123:Madgwick.c    **** 		_2q0q2 = 2.0f * q0 * q2;
 1581              		.loc 1 123 0
 1582 0272 291C     		adds	r1, r5, #0
 1583 0274 281C     		adds	r0, r5, #0
 1584              	.LVL366:
 1585 0276 FFF7FEFF 		bl	__aeabi_fadd
 1586              	.LVL367:
 1587 027a 1790     		str	r0, [sp, #92]
 1588              	.LVL368:
 124:Madgwick.c    **** 		_2q2q3 = 2.0f * q2 * q3;
 1589              		.loc 1 124 0
 1590 027c 0A99     		ldr	r1, [sp, #40]
 1591 027e 301C     		adds	r0, r6, #0
 1592              	.LVL369:
 1593 0280 FFF7FEFF 		bl	__aeabi_fmul
 1594              	.LVL370:
 1595 0284 1D90     		str	r0, [sp, #116]
 1596              	.LVL371:
 125:Madgwick.c    **** 		q0q0 = q0 * q0;
 1597              		.loc 1 125 0
 1598 0286 0B99     		ldr	r1, [sp, #44]
 1599 0288 281C     		adds	r0, r5, #0
 1600              	.LVL372:
 1601 028a FFF7FEFF 		bl	__aeabi_fmul
 1602              	.LVL373:
 1603 028e 1E90     		str	r0, [sp, #120]
 1604              	.LVL374:
 126:Madgwick.c    **** 		q0q1 = q0 * q1;
 1605              		.loc 1 126 0
 1606 0290 039B     		ldr	r3, [sp, #12]
 1607 0292 191C     		adds	r1, r3, #0
 1608 0294 181C     		adds	r0, r3, #0
 1609              	.LVL375:
 1610 0296 FFF7FEFF 		bl	__aeabi_fmul
 1611              	.LVL376:
 1612 029a 0890     		str	r0, [sp, #32]
 1613              	.LVL377:
 127:Madgwick.c    **** 		q0q2 = q0 * q2;
 1614              		.loc 1 127 0
 1615 029c 0399     		ldr	r1, [sp, #12]
 1616 029e 381C     		adds	r0, r7, #0
ARM GAS  C:\Users\A85590\AppData\Local\Temp\cc53CFAh.s 			page 36


 1617              	.LVL378:
 1618 02a0 FFF7FEFF 		bl	__aeabi_fmul
 1619              	.LVL379:
 1620 02a4 1490     		str	r0, [sp, #80]
 1621              	.LVL380:
 128:Madgwick.c    **** 		q0q3 = q0 * q3;
 1622              		.loc 1 128 0
 1623 02a6 0399     		ldr	r1, [sp, #12]
 1624 02a8 301C     		adds	r0, r6, #0
 1625              	.LVL381:
 1626 02aa FFF7FEFF 		bl	__aeabi_fmul
 1627              	.LVL382:
 1628 02ae 1890     		str	r0, [sp, #96]
 1629              	.LVL383:
 129:Madgwick.c    **** 		q1q1 = q1 * q1;
 1630              		.loc 1 129 0
 1631 02b0 0399     		ldr	r1, [sp, #12]
 1632 02b2 281C     		adds	r0, r5, #0
 1633              	.LVL384:
 1634 02b4 FFF7FEFF 		bl	__aeabi_fmul
 1635              	.LVL385:
 1636 02b8 1F90     		str	r0, [sp, #124]
 1637              	.LVL386:
 130:Madgwick.c    **** 		q1q2 = q1 * q2;
 1638              		.loc 1 130 0
 1639 02ba 391C     		adds	r1, r7, #0
 1640 02bc 381C     		adds	r0, r7, #0
 1641              	.LVL387:
 1642 02be FFF7FEFF 		bl	__aeabi_fmul
 1643              	.LVL388:
 1644 02c2 0C90     		str	r0, [sp, #48]
 1645              	.LVL389:
 131:Madgwick.c    **** 		q1q3 = q1 * q3;
 1646              		.loc 1 131 0
 1647 02c4 311C     		adds	r1, r6, #0
 1648 02c6 381C     		adds	r0, r7, #0
 1649              	.LVL390:
 1650 02c8 FFF7FEFF 		bl	__aeabi_fmul
 1651              	.LVL391:
 1652 02cc 2090     		str	r0, [sp, #128]
 1653              	.LVL392:
 132:Madgwick.c    **** 		q2q2 = q2 * q2;
 1654              		.loc 1 132 0
 1655 02ce 291C     		adds	r1, r5, #0
 1656 02d0 381C     		adds	r0, r7, #0
 1657              	.LVL393:
 1658 02d2 FFF7FEFF 		bl	__aeabi_fmul
 1659              	.LVL394:
 1660 02d6 0F90     		str	r0, [sp, #60]
 1661              	.LVL395:
 133:Madgwick.c    **** 		q2q3 = q2 * q3;
 1662              		.loc 1 133 0
 1663 02d8 311C     		adds	r1, r6, #0
 1664 02da 301C     		adds	r0, r6, #0
 1665              	.LVL396:
 1666 02dc FFF7FEFF 		bl	__aeabi_fmul
 1667              	.LVL397:
ARM GAS  C:\Users\A85590\AppData\Local\Temp\cc53CFAh.s 			page 37


 1668 02e0 0690     		str	r0, [sp, #24]
 1669              	.LVL398:
 134:Madgwick.c    **** 		q3q3 = q3 * q3;
 1670              		.loc 1 134 0
 1671 02e2 291C     		adds	r1, r5, #0
 1672 02e4 301C     		adds	r0, r6, #0
 1673              	.LVL399:
 1674 02e6 FFF7FEFF 		bl	__aeabi_fmul
 1675              	.LVL400:
 1676 02ea 2190     		str	r0, [sp, #132]
 1677              	.LVL401:
 135:Madgwick.c    **** 
 1678              		.loc 1 135 0
 1679 02ec 291C     		adds	r1, r5, #0
 1680 02ee 281C     		adds	r0, r5, #0
 1681              	.LVL402:
 1682 02f0 FFF7FEFF 		bl	__aeabi_fmul
 1683              	.LVL403:
 1684 02f4 0390     		str	r0, [sp, #12]
 1685              	.LVL404:
 138:Madgwick.c    **** 		hy = _2q0mx * q3 + my * q0q0 - _2q0mz * q1 + _2q1mx * q2 - my * q1q1 + my * q2q2 + _2q2 * mz * q3
 1686              		.loc 1 138 0
 1687 02f6 0899     		ldr	r1, [sp, #32]
 1688 02f8 0494     		str	r4, [sp, #16]
 1689              	.LVL405:
 1690 02fa 201C     		adds	r0, r4, #0
 1691              	.LVL406:
 1692 02fc FFF7FEFF 		bl	__aeabi_fmul
 1693              	.LVL407:
 1694 0300 041C     		adds	r4, r0, #0
 1695              	.LVL408:
 1696 0302 1599     		ldr	r1, [sp, #84]
 1697 0304 281C     		adds	r0, r5, #0
 1698 0306 FFF7FEFF 		bl	__aeabi_fmul
 1699              	.LVL409:
 1700 030a 011C     		adds	r1, r0, #0
 1701 030c 201C     		adds	r0, r4, #0
 1702 030e FFF7FEFF 		bl	__aeabi_fsub
 1703              	.LVL410:
 1704 0312 041C     		adds	r4, r0, #0
 1705 0314 0D99     		ldr	r1, [sp, #52]
 1706 0316 301C     		adds	r0, r6, #0
 1707 0318 FFF7FEFF 		bl	__aeabi_fmul
 1708              	.LVL411:
 1709 031c 011C     		adds	r1, r0, #0
 1710 031e 201C     		adds	r0, r4, #0
 1711 0320 FFF7FEFF 		bl	__aeabi_fadd
 1712              	.LVL412:
 1713 0324 041C     		adds	r4, r0, #0
 1714 0326 0C99     		ldr	r1, [sp, #48]
 1715 0328 0498     		ldr	r0, [sp, #16]
 1716 032a FFF7FEFF 		bl	__aeabi_fmul
 1717              	.LVL413:
 1718 032e 011C     		adds	r1, r0, #0
 1719 0330 201C     		adds	r0, r4, #0
 1720 0332 FFF7FEFF 		bl	__aeabi_fadd
 1721              	.LVL414:
ARM GAS  C:\Users\A85590\AppData\Local\Temp\cc53CFAh.s 			page 38


 1722 0336 041C     		adds	r4, r0, #0
 1723 0338 0E99     		ldr	r1, [sp, #56]
 1724 033a 0598     		ldr	r0, [sp, #20]
 1725 033c FFF7FEFF 		bl	__aeabi_fmul
 1726              	.LVL415:
 1727 0340 011C     		adds	r1, r0, #0
 1728 0342 301C     		adds	r0, r6, #0
 1729 0344 FFF7FEFF 		bl	__aeabi_fmul
 1730              	.LVL416:
 1731 0348 011C     		adds	r1, r0, #0
 1732 034a 201C     		adds	r0, r4, #0
 1733 034c FFF7FEFF 		bl	__aeabi_fadd
 1734              	.LVL417:
 1735 0350 041C     		adds	r4, r0, #0
 1736 0352 0E99     		ldr	r1, [sp, #56]
 1737 0354 0998     		ldr	r0, [sp, #36]
 1738 0356 FFF7FEFF 		bl	__aeabi_fmul
 1739              	.LVL418:
 1740 035a 011C     		adds	r1, r0, #0
 1741 035c 281C     		adds	r0, r5, #0
 1742 035e FFF7FEFF 		bl	__aeabi_fmul
 1743              	.LVL419:
 1744 0362 011C     		adds	r1, r0, #0
 1745 0364 201C     		adds	r0, r4, #0
 1746 0366 FFF7FEFF 		bl	__aeabi_fadd
 1747              	.LVL420:
 1748 036a 041C     		adds	r4, r0, #0
 1749 036c 0699     		ldr	r1, [sp, #24]
 1750 036e 0498     		ldr	r0, [sp, #16]
 1751 0370 FFF7FEFF 		bl	__aeabi_fmul
 1752              	.LVL421:
 1753 0374 011C     		adds	r1, r0, #0
 1754 0376 201C     		adds	r0, r4, #0
 1755 0378 FFF7FEFF 		bl	__aeabi_fsub
 1756              	.LVL422:
 1757 037c 041C     		adds	r4, r0, #0
 1758 037e 0399     		ldr	r1, [sp, #12]
 1759 0380 0498     		ldr	r0, [sp, #16]
 1760 0382 FFF7FEFF 		bl	__aeabi_fmul
 1761              	.LVL423:
 1762 0386 011C     		adds	r1, r0, #0
 1763 0388 201C     		adds	r0, r4, #0
 1764 038a FFF7FEFF 		bl	__aeabi_fsub
 1765              	.LVL424:
 1766 038e 1990     		str	r0, [sp, #100]
 1767              	.LVL425:
 139:Madgwick.c    **** 		_2bx = sqrtf(hx * hx + hy * hy);
 1768              		.loc 1 139 0
 1769 0390 0799     		ldr	r1, [sp, #28]
 1770 0392 281C     		adds	r0, r5, #0
 1771              	.LVL426:
 1772 0394 FFF7FEFF 		bl	__aeabi_fmul
 1773              	.LVL427:
 1774 0398 041C     		adds	r4, r0, #0
 1775 039a 0899     		ldr	r1, [sp, #32]
 1776 039c 0598     		ldr	r0, [sp, #20]
 1777 039e FFF7FEFF 		bl	__aeabi_fmul
ARM GAS  C:\Users\A85590\AppData\Local\Temp\cc53CFAh.s 			page 39


 1778              	.LVL428:
 1779 03a2 011C     		adds	r1, r0, #0
 1780 03a4 201C     		adds	r0, r4, #0
 1781 03a6 FFF7FEFF 		bl	__aeabi_fadd
 1782              	.LVL429:
 1783 03aa 041C     		adds	r4, r0, #0
 1784 03ac 0D99     		ldr	r1, [sp, #52]
 1785 03ae 381C     		adds	r0, r7, #0
 1786 03b0 FFF7FEFF 		bl	__aeabi_fmul
 1787              	.LVL430:
 1788 03b4 011C     		adds	r1, r0, #0
 1789 03b6 201C     		adds	r0, r4, #0
 1790 03b8 FFF7FEFF 		bl	__aeabi_fsub
 1791              	.LVL431:
 1792 03bc 041C     		adds	r4, r0, #0
 1793 03be 1699     		ldr	r1, [sp, #88]
 1794 03c0 301C     		adds	r0, r6, #0
 1795 03c2 FFF7FEFF 		bl	__aeabi_fmul
 1796              	.LVL432:
 1797 03c6 011C     		adds	r1, r0, #0
 1798 03c8 201C     		adds	r0, r4, #0
 1799 03ca FFF7FEFF 		bl	__aeabi_fadd
 1800              	.LVL433:
 1801 03ce 041C     		adds	r4, r0, #0
 1802 03d0 0C99     		ldr	r1, [sp, #48]
 1803 03d2 059E     		ldr	r6, [sp, #20]
 1804 03d4 301C     		adds	r0, r6, #0
 1805 03d6 FFF7FEFF 		bl	__aeabi_fmul
 1806              	.LVL434:
 1807 03da 011C     		adds	r1, r0, #0
 1808 03dc 201C     		adds	r0, r4, #0
 1809 03de FFF7FEFF 		bl	__aeabi_fsub
 1810              	.LVL435:
 1811 03e2 041C     		adds	r4, r0, #0
 1812 03e4 0699     		ldr	r1, [sp, #24]
 1813 03e6 301C     		adds	r0, r6, #0
 1814 03e8 FFF7FEFF 		bl	__aeabi_fmul
 1815              	.LVL436:
 1816 03ec 011C     		adds	r1, r0, #0
 1817 03ee 201C     		adds	r0, r4, #0
 1818 03f0 FFF7FEFF 		bl	__aeabi_fadd
 1819              	.LVL437:
 1820 03f4 041C     		adds	r4, r0, #0
 1821 03f6 0B99     		ldr	r1, [sp, #44]
 1822 03f8 0998     		ldr	r0, [sp, #36]
 1823 03fa FFF7FEFF 		bl	__aeabi_fmul
 1824              	.LVL438:
 1825 03fe 011C     		adds	r1, r0, #0
 1826 0400 281C     		adds	r0, r5, #0
 1827 0402 FFF7FEFF 		bl	__aeabi_fmul
 1828              	.LVL439:
 1829 0406 011C     		adds	r1, r0, #0
 1830 0408 201C     		adds	r0, r4, #0
 1831 040a FFF7FEFF 		bl	__aeabi_fadd
 1832              	.LVL440:
 1833 040e 041C     		adds	r4, r0, #0
 1834 0410 0399     		ldr	r1, [sp, #12]
ARM GAS  C:\Users\A85590\AppData\Local\Temp\cc53CFAh.s 			page 40


 1835 0412 0596     		str	r6, [sp, #20]
 1836              	.LVL441:
 1837 0414 301C     		adds	r0, r6, #0
 1838 0416 FFF7FEFF 		bl	__aeabi_fmul
 1839              	.LVL442:
 1840 041a 011C     		adds	r1, r0, #0
 1841 041c 201C     		adds	r0, r4, #0
 1842 041e FFF7FEFF 		bl	__aeabi_fsub
 1843              	.LVL443:
 1844 0422 041C     		adds	r4, r0, #0
 1845              	.LVL444:
 140:Madgwick.c    **** 		_2bz = -_2q0mx * q2 + _2q0my * q1 + mz * q0q0 + _2q1mx * q3 - mz * q1q1 + _2q2 * my * q3 - mz * q
 1846              		.loc 1 140 0
 1847 0424 199F     		ldr	r7, [sp, #100]
 1848 0426 391C     		adds	r1, r7, #0
 1849 0428 381C     		adds	r0, r7, #0
 1850              	.LVL445:
 1851 042a FFF7FEFF 		bl	__aeabi_fmul
 1852              	.LVL446:
 1853 042e 051C     		adds	r5, r0, #0
 1854 0430 211C     		adds	r1, r4, #0
 1855 0432 201C     		adds	r0, r4, #0
 1856 0434 FFF7FEFF 		bl	__aeabi_fmul
 1857              	.LVL447:
 1858 0438 011C     		adds	r1, r0, #0
 1859 043a 281C     		adds	r0, r5, #0
 1860 043c FFF7FEFF 		bl	__aeabi_fadd
 1861              	.LVL448:
 1862 0440 FFF7FEFF 		bl	sqrtf
 1863              	.LVL449:
 1864 0444 071C     		adds	r7, r0, #0
 1865              	.LVL450:
 141:Madgwick.c    **** 		_4bx = 2.0f * _2bx;
 1866              		.loc 1 141 0
 1867 0446 079C     		ldr	r4, [sp, #28]
 1868              	.LVL451:
 1869 0448 8026     		movs	r6, #128
 1870              	.LVL452:
 1871 044a 3606     		lsls	r6, r6, #24
 1872 044c B446     		mov	ip, r6
 1873 044e 6444     		add	r4, r4, ip
 1874 0450 2000     		movs	r0, r4
 1875              	.LVL453:
 1876 0452 FE4E     		ldr	r6, .L37
 1877 0454 B268     		ldr	r2, [r6, #8]
 1878 0456 0792     		str	r2, [sp, #28]
 1879              	.LVL454:
 1880 0458 111C     		adds	r1, r2, #0
 1881 045a FFF7FEFF 		bl	__aeabi_fmul
 1882              	.LVL455:
 1883 045e 041C     		adds	r4, r0, #0
 1884 0460 3368     		ldr	r3, [r6]
 1885 0462 0D93     		str	r3, [sp, #52]
 1886              	.LVL456:
 1887 0464 191C     		adds	r1, r3, #0
 1888 0466 1598     		ldr	r0, [sp, #84]
 1889 0468 FFF7FEFF 		bl	__aeabi_fmul
ARM GAS  C:\Users\A85590\AppData\Local\Temp\cc53CFAh.s 			page 41


 1890              	.LVL457:
 1891 046c 011C     		adds	r1, r0, #0
 1892 046e 201C     		adds	r0, r4, #0
 1893 0470 FFF7FEFF 		bl	__aeabi_fadd
 1894              	.LVL458:
 1895 0474 041C     		adds	r4, r0, #0
 1896 0476 0899     		ldr	r1, [sp, #32]
 1897 0478 099D     		ldr	r5, [sp, #36]
 1898 047a 281C     		adds	r0, r5, #0
 1899 047c FFF7FEFF 		bl	__aeabi_fmul
 1900              	.LVL459:
 1901 0480 011C     		adds	r1, r0, #0
 1902 0482 201C     		adds	r0, r4, #0
 1903 0484 FFF7FEFF 		bl	__aeabi_fadd
 1904              	.LVL460:
 1905 0488 041C     		adds	r4, r0, #0
 1906 048a F368     		ldr	r3, [r6, #12]
 1907 048c 0893     		str	r3, [sp, #32]
 1908              	.LVL461:
 1909 048e 191C     		adds	r1, r3, #0
 1910 0490 1698     		ldr	r0, [sp, #88]
 1911 0492 FFF7FEFF 		bl	__aeabi_fmul
 1912              	.LVL462:
 1913 0496 011C     		adds	r1, r0, #0
 1914 0498 201C     		adds	r0, r4, #0
 1915 049a FFF7FEFF 		bl	__aeabi_fadd
 1916              	.LVL463:
 1917 049e 041C     		adds	r4, r0, #0
 1918 04a0 0C99     		ldr	r1, [sp, #48]
 1919 04a2 281C     		adds	r0, r5, #0
 1920 04a4 FFF7FEFF 		bl	__aeabi_fmul
 1921              	.LVL464:
 1922 04a8 011C     		adds	r1, r0, #0
 1923 04aa 201C     		adds	r0, r4, #0
 1924 04ac FFF7FEFF 		bl	__aeabi_fsub
 1925              	.LVL465:
 1926 04b0 041C     		adds	r4, r0, #0
 1927 04b2 0B99     		ldr	r1, [sp, #44]
 1928 04b4 0598     		ldr	r0, [sp, #20]
 1929 04b6 FFF7FEFF 		bl	__aeabi_fmul
 1930              	.LVL466:
 1931 04ba 011C     		adds	r1, r0, #0
 1932 04bc 0898     		ldr	r0, [sp, #32]
 1933 04be FFF7FEFF 		bl	__aeabi_fmul
 1934              	.LVL467:
 1935 04c2 011C     		adds	r1, r0, #0
 1936 04c4 201C     		adds	r0, r4, #0
 1937 04c6 FFF7FEFF 		bl	__aeabi_fadd
 1938              	.LVL468:
 1939 04ca 041C     		adds	r4, r0, #0
 1940 04cc 0699     		ldr	r1, [sp, #24]
 1941 04ce 281C     		adds	r0, r5, #0
 1942 04d0 FFF7FEFF 		bl	__aeabi_fmul
 1943              	.LVL469:
 1944 04d4 011C     		adds	r1, r0, #0
 1945 04d6 201C     		adds	r0, r4, #0
 1946 04d8 FFF7FEFF 		bl	__aeabi_fsub
ARM GAS  C:\Users\A85590\AppData\Local\Temp\cc53CFAh.s 			page 42


 1947              	.LVL470:
 1948 04dc 041C     		adds	r4, r0, #0
 1949 04de 0399     		ldr	r1, [sp, #12]
 1950 04e0 0995     		str	r5, [sp, #36]
 1951              	.LVL471:
 1952 04e2 281C     		adds	r0, r5, #0
 1953 04e4 FFF7FEFF 		bl	__aeabi_fmul
 1954              	.LVL472:
 1955 04e8 011C     		adds	r1, r0, #0
 1956 04ea 201C     		adds	r0, r4, #0
 1957 04ec FFF7FEFF 		bl	__aeabi_fadd
 1958              	.LVL473:
 1959 04f0 041C     		adds	r4, r0, #0
 1960              	.LVL474:
 142:Madgwick.c    **** 		_4bz = 2.0f * _2bz;
 1961              		.loc 1 142 0
 1962 04f2 391C     		adds	r1, r7, #0
 1963 04f4 381C     		adds	r0, r7, #0
 1964              	.LVL475:
 1965 04f6 FFF7FEFF 		bl	__aeabi_fadd
 1966              	.LVL476:
 1967 04fa 8146     		mov	r9, r0
 1968              	.LVL477:
 143:Madgwick.c    **** 
 1969              		.loc 1 143 0
 1970 04fc 211C     		adds	r1, r4, #0
 1971 04fe 201C     		adds	r0, r4, #0
 1972              	.LVL478:
 1973 0500 FFF7FEFF 		bl	__aeabi_fadd
 1974              	.LVL479:
 1975 0504 1990     		str	r0, [sp, #100]
 1976              	.LVL480:
 146:Madgwick.c    **** 		s1 = _2q3 * (2.0f * q1q3 - _2q0q2 - ax) + _2q0 * (2.0f * q0q1 + _2q2q3 - ay) - 4.0f * q1 * (1 - 2
 1977              		.loc 1 146 0
 1978 0506 0B9D     		ldr	r5, [sp, #44]
 1979 0508 A846     		mov	r8, r5
 1980 050a 8025     		movs	r5, #128
 1981 050c 2D06     		lsls	r5, r5, #24
 1982 050e AC46     		mov	ip, r5
 1983 0510 E044     		add	r8, r8, ip
 1984 0512 0F9A     		ldr	r2, [sp, #60]
 1985 0514 111C     		adds	r1, r2, #0
 1986 0516 101C     		adds	r0, r2, #0
 1987              	.LVL481:
 1988 0518 FFF7FEFF 		bl	__aeabi_fadd
 1989              	.LVL482:
 1990 051c 1D99     		ldr	r1, [sp, #116]
 1991 051e FFF7FEFF 		bl	__aeabi_fsub
 1992              	.LVL483:
 1993 0522 1A99     		ldr	r1, [sp, #104]
 1994 0524 FFF7FEFF 		bl	__aeabi_fsub
 1995              	.LVL484:
 1996 0528 1590     		str	r0, [sp, #84]
 1997              	.LVL485:
 1998 052a 011C     		adds	r1, r0, #0
 1999 052c 4046     		mov	r0, r8
 2000 052e FFF7FEFF 		bl	__aeabi_fmul
ARM GAS  C:\Users\A85590\AppData\Local\Temp\cc53CFAh.s 			page 43


 2001              	.LVL486:
 2002 0532 051C     		adds	r5, r0, #0
 2003 0534 149B     		ldr	r3, [sp, #80]
 2004 0536 191C     		adds	r1, r3, #0
 2005 0538 181C     		adds	r0, r3, #0
 2006 053a FFF7FEFF 		bl	__aeabi_fadd
 2007              	.LVL487:
 2008 053e 011C     		adds	r1, r0, #0
 2009 0540 1E98     		ldr	r0, [sp, #120]
 2010 0542 FFF7FEFF 		bl	__aeabi_fadd
 2011              	.LVL488:
 2012 0546 1B99     		ldr	r1, [sp, #108]
 2013 0548 FFF7FEFF 		bl	__aeabi_fsub
 2014              	.LVL489:
 2015 054c 1690     		str	r0, [sp, #88]
 2016              	.LVL490:
 2017 054e 011C     		adds	r1, r0, #0
 2018 0550 0E98     		ldr	r0, [sp, #56]
 2019 0552 FFF7FEFF 		bl	__aeabi_fmul
 2020              	.LVL491:
 2021 0556 011C     		adds	r1, r0, #0
 2022 0558 281C     		adds	r0, r5, #0
 2023 055a FFF7FEFF 		bl	__aeabi_fadd
 2024              	.LVL492:
 2025 055e 051C     		adds	r5, r0, #0
 2026 0560 211C     		adds	r1, r4, #0
 2027 0562 0798     		ldr	r0, [sp, #28]
 2028 0564 FFF7FEFF 		bl	__aeabi_fmul
 2029              	.LVL493:
 2030 0568 1A90     		str	r0, [sp, #104]
 2031              	.LVL494:
 2032 056a 0699     		ldr	r1, [sp, #24]
 2033 056c FC20     		movs	r0, #252
 2034 056e 8005     		lsls	r0, r0, #22
 2035 0570 FFF7FEFF 		bl	__aeabi_fsub
 2036              	.LVL495:
 2037 0574 0399     		ldr	r1, [sp, #12]
 2038 0576 FFF7FEFF 		bl	__aeabi_fsub
 2039              	.LVL496:
 2040 057a 011C     		adds	r1, r0, #0
 2041 057c 0397     		str	r7, [sp, #12]
 2042              	.LVL497:
 2043 057e 381C     		adds	r0, r7, #0
 2044 0580 FFF7FEFF 		bl	__aeabi_fmul
 2045              	.LVL498:
 2046 0584 071C     		adds	r7, r0, #0
 2047              	.LVL499:
 2048 0586 1899     		ldr	r1, [sp, #96]
 2049 0588 0F98     		ldr	r0, [sp, #60]
 2050 058a FFF7FEFF 		bl	__aeabi_fsub
 2051              	.LVL500:
 2052 058e 011C     		adds	r1, r0, #0
 2053 0590 201C     		adds	r0, r4, #0
 2054 0592 FFF7FEFF 		bl	__aeabi_fmul
 2055              	.LVL501:
 2056 0596 011C     		adds	r1, r0, #0
 2057 0598 381C     		adds	r0, r7, #0
ARM GAS  C:\Users\A85590\AppData\Local\Temp\cc53CFAh.s 			page 44


 2058 059a FFF7FEFF 		bl	__aeabi_fadd
 2059              	.LVL502:
 2060 059e 0499     		ldr	r1, [sp, #16]
 2061 05a0 FFF7FEFF 		bl	__aeabi_fsub
 2062              	.LVL503:
 2063 05a4 0490     		str	r0, [sp, #16]
 2064              	.LVL504:
 2065 05a6 011C     		adds	r1, r0, #0
 2066 05a8 1A98     		ldr	r0, [sp, #104]
 2067 05aa FFF7FEFF 		bl	__aeabi_fmul
 2068              	.LVL505:
 2069 05ae 011C     		adds	r1, r0, #0
 2070 05b0 281C     		adds	r0, r5, #0
 2071 05b2 FFF7FEFF 		bl	__aeabi_fsub
 2072              	.LVL506:
 2073 05b6 051C     		adds	r5, r0, #0
 2074 05b8 039F     		ldr	r7, [sp, #12]
 2075 05ba B846     		mov	r8, r7
 2076 05bc 8023     		movs	r3, #128
 2077 05be 1B06     		lsls	r3, r3, #24
 2078 05c0 9C46     		mov	ip, r3
 2079 05c2 E044     		add	r8, r8, ip
 2080 05c4 4746     		mov	r7, r8
 2081 05c6 1B97     		str	r7, [sp, #108]
 2082              	.LVL507:
 2083 05c8 4146     		mov	r1, r8
 2084 05ca 0898     		ldr	r0, [sp, #32]
 2085 05cc FFF7FEFF 		bl	__aeabi_fmul
 2086              	.LVL508:
 2087 05d0 071C     		adds	r7, r0, #0
 2088 05d2 211C     		adds	r1, r4, #0
 2089 05d4 0D98     		ldr	r0, [sp, #52]
 2090 05d6 FFF7FEFF 		bl	__aeabi_fmul
 2091              	.LVL509:
 2092 05da 1D90     		str	r0, [sp, #116]
 2093              	.LVL510:
 2094 05dc 011C     		adds	r1, r0, #0
 2095 05de 381C     		adds	r0, r7, #0
 2096 05e0 FFF7FEFF 		bl	__aeabi_fadd
 2097              	.LVL511:
 2098 05e4 1E90     		str	r0, [sp, #120]
 2099              	.LVL512:
 2100 05e6 1F99     		ldr	r1, [sp, #124]
 2101 05e8 2098     		ldr	r0, [sp, #128]
 2102 05ea FFF7FEFF 		bl	__aeabi_fsub
 2103              	.LVL513:
 2104 05ee 011C     		adds	r1, r0, #0
 2105 05f0 0398     		ldr	r0, [sp, #12]
 2106 05f2 FFF7FEFF 		bl	__aeabi_fmul
 2107              	.LVL514:
 2108 05f6 071C     		adds	r7, r0, #0
 2109 05f8 2199     		ldr	r1, [sp, #132]
 2110 05fa 1498     		ldr	r0, [sp, #80]
 2111 05fc FFF7FEFF 		bl	__aeabi_fadd
 2112              	.LVL515:
 2113 0600 011C     		adds	r1, r0, #0
 2114 0602 201C     		adds	r0, r4, #0
ARM GAS  C:\Users\A85590\AppData\Local\Temp\cc53CFAh.s 			page 45


 2115 0604 FFF7FEFF 		bl	__aeabi_fmul
 2116              	.LVL516:
 2117 0608 011C     		adds	r1, r0, #0
 2118 060a 381C     		adds	r0, r7, #0
 2119 060c FFF7FEFF 		bl	__aeabi_fadd
 2120              	.LVL517:
 2121 0610 0599     		ldr	r1, [sp, #20]
 2122 0612 FFF7FEFF 		bl	__aeabi_fsub
 2123              	.LVL518:
 2124 0616 0590     		str	r0, [sp, #20]
 2125              	.LVL519:
 2126 0618 011C     		adds	r1, r0, #0
 2127 061a 1E98     		ldr	r0, [sp, #120]
 2128 061c FFF7FEFF 		bl	__aeabi_fmul
 2129              	.LVL520:
 2130 0620 011C     		adds	r1, r0, #0
 2131 0622 281C     		adds	r0, r5, #0
 2132 0624 FFF7FEFF 		bl	__aeabi_fadd
 2133              	.LVL521:
 2134 0628 051C     		adds	r5, r0, #0
 2135 062a 0799     		ldr	r1, [sp, #28]
 2136 062c 039F     		ldr	r7, [sp, #12]
 2137 062e 381C     		adds	r0, r7, #0
 2138 0630 FFF7FEFF 		bl	__aeabi_fmul
 2139              	.LVL522:
 2140 0634 1490     		str	r0, [sp, #80]
 2141              	.LVL523:
 2142 0636 0F99     		ldr	r1, [sp, #60]
 2143 0638 1898     		ldr	r0, [sp, #96]
 2144 063a FFF7FEFF 		bl	__aeabi_fadd
 2145              	.LVL524:
 2146 063e 011C     		adds	r1, r0, #0
 2147 0640 0397     		str	r7, [sp, #12]
 2148              	.LVL525:
 2149 0642 381C     		adds	r0, r7, #0
 2150 0644 FFF7FEFF 		bl	__aeabi_fmul
 2151              	.LVL526:
 2152 0648 071C     		adds	r7, r0, #0
 2153              	.LVL527:
 2154 064a 0C99     		ldr	r1, [sp, #48]
 2155 064c FC20     		movs	r0, #252
 2156 064e 8005     		lsls	r0, r0, #22
 2157 0650 FFF7FEFF 		bl	__aeabi_fsub
 2158              	.LVL528:
 2159 0654 0699     		ldr	r1, [sp, #24]
 2160 0656 FFF7FEFF 		bl	__aeabi_fsub
 2161              	.LVL529:
 2162 065a 011C     		adds	r1, r0, #0
 2163 065c 201C     		adds	r0, r4, #0
 2164 065e FFF7FEFF 		bl	__aeabi_fmul
 2165              	.LVL530:
 2166 0662 011C     		adds	r1, r0, #0
 2167 0664 381C     		adds	r0, r7, #0
 2168 0666 FFF7FEFF 		bl	__aeabi_fadd
 2169              	.LVL531:
 2170 066a 0999     		ldr	r1, [sp, #36]
 2171 066c FFF7FEFF 		bl	__aeabi_fsub
ARM GAS  C:\Users\A85590\AppData\Local\Temp\cc53CFAh.s 			page 46


 2172              	.LVL532:
 2173 0670 011C     		adds	r1, r0, #0
 2174 0672 0990     		str	r0, [sp, #36]
 2175 0674 1498     		ldr	r0, [sp, #80]
 2176 0676 FFF7FEFF 		bl	__aeabi_fmul
 2177              	.LVL533:
 2178 067a 011C     		adds	r1, r0, #0
 2179 067c 281C     		adds	r0, r5, #0
 2180 067e FFF7FEFF 		bl	__aeabi_fadd
 2181              	.LVL534:
 2182 0682 0F90     		str	r0, [sp, #60]
 2183              	.LVL535:
 147:Madgwick.c    **** 		s2 = -_2q0 * (2.0f * q1q3 - _2q0q2 - ax) + _2q3 * (2.0f * q0q1 + _2q2q3 - ay) - 4.0f * q2 * (1 - 
 2184              		.loc 1 147 0
 2185 0684 1599     		ldr	r1, [sp, #84]
 2186 0686 1798     		ldr	r0, [sp, #92]
 2187              	.LVL536:
 2188 0688 FFF7FEFF 		bl	__aeabi_fmul
 2189              	.LVL537:
 2190 068c 051C     		adds	r5, r0, #0
 2191 068e 1699     		ldr	r1, [sp, #88]
 2192 0690 0A98     		ldr	r0, [sp, #40]
 2193 0692 FFF7FEFF 		bl	__aeabi_fmul
 2194              	.LVL538:
 2195 0696 011C     		adds	r1, r0, #0
 2196 0698 281C     		adds	r0, r5, #0
 2197 069a FFF7FEFF 		bl	__aeabi_fadd
 2198              	.LVL539:
 2199 069e 051C     		adds	r5, r0, #0
 2200 06a0 8121     		movs	r1, #129
 2201 06a2 C905     		lsls	r1, r1, #23
 2202 06a4 0D98     		ldr	r0, [sp, #52]
 2203 06a6 FFF7FEFF 		bl	__aeabi_fmul
 2204              	.LVL540:
 2205 06aa 071C     		adds	r7, r0, #0
 2206 06ac 0C9A     		ldr	r2, [sp, #48]
 2207 06ae 111C     		adds	r1, r2, #0
 2208 06b0 101C     		adds	r0, r2, #0
 2209 06b2 FFF7FEFF 		bl	__aeabi_fadd
 2210              	.LVL541:
 2211 06b6 011C     		adds	r1, r0, #0
 2212 06b8 FE20     		movs	r0, #254
 2213 06ba 8005     		lsls	r0, r0, #22
 2214 06bc FFF7FEFF 		bl	__aeabi_fsub
 2215              	.LVL542:
 2216 06c0 0C90     		str	r0, [sp, #48]
 2217              	.LVL543:
 2218 06c2 069B     		ldr	r3, [sp, #24]
 2219 06c4 191C     		adds	r1, r3, #0
 2220 06c6 181C     		adds	r0, r3, #0
 2221 06c8 FFF7FEFF 		bl	__aeabi_fadd
 2222              	.LVL544:
 2223 06cc 011C     		adds	r1, r0, #0
 2224 06ce 0C98     		ldr	r0, [sp, #48]
 2225 06d0 FFF7FEFF 		bl	__aeabi_fsub
 2226              	.LVL545:
 2227 06d4 1C99     		ldr	r1, [sp, #112]
ARM GAS  C:\Users\A85590\AppData\Local\Temp\cc53CFAh.s 			page 47


 2228 06d6 FFF7FEFF 		bl	__aeabi_fsub
 2229              	.LVL546:
 2230 06da 011C     		adds	r1, r0, #0
 2231 06dc 0690     		str	r0, [sp, #24]
 2232              	.LVL547:
 2233 06de 381C     		adds	r0, r7, #0
 2234 06e0 FFF7FEFF 		bl	__aeabi_fmul
 2235              	.LVL548:
 2236 06e4 011C     		adds	r1, r0, #0
 2237 06e6 281C     		adds	r0, r5, #0
 2238 06e8 FFF7FEFF 		bl	__aeabi_fsub
 2239              	.LVL549:
 2240 06ec 051C     		adds	r5, r0, #0
 2241 06ee 211C     		adds	r1, r4, #0
 2242 06f0 0898     		ldr	r0, [sp, #32]
 2243 06f2 FFF7FEFF 		bl	__aeabi_fmul
 2244              	.LVL550:
 2245 06f6 011C     		adds	r1, r0, #0
 2246 06f8 0C90     		str	r0, [sp, #48]
 2247 06fa 0498     		ldr	r0, [sp, #16]
 2248 06fc FFF7FEFF 		bl	__aeabi_fmul
 2249              	.LVL551:
 2250 0700 011C     		adds	r1, r0, #0
 2251 0702 281C     		adds	r0, r5, #0
 2252 0704 FFF7FEFF 		bl	__aeabi_fadd
 2253              	.LVL552:
 2254 0708 071C     		adds	r7, r0, #0
 2255 070a 7568     		ldr	r5, [r6, #4]
 2256 070c 291C     		adds	r1, r5, #0
 2257 070e 201C     		adds	r0, r4, #0
 2258 0710 FFF7FEFF 		bl	__aeabi_fmul
 2259              	.LVL553:
 2260 0714 1890     		str	r0, [sp, #96]
 2261              	.LVL554:
 2262 0716 011C     		adds	r1, r0, #0
 2263 0718 1498     		ldr	r0, [sp, #80]
 2264 071a FFF7FEFF 		bl	__aeabi_fadd
 2265              	.LVL555:
 2266 071e 011C     		adds	r1, r0, #0
 2267 0720 0598     		ldr	r0, [sp, #20]
 2268 0722 FFF7FEFF 		bl	__aeabi_fmul
 2269              	.LVL556:
 2270 0726 011C     		adds	r1, r0, #0
 2271 0728 381C     		adds	r0, r7, #0
 2272 072a FFF7FEFF 		bl	__aeabi_fadd
 2273              	.LVL557:
 2274 072e 071C     		adds	r7, r0, #0
 2275 0730 0899     		ldr	r1, [sp, #32]
 2276 0732 0398     		ldr	r0, [sp, #12]
 2277 0734 FFF7FEFF 		bl	__aeabi_fmul
 2278              	.LVL558:
 2279 0738 041C     		adds	r4, r0, #0
 2280              	.LVL559:
 2281 073a 1999     		ldr	r1, [sp, #100]
 2282 073c 0D98     		ldr	r0, [sp, #52]
 2283 073e FFF7FEFF 		bl	__aeabi_fmul
 2284              	.LVL560:
ARM GAS  C:\Users\A85590\AppData\Local\Temp\cc53CFAh.s 			page 48


 2285 0742 011C     		adds	r1, r0, #0
 2286 0744 201C     		adds	r0, r4, #0
 2287 0746 FFF7FEFF 		bl	__aeabi_fsub
 2288              	.LVL561:
 2289 074a 011C     		adds	r1, r0, #0
 2290 074c 0998     		ldr	r0, [sp, #36]
 2291 074e FFF7FEFF 		bl	__aeabi_fmul
 2292              	.LVL562:
 2293 0752 011C     		adds	r1, r0, #0
 2294 0754 381C     		adds	r0, r7, #0
 2295 0756 FFF7FEFF 		bl	__aeabi_fadd
 2296              	.LVL563:
 2297 075a 1490     		str	r0, [sp, #80]
 2298              	.LVL564:
 148:Madgwick.c    **** 		s3 = _2q1 * (2.0f * q1q3 - _2q0q2 - ax) + _2q2 * (2.0f * q0q1 + _2q2q3 - ay) + (-_4bx * q3 + _2bz
 2299              		.loc 1 148 0
 2300 075c 0A9C     		ldr	r4, [sp, #40]
 2301 075e 8022     		movs	r2, #128
 2302 0760 1206     		lsls	r2, r2, #24
 2303 0762 9446     		mov	ip, r2
 2304 0764 6444     		add	r4, r4, ip
 2305 0766 2100     		movs	r1, r4
 2306 0768 1598     		ldr	r0, [sp, #84]
 2307              	.LVL565:
 2308 076a FFF7FEFF 		bl	__aeabi_fmul
 2309              	.LVL566:
 2310 076e 071C     		adds	r7, r0, #0
 2311 0770 1699     		ldr	r1, [sp, #88]
 2312 0772 1798     		ldr	r0, [sp, #92]
 2313 0774 FFF7FEFF 		bl	__aeabi_fmul
 2314              	.LVL567:
 2315 0778 011C     		adds	r1, r0, #0
 2316 077a 381C     		adds	r0, r7, #0
 2317 077c FFF7FEFF 		bl	__aeabi_fadd
 2318              	.LVL568:
 2319 0780 071C     		adds	r7, r0, #0
 2320 0782 8121     		movs	r1, #129
 2321 0784 C905     		lsls	r1, r1, #23
 2322 0786 0798     		ldr	r0, [sp, #28]
 2323 0788 FFF7FEFF 		bl	__aeabi_fmul
 2324              	.LVL569:
 2325 078c 011C     		adds	r1, r0, #0
 2326 078e 0698     		ldr	r0, [sp, #24]
 2327 0790 FFF7FEFF 		bl	__aeabi_fmul
 2328              	.LVL570:
 2329 0794 011C     		adds	r1, r0, #0
 2330 0796 381C     		adds	r0, r7, #0
 2331 0798 FFF7FEFF 		bl	__aeabi_fsub
 2332              	.LVL571:
 2333 079c 061C     		adds	r6, r0, #0
 2334 079e 8024     		movs	r4, #128
 2335 07a0 2406     		lsls	r4, r4, #24
 2336 07a2 4C44     		add	r4, r4, r9
 2337 07a4 211C     		adds	r1, r4, #0
 2338 07a6 0798     		ldr	r0, [sp, #28]
 2339 07a8 FFF7FEFF 		bl	__aeabi_fmul
 2340              	.LVL572:
ARM GAS  C:\Users\A85590\AppData\Local\Temp\cc53CFAh.s 			page 49


 2341 07ac 1899     		ldr	r1, [sp, #96]
 2342 07ae FFF7FEFF 		bl	__aeabi_fsub
 2343              	.LVL573:
 2344 07b2 011C     		adds	r1, r0, #0
 2345 07b4 0498     		ldr	r0, [sp, #16]
 2346 07b6 FFF7FEFF 		bl	__aeabi_fmul
 2347              	.LVL574:
 2348 07ba 011C     		adds	r1, r0, #0
 2349 07bc 301C     		adds	r0, r6, #0
 2350 07be FFF7FEFF 		bl	__aeabi_fadd
 2351              	.LVL575:
 2352 07c2 061C     		adds	r6, r0, #0
 2353 07c4 0D99     		ldr	r1, [sp, #52]
 2354 07c6 039F     		ldr	r7, [sp, #12]
 2355 07c8 381C     		adds	r0, r7, #0
 2356 07ca FFF7FEFF 		bl	__aeabi_fmul
 2357              	.LVL576:
 2358 07ce 0390     		str	r0, [sp, #12]
 2359              	.LVL577:
 2360 07d0 011C     		adds	r1, r0, #0
 2361 07d2 0C98     		ldr	r0, [sp, #48]
 2362 07d4 FFF7FEFF 		bl	__aeabi_fadd
 2363              	.LVL578:
 2364 07d8 011C     		adds	r1, r0, #0
 2365 07da 0598     		ldr	r0, [sp, #20]
 2366 07dc FFF7FEFF 		bl	__aeabi_fmul
 2367              	.LVL579:
 2368 07e0 011C     		adds	r1, r0, #0
 2369 07e2 301C     		adds	r0, r6, #0
 2370 07e4 FFF7FEFF 		bl	__aeabi_fadd
 2371              	.LVL580:
 2372 07e8 061C     		adds	r6, r0, #0
 2373 07ea 291C     		adds	r1, r5, #0
 2374 07ec 381C     		adds	r0, r7, #0
 2375 07ee FFF7FEFF 		bl	__aeabi_fmul
 2376              	.LVL581:
 2377 07f2 071C     		adds	r7, r0, #0
 2378              	.LVL582:
 2379 07f4 1999     		ldr	r1, [sp, #100]
 2380 07f6 0798     		ldr	r0, [sp, #28]
 2381 07f8 FFF7FEFF 		bl	__aeabi_fmul
 2382              	.LVL583:
 2383 07fc 011C     		adds	r1, r0, #0
 2384 07fe 381C     		adds	r0, r7, #0
 2385 0800 FFF7FEFF 		bl	__aeabi_fsub
 2386              	.LVL584:
 2387 0804 011C     		adds	r1, r0, #0
 2388 0806 0998     		ldr	r0, [sp, #36]
 2389 0808 FFF7FEFF 		bl	__aeabi_fmul
 2390              	.LVL585:
 2391 080c 011C     		adds	r1, r0, #0
 2392 080e 301C     		adds	r0, r6, #0
 2393 0810 FFF7FEFF 		bl	__aeabi_fadd
 2394              	.LVL586:
 2395 0814 071C     		adds	r7, r0, #0
 2396              	.LVL587:
 149:Madgwick.c    **** 		recipNorm = invSqrt(s0 * s0 + s1 * s1 + s2 * s2 + s3 * s3); // normalise step magnitude
ARM GAS  C:\Users\A85590\AppData\Local\Temp\cc53CFAh.s 			page 50


 2397              		.loc 1 149 0
 2398 0816 1599     		ldr	r1, [sp, #84]
 2399 0818 0E98     		ldr	r0, [sp, #56]
 2400              	.LVL588:
 2401 081a FFF7FEFF 		bl	__aeabi_fmul
 2402              	.LVL589:
 2403 081e 061C     		adds	r6, r0, #0
 2404 0820 1699     		ldr	r1, [sp, #88]
 2405 0822 0B98     		ldr	r0, [sp, #44]
 2406 0824 FFF7FEFF 		bl	__aeabi_fmul
 2407              	.LVL590:
 2408 0828 011C     		adds	r1, r0, #0
 2409 082a 301C     		adds	r0, r6, #0
 2410 082c FFF7FEFF 		bl	__aeabi_fadd
 2411              	.LVL591:
 2412 0830 061C     		adds	r6, r0, #0
 2413 0832 211C     		adds	r1, r4, #0
 2414 0834 0898     		ldr	r0, [sp, #32]
 2415 0836 FFF7FEFF 		bl	__aeabi_fmul
 2416              	.LVL592:
 2417 083a 011C     		adds	r1, r0, #0
 2418 083c 1D98     		ldr	r0, [sp, #116]
 2419 083e FFF7FEFF 		bl	__aeabi_fadd
 2420              	.LVL593:
 2421 0842 011C     		adds	r1, r0, #0
 2422 0844 0498     		ldr	r0, [sp, #16]
 2423 0846 FFF7FEFF 		bl	__aeabi_fmul
 2424              	.LVL594:
 2425 084a 01E0     		b	.L38
 2426              	.L39:
 2427              		.align	2
 2428              	.L37:
 2429 084c 00000000 		.word	.LANCHOR0
 2430              	.L38:
 2431 0850 011C     		adds	r1, r0, #0
 2432 0852 301C     		adds	r0, r6, #0
 2433 0854 FFF7FEFF 		bl	__aeabi_fadd
 2434              	.LVL595:
 2435 0858 041C     		adds	r4, r0, #0
 2436 085a 291C     		adds	r1, r5, #0
 2437 085c 1B98     		ldr	r0, [sp, #108]
 2438 085e FFF7FEFF 		bl	__aeabi_fmul
 2439              	.LVL596:
 2440 0862 011C     		adds	r1, r0, #0
 2441 0864 1A98     		ldr	r0, [sp, #104]
 2442 0866 FFF7FEFF 		bl	__aeabi_fadd
 2443              	.LVL597:
 2444 086a 011C     		adds	r1, r0, #0
 2445 086c 0598     		ldr	r0, [sp, #20]
 2446 086e FFF7FEFF 		bl	__aeabi_fmul
 2447              	.LVL598:
 2448 0872 011C     		adds	r1, r0, #0
 2449 0874 201C     		adds	r0, r4, #0
 2450 0876 FFF7FEFF 		bl	__aeabi_fadd
 2451              	.LVL599:
 2452 087a 041C     		adds	r4, r0, #0
 2453 087c 0399     		ldr	r1, [sp, #12]
ARM GAS  C:\Users\A85590\AppData\Local\Temp\cc53CFAh.s 			page 51


 2454 087e 0998     		ldr	r0, [sp, #36]
 2455 0880 FFF7FEFF 		bl	__aeabi_fmul
 2456              	.LVL600:
 2457 0884 011C     		adds	r1, r0, #0
 2458 0886 201C     		adds	r0, r4, #0
 2459 0888 FFF7FEFF 		bl	__aeabi_fadd
 2460              	.LVL601:
 2461 088c 051C     		adds	r5, r0, #0
 2462              	.LVL602:
 150:Madgwick.c    **** 		s0 *= recipNorm;
 2463              		.loc 1 150 0
 2464 088e 0F9B     		ldr	r3, [sp, #60]
 2465 0890 191C     		adds	r1, r3, #0
 2466 0892 181C     		adds	r0, r3, #0
 2467              	.LVL603:
 2468 0894 FFF7FEFF 		bl	__aeabi_fmul
 2469              	.LVL604:
 2470 0898 041C     		adds	r4, r0, #0
 2471 089a 149E     		ldr	r6, [sp, #80]
 2472 089c 311C     		adds	r1, r6, #0
 2473 089e 301C     		adds	r0, r6, #0
 2474 08a0 FFF7FEFF 		bl	__aeabi_fmul
 2475              	.LVL605:
 2476 08a4 011C     		adds	r1, r0, #0
 2477 08a6 201C     		adds	r0, r4, #0
 2478 08a8 FFF7FEFF 		bl	__aeabi_fadd
 2479              	.LVL606:
 2480 08ac 041C     		adds	r4, r0, #0
 2481 08ae 391C     		adds	r1, r7, #0
 2482 08b0 381C     		adds	r0, r7, #0
 2483 08b2 FFF7FEFF 		bl	__aeabi_fmul
 2484              	.LVL607:
 2485 08b6 011C     		adds	r1, r0, #0
 2486 08b8 201C     		adds	r0, r4, #0
 2487 08ba FFF7FEFF 		bl	__aeabi_fadd
 2488              	.LVL608:
 2489 08be 041C     		adds	r4, r0, #0
 2490 08c0 291C     		adds	r1, r5, #0
 2491 08c2 281C     		adds	r0, r5, #0
 2492 08c4 FFF7FEFF 		bl	__aeabi_fmul
 2493              	.LVL609:
 2494 08c8 011C     		adds	r1, r0, #0
 2495 08ca 201C     		adds	r0, r4, #0
 2496 08cc FFF7FEFF 		bl	__aeabi_fadd
 2497              	.LVL610:
 2498 08d0 FFF7FEFF 		bl	invSqrt
 2499              	.LVL611:
 2500 08d4 041C     		adds	r4, r0, #0
 2501              	.LVL612:
 151:Madgwick.c    **** 		s1 *= recipNorm;
 2502              		.loc 1 151 0
 2503 08d6 011C     		adds	r1, r0, #0
 2504 08d8 0F98     		ldr	r0, [sp, #60]
 2505              	.LVL613:
 2506 08da FFF7FEFF 		bl	__aeabi_fmul
 2507              	.LVL614:
 2508 08de 0390     		str	r0, [sp, #12]
ARM GAS  C:\Users\A85590\AppData\Local\Temp\cc53CFAh.s 			page 52


 2509              	.LVL615:
 152:Madgwick.c    **** 		s2 *= recipNorm;
 2510              		.loc 1 152 0
 2511 08e0 211C     		adds	r1, r4, #0
 2512 08e2 301C     		adds	r0, r6, #0
 2513              	.LVL616:
 2514 08e4 FFF7FEFF 		bl	__aeabi_fmul
 2515              	.LVL617:
 2516 08e8 061C     		adds	r6, r0, #0
 2517              	.LVL618:
 153:Madgwick.c    **** 		s3 *= recipNorm;
 2518              		.loc 1 153 0
 2519 08ea 211C     		adds	r1, r4, #0
 2520 08ec 381C     		adds	r0, r7, #0
 2521              	.LVL619:
 2522 08ee FFF7FEFF 		bl	__aeabi_fmul
 2523              	.LVL620:
 2524 08f2 071C     		adds	r7, r0, #0
 2525              	.LVL621:
 154:Madgwick.c    **** 
 2526              		.loc 1 154 0
 2527 08f4 211C     		adds	r1, r4, #0
 2528 08f6 281C     		adds	r0, r5, #0
 2529              	.LVL622:
 2530 08f8 FFF7FEFF 		bl	__aeabi_fmul
 2531              	.LVL623:
 2532 08fc 051C     		adds	r5, r0, #0
 2533              	.LVL624:
 157:Madgwick.c    **** 		qDot2 -= beta * s1;
 2534              		.loc 1 157 0
 2535 08fe 434B     		ldr	r3, .L40
 2536 0900 1C6A     		ldr	r4, [r3, #32]
 2537              	.LVL625:
 2538 0902 211C     		adds	r1, r4, #0
 2539 0904 0398     		ldr	r0, [sp, #12]
 2540              	.LVL626:
 2541 0906 FFF7FEFF 		bl	__aeabi_fmul
 2542              	.LVL627:
 2543 090a 011C     		adds	r1, r0, #0
 2544 090c 1098     		ldr	r0, [sp, #64]
 2545 090e FFF7FEFF 		bl	__aeabi_fsub
 2546              	.LVL628:
 2547 0912 1090     		str	r0, [sp, #64]
 2548              	.LVL629:
 158:Madgwick.c    **** 		qDot3 -= beta * s2;
 2549              		.loc 1 158 0
 2550 0914 211C     		adds	r1, r4, #0
 2551 0916 301C     		adds	r0, r6, #0
 2552              	.LVL630:
 2553 0918 FFF7FEFF 		bl	__aeabi_fmul
 2554              	.LVL631:
 2555 091c 011C     		adds	r1, r0, #0
 2556 091e 1198     		ldr	r0, [sp, #68]
 2557 0920 FFF7FEFF 		bl	__aeabi_fsub
 2558              	.LVL632:
 2559 0924 1190     		str	r0, [sp, #68]
 2560              	.LVL633:
ARM GAS  C:\Users\A85590\AppData\Local\Temp\cc53CFAh.s 			page 53


 159:Madgwick.c    **** 		qDot4 -= beta * s3;
 2561              		.loc 1 159 0
 2562 0926 211C     		adds	r1, r4, #0
 2563 0928 381C     		adds	r0, r7, #0
 2564              	.LVL634:
 2565 092a FFF7FEFF 		bl	__aeabi_fmul
 2566              	.LVL635:
 2567 092e 011C     		adds	r1, r0, #0
 2568 0930 1298     		ldr	r0, [sp, #72]
 2569 0932 FFF7FEFF 		bl	__aeabi_fsub
 2570              	.LVL636:
 2571 0936 1290     		str	r0, [sp, #72]
 2572              	.LVL637:
 160:Madgwick.c    **** 	}
 2573              		.loc 1 160 0
 2574 0938 211C     		adds	r1, r4, #0
 2575 093a 281C     		adds	r0, r5, #0
 2576              	.LVL638:
 2577 093c FFF7FEFF 		bl	__aeabi_fmul
 2578              	.LVL639:
 2579 0940 011C     		adds	r1, r0, #0
 2580 0942 1398     		ldr	r0, [sp, #76]
 2581 0944 FFF7FEFF 		bl	__aeabi_fsub
 2582              	.LVL640:
 2583 0948 1390     		str	r0, [sp, #76]
 2584              	.LVL641:
 2585              	.L29:
 164:Madgwick.c    **** 	q1 += qDot2 * invSampleFreq;
 2586              		.loc 1 164 0
 2587 094a 304D     		ldr	r5, .L40
 2588 094c 6C6A     		ldr	r4, [r5, #36]
 2589 094e 211C     		adds	r1, r4, #0
 2590 0950 1098     		ldr	r0, [sp, #64]
 2591 0952 FFF7FEFF 		bl	__aeabi_fmul
 2592              	.LVL642:
 2593 0956 6968     		ldr	r1, [r5, #4]
 2594 0958 FFF7FEFF 		bl	__aeabi_fadd
 2595              	.LVL643:
 2596 095c 071C     		adds	r7, r0, #0
 165:Madgwick.c    **** 	q2 += qDot3 * invSampleFreq;
 2597              		.loc 1 165 0
 2598 095e 211C     		adds	r1, r4, #0
 2599 0960 1198     		ldr	r0, [sp, #68]
 2600 0962 FFF7FEFF 		bl	__aeabi_fmul
 2601              	.LVL644:
 2602 0966 2968     		ldr	r1, [r5]
 2603 0968 FFF7FEFF 		bl	__aeabi_fadd
 2604              	.LVL645:
 2605 096c 061C     		adds	r6, r0, #0
 166:Madgwick.c    **** 	q3 += qDot4 * invSampleFreq;
 2606              		.loc 1 166 0
 2607 096e 211C     		adds	r1, r4, #0
 2608 0970 1298     		ldr	r0, [sp, #72]
 2609 0972 FFF7FEFF 		bl	__aeabi_fmul
 2610              	.LVL646:
 2611 0976 A968     		ldr	r1, [r5, #8]
 2612 0978 FFF7FEFF 		bl	__aeabi_fadd
ARM GAS  C:\Users\A85590\AppData\Local\Temp\cc53CFAh.s 			page 54


 2613              	.LVL647:
 2614 097c 0390     		str	r0, [sp, #12]
 167:Madgwick.c    **** 
 2615              		.loc 1 167 0
 2616 097e 211C     		adds	r1, r4, #0
 2617 0980 1398     		ldr	r0, [sp, #76]
 2618 0982 FFF7FEFF 		bl	__aeabi_fmul
 2619              	.LVL648:
 2620 0986 E968     		ldr	r1, [r5, #12]
 2621 0988 FFF7FEFF 		bl	__aeabi_fadd
 2622              	.LVL649:
 2623 098c 0490     		str	r0, [sp, #16]
 170:Madgwick.c    **** 	q0 *= recipNorm;
 2624              		.loc 1 170 0
 2625 098e 391C     		adds	r1, r7, #0
 2626 0990 381C     		adds	r0, r7, #0
 2627 0992 FFF7FEFF 		bl	__aeabi_fmul
 2628              	.LVL650:
 2629 0996 041C     		adds	r4, r0, #0
 2630 0998 311C     		adds	r1, r6, #0
 2631 099a 301C     		adds	r0, r6, #0
 2632 099c FFF7FEFF 		bl	__aeabi_fmul
 2633              	.LVL651:
 2634 09a0 011C     		adds	r1, r0, #0
 2635 09a2 201C     		adds	r0, r4, #0
 2636 09a4 FFF7FEFF 		bl	__aeabi_fadd
 2637              	.LVL652:
 2638 09a8 041C     		adds	r4, r0, #0
 2639 09aa 039A     		ldr	r2, [sp, #12]
 2640 09ac 111C     		adds	r1, r2, #0
 2641 09ae 101C     		adds	r0, r2, #0
 2642 09b0 FFF7FEFF 		bl	__aeabi_fmul
 2643              	.LVL653:
 2644 09b4 011C     		adds	r1, r0, #0
 2645 09b6 201C     		adds	r0, r4, #0
 2646 09b8 FFF7FEFF 		bl	__aeabi_fadd
 2647              	.LVL654:
 2648 09bc 041C     		adds	r4, r0, #0
 2649 09be 049B     		ldr	r3, [sp, #16]
 2650 09c0 191C     		adds	r1, r3, #0
 2651 09c2 181C     		adds	r0, r3, #0
 2652 09c4 FFF7FEFF 		bl	__aeabi_fmul
 2653              	.LVL655:
 2654 09c8 011C     		adds	r1, r0, #0
 2655 09ca 201C     		adds	r0, r4, #0
 2656 09cc FFF7FEFF 		bl	__aeabi_fadd
 2657              	.LVL656:
 2658 09d0 FFF7FEFF 		bl	invSqrt
 2659              	.LVL657:
 2660 09d4 041C     		adds	r4, r0, #0
 2661              	.LVL658:
 171:Madgwick.c    **** 	q1 *= recipNorm;
 2662              		.loc 1 171 0
 2663 09d6 011C     		adds	r1, r0, #0
 2664 09d8 381C     		adds	r0, r7, #0
 2665              	.LVL659:
 2666 09da FFF7FEFF 		bl	__aeabi_fmul
ARM GAS  C:\Users\A85590\AppData\Local\Temp\cc53CFAh.s 			page 55


 2667              	.LVL660:
 2668 09de 6860     		str	r0, [r5, #4]
 172:Madgwick.c    **** 	q2 *= recipNorm;
 2669              		.loc 1 172 0
 2670 09e0 211C     		adds	r1, r4, #0
 2671 09e2 301C     		adds	r0, r6, #0
 2672 09e4 FFF7FEFF 		bl	__aeabi_fmul
 2673              	.LVL661:
 2674 09e8 2860     		str	r0, [r5]
 173:Madgwick.c    **** 	q3 *= recipNorm;
 2675              		.loc 1 173 0
 2676 09ea 211C     		adds	r1, r4, #0
 2677 09ec 0398     		ldr	r0, [sp, #12]
 2678 09ee FFF7FEFF 		bl	__aeabi_fmul
 2679              	.LVL662:
 2680 09f2 A860     		str	r0, [r5, #8]
 174:Madgwick.c    **** 	anglesComputed = 0;
 2681              		.loc 1 174 0
 2682 09f4 211C     		adds	r1, r4, #0
 2683 09f6 0498     		ldr	r0, [sp, #16]
 2684 09f8 FFF7FEFF 		bl	__aeabi_fmul
 2685              	.LVL663:
 2686 09fc E860     		str	r0, [r5, #12]
 175:Madgwick.c    **** }
 2687              		.loc 1 175 0
 2688 09fe 0023     		movs	r3, #0
 2689 0a00 2B77     		strb	r3, [r5, #28]
 2690              	.LVL664:
 2691              	.L22:
 176:Madgwick.c    **** 
 2692              		.loc 1 176 0
 2693 0a02 23B0     		add	sp, sp, #140
 2694              		@ sp needed
 2695 0a04 0CBC     		pop	{r2, r3}
 2696 0a06 9046     		mov	r8, r2
 2697 0a08 9946     		mov	r9, r3
 2698 0a0a F0BD     		pop	{r4, r5, r6, r7, pc}
 2699              	.L41:
 2700              		.align	2
 2701              	.L40:
 2702 0a0c 00000000 		.word	.LANCHOR0
 2703              		.cfi_endproc
 2704              	.LFE3:
 2705              		.size	Madgwick_update, .-Madgwick_update
 2706              		.section	.text.getRoll,"ax",%progbits
 2707              		.align	2
 2708              		.global	getRoll
 2709              		.code	16
 2710              		.thumb_func
 2711              		.type	getRoll, %function
 2712              	getRoll:
 2713              	.LFB7:
 282:Madgwick.c    **** 
 283:Madgwick.c    ****     //float getPitch(){return atan2f(2.0f * q2 * q3 - 2.0f * q0 * q1, 2.0f * q0 * q0 + 2.0f * q3 * 
 284:Madgwick.c    ****     //float getRoll(){return -1.0f * asinf(2.0f * q1 * q3 + 2.0f * q0 * q2);};
 285:Madgwick.c    ****     //float getYaw(){return atan2f(2.0f * q1 * q2 - 2.0f * q0 * q3, 2.0f * q0 * q0 + 2.0f * q1 * q1
 286:Madgwick.c    ****     float getRoll() {
ARM GAS  C:\Users\A85590\AppData\Local\Temp\cc53CFAh.s 			page 56


 2714              		.loc 1 286 0
 2715              		.cfi_startproc
 2716              		@ args = 0, pretend = 0, frame = 0
 2717              		@ frame_needed = 0, uses_anonymous_args = 0
 2718 0000 10B5     		push	{r4, lr}
 2719              		.cfi_def_cfa_offset 8
 2720              		.cfi_offset 4, -8
 2721              		.cfi_offset 14, -4
 287:Madgwick.c    ****         if (!anglesComputed) computeAngles();
 2722              		.loc 1 287 0
 2723 0002 064B     		ldr	r3, .L44
 2724 0004 1B7F     		ldrb	r3, [r3, #28]
 2725 0006 002B     		cmp	r3, #0
 2726 0008 01D1     		bne	.L43
 2727              		.loc 1 287 0 is_stmt 0 discriminator 1
 2728 000a FFF7FEFF 		bl	computeAngles
 2729              	.LVL665:
 2730              	.L43:
 288:Madgwick.c    ****         return roll * 57.29578f;
 2731              		.loc 1 288 0 is_stmt 1
 2732 000e 034B     		ldr	r3, .L44
 2733 0010 1869     		ldr	r0, [r3, #16]
 2734 0012 0349     		ldr	r1, .L44+4
 2735 0014 FFF7FEFF 		bl	__aeabi_fmul
 2736              	.LVL666:
 289:Madgwick.c    ****     }
 2737              		.loc 1 289 0
 2738              		@ sp needed
 2739 0018 10BD     		pop	{r4, pc}
 2740              	.L45:
 2741 001a C046     		.align	2
 2742              	.L44:
 2743 001c 00000000 		.word	.LANCHOR0
 2744 0020 E12E6542 		.word	1113927393
 2745              		.cfi_endproc
 2746              	.LFE7:
 2747              		.size	getRoll, .-getRoll
 2748              		.section	.text.getPitch,"ax",%progbits
 2749              		.align	2
 2750              		.global	getPitch
 2751              		.code	16
 2752              		.thumb_func
 2753              		.type	getPitch, %function
 2754              	getPitch:
 2755              	.LFB8:
 290:Madgwick.c    ****     float getPitch() {
 2756              		.loc 1 290 0
 2757              		.cfi_startproc
 2758              		@ args = 0, pretend = 0, frame = 0
 2759              		@ frame_needed = 0, uses_anonymous_args = 0
 2760 0000 10B5     		push	{r4, lr}
 2761              		.cfi_def_cfa_offset 8
 2762              		.cfi_offset 4, -8
 2763              		.cfi_offset 14, -4
 291:Madgwick.c    ****         if (!anglesComputed) computeAngles();
 2764              		.loc 1 291 0
 2765 0002 064B     		ldr	r3, .L48
ARM GAS  C:\Users\A85590\AppData\Local\Temp\cc53CFAh.s 			page 57


 2766 0004 1B7F     		ldrb	r3, [r3, #28]
 2767 0006 002B     		cmp	r3, #0
 2768 0008 01D1     		bne	.L47
 2769              		.loc 1 291 0 is_stmt 0 discriminator 1
 2770 000a FFF7FEFF 		bl	computeAngles
 2771              	.LVL667:
 2772              	.L47:
 292:Madgwick.c    ****         return pitch * 57.29578f;
 2773              		.loc 1 292 0 is_stmt 1
 2774 000e 034B     		ldr	r3, .L48
 2775 0010 5869     		ldr	r0, [r3, #20]
 2776 0012 0349     		ldr	r1, .L48+4
 2777 0014 FFF7FEFF 		bl	__aeabi_fmul
 2778              	.LVL668:
 293:Madgwick.c    ****     }
 2779              		.loc 1 293 0
 2780              		@ sp needed
 2781 0018 10BD     		pop	{r4, pc}
 2782              	.L49:
 2783 001a C046     		.align	2
 2784              	.L48:
 2785 001c 00000000 		.word	.LANCHOR0
 2786 0020 E12E6542 		.word	1113927393
 2787              		.cfi_endproc
 2788              	.LFE8:
 2789              		.size	getPitch, .-getPitch
 2790              		.section	.text.getYaw,"ax",%progbits
 2791              		.align	2
 2792              		.global	getYaw
 2793              		.code	16
 2794              		.thumb_func
 2795              		.type	getYaw, %function
 2796              	getYaw:
 2797              	.LFB9:
 294:Madgwick.c    ****     float getYaw() {
 2798              		.loc 1 294 0
 2799              		.cfi_startproc
 2800              		@ args = 0, pretend = 0, frame = 0
 2801              		@ frame_needed = 0, uses_anonymous_args = 0
 2802 0000 10B5     		push	{r4, lr}
 2803              		.cfi_def_cfa_offset 8
 2804              		.cfi_offset 4, -8
 2805              		.cfi_offset 14, -4
 295:Madgwick.c    ****         if (!anglesComputed) computeAngles();
 2806              		.loc 1 295 0
 2807 0002 074B     		ldr	r3, .L52
 2808 0004 1B7F     		ldrb	r3, [r3, #28]
 2809 0006 002B     		cmp	r3, #0
 2810 0008 01D1     		bne	.L51
 2811              		.loc 1 295 0 is_stmt 0 discriminator 1
 2812 000a FFF7FEFF 		bl	computeAngles
 2813              	.LVL669:
 2814              	.L51:
 296:Madgwick.c    ****         return yaw * 57.29578f + 180.0f;
 2815              		.loc 1 296 0 is_stmt 1
 2816 000e 0549     		ldr	r1, .L52+4
 2817 0010 034B     		ldr	r3, .L52
ARM GAS  C:\Users\A85590\AppData\Local\Temp\cc53CFAh.s 			page 58


 2818 0012 9869     		ldr	r0, [r3, #24]
 2819 0014 FFF7FEFF 		bl	__aeabi_fmul
 2820              	.LVL670:
 2821 0018 0349     		ldr	r1, .L52+8
 2822 001a FFF7FEFF 		bl	__aeabi_fadd
 2823              	.LVL671:
 297:Madgwick.c    ****     }
 2824              		.loc 1 297 0
 2825              		@ sp needed
 2826 001e 10BD     		pop	{r4, pc}
 2827              	.L53:
 2828              		.align	2
 2829              	.L52:
 2830 0020 00000000 		.word	.LANCHOR0
 2831 0024 E12E6542 		.word	1113927393
 2832 0028 00003443 		.word	1127481344
 2833              		.cfi_endproc
 2834              	.LFE9:
 2835              		.size	getYaw, .-getYaw
 2836              		.section	.text.getRollRadians,"ax",%progbits
 2837              		.align	2
 2838              		.global	getRollRadians
 2839              		.code	16
 2840              		.thumb_func
 2841              		.type	getRollRadians, %function
 2842              	getRollRadians:
 2843              	.LFB10:
 298:Madgwick.c    ****     float getRollRadians() {
 2844              		.loc 1 298 0
 2845              		.cfi_startproc
 2846              		@ args = 0, pretend = 0, frame = 0
 2847              		@ frame_needed = 0, uses_anonymous_args = 0
 2848 0000 10B5     		push	{r4, lr}
 2849              		.cfi_def_cfa_offset 8
 2850              		.cfi_offset 4, -8
 2851              		.cfi_offset 14, -4
 299:Madgwick.c    ****         if (!anglesComputed) computeAngles();
 2852              		.loc 1 299 0
 2853 0002 044B     		ldr	r3, .L56
 2854 0004 1B7F     		ldrb	r3, [r3, #28]
 2855 0006 002B     		cmp	r3, #0
 2856 0008 01D1     		bne	.L55
 2857              		.loc 1 299 0 is_stmt 0 discriminator 1
 2858 000a FFF7FEFF 		bl	computeAngles
 2859              	.LVL672:
 2860              	.L55:
 300:Madgwick.c    ****         return roll;
 2861              		.loc 1 300 0 is_stmt 1
 2862 000e 014B     		ldr	r3, .L56
 2863 0010 1869     		ldr	r0, [r3, #16]
 301:Madgwick.c    ****     }
 2864              		.loc 1 301 0
 2865              		@ sp needed
 2866 0012 10BD     		pop	{r4, pc}
 2867              	.L57:
 2868              		.align	2
 2869              	.L56:
ARM GAS  C:\Users\A85590\AppData\Local\Temp\cc53CFAh.s 			page 59


 2870 0014 00000000 		.word	.LANCHOR0
 2871              		.cfi_endproc
 2872              	.LFE10:
 2873              		.size	getRollRadians, .-getRollRadians
 2874              		.section	.text.getPitchRadians,"ax",%progbits
 2875              		.align	2
 2876              		.global	getPitchRadians
 2877              		.code	16
 2878              		.thumb_func
 2879              		.type	getPitchRadians, %function
 2880              	getPitchRadians:
 2881              	.LFB11:
 302:Madgwick.c    ****     float getPitchRadians() {
 2882              		.loc 1 302 0
 2883              		.cfi_startproc
 2884              		@ args = 0, pretend = 0, frame = 0
 2885              		@ frame_needed = 0, uses_anonymous_args = 0
 2886 0000 10B5     		push	{r4, lr}
 2887              		.cfi_def_cfa_offset 8
 2888              		.cfi_offset 4, -8
 2889              		.cfi_offset 14, -4
 303:Madgwick.c    ****         if (!anglesComputed) computeAngles();
 2890              		.loc 1 303 0
 2891 0002 044B     		ldr	r3, .L60
 2892 0004 1B7F     		ldrb	r3, [r3, #28]
 2893 0006 002B     		cmp	r3, #0
 2894 0008 01D1     		bne	.L59
 2895              		.loc 1 303 0 is_stmt 0 discriminator 1
 2896 000a FFF7FEFF 		bl	computeAngles
 2897              	.LVL673:
 2898              	.L59:
 304:Madgwick.c    ****         return pitch;
 2899              		.loc 1 304 0 is_stmt 1
 2900 000e 014B     		ldr	r3, .L60
 2901 0010 5869     		ldr	r0, [r3, #20]
 305:Madgwick.c    ****     }
 2902              		.loc 1 305 0
 2903              		@ sp needed
 2904 0012 10BD     		pop	{r4, pc}
 2905              	.L61:
 2906              		.align	2
 2907              	.L60:
 2908 0014 00000000 		.word	.LANCHOR0
 2909              		.cfi_endproc
 2910              	.LFE11:
 2911              		.size	getPitchRadians, .-getPitchRadians
 2912              		.section	.text.getYawRadians,"ax",%progbits
 2913              		.align	2
 2914              		.global	getYawRadians
 2915              		.code	16
 2916              		.thumb_func
 2917              		.type	getYawRadians, %function
 2918              	getYawRadians:
 2919              	.LFB12:
 306:Madgwick.c    ****     float getYawRadians() {
 2920              		.loc 1 306 0
 2921              		.cfi_startproc
ARM GAS  C:\Users\A85590\AppData\Local\Temp\cc53CFAh.s 			page 60


 2922              		@ args = 0, pretend = 0, frame = 0
 2923              		@ frame_needed = 0, uses_anonymous_args = 0
 2924 0000 10B5     		push	{r4, lr}
 2925              		.cfi_def_cfa_offset 8
 2926              		.cfi_offset 4, -8
 2927              		.cfi_offset 14, -4
 307:Madgwick.c    ****         if (!anglesComputed) computeAngles();
 2928              		.loc 1 307 0
 2929 0002 044B     		ldr	r3, .L64
 2930 0004 1B7F     		ldrb	r3, [r3, #28]
 2931 0006 002B     		cmp	r3, #0
 2932 0008 01D1     		bne	.L63
 2933              		.loc 1 307 0 is_stmt 0 discriminator 1
 2934 000a FFF7FEFF 		bl	computeAngles
 2935              	.LVL674:
 2936              	.L63:
 308:Madgwick.c    ****         return yaw;
 2937              		.loc 1 308 0 is_stmt 1
 2938 000e 014B     		ldr	r3, .L64
 2939 0010 9869     		ldr	r0, [r3, #24]
 309:Madgwick.c    ****     }
 2940              		.loc 1 309 0
 2941              		@ sp needed
 2942 0012 10BD     		pop	{r4, pc}
 2943              	.L65:
 2944              		.align	2
 2945              	.L64:
 2946 0014 00000000 		.word	.LANCHOR0
 2947              		.cfi_endproc
 2948              	.LFE12:
 2949              		.size	getYawRadians, .-getYawRadians
 2950              		.section	.text.getQuaternion,"ax",%progbits
 2951              		.align	2
 2952              		.global	getQuaternion
 2953              		.code	16
 2954              		.thumb_func
 2955              		.type	getQuaternion, %function
 2956              	getQuaternion:
 2957              	.LFB13:
 310:Madgwick.c    **** 	void getQuaternion(float *w, float *x, float *y, float *z) {
 2958              		.loc 1 310 0
 2959              		.cfi_startproc
 2960              		@ args = 0, pretend = 0, frame = 0
 2961              		@ frame_needed = 0, uses_anonymous_args = 0
 2962              	.LVL675:
 2963 0000 30B5     		push	{r4, r5, lr}
 2964              		.cfi_def_cfa_offset 12
 2965              		.cfi_offset 4, -12
 2966              		.cfi_offset 5, -8
 2967              		.cfi_offset 14, -4
 311:Madgwick.c    ****        *w = q0;
 2968              		.loc 1 311 0
 2969 0002 054C     		ldr	r4, .L67
 2970 0004 6568     		ldr	r5, [r4, #4]
 2971 0006 0560     		str	r5, [r0]
 312:Madgwick.c    ****        *x = q1;
 2972              		.loc 1 312 0
ARM GAS  C:\Users\A85590\AppData\Local\Temp\cc53CFAh.s 			page 61


 2973 0008 2068     		ldr	r0, [r4]
 2974              	.LVL676:
 2975 000a 0860     		str	r0, [r1]
 313:Madgwick.c    ****        *y = q2;
 2976              		.loc 1 313 0
 2977 000c A168     		ldr	r1, [r4, #8]
 2978              	.LVL677:
 2979 000e 1160     		str	r1, [r2]
 314:Madgwick.c    ****        *z = q3;
 2980              		.loc 1 314 0
 2981 0010 E268     		ldr	r2, [r4, #12]
 2982              	.LVL678:
 2983 0012 1A60     		str	r2, [r3]
 315:Madgwick.c    ****    }...
 2984              		.loc 1 315 0
 2985              		@ sp needed
 2986 0014 30BD     		pop	{r4, r5, pc}
 2987              	.L68:
 2988 0016 C046     		.align	2
 2989              	.L67:
 2990 0018 00000000 		.word	.LANCHOR0
 2991              		.cfi_endproc
 2992              	.LFE13:
 2993              		.size	getQuaternion, .-getQuaternion
 2994              		.bss
 2995              		.align	2
 2996              		.set	.LANCHOR0,. + 0
 2997              		.type	q1, %object
 2998              		.size	q1, 4
 2999              	q1:
 3000 0000 00000000 		.space	4
 3001              		.type	q0, %object
 3002              		.size	q0, 4
 3003              	q0:
 3004 0004 00000000 		.space	4
 3005              		.type	q2, %object
 3006              		.size	q2, 4
 3007              	q2:
 3008 0008 00000000 		.space	4
 3009              		.type	q3, %object
 3010              		.size	q3, 4
 3011              	q3:
 3012 000c 00000000 		.space	4
 3013              		.type	roll, %object
 3014              		.size	roll, 4
 3015              	roll:
 3016 0010 00000000 		.space	4
 3017              		.type	pitch, %object
 3018              		.size	pitch, 4
 3019              	pitch:
 3020 0014 00000000 		.space	4
 3021              		.type	yaw, %object
 3022              		.size	yaw, 4
 3023              	yaw:
 3024 0018 00000000 		.space	4
 3025              		.type	anglesComputed, %object
 3026              		.size	anglesComputed, 1
ARM GAS  C:\Users\A85590\AppData\Local\Temp\cc53CFAh.s 			page 62


 3027              	anglesComputed:
 3028 001c 00       		.space	1
 3029 001d 000000   		.space	3
 3030              		.type	beta, %object
 3031              		.size	beta, 4
 3032              	beta:
 3033 0020 00000000 		.space	4
 3034              		.type	invSampleFreq, %object
 3035              		.size	invSampleFreq, 4
 3036              	invSampleFreq:
 3037 0024 00000000 		.space	4
 3038              		.text
 3039              	.Letext0:
 3040              		.file 2 "c:\\program files (x86)\\cypress\\psoc creator\\4.1\\psoc creator\\import\\gnu\\arm\\5.4.
 3041              		.section	.debug_info,"",%progbits
 3042              	.Ldebug_info0:
 3043 0000 29080000 		.4byte	0x829
 3044 0004 0400     		.2byte	0x4
 3045 0006 00000000 		.4byte	.Ldebug_abbrev0
 3046 000a 04       		.byte	0x4
 3047 000b 01       		.uleb128 0x1
 3048 000c 16000000 		.4byte	.LASF68
 3049 0010 0C       		.byte	0xc
 3050 0011 61010000 		.4byte	.LASF69
 3051 0015 B4010000 		.4byte	.LASF70
 3052 0019 00000000 		.4byte	.Ldebug_ranges0+0
 3053 001d 00000000 		.4byte	0
 3054 0021 00000000 		.4byte	.Ldebug_line0
 3055 0025 02       		.uleb128 0x2
 3056 0026 04       		.byte	0x4
 3057 0027 04       		.byte	0x4
 3058 0028 7A020000 		.4byte	.LASF0
 3059 002c 03       		.uleb128 0x3
 3060 002d 04       		.byte	0x4
 3061 002e 05       		.byte	0x5
 3062 002f 696E7400 		.ascii	"int\000"
 3063 0033 02       		.uleb128 0x2
 3064 0034 04       		.byte	0x4
 3065 0035 07       		.byte	0x7
 3066 0036 45010000 		.4byte	.LASF1
 3067 003a 02       		.uleb128 0x2
 3068 003b 08       		.byte	0x8
 3069 003c 05       		.byte	0x5
 3070 003d DA000000 		.4byte	.LASF2
 3071 0041 02       		.uleb128 0x2
 3072 0042 08       		.byte	0x8
 3073 0043 04       		.byte	0x4
 3074 0044 46020000 		.4byte	.LASF3
 3075 0048 02       		.uleb128 0x2
 3076 0049 01       		.byte	0x1
 3077 004a 06       		.byte	0x6
 3078 004b E8000000 		.4byte	.LASF4
 3079 004f 02       		.uleb128 0x2
 3080 0050 01       		.byte	0x1
 3081 0051 08       		.byte	0x8
 3082 0052 95020000 		.4byte	.LASF5
 3083 0056 02       		.uleb128 0x2
ARM GAS  C:\Users\A85590\AppData\Local\Temp\cc53CFAh.s 			page 63


 3084 0057 02       		.byte	0x2
 3085 0058 05       		.byte	0x5
 3086 0059 AA020000 		.4byte	.LASF6
 3087 005d 02       		.uleb128 0x2
 3088 005e 02       		.byte	0x2
 3089 005f 07       		.byte	0x7
 3090 0060 7E010000 		.4byte	.LASF7
 3091 0064 02       		.uleb128 0x2
 3092 0065 04       		.byte	0x4
 3093 0066 05       		.byte	0x5
 3094 0067 F4000000 		.4byte	.LASF8
 3095 006b 02       		.uleb128 0x2
 3096 006c 04       		.byte	0x4
 3097 006d 07       		.byte	0x7
 3098 006e 6C010000 		.4byte	.LASF9
 3099 0072 02       		.uleb128 0x2
 3100 0073 08       		.byte	0x8
 3101 0074 07       		.byte	0x7
 3102 0075 A4000000 		.4byte	.LASF10
 3103 0079 02       		.uleb128 0x2
 3104 007a 04       		.byte	0x4
 3105 007b 07       		.byte	0x7
 3106 007c 3D020000 		.4byte	.LASF11
 3107 0080 02       		.uleb128 0x2
 3108 0081 01       		.byte	0x1
 3109 0082 08       		.byte	0x8
 3110 0083 D7020000 		.4byte	.LASF12
 3111 0087 02       		.uleb128 0x2
 3112 0088 08       		.byte	0x8
 3113 0089 04       		.byte	0x4
 3114 008a FD000000 		.4byte	.LASF13
 3115 008e 04       		.uleb128 0x4
 3116 008f 26020000 		.4byte	.LASF71
 3117 0093 01       		.byte	0x1
 3118 0094 0501     		.2byte	0x105
 3119 0096 25000000 		.4byte	0x25
 3120 009a 00000000 		.4byte	.LFB5
 3121 009e 60000000 		.4byte	.LFE5-.LFB5
 3122 00a2 01       		.uleb128 0x1
 3123 00a3 9C       		.byte	0x9c
 3124 00a4 E3000000 		.4byte	0xe3
 3125 00a8 05       		.uleb128 0x5
 3126 00a9 7800     		.ascii	"x\000"
 3127 00ab 01       		.byte	0x1
 3128 00ac 0501     		.2byte	0x105
 3129 00ae 25000000 		.4byte	0x25
 3130 00b2 00000000 		.4byte	.LLST0
 3131 00b6 06       		.uleb128 0x6
 3132 00b7 13010000 		.4byte	.LASF14
 3133 00bb 01       		.byte	0x1
 3134 00bc 0701     		.2byte	0x107
 3135 00be 25000000 		.4byte	0x25
 3136 00c2 2E000000 		.4byte	.LLST1
 3137 00c6 07       		.uleb128 0x7
 3138 00c7 7900     		.ascii	"y\000"
 3139 00c9 01       		.byte	0x1
 3140 00ca 0801     		.2byte	0x108
ARM GAS  C:\Users\A85590\AppData\Local\Temp\cc53CFAh.s 			page 64


 3141 00cc 25000000 		.4byte	0x25
 3142 00d0 4C000000 		.4byte	.LLST2
 3143 00d4 07       		.uleb128 0x7
 3144 00d5 6900     		.ascii	"i\000"
 3145 00d7 01       		.byte	0x1
 3146 00d8 0901     		.2byte	0x109
 3147 00da 64000000 		.4byte	0x64
 3148 00de 9B000000 		.4byte	.LLST3
 3149 00e2 00       		.byte	0
 3150 00e3 08       		.uleb128 0x8
 3151 00e4 58020000 		.4byte	.LASF72
 3152 00e8 01       		.byte	0x1
 3153 00e9 1301     		.2byte	0x113
 3154 00eb 00000000 		.4byte	.LFB6
 3155 00ef D8000000 		.4byte	.LFE6-.LFB6
 3156 00f3 01       		.uleb128 0x1
 3157 00f4 9C       		.byte	0x9c
 3158 00f5 29010000 		.4byte	0x129
 3159 00f9 09       		.uleb128 0x9
 3160 00fa 52000000 		.4byte	.LVL23
 3161 00fe 08080000 		.4byte	0x808
 3162 0102 0E010000 		.4byte	0x10e
 3163 0106 0A       		.uleb128 0xa
 3164 0107 01       		.uleb128 0x1
 3165 0108 51       		.byte	0x51
 3166 0109 03       		.uleb128 0x3
 3167 010a F5       		.byte	0xf5
 3168 010b 04       		.uleb128 0x4
 3169 010c 25       		.uleb128 0x25
 3170 010d 00       		.byte	0
 3171 010e 0B       		.uleb128 0xb
 3172 010f 7A000000 		.4byte	.LVL28
 3173 0113 14080000 		.4byte	0x814
 3174 0117 0C       		.uleb128 0xc
 3175 0118 C8000000 		.4byte	.LVL36
 3176 011c 08080000 		.4byte	0x808
 3177 0120 0A       		.uleb128 0xa
 3178 0121 01       		.uleb128 0x1
 3179 0122 51       		.byte	0x51
 3180 0123 03       		.uleb128 0x3
 3181 0124 F5       		.byte	0xf5
 3182 0125 04       		.uleb128 0x4
 3183 0126 25       		.uleb128 0x25
 3184 0127 00       		.byte	0
 3185 0128 00       		.byte	0
 3186 0129 0D       		.uleb128 0xd
 3187 012a B4020000 		.4byte	.LASF73
 3188 012e 01       		.byte	0x1
 3189 012f 39       		.byte	0x39
 3190 0130 2C000000 		.4byte	0x2c
 3191 0134 00000000 		.4byte	.LFB1
 3192 0138 28000000 		.4byte	.LFE1-.LFB1
 3193 013c 01       		.uleb128 0x1
 3194 013d 9C       		.byte	0x9c
 3195 013e 0E       		.uleb128 0xe
 3196 013f 52010000 		.4byte	.LASF16
 3197 0143 01       		.byte	0x1
ARM GAS  C:\Users\A85590\AppData\Local\Temp\cc53CFAh.s 			page 65


 3198 0144 44       		.byte	0x44
 3199 0145 00000000 		.4byte	.LFB2
 3200 0149 18000000 		.4byte	.LFE2-.LFB2
 3201 014d 01       		.uleb128 0x1
 3202 014e 9C       		.byte	0x9c
 3203 014f 63010000 		.4byte	0x163
 3204 0153 0F       		.uleb128 0xf
 3205 0154 C7020000 		.4byte	.LASF15
 3206 0158 01       		.byte	0x1
 3207 0159 44       		.byte	0x44
 3208 015a 25000000 		.4byte	0x25
 3209 015e CC000000 		.4byte	.LLST4
 3210 0162 00       		.byte	0
 3211 0163 0E       		.uleb128 0xe
 3212 0164 91010000 		.4byte	.LASF17
 3213 0168 01       		.byte	0x1
 3214 0169 B5       		.byte	0xb5
 3215 016a 00000000 		.4byte	.LFB4
 3216 016e 50050000 		.4byte	.LFE4-.LFB4
 3217 0172 01       		.uleb128 0x1
 3218 0173 9C       		.byte	0x9c
 3219 0174 2E030000 		.4byte	0x32e
 3220 0178 10       		.uleb128 0x10
 3221 0179 677800   		.ascii	"gx\000"
 3222 017c 01       		.byte	0x1
 3223 017d B5       		.byte	0xb5
 3224 017e 25000000 		.4byte	0x25
 3225 0182 FA000000 		.4byte	.LLST5
 3226 0186 10       		.uleb128 0x10
 3227 0187 677900   		.ascii	"gy\000"
 3228 018a 01       		.byte	0x1
 3229 018b B5       		.byte	0xb5
 3230 018c 25000000 		.4byte	0x25
 3231 0190 33010000 		.4byte	.LLST6
 3232 0194 10       		.uleb128 0x10
 3233 0195 677A00   		.ascii	"gz\000"
 3234 0198 01       		.byte	0x1
 3235 0199 B5       		.byte	0xb5
 3236 019a 25000000 		.4byte	0x25
 3237 019e 67010000 		.4byte	.LLST7
 3238 01a2 10       		.uleb128 0x10
 3239 01a3 617800   		.ascii	"ax\000"
 3240 01a6 01       		.byte	0x1
 3241 01a7 B5       		.byte	0xb5
 3242 01a8 25000000 		.4byte	0x25
 3243 01ac 9D010000 		.4byte	.LLST8
 3244 01b0 10       		.uleb128 0x10
 3245 01b1 617900   		.ascii	"ay\000"
 3246 01b4 01       		.byte	0x1
 3247 01b5 B5       		.byte	0xb5
 3248 01b6 25000000 		.4byte	0x25
 3249 01ba D5010000 		.4byte	.LLST9
 3250 01be 10       		.uleb128 0x10
 3251 01bf 617A00   		.ascii	"az\000"
 3252 01c2 01       		.byte	0x1
 3253 01c3 B5       		.byte	0xb5
 3254 01c4 25000000 		.4byte	0x25
ARM GAS  C:\Users\A85590\AppData\Local\Temp\cc53CFAh.s 			page 66


 3255 01c8 01020000 		.4byte	.LLST10
 3256 01cc 11       		.uleb128 0x11
 3257 01cd E1020000 		.4byte	.LASF18
 3258 01d1 01       		.byte	0x1
 3259 01d2 B7       		.byte	0xb7
 3260 01d3 25000000 		.4byte	0x25
 3261 01d7 2C020000 		.4byte	.LLST11
 3262 01db 12       		.uleb128 0x12
 3263 01dc 733000   		.ascii	"s0\000"
 3264 01df 01       		.byte	0x1
 3265 01e0 B8       		.byte	0xb8
 3266 01e1 25000000 		.4byte	0x25
 3267 01e5 97020000 		.4byte	.LLST12
 3268 01e9 12       		.uleb128 0x12
 3269 01ea 733100   		.ascii	"s1\000"
 3270 01ed 01       		.byte	0x1
 3271 01ee B8       		.byte	0xb8
 3272 01ef 25000000 		.4byte	0x25
 3273 01f3 CE020000 		.4byte	.LLST13
 3274 01f7 12       		.uleb128 0x12
 3275 01f8 733200   		.ascii	"s2\000"
 3276 01fb 01       		.byte	0x1
 3277 01fc B8       		.byte	0xb8
 3278 01fd 25000000 		.4byte	0x25
 3279 0201 06030000 		.4byte	.LLST14
 3280 0205 12       		.uleb128 0x12
 3281 0206 733300   		.ascii	"s3\000"
 3282 0209 01       		.byte	0x1
 3283 020a B8       		.byte	0xb8
 3284 020b 25000000 		.4byte	0x25
 3285 020f 3E030000 		.4byte	.LLST15
 3286 0213 11       		.uleb128 0x11
 3287 0214 19010000 		.4byte	.LASF19
 3288 0218 01       		.byte	0x1
 3289 0219 B9       		.byte	0xb9
 3290 021a 25000000 		.4byte	0x25
 3291 021e 72030000 		.4byte	.LLST16
 3292 0222 11       		.uleb128 0x11
 3293 0223 1F010000 		.4byte	.LASF20
 3294 0227 01       		.byte	0x1
 3295 0228 B9       		.byte	0xb9
 3296 0229 25000000 		.4byte	0x25
 3297 022d AA030000 		.4byte	.LLST17
 3298 0231 11       		.uleb128 0x11
 3299 0232 25010000 		.4byte	.LASF21
 3300 0236 01       		.byte	0x1
 3301 0237 B9       		.byte	0xb9
 3302 0238 25000000 		.4byte	0x25
 3303 023c E2030000 		.4byte	.LLST18
 3304 0240 11       		.uleb128 0x11
 3305 0241 2B010000 		.4byte	.LASF22
 3306 0245 01       		.byte	0x1
 3307 0246 B9       		.byte	0xb9
 3308 0247 25000000 		.4byte	0x25
 3309 024b 1A040000 		.4byte	.LLST19
 3310 024f 11       		.uleb128 0x11
 3311 0250 10030000 		.4byte	.LASF23
ARM GAS  C:\Users\A85590\AppData\Local\Temp\cc53CFAh.s 			page 67


 3312 0254 01       		.byte	0x1
 3313 0255 BA       		.byte	0xba
 3314 0256 25000000 		.4byte	0x25
 3315 025a 3A040000 		.4byte	.LLST20
 3316 025e 11       		.uleb128 0x11
 3317 025f 15030000 		.4byte	.LASF24
 3318 0263 01       		.byte	0x1
 3319 0264 BA       		.byte	0xba
 3320 0265 25000000 		.4byte	0x25
 3321 0269 59040000 		.4byte	.LLST21
 3322 026d 11       		.uleb128 0x11
 3323 026e 1A030000 		.4byte	.LASF25
 3324 0272 01       		.byte	0x1
 3325 0273 BA       		.byte	0xba
 3326 0274 25000000 		.4byte	0x25
 3327 0278 78040000 		.4byte	.LLST22
 3328 027c 11       		.uleb128 0x11
 3329 027d 1F030000 		.4byte	.LASF26
 3330 0281 01       		.byte	0x1
 3331 0282 BA       		.byte	0xba
 3332 0283 25000000 		.4byte	0x25
 3333 0287 97040000 		.4byte	.LLST23
 3334 028b 11       		.uleb128 0x11
 3335 028c 66020000 		.4byte	.LASF27
 3336 0290 01       		.byte	0x1
 3337 0291 BA       		.byte	0xba
 3338 0292 25000000 		.4byte	0x25
 3339 0296 B6040000 		.4byte	.LLST24
 3340 029a 11       		.uleb128 0x11
 3341 029b 6B020000 		.4byte	.LASF28
 3342 029f 01       		.byte	0x1
 3343 02a0 BA       		.byte	0xba
 3344 02a1 25000000 		.4byte	0x25
 3345 02a5 D4040000 		.4byte	.LLST25
 3346 02a9 11       		.uleb128 0x11
 3347 02aa 70020000 		.4byte	.LASF29
 3348 02ae 01       		.byte	0x1
 3349 02af BA       		.byte	0xba
 3350 02b0 25000000 		.4byte	0x25
 3351 02b4 F4040000 		.4byte	.LLST26
 3352 02b8 11       		.uleb128 0x11
 3353 02b9 EB020000 		.4byte	.LASF30
 3354 02bd 01       		.byte	0x1
 3355 02be BA       		.byte	0xba
 3356 02bf 25000000 		.4byte	0x25
 3357 02c3 2C050000 		.4byte	.LLST27
 3358 02c7 11       		.uleb128 0x11
 3359 02c8 F0020000 		.4byte	.LASF31
 3360 02cc 01       		.byte	0x1
 3361 02cd BA       		.byte	0xba
 3362 02ce 25000000 		.4byte	0x25
 3363 02d2 4B050000 		.4byte	.LLST28
 3364 02d6 11       		.uleb128 0x11
 3365 02d7 31010000 		.4byte	.LASF32
 3366 02db 01       		.byte	0x1
 3367 02dc BA       		.byte	0xba
 3368 02dd 25000000 		.4byte	0x25
ARM GAS  C:\Users\A85590\AppData\Local\Temp\cc53CFAh.s 			page 68


 3369 02e1 6A050000 		.4byte	.LLST29
 3370 02e5 11       		.uleb128 0x11
 3371 02e6 04010000 		.4byte	.LASF33
 3372 02ea 01       		.byte	0x1
 3373 02eb BA       		.byte	0xba
 3374 02ec 25000000 		.4byte	0x25
 3375 02f0 88050000 		.4byte	.LLST30
 3376 02f4 11       		.uleb128 0x11
 3377 02f5 24030000 		.4byte	.LASF34
 3378 02f9 01       		.byte	0x1
 3379 02fa BA       		.byte	0xba
 3380 02fb 25000000 		.4byte	0x25
 3381 02ff A7050000 		.4byte	.LLST31
 3382 0303 11       		.uleb128 0x11
 3383 0304 DC020000 		.4byte	.LASF35
 3384 0308 01       		.byte	0x1
 3385 0309 BA       		.byte	0xba
 3386 030a 25000000 		.4byte	0x25
 3387 030e C7050000 		.4byte	.LLST32
 3388 0312 0B       		.uleb128 0xb
 3389 0313 72010000 		.4byte	.LVL94
 3390 0317 8E000000 		.4byte	0x8e
 3391 031b 0B       		.uleb128 0xb
 3392 031c 10040000 		.4byte	.LVL209
 3393 0320 8E000000 		.4byte	0x8e
 3394 0324 0B       		.uleb128 0xb
 3395 0325 18050000 		.4byte	.LVL255
 3396 0329 8E000000 		.4byte	0x8e
 3397 032d 00       		.byte	0
 3398 032e 0E       		.uleb128 0xe
 3399 032f F3010000 		.4byte	.LASF36
 3400 0333 01       		.byte	0x1
 3401 0334 49       		.byte	0x49
 3402 0335 00000000 		.4byte	.LFB3
 3403 0339 100A0000 		.4byte	.LFE3-.LFB3
 3404 033d 01       		.uleb128 0x1
 3405 033e 9C       		.byte	0x9c
 3406 033f 37060000 		.4byte	0x637
 3407 0343 10       		.uleb128 0x10
 3408 0344 677800   		.ascii	"gx\000"
 3409 0347 01       		.byte	0x1
 3410 0348 49       		.byte	0x49
 3411 0349 25000000 		.4byte	0x25
 3412 034d E6050000 		.4byte	.LLST33
 3413 0351 10       		.uleb128 0x10
 3414 0352 677900   		.ascii	"gy\000"
 3415 0355 01       		.byte	0x1
 3416 0356 49       		.byte	0x49
 3417 0357 25000000 		.4byte	0x25
 3418 035b 1C060000 		.4byte	.LLST34
 3419 035f 10       		.uleb128 0x10
 3420 0360 677A00   		.ascii	"gz\000"
 3421 0363 01       		.byte	0x1
 3422 0364 49       		.byte	0x49
 3423 0365 25000000 		.4byte	0x25
 3424 0369 52060000 		.4byte	.LLST35
 3425 036d 10       		.uleb128 0x10
ARM GAS  C:\Users\A85590\AppData\Local\Temp\cc53CFAh.s 			page 69


 3426 036e 617800   		.ascii	"ax\000"
 3427 0371 01       		.byte	0x1
 3428 0372 49       		.byte	0x49
 3429 0373 25000000 		.4byte	0x25
 3430 0377 88060000 		.4byte	.LLST36
 3431 037b 10       		.uleb128 0x10
 3432 037c 617900   		.ascii	"ay\000"
 3433 037f 01       		.byte	0x1
 3434 0380 49       		.byte	0x49
 3435 0381 25000000 		.4byte	0x25
 3436 0385 BF060000 		.4byte	.LLST37
 3437 0389 10       		.uleb128 0x10
 3438 038a 617A00   		.ascii	"az\000"
 3439 038d 01       		.byte	0x1
 3440 038e 49       		.byte	0x49
 3441 038f 25000000 		.4byte	0x25
 3442 0393 EA060000 		.4byte	.LLST38
 3443 0397 10       		.uleb128 0x10
 3444 0398 6D7800   		.ascii	"mx\000"
 3445 039b 01       		.byte	0x1
 3446 039c 49       		.byte	0x49
 3447 039d 25000000 		.4byte	0x25
 3448 03a1 15070000 		.4byte	.LLST39
 3449 03a5 10       		.uleb128 0x10
 3450 03a6 6D7900   		.ascii	"my\000"
 3451 03a9 01       		.byte	0x1
 3452 03aa 49       		.byte	0x49
 3453 03ab 25000000 		.4byte	0x25
 3454 03af 59070000 		.4byte	.LLST40
 3455 03b3 10       		.uleb128 0x10
 3456 03b4 6D7A00   		.ascii	"mz\000"
 3457 03b7 01       		.byte	0x1
 3458 03b8 49       		.byte	0x49
 3459 03b9 25000000 		.4byte	0x25
 3460 03bd 9D070000 		.4byte	.LLST41
 3461 03c1 11       		.uleb128 0x11
 3462 03c2 E1020000 		.4byte	.LASF18
 3463 03c6 01       		.byte	0x1
 3464 03c7 4B       		.byte	0x4b
 3465 03c8 25000000 		.4byte	0x25
 3466 03cc D4070000 		.4byte	.LLST42
 3467 03d0 12       		.uleb128 0x12
 3468 03d1 733000   		.ascii	"s0\000"
 3469 03d4 01       		.byte	0x1
 3470 03d5 4C       		.byte	0x4c
 3471 03d6 25000000 		.4byte	0x25
 3472 03da 60080000 		.4byte	.LLST43
 3473 03de 12       		.uleb128 0x12
 3474 03df 733100   		.ascii	"s1\000"
 3475 03e2 01       		.byte	0x1
 3476 03e3 4C       		.byte	0x4c
 3477 03e4 25000000 		.4byte	0x25
 3478 03e8 98080000 		.4byte	.LLST44
 3479 03ec 12       		.uleb128 0x12
 3480 03ed 733200   		.ascii	"s2\000"
 3481 03f0 01       		.byte	0x1
 3482 03f1 4C       		.byte	0x4c
ARM GAS  C:\Users\A85590\AppData\Local\Temp\cc53CFAh.s 			page 70


 3483 03f2 25000000 		.4byte	0x25
 3484 03f6 CE080000 		.4byte	.LLST45
 3485 03fa 12       		.uleb128 0x12
 3486 03fb 733300   		.ascii	"s3\000"
 3487 03fe 01       		.byte	0x1
 3488 03ff 4C       		.byte	0x4c
 3489 0400 25000000 		.4byte	0x25
 3490 0404 02090000 		.4byte	.LLST46
 3491 0408 11       		.uleb128 0x11
 3492 0409 19010000 		.4byte	.LASF19
 3493 040d 01       		.byte	0x1
 3494 040e 4D       		.byte	0x4d
 3495 040f 25000000 		.4byte	0x25
 3496 0413 36090000 		.4byte	.LLST47
 3497 0417 11       		.uleb128 0x11
 3498 0418 1F010000 		.4byte	.LASF20
 3499 041c 01       		.byte	0x1
 3500 041d 4D       		.byte	0x4d
 3501 041e 25000000 		.4byte	0x25
 3502 0422 6E090000 		.4byte	.LLST48
 3503 0426 11       		.uleb128 0x11
 3504 0427 25010000 		.4byte	.LASF21
 3505 042b 01       		.byte	0x1
 3506 042c 4D       		.byte	0x4d
 3507 042d 25000000 		.4byte	0x25
 3508 0431 A6090000 		.4byte	.LLST49
 3509 0435 11       		.uleb128 0x11
 3510 0436 2B010000 		.4byte	.LASF22
 3511 043a 01       		.byte	0x1
 3512 043b 4D       		.byte	0x4d
 3513 043c 25000000 		.4byte	0x25
 3514 0440 DE090000 		.4byte	.LLST50
 3515 0444 12       		.uleb128 0x12
 3516 0445 687800   		.ascii	"hx\000"
 3517 0448 01       		.byte	0x1
 3518 0449 4E       		.byte	0x4e
 3519 044a 25000000 		.4byte	0x25
 3520 044e FE090000 		.4byte	.LLST51
 3521 0452 12       		.uleb128 0x12
 3522 0453 687900   		.ascii	"hy\000"
 3523 0456 01       		.byte	0x1
 3524 0457 4E       		.byte	0x4e
 3525 0458 25000000 		.4byte	0x25
 3526 045c 1E0A0000 		.4byte	.LLST52
 3527 0460 11       		.uleb128 0x11
 3528 0461 80020000 		.4byte	.LASF37
 3529 0465 01       		.byte	0x1
 3530 0466 4F       		.byte	0x4f
 3531 0467 25000000 		.4byte	0x25
 3532 046b 3C0A0000 		.4byte	.LLST53
 3533 046f 11       		.uleb128 0x11
 3534 0470 87020000 		.4byte	.LASF38
 3535 0474 01       		.byte	0x1
 3536 0475 4F       		.byte	0x4f
 3537 0476 25000000 		.4byte	0x25
 3538 047a 5C0A0000 		.4byte	.LLST54
 3539 047e 11       		.uleb128 0x11
ARM GAS  C:\Users\A85590\AppData\Local\Temp\cc53CFAh.s 			page 71


 3540 047f 8E020000 		.4byte	.LASF39
 3541 0483 01       		.byte	0x1
 3542 0484 4F       		.byte	0x4f
 3543 0485 25000000 		.4byte	0x25
 3544 0489 7C0A0000 		.4byte	.LLST55
 3545 048d 11       		.uleb128 0x11
 3546 048e 0A020000 		.4byte	.LASF40
 3547 0492 01       		.byte	0x1
 3548 0493 4F       		.byte	0x4f
 3549 0494 25000000 		.4byte	0x25
 3550 0498 9C0A0000 		.4byte	.LLST56
 3551 049c 11       		.uleb128 0x11
 3552 049d BB000000 		.4byte	.LASF41
 3553 04a1 01       		.byte	0x1
 3554 04a2 4F       		.byte	0x4f
 3555 04a3 25000000 		.4byte	0x25
 3556 04a7 BC0A0000 		.4byte	.LLST57
 3557 04ab 11       		.uleb128 0x11
 3558 04ac CE000000 		.4byte	.LASF42
 3559 04b0 01       		.byte	0x1
 3560 04b1 4F       		.byte	0x4f
 3561 04b2 25000000 		.4byte	0x25
 3562 04b6 0A0B0000 		.4byte	.LLST58
 3563 04ba 11       		.uleb128 0x11
 3564 04bb BD020000 		.4byte	.LASF43
 3565 04bf 01       		.byte	0x1
 3566 04c0 4F       		.byte	0x4f
 3567 04c1 25000000 		.4byte	0x25
 3568 04c5 280B0000 		.4byte	.LLST59
 3569 04c9 11       		.uleb128 0x11
 3570 04ca C2020000 		.4byte	.LASF44
 3571 04ce 01       		.byte	0x1
 3572 04cf 4F       		.byte	0x4f
 3573 04d0 25000000 		.4byte	0x25
 3574 04d4 460B0000 		.4byte	.LLST60
 3575 04d8 11       		.uleb128 0x11
 3576 04d9 10030000 		.4byte	.LASF23
 3577 04dd 01       		.byte	0x1
 3578 04de 4F       		.byte	0x4f
 3579 04df 25000000 		.4byte	0x25
 3580 04e3 660B0000 		.4byte	.LLST61
 3581 04e7 11       		.uleb128 0x11
 3582 04e8 15030000 		.4byte	.LASF24
 3583 04ec 01       		.byte	0x1
 3584 04ed 4F       		.byte	0x4f
 3585 04ee 25000000 		.4byte	0x25
 3586 04f2 7B0B0000 		.4byte	.LLST62
 3587 04f6 11       		.uleb128 0x11
 3588 04f7 1A030000 		.4byte	.LASF25
 3589 04fb 01       		.byte	0x1
 3590 04fc 4F       		.byte	0x4f
 3591 04fd 25000000 		.4byte	0x25
 3592 0501 900B0000 		.4byte	.LLST63
 3593 0505 11       		.uleb128 0x11
 3594 0506 1F030000 		.4byte	.LASF26
 3595 050a 01       		.byte	0x1
 3596 050b 4F       		.byte	0x4f
ARM GAS  C:\Users\A85590\AppData\Local\Temp\cc53CFAh.s 			page 72


 3597 050c 25000000 		.4byte	0x25
 3598 0510 B00B0000 		.4byte	.LLST64
 3599 0514 11       		.uleb128 0x11
 3600 0515 00000000 		.4byte	.LASF45
 3601 0519 01       		.byte	0x1
 3602 051a 4F       		.byte	0x4f
 3603 051b 25000000 		.4byte	0x25
 3604 051f D00B0000 		.4byte	.LLST65
 3605 0523 11       		.uleb128 0x11
 3606 0524 A3020000 		.4byte	.LASF46
 3607 0528 01       		.byte	0x1
 3608 0529 4F       		.byte	0x4f
 3609 052a 25000000 		.4byte	0x25
 3610 052e EF0B0000 		.4byte	.LLST66
 3611 0532 11       		.uleb128 0x11
 3612 0533 31010000 		.4byte	.LASF32
 3613 0537 01       		.byte	0x1
 3614 0538 4F       		.byte	0x4f
 3615 0539 25000000 		.4byte	0x25
 3616 053d 0E0C0000 		.4byte	.LLST67
 3617 0541 11       		.uleb128 0x11
 3618 0542 36010000 		.4byte	.LASF47
 3619 0546 01       		.byte	0x1
 3620 0547 4F       		.byte	0x4f
 3621 0548 25000000 		.4byte	0x25
 3622 054c 2E0C0000 		.4byte	.LLST68
 3623 0550 11       		.uleb128 0x11
 3624 0551 3B010000 		.4byte	.LASF48
 3625 0555 01       		.byte	0x1
 3626 0556 4F       		.byte	0x4f
 3627 0557 25000000 		.4byte	0x25
 3628 055b 4E0C0000 		.4byte	.LLST69
 3629 055f 11       		.uleb128 0x11
 3630 0560 40010000 		.4byte	.LASF49
 3631 0564 01       		.byte	0x1
 3632 0565 4F       		.byte	0x4f
 3633 0566 25000000 		.4byte	0x25
 3634 056a 6E0C0000 		.4byte	.LLST70
 3635 056e 11       		.uleb128 0x11
 3636 056f 04010000 		.4byte	.LASF33
 3637 0573 01       		.byte	0x1
 3638 0574 4F       		.byte	0x4f
 3639 0575 25000000 		.4byte	0x25
 3640 0579 8D0C0000 		.4byte	.LLST71
 3641 057d 11       		.uleb128 0x11
 3642 057e 09010000 		.4byte	.LASF50
 3643 0582 01       		.byte	0x1
 3644 0583 4F       		.byte	0x4f
 3645 0584 25000000 		.4byte	0x25
 3646 0588 AD0C0000 		.4byte	.LLST72
 3647 058c 11       		.uleb128 0x11
 3648 058d 0E010000 		.4byte	.LASF51
 3649 0591 01       		.byte	0x1
 3650 0592 4F       		.byte	0x4f
 3651 0593 25000000 		.4byte	0x25
 3652 0597 CC0C0000 		.4byte	.LLST73
 3653 059b 11       		.uleb128 0x11
ARM GAS  C:\Users\A85590\AppData\Local\Temp\cc53CFAh.s 			page 73


 3654 059c 24030000 		.4byte	.LASF34
 3655 05a0 01       		.byte	0x1
 3656 05a1 4F       		.byte	0x4f
 3657 05a2 25000000 		.4byte	0x25
 3658 05a6 EC0C0000 		.4byte	.LLST74
 3659 05aa 11       		.uleb128 0x11
 3660 05ab 29030000 		.4byte	.LASF52
 3661 05af 01       		.byte	0x1
 3662 05b0 4F       		.byte	0x4f
 3663 05b1 25000000 		.4byte	0x25
 3664 05b5 0C0D0000 		.4byte	.LLST75
 3665 05b9 11       		.uleb128 0x11
 3666 05ba DC020000 		.4byte	.LASF35
 3667 05be 01       		.byte	0x1
 3668 05bf 4F       		.byte	0x4f
 3669 05c0 25000000 		.4byte	0x25
 3670 05c4 2B0D0000 		.4byte	.LLST76
 3671 05c8 09       		.uleb128 0x9
 3672 05c9 4A000000 		.4byte	.LVL269
 3673 05cd 63010000 		.4byte	0x163
 3674 05d1 09060000 		.4byte	0x609
 3675 05d5 0A       		.uleb128 0xa
 3676 05d6 01       		.uleb128 0x1
 3677 05d7 50       		.byte	0x50
 3678 05d8 03       		.uleb128 0x3
 3679 05d9 F5       		.byte	0xf5
 3680 05da 04       		.uleb128 0x4
 3681 05db 25       		.uleb128 0x25
 3682 05dc 0A       		.uleb128 0xa
 3683 05dd 01       		.uleb128 0x1
 3684 05de 51       		.byte	0x51
 3685 05df 03       		.uleb128 0x3
 3686 05e0 F5       		.byte	0xf5
 3687 05e1 05       		.uleb128 0x5
 3688 05e2 25       		.uleb128 0x25
 3689 05e3 0A       		.uleb128 0xa
 3690 05e4 01       		.uleb128 0x1
 3691 05e5 52       		.byte	0x52
 3692 05e6 03       		.uleb128 0x3
 3693 05e7 F5       		.byte	0xf5
 3694 05e8 06       		.uleb128 0x6
 3695 05e9 25       		.uleb128 0x25
 3696 05ea 0A       		.uleb128 0xa
 3697 05eb 01       		.uleb128 0x1
 3698 05ec 53       		.byte	0x53
 3699 05ed 06       		.uleb128 0x6
 3700 05ee 91       		.byte	0x91
 3701 05ef F47E     		.sleb128 -140
 3702 05f1 F6       		.byte	0xf6
 3703 05f2 04       		.byte	0x4
 3704 05f3 25       		.uleb128 0x25
 3705 05f4 0A       		.uleb128 0xa
 3706 05f5 02       		.uleb128 0x2
 3707 05f6 7D       		.byte	0x7d
 3708 05f7 00       		.sleb128 0
 3709 05f8 05       		.uleb128 0x5
 3710 05f9 91       		.byte	0x91
ARM GAS  C:\Users\A85590\AppData\Local\Temp\cc53CFAh.s 			page 74


 3711 05fa 00       		.sleb128 0
 3712 05fb F6       		.byte	0xf6
 3713 05fc 04       		.byte	0x4
 3714 05fd 25       		.uleb128 0x25
 3715 05fe 0A       		.uleb128 0xa
 3716 05ff 02       		.uleb128 0x2
 3717 0600 7D       		.byte	0x7d
 3718 0601 04       		.sleb128 4
 3719 0602 05       		.uleb128 0x5
 3720 0603 91       		.byte	0x91
 3721 0604 04       		.sleb128 4
 3722 0605 F6       		.byte	0xf6
 3723 0606 04       		.byte	0x4
 3724 0607 25       		.uleb128 0x25
 3725 0608 00       		.byte	0
 3726 0609 0B       		.uleb128 0xb
 3727 060a B6010000 		.4byte	.LVL319
 3728 060e 8E000000 		.4byte	0x8e
 3729 0612 0B       		.uleb128 0xb
 3730 0613 06020000 		.4byte	.LVL337
 3731 0617 8E000000 		.4byte	0x8e
 3732 061b 0B       		.uleb128 0xb
 3733 061c 44040000 		.4byte	.LVL449
 3734 0620 20080000 		.4byte	0x820
 3735 0624 0B       		.uleb128 0xb
 3736 0625 D4080000 		.4byte	.LVL611
 3737 0629 8E000000 		.4byte	0x8e
 3738 062d 0B       		.uleb128 0xb
 3739 062e D4090000 		.4byte	.LVL657
 3740 0632 8E000000 		.4byte	0x8e
 3741 0636 00       		.byte	0
 3742 0637 13       		.uleb128 0x13
 3743 0638 03030000 		.4byte	.LASF53
 3744 063c 01       		.byte	0x1
 3745 063d 1E01     		.2byte	0x11e
 3746 063f 25000000 		.4byte	0x25
 3747 0643 00000000 		.4byte	.LFB7
 3748 0647 24000000 		.4byte	.LFE7-.LFB7
 3749 064b 01       		.uleb128 0x1
 3750 064c 9C       		.byte	0x9c
 3751 064d 5B060000 		.4byte	0x65b
 3752 0651 0B       		.uleb128 0xb
 3753 0652 0E000000 		.4byte	.LVL665
 3754 0656 E3000000 		.4byte	0xe3
 3755 065a 00       		.byte	0
 3756 065b 13       		.uleb128 0x13
 3757 065c 1D020000 		.4byte	.LASF54
 3758 0660 01       		.byte	0x1
 3759 0661 2201     		.2byte	0x122
 3760 0663 25000000 		.4byte	0x25
 3761 0667 00000000 		.4byte	.LFB8
 3762 066b 24000000 		.4byte	.LFE8-.LFB8
 3763 066f 01       		.uleb128 0x1
 3764 0670 9C       		.byte	0x9c
 3765 0671 7F060000 		.4byte	0x67f
 3766 0675 0B       		.uleb128 0xb
 3767 0676 0E000000 		.4byte	.LVL667
ARM GAS  C:\Users\A85590\AppData\Local\Temp\cc53CFAh.s 			page 75


 3768 067a E3000000 		.4byte	0xe3
 3769 067e 00       		.byte	0
 3770 067f 13       		.uleb128 0x13
 3771 0680 03020000 		.4byte	.LASF55
 3772 0684 01       		.byte	0x1
 3773 0685 2601     		.2byte	0x126
 3774 0687 25000000 		.4byte	0x25
 3775 068b 00000000 		.4byte	.LFB9
 3776 068f 2C000000 		.4byte	.LFE9-.LFB9
 3777 0693 01       		.uleb128 0x1
 3778 0694 9C       		.byte	0x9c
 3779 0695 A3060000 		.4byte	0x6a3
 3780 0699 0B       		.uleb128 0xb
 3781 069a 0E000000 		.4byte	.LVL669
 3782 069e E3000000 		.4byte	0xe3
 3783 06a2 00       		.byte	0
 3784 06a3 14       		.uleb128 0x14
 3785 06a4 2E020000 		.4byte	.LASF56
 3786 06a8 01       		.byte	0x1
 3787 06a9 2A01     		.2byte	0x12a
 3788 06ab 25000000 		.4byte	0x25
 3789 06af 00000000 		.4byte	.LFB10
 3790 06b3 18000000 		.4byte	.LFE10-.LFB10
 3791 06b7 01       		.uleb128 0x1
 3792 06b8 9C       		.byte	0x9c
 3793 06b9 C7060000 		.4byte	0x6c7
 3794 06bd 0B       		.uleb128 0xb
 3795 06be 0E000000 		.4byte	.LVL672
 3796 06c2 E3000000 		.4byte	0xe3
 3797 06c6 00       		.byte	0
 3798 06c7 14       		.uleb128 0x14
 3799 06c8 A4010000 		.4byte	.LASF57
 3800 06cc 01       		.byte	0x1
 3801 06cd 2E01     		.2byte	0x12e
 3802 06cf 25000000 		.4byte	0x25
 3803 06d3 00000000 		.4byte	.LFB11
 3804 06d7 18000000 		.4byte	.LFE11-.LFB11
 3805 06db 01       		.uleb128 0x1
 3806 06dc 9C       		.byte	0x9c
 3807 06dd EB060000 		.4byte	0x6eb
 3808 06e1 0B       		.uleb128 0xb
 3809 06e2 0E000000 		.4byte	.LVL673
 3810 06e6 E3000000 		.4byte	0xe3
 3811 06ea 00       		.byte	0
 3812 06eb 14       		.uleb128 0x14
 3813 06ec 2E030000 		.4byte	.LASF58
 3814 06f0 01       		.byte	0x1
 3815 06f1 3201     		.2byte	0x132
 3816 06f3 25000000 		.4byte	0x25
 3817 06f7 00000000 		.4byte	.LFB12
 3818 06fb 18000000 		.4byte	.LFE12-.LFB12
 3819 06ff 01       		.uleb128 0x1
 3820 0700 9C       		.byte	0x9c
 3821 0701 0F070000 		.4byte	0x70f
 3822 0705 0B       		.uleb128 0xb
 3823 0706 0E000000 		.4byte	.LVL674
 3824 070a E3000000 		.4byte	0xe3
ARM GAS  C:\Users\A85590\AppData\Local\Temp\cc53CFAh.s 			page 76


 3825 070e 00       		.byte	0
 3826 070f 15       		.uleb128 0x15
 3827 0710 C0000000 		.4byte	.LASF59
 3828 0714 01       		.byte	0x1
 3829 0715 3601     		.2byte	0x136
 3830 0717 00000000 		.4byte	.LFB13
 3831 071b 1C000000 		.4byte	.LFE13-.LFB13
 3832 071f 01       		.uleb128 0x1
 3833 0720 9C       		.byte	0x9c
 3834 0721 5C070000 		.4byte	0x75c
 3835 0725 05       		.uleb128 0x5
 3836 0726 7700     		.ascii	"w\000"
 3837 0728 01       		.byte	0x1
 3838 0729 3601     		.2byte	0x136
 3839 072b 5C070000 		.4byte	0x75c
 3840 072f 4B0D0000 		.4byte	.LLST77
 3841 0733 05       		.uleb128 0x5
 3842 0734 7800     		.ascii	"x\000"
 3843 0736 01       		.byte	0x1
 3844 0737 3601     		.2byte	0x136
 3845 0739 5C070000 		.4byte	0x75c
 3846 073d 6C0D0000 		.4byte	.LLST78
 3847 0741 05       		.uleb128 0x5
 3848 0742 7900     		.ascii	"y\000"
 3849 0744 01       		.byte	0x1
 3850 0745 3601     		.2byte	0x136
 3851 0747 5C070000 		.4byte	0x75c
 3852 074b 8D0D0000 		.4byte	.LLST79
 3853 074f 16       		.uleb128 0x16
 3854 0750 7A00     		.ascii	"z\000"
 3855 0752 01       		.byte	0x1
 3856 0753 3601     		.2byte	0x136
 3857 0755 5C070000 		.4byte	0x75c
 3858 0759 01       		.uleb128 0x1
 3859 075a 53       		.byte	0x53
 3860 075b 00       		.byte	0
 3861 075c 17       		.uleb128 0x17
 3862 075d 04       		.byte	0x4
 3863 075e 25000000 		.4byte	0x25
 3864 0762 18       		.uleb128 0x18
 3865 0763 0B030000 		.4byte	.LASF60
 3866 0767 01       		.byte	0x1
 3867 0768 25       		.byte	0x25
 3868 0769 25000000 		.4byte	0x25
 3869 076d 05       		.uleb128 0x5
 3870 076e 03       		.byte	0x3
 3871 076f 20000000 		.4byte	beta
 3872 0773 19       		.uleb128 0x19
 3873 0774 713000   		.ascii	"q0\000"
 3874 0777 01       		.byte	0x1
 3875 0778 26       		.byte	0x26
 3876 0779 25000000 		.4byte	0x25
 3877 077d 05       		.uleb128 0x5
 3878 077e 03       		.byte	0x3
 3879 077f 04000000 		.4byte	q0
 3880 0783 19       		.uleb128 0x19
 3881 0784 713100   		.ascii	"q1\000"
ARM GAS  C:\Users\A85590\AppData\Local\Temp\cc53CFAh.s 			page 77


 3882 0787 01       		.byte	0x1
 3883 0788 27       		.byte	0x27
 3884 0789 25000000 		.4byte	0x25
 3885 078d 05       		.uleb128 0x5
 3886 078e 03       		.byte	0x3
 3887 078f 00000000 		.4byte	q1
 3888 0793 19       		.uleb128 0x19
 3889 0794 713200   		.ascii	"q2\000"
 3890 0797 01       		.byte	0x1
 3891 0798 28       		.byte	0x28
 3892 0799 25000000 		.4byte	0x25
 3893 079d 05       		.uleb128 0x5
 3894 079e 03       		.byte	0x3
 3895 079f 08000000 		.4byte	q2
 3896 07a3 19       		.uleb128 0x19
 3897 07a4 713300   		.ascii	"q3\000"
 3898 07a7 01       		.byte	0x1
 3899 07a8 29       		.byte	0x29
 3900 07a9 25000000 		.4byte	0x25
 3901 07ad 05       		.uleb128 0x5
 3902 07ae 03       		.byte	0x3
 3903 07af 0C000000 		.4byte	q3
 3904 07b3 18       		.uleb128 0x18
 3905 07b4 F5020000 		.4byte	.LASF61
 3906 07b8 01       		.byte	0x1
 3907 07b9 2A       		.byte	0x2a
 3908 07ba 25000000 		.4byte	0x25
 3909 07be 05       		.uleb128 0x5
 3910 07bf 03       		.byte	0x3
 3911 07c0 24000000 		.4byte	invSampleFreq
 3912 07c4 18       		.uleb128 0x18
 3913 07c5 75020000 		.4byte	.LASF62
 3914 07c9 01       		.byte	0x1
 3915 07ca 2B       		.byte	0x2b
 3916 07cb 25000000 		.4byte	0x25
 3917 07cf 05       		.uleb128 0x5
 3918 07d0 03       		.byte	0x3
 3919 07d1 10000000 		.4byte	roll
 3920 07d5 18       		.uleb128 0x18
 3921 07d6 52020000 		.4byte	.LASF63
 3922 07da 01       		.byte	0x1
 3923 07db 2C       		.byte	0x2c
 3924 07dc 25000000 		.4byte	0x25
 3925 07e0 05       		.uleb128 0x5
 3926 07e1 03       		.byte	0x3
 3927 07e2 14000000 		.4byte	pitch
 3928 07e6 19       		.uleb128 0x19
 3929 07e7 79617700 		.ascii	"yaw\000"
 3930 07eb 01       		.byte	0x1
 3931 07ec 2D       		.byte	0x2d
 3932 07ed 25000000 		.4byte	0x25
 3933 07f1 05       		.uleb128 0x5
 3934 07f2 03       		.byte	0x3
 3935 07f3 18000000 		.4byte	yaw
 3936 07f7 18       		.uleb128 0x18
 3937 07f8 07000000 		.4byte	.LASF64
 3938 07fc 01       		.byte	0x1
ARM GAS  C:\Users\A85590\AppData\Local\Temp\cc53CFAh.s 			page 78


 3939 07fd 2E       		.byte	0x2e
 3940 07fe 80000000 		.4byte	0x80
 3941 0802 05       		.uleb128 0x5
 3942 0803 03       		.byte	0x3
 3943 0804 1C000000 		.4byte	anglesComputed
 3944 0808 1A       		.uleb128 0x1a
 3945 0809 D3000000 		.4byte	.LASF65
 3946 080d D3000000 		.4byte	.LASF65
 3947 0811 02       		.byte	0x2
 3948 0812 7D01     		.2byte	0x17d
 3949 0814 1A       		.uleb128 0x1a
 3950 0815 11020000 		.4byte	.LASF66
 3951 0819 11020000 		.4byte	.LASF66
 3952 081d 02       		.byte	0x2
 3953 081e 7C01     		.2byte	0x17c
 3954 0820 1A       		.uleb128 0x1a
 3955 0821 17020000 		.4byte	.LASF67
 3956 0825 17020000 		.4byte	.LASF67
 3957 0829 02       		.byte	0x2
 3958 082a 8501     		.2byte	0x185
 3959 082c 00       		.byte	0
 3960              		.section	.debug_abbrev,"",%progbits
 3961              	.Ldebug_abbrev0:
 3962 0000 01       		.uleb128 0x1
 3963 0001 11       		.uleb128 0x11
 3964 0002 01       		.byte	0x1
 3965 0003 25       		.uleb128 0x25
 3966 0004 0E       		.uleb128 0xe
 3967 0005 13       		.uleb128 0x13
 3968 0006 0B       		.uleb128 0xb
 3969 0007 03       		.uleb128 0x3
 3970 0008 0E       		.uleb128 0xe
 3971 0009 1B       		.uleb128 0x1b
 3972 000a 0E       		.uleb128 0xe
 3973 000b 55       		.uleb128 0x55
 3974 000c 17       		.uleb128 0x17
 3975 000d 11       		.uleb128 0x11
 3976 000e 01       		.uleb128 0x1
 3977 000f 10       		.uleb128 0x10
 3978 0010 17       		.uleb128 0x17
 3979 0011 00       		.byte	0
 3980 0012 00       		.byte	0
 3981 0013 02       		.uleb128 0x2
 3982 0014 24       		.uleb128 0x24
 3983 0015 00       		.byte	0
 3984 0016 0B       		.uleb128 0xb
 3985 0017 0B       		.uleb128 0xb
 3986 0018 3E       		.uleb128 0x3e
 3987 0019 0B       		.uleb128 0xb
 3988 001a 03       		.uleb128 0x3
 3989 001b 0E       		.uleb128 0xe
 3990 001c 00       		.byte	0
 3991 001d 00       		.byte	0
 3992 001e 03       		.uleb128 0x3
 3993 001f 24       		.uleb128 0x24
 3994 0020 00       		.byte	0
 3995 0021 0B       		.uleb128 0xb
ARM GAS  C:\Users\A85590\AppData\Local\Temp\cc53CFAh.s 			page 79


 3996 0022 0B       		.uleb128 0xb
 3997 0023 3E       		.uleb128 0x3e
 3998 0024 0B       		.uleb128 0xb
 3999 0025 03       		.uleb128 0x3
 4000 0026 08       		.uleb128 0x8
 4001 0027 00       		.byte	0
 4002 0028 00       		.byte	0
 4003 0029 04       		.uleb128 0x4
 4004 002a 2E       		.uleb128 0x2e
 4005 002b 01       		.byte	0x1
 4006 002c 03       		.uleb128 0x3
 4007 002d 0E       		.uleb128 0xe
 4008 002e 3A       		.uleb128 0x3a
 4009 002f 0B       		.uleb128 0xb
 4010 0030 3B       		.uleb128 0x3b
 4011 0031 05       		.uleb128 0x5
 4012 0032 27       		.uleb128 0x27
 4013 0033 19       		.uleb128 0x19
 4014 0034 49       		.uleb128 0x49
 4015 0035 13       		.uleb128 0x13
 4016 0036 11       		.uleb128 0x11
 4017 0037 01       		.uleb128 0x1
 4018 0038 12       		.uleb128 0x12
 4019 0039 06       		.uleb128 0x6
 4020 003a 40       		.uleb128 0x40
 4021 003b 18       		.uleb128 0x18
 4022 003c 9642     		.uleb128 0x2116
 4023 003e 19       		.uleb128 0x19
 4024 003f 01       		.uleb128 0x1
 4025 0040 13       		.uleb128 0x13
 4026 0041 00       		.byte	0
 4027 0042 00       		.byte	0
 4028 0043 05       		.uleb128 0x5
 4029 0044 05       		.uleb128 0x5
 4030 0045 00       		.byte	0
 4031 0046 03       		.uleb128 0x3
 4032 0047 08       		.uleb128 0x8
 4033 0048 3A       		.uleb128 0x3a
 4034 0049 0B       		.uleb128 0xb
 4035 004a 3B       		.uleb128 0x3b
 4036 004b 05       		.uleb128 0x5
 4037 004c 49       		.uleb128 0x49
 4038 004d 13       		.uleb128 0x13
 4039 004e 02       		.uleb128 0x2
 4040 004f 17       		.uleb128 0x17
 4041 0050 00       		.byte	0
 4042 0051 00       		.byte	0
 4043 0052 06       		.uleb128 0x6
 4044 0053 34       		.uleb128 0x34
 4045 0054 00       		.byte	0
 4046 0055 03       		.uleb128 0x3
 4047 0056 0E       		.uleb128 0xe
 4048 0057 3A       		.uleb128 0x3a
 4049 0058 0B       		.uleb128 0xb
 4050 0059 3B       		.uleb128 0x3b
 4051 005a 05       		.uleb128 0x5
 4052 005b 49       		.uleb128 0x49
ARM GAS  C:\Users\A85590\AppData\Local\Temp\cc53CFAh.s 			page 80


 4053 005c 13       		.uleb128 0x13
 4054 005d 02       		.uleb128 0x2
 4055 005e 17       		.uleb128 0x17
 4056 005f 00       		.byte	0
 4057 0060 00       		.byte	0
 4058 0061 07       		.uleb128 0x7
 4059 0062 34       		.uleb128 0x34
 4060 0063 00       		.byte	0
 4061 0064 03       		.uleb128 0x3
 4062 0065 08       		.uleb128 0x8
 4063 0066 3A       		.uleb128 0x3a
 4064 0067 0B       		.uleb128 0xb
 4065 0068 3B       		.uleb128 0x3b
 4066 0069 05       		.uleb128 0x5
 4067 006a 49       		.uleb128 0x49
 4068 006b 13       		.uleb128 0x13
 4069 006c 02       		.uleb128 0x2
 4070 006d 17       		.uleb128 0x17
 4071 006e 00       		.byte	0
 4072 006f 00       		.byte	0
 4073 0070 08       		.uleb128 0x8
 4074 0071 2E       		.uleb128 0x2e
 4075 0072 01       		.byte	0x1
 4076 0073 03       		.uleb128 0x3
 4077 0074 0E       		.uleb128 0xe
 4078 0075 3A       		.uleb128 0x3a
 4079 0076 0B       		.uleb128 0xb
 4080 0077 3B       		.uleb128 0x3b
 4081 0078 05       		.uleb128 0x5
 4082 0079 11       		.uleb128 0x11
 4083 007a 01       		.uleb128 0x1
 4084 007b 12       		.uleb128 0x12
 4085 007c 06       		.uleb128 0x6
 4086 007d 40       		.uleb128 0x40
 4087 007e 18       		.uleb128 0x18
 4088 007f 9642     		.uleb128 0x2116
 4089 0081 19       		.uleb128 0x19
 4090 0082 01       		.uleb128 0x1
 4091 0083 13       		.uleb128 0x13
 4092 0084 00       		.byte	0
 4093 0085 00       		.byte	0
 4094 0086 09       		.uleb128 0x9
 4095 0087 898201   		.uleb128 0x4109
 4096 008a 01       		.byte	0x1
 4097 008b 11       		.uleb128 0x11
 4098 008c 01       		.uleb128 0x1
 4099 008d 31       		.uleb128 0x31
 4100 008e 13       		.uleb128 0x13
 4101 008f 01       		.uleb128 0x1
 4102 0090 13       		.uleb128 0x13
 4103 0091 00       		.byte	0
 4104 0092 00       		.byte	0
 4105 0093 0A       		.uleb128 0xa
 4106 0094 8A8201   		.uleb128 0x410a
 4107 0097 00       		.byte	0
 4108 0098 02       		.uleb128 0x2
 4109 0099 18       		.uleb128 0x18
ARM GAS  C:\Users\A85590\AppData\Local\Temp\cc53CFAh.s 			page 81


 4110 009a 9142     		.uleb128 0x2111
 4111 009c 18       		.uleb128 0x18
 4112 009d 00       		.byte	0
 4113 009e 00       		.byte	0
 4114 009f 0B       		.uleb128 0xb
 4115 00a0 898201   		.uleb128 0x4109
 4116 00a3 00       		.byte	0
 4117 00a4 11       		.uleb128 0x11
 4118 00a5 01       		.uleb128 0x1
 4119 00a6 31       		.uleb128 0x31
 4120 00a7 13       		.uleb128 0x13
 4121 00a8 00       		.byte	0
 4122 00a9 00       		.byte	0
 4123 00aa 0C       		.uleb128 0xc
 4124 00ab 898201   		.uleb128 0x4109
 4125 00ae 01       		.byte	0x1
 4126 00af 11       		.uleb128 0x11
 4127 00b0 01       		.uleb128 0x1
 4128 00b1 31       		.uleb128 0x31
 4129 00b2 13       		.uleb128 0x13
 4130 00b3 00       		.byte	0
 4131 00b4 00       		.byte	0
 4132 00b5 0D       		.uleb128 0xd
 4133 00b6 2E       		.uleb128 0x2e
 4134 00b7 00       		.byte	0
 4135 00b8 3F       		.uleb128 0x3f
 4136 00b9 19       		.uleb128 0x19
 4137 00ba 03       		.uleb128 0x3
 4138 00bb 0E       		.uleb128 0xe
 4139 00bc 3A       		.uleb128 0x3a
 4140 00bd 0B       		.uleb128 0xb
 4141 00be 3B       		.uleb128 0x3b
 4142 00bf 0B       		.uleb128 0xb
 4143 00c0 27       		.uleb128 0x27
 4144 00c1 19       		.uleb128 0x19
 4145 00c2 49       		.uleb128 0x49
 4146 00c3 13       		.uleb128 0x13
 4147 00c4 11       		.uleb128 0x11
 4148 00c5 01       		.uleb128 0x1
 4149 00c6 12       		.uleb128 0x12
 4150 00c7 06       		.uleb128 0x6
 4151 00c8 40       		.uleb128 0x40
 4152 00c9 18       		.uleb128 0x18
 4153 00ca 9742     		.uleb128 0x2117
 4154 00cc 19       		.uleb128 0x19
 4155 00cd 00       		.byte	0
 4156 00ce 00       		.byte	0
 4157 00cf 0E       		.uleb128 0xe
 4158 00d0 2E       		.uleb128 0x2e
 4159 00d1 01       		.byte	0x1
 4160 00d2 3F       		.uleb128 0x3f
 4161 00d3 19       		.uleb128 0x19
 4162 00d4 03       		.uleb128 0x3
 4163 00d5 0E       		.uleb128 0xe
 4164 00d6 3A       		.uleb128 0x3a
 4165 00d7 0B       		.uleb128 0xb
 4166 00d8 3B       		.uleb128 0x3b
ARM GAS  C:\Users\A85590\AppData\Local\Temp\cc53CFAh.s 			page 82


 4167 00d9 0B       		.uleb128 0xb
 4168 00da 27       		.uleb128 0x27
 4169 00db 19       		.uleb128 0x19
 4170 00dc 11       		.uleb128 0x11
 4171 00dd 01       		.uleb128 0x1
 4172 00de 12       		.uleb128 0x12
 4173 00df 06       		.uleb128 0x6
 4174 00e0 40       		.uleb128 0x40
 4175 00e1 18       		.uleb128 0x18
 4176 00e2 9642     		.uleb128 0x2116
 4177 00e4 19       		.uleb128 0x19
 4178 00e5 01       		.uleb128 0x1
 4179 00e6 13       		.uleb128 0x13
 4180 00e7 00       		.byte	0
 4181 00e8 00       		.byte	0
 4182 00e9 0F       		.uleb128 0xf
 4183 00ea 05       		.uleb128 0x5
 4184 00eb 00       		.byte	0
 4185 00ec 03       		.uleb128 0x3
 4186 00ed 0E       		.uleb128 0xe
 4187 00ee 3A       		.uleb128 0x3a
 4188 00ef 0B       		.uleb128 0xb
 4189 00f0 3B       		.uleb128 0x3b
 4190 00f1 0B       		.uleb128 0xb
 4191 00f2 49       		.uleb128 0x49
 4192 00f3 13       		.uleb128 0x13
 4193 00f4 02       		.uleb128 0x2
 4194 00f5 17       		.uleb128 0x17
 4195 00f6 00       		.byte	0
 4196 00f7 00       		.byte	0
 4197 00f8 10       		.uleb128 0x10
 4198 00f9 05       		.uleb128 0x5
 4199 00fa 00       		.byte	0
 4200 00fb 03       		.uleb128 0x3
 4201 00fc 08       		.uleb128 0x8
 4202 00fd 3A       		.uleb128 0x3a
 4203 00fe 0B       		.uleb128 0xb
 4204 00ff 3B       		.uleb128 0x3b
 4205 0100 0B       		.uleb128 0xb
 4206 0101 49       		.uleb128 0x49
 4207 0102 13       		.uleb128 0x13
 4208 0103 02       		.uleb128 0x2
 4209 0104 17       		.uleb128 0x17
 4210 0105 00       		.byte	0
 4211 0106 00       		.byte	0
 4212 0107 11       		.uleb128 0x11
 4213 0108 34       		.uleb128 0x34
 4214 0109 00       		.byte	0
 4215 010a 03       		.uleb128 0x3
 4216 010b 0E       		.uleb128 0xe
 4217 010c 3A       		.uleb128 0x3a
 4218 010d 0B       		.uleb128 0xb
 4219 010e 3B       		.uleb128 0x3b
 4220 010f 0B       		.uleb128 0xb
 4221 0110 49       		.uleb128 0x49
 4222 0111 13       		.uleb128 0x13
 4223 0112 02       		.uleb128 0x2
ARM GAS  C:\Users\A85590\AppData\Local\Temp\cc53CFAh.s 			page 83


 4224 0113 17       		.uleb128 0x17
 4225 0114 00       		.byte	0
 4226 0115 00       		.byte	0
 4227 0116 12       		.uleb128 0x12
 4228 0117 34       		.uleb128 0x34
 4229 0118 00       		.byte	0
 4230 0119 03       		.uleb128 0x3
 4231 011a 08       		.uleb128 0x8
 4232 011b 3A       		.uleb128 0x3a
 4233 011c 0B       		.uleb128 0xb
 4234 011d 3B       		.uleb128 0x3b
 4235 011e 0B       		.uleb128 0xb
 4236 011f 49       		.uleb128 0x49
 4237 0120 13       		.uleb128 0x13
 4238 0121 02       		.uleb128 0x2
 4239 0122 17       		.uleb128 0x17
 4240 0123 00       		.byte	0
 4241 0124 00       		.byte	0
 4242 0125 13       		.uleb128 0x13
 4243 0126 2E       		.uleb128 0x2e
 4244 0127 01       		.byte	0x1
 4245 0128 3F       		.uleb128 0x3f
 4246 0129 19       		.uleb128 0x19
 4247 012a 03       		.uleb128 0x3
 4248 012b 0E       		.uleb128 0xe
 4249 012c 3A       		.uleb128 0x3a
 4250 012d 0B       		.uleb128 0xb
 4251 012e 3B       		.uleb128 0x3b
 4252 012f 05       		.uleb128 0x5
 4253 0130 49       		.uleb128 0x49
 4254 0131 13       		.uleb128 0x13
 4255 0132 11       		.uleb128 0x11
 4256 0133 01       		.uleb128 0x1
 4257 0134 12       		.uleb128 0x12
 4258 0135 06       		.uleb128 0x6
 4259 0136 40       		.uleb128 0x40
 4260 0137 18       		.uleb128 0x18
 4261 0138 9642     		.uleb128 0x2116
 4262 013a 19       		.uleb128 0x19
 4263 013b 01       		.uleb128 0x1
 4264 013c 13       		.uleb128 0x13
 4265 013d 00       		.byte	0
 4266 013e 00       		.byte	0
 4267 013f 14       		.uleb128 0x14
 4268 0140 2E       		.uleb128 0x2e
 4269 0141 01       		.byte	0x1
 4270 0142 3F       		.uleb128 0x3f
 4271 0143 19       		.uleb128 0x19
 4272 0144 03       		.uleb128 0x3
 4273 0145 0E       		.uleb128 0xe
 4274 0146 3A       		.uleb128 0x3a
 4275 0147 0B       		.uleb128 0xb
 4276 0148 3B       		.uleb128 0x3b
 4277 0149 05       		.uleb128 0x5
 4278 014a 49       		.uleb128 0x49
 4279 014b 13       		.uleb128 0x13
 4280 014c 11       		.uleb128 0x11
ARM GAS  C:\Users\A85590\AppData\Local\Temp\cc53CFAh.s 			page 84


 4281 014d 01       		.uleb128 0x1
 4282 014e 12       		.uleb128 0x12
 4283 014f 06       		.uleb128 0x6
 4284 0150 40       		.uleb128 0x40
 4285 0151 18       		.uleb128 0x18
 4286 0152 9742     		.uleb128 0x2117
 4287 0154 19       		.uleb128 0x19
 4288 0155 01       		.uleb128 0x1
 4289 0156 13       		.uleb128 0x13
 4290 0157 00       		.byte	0
 4291 0158 00       		.byte	0
 4292 0159 15       		.uleb128 0x15
 4293 015a 2E       		.uleb128 0x2e
 4294 015b 01       		.byte	0x1
 4295 015c 3F       		.uleb128 0x3f
 4296 015d 19       		.uleb128 0x19
 4297 015e 03       		.uleb128 0x3
 4298 015f 0E       		.uleb128 0xe
 4299 0160 3A       		.uleb128 0x3a
 4300 0161 0B       		.uleb128 0xb
 4301 0162 3B       		.uleb128 0x3b
 4302 0163 05       		.uleb128 0x5
 4303 0164 27       		.uleb128 0x27
 4304 0165 19       		.uleb128 0x19
 4305 0166 11       		.uleb128 0x11
 4306 0167 01       		.uleb128 0x1
 4307 0168 12       		.uleb128 0x12
 4308 0169 06       		.uleb128 0x6
 4309 016a 40       		.uleb128 0x40
 4310 016b 18       		.uleb128 0x18
 4311 016c 9742     		.uleb128 0x2117
 4312 016e 19       		.uleb128 0x19
 4313 016f 01       		.uleb128 0x1
 4314 0170 13       		.uleb128 0x13
 4315 0171 00       		.byte	0
 4316 0172 00       		.byte	0
 4317 0173 16       		.uleb128 0x16
 4318 0174 05       		.uleb128 0x5
 4319 0175 00       		.byte	0
 4320 0176 03       		.uleb128 0x3
 4321 0177 08       		.uleb128 0x8
 4322 0178 3A       		.uleb128 0x3a
 4323 0179 0B       		.uleb128 0xb
 4324 017a 3B       		.uleb128 0x3b
 4325 017b 05       		.uleb128 0x5
 4326 017c 49       		.uleb128 0x49
 4327 017d 13       		.uleb128 0x13
 4328 017e 02       		.uleb128 0x2
 4329 017f 18       		.uleb128 0x18
 4330 0180 00       		.byte	0
 4331 0181 00       		.byte	0
 4332 0182 17       		.uleb128 0x17
 4333 0183 0F       		.uleb128 0xf
 4334 0184 00       		.byte	0
 4335 0185 0B       		.uleb128 0xb
 4336 0186 0B       		.uleb128 0xb
 4337 0187 49       		.uleb128 0x49
ARM GAS  C:\Users\A85590\AppData\Local\Temp\cc53CFAh.s 			page 85


 4338 0188 13       		.uleb128 0x13
 4339 0189 00       		.byte	0
 4340 018a 00       		.byte	0
 4341 018b 18       		.uleb128 0x18
 4342 018c 34       		.uleb128 0x34
 4343 018d 00       		.byte	0
 4344 018e 03       		.uleb128 0x3
 4345 018f 0E       		.uleb128 0xe
 4346 0190 3A       		.uleb128 0x3a
 4347 0191 0B       		.uleb128 0xb
 4348 0192 3B       		.uleb128 0x3b
 4349 0193 0B       		.uleb128 0xb
 4350 0194 49       		.uleb128 0x49
 4351 0195 13       		.uleb128 0x13
 4352 0196 02       		.uleb128 0x2
 4353 0197 18       		.uleb128 0x18
 4354 0198 00       		.byte	0
 4355 0199 00       		.byte	0
 4356 019a 19       		.uleb128 0x19
 4357 019b 34       		.uleb128 0x34
 4358 019c 00       		.byte	0
 4359 019d 03       		.uleb128 0x3
 4360 019e 08       		.uleb128 0x8
 4361 019f 3A       		.uleb128 0x3a
 4362 01a0 0B       		.uleb128 0xb
 4363 01a1 3B       		.uleb128 0x3b
 4364 01a2 0B       		.uleb128 0xb
 4365 01a3 49       		.uleb128 0x49
 4366 01a4 13       		.uleb128 0x13
 4367 01a5 02       		.uleb128 0x2
 4368 01a6 18       		.uleb128 0x18
 4369 01a7 00       		.byte	0
 4370 01a8 00       		.byte	0
 4371 01a9 1A       		.uleb128 0x1a
 4372 01aa 2E       		.uleb128 0x2e
 4373 01ab 00       		.byte	0
 4374 01ac 3F       		.uleb128 0x3f
 4375 01ad 19       		.uleb128 0x19
 4376 01ae 3C       		.uleb128 0x3c
 4377 01af 19       		.uleb128 0x19
 4378 01b0 6E       		.uleb128 0x6e
 4379 01b1 0E       		.uleb128 0xe
 4380 01b2 03       		.uleb128 0x3
 4381 01b3 0E       		.uleb128 0xe
 4382 01b4 3A       		.uleb128 0x3a
 4383 01b5 0B       		.uleb128 0xb
 4384 01b6 3B       		.uleb128 0x3b
 4385 01b7 05       		.uleb128 0x5
 4386 01b8 00       		.byte	0
 4387 01b9 00       		.byte	0
 4388 01ba 00       		.byte	0
 4389              		.section	.debug_loc,"",%progbits
 4390              	.Ldebug_loc0:
 4391              	.LLST0:
 4392 0000 00000000 		.4byte	.LVL0
 4393 0004 0B000000 		.4byte	.LVL1-1
 4394 0008 0100     		.2byte	0x1
ARM GAS  C:\Users\A85590\AppData\Local\Temp\cc53CFAh.s 			page 86


 4395 000a 50       		.byte	0x50
 4396 000b 0B000000 		.4byte	.LVL1-1
 4397 000f 10000000 		.4byte	.LVL3
 4398 0013 0100     		.2byte	0x1
 4399 0015 54       		.byte	0x54
 4400 0016 10000000 		.4byte	.LVL3
 4401 001a 60000000 		.4byte	.LFE5
 4402 001e 0600     		.2byte	0x6
 4403 0020 F3       		.byte	0xf3
 4404 0021 03       		.uleb128 0x3
 4405 0022 F5       		.byte	0xf5
 4406 0023 00       		.uleb128 0
 4407 0024 25       		.uleb128 0x25
 4408 0025 9F       		.byte	0x9f
 4409 0026 00000000 		.4byte	0
 4410 002a 00000000 		.4byte	0
 4411              	.LLST1:
 4412 002e 0E000000 		.4byte	.LVL2
 4413 0032 19000000 		.4byte	.LVL5-1
 4414 0036 0100     		.2byte	0x1
 4415 0038 50       		.byte	0x50
 4416 0039 19000000 		.4byte	.LVL5-1
 4417 003d 58000000 		.4byte	.LVL15
 4418 0041 0100     		.2byte	0x1
 4419 0043 55       		.byte	0x55
 4420 0044 00000000 		.4byte	0
 4421 0048 00000000 		.4byte	0
 4422              	.LLST2:
 4423 004c 0E000000 		.4byte	.LVL2
 4424 0050 10000000 		.4byte	.LVL3
 4425 0054 0100     		.2byte	0x1
 4426 0056 54       		.byte	0x54
 4427 0057 10000000 		.4byte	.LVL3
 4428 005b 14000000 		.4byte	.LVL4
 4429 005f 0600     		.2byte	0x6
 4430 0061 F3       		.byte	0xf3
 4431 0062 03       		.uleb128 0x3
 4432 0063 F5       		.byte	0xf5
 4433 0064 00       		.uleb128 0
 4434 0065 25       		.uleb128 0x25
 4435 0066 9F       		.byte	0x9f
 4436 0067 14000000 		.4byte	.LVL4
 4437 006b 36000000 		.4byte	.LVL9
 4438 006f 0100     		.2byte	0x1
 4439 0071 54       		.byte	0x54
 4440 0072 36000000 		.4byte	.LVL9
 4441 0076 3A000000 		.4byte	.LVL10
 4442 007a 0100     		.2byte	0x1
 4443 007c 50       		.byte	0x50
 4444 007d 3A000000 		.4byte	.LVL10
 4445 0081 3D000000 		.4byte	.LVL11-1
 4446 0085 0100     		.2byte	0x1
 4447 0087 51       		.byte	0x51
 4448 0088 3D000000 		.4byte	.LVL11-1
 4449 008c 58000000 		.4byte	.LVL14
 4450 0090 0100     		.2byte	0x1
 4451 0092 54       		.byte	0x54
ARM GAS  C:\Users\A85590\AppData\Local\Temp\cc53CFAh.s 			page 87


 4452 0093 00000000 		.4byte	0
 4453 0097 00000000 		.4byte	0
 4454              	.LLST3:
 4455 009b 0E000000 		.4byte	.LVL2
 4456 009f 10000000 		.4byte	.LVL3
 4457 00a3 0100     		.2byte	0x1
 4458 00a5 54       		.byte	0x54
 4459 00a6 10000000 		.4byte	.LVL3
 4460 00aa 14000000 		.4byte	.LVL4
 4461 00ae 0900     		.2byte	0x9
 4462 00b0 0C       		.byte	0xc
 4463 00b1 DF59375F 		.4byte	0x5f3759df
 4464 00b5 74       		.byte	0x74
 4465 00b6 00       		.sleb128 0
 4466 00b7 1C       		.byte	0x1c
 4467 00b8 9F       		.byte	0x9f
 4468 00b9 14000000 		.4byte	.LVL4
 4469 00bd 36000000 		.4byte	.LVL9
 4470 00c1 0100     		.2byte	0x1
 4471 00c3 54       		.byte	0x54
 4472 00c4 00000000 		.4byte	0
 4473 00c8 00000000 		.4byte	0
 4474              	.LLST4:
 4475 00cc 00000000 		.4byte	.LVL37
 4476 00d0 06000000 		.4byte	.LVL38
 4477 00d4 0100     		.2byte	0x1
 4478 00d6 50       		.byte	0x50
 4479 00d7 06000000 		.4byte	.LVL38
 4480 00db 0B000000 		.4byte	.LVL39-1
 4481 00df 0100     		.2byte	0x1
 4482 00e1 51       		.byte	0x51
 4483 00e2 0B000000 		.4byte	.LVL39-1
 4484 00e6 18000000 		.4byte	.LFE2
 4485 00ea 0600     		.2byte	0x6
 4486 00ec F3       		.byte	0xf3
 4487 00ed 03       		.uleb128 0x3
 4488 00ee F5       		.byte	0xf5
 4489 00ef 00       		.uleb128 0
 4490 00f0 25       		.uleb128 0x25
 4491 00f1 9F       		.byte	0x9f
 4492 00f2 00000000 		.4byte	0
 4493 00f6 00000000 		.4byte	0
 4494              	.LLST5:
 4495 00fa 00000000 		.4byte	.LVL40
 4496 00fe 0F000000 		.4byte	.LVL42-1
 4497 0102 0100     		.2byte	0x1
 4498 0104 50       		.byte	0x50
 4499 0105 0F000000 		.4byte	.LVL42-1
 4500 0109 12000000 		.4byte	.LVL43
 4501 010d 0600     		.2byte	0x6
 4502 010f F3       		.byte	0xf3
 4503 0110 03       		.uleb128 0x3
 4504 0111 F5       		.byte	0xf5
 4505 0112 00       		.uleb128 0
 4506 0113 25       		.uleb128 0x25
 4507 0114 9F       		.byte	0x9f
 4508 0115 12000000 		.4byte	.LVL43
ARM GAS  C:\Users\A85590\AppData\Local\Temp\cc53CFAh.s 			page 88


 4509 0119 16000000 		.4byte	.LVL44
 4510 011d 0100     		.2byte	0x1
 4511 011f 50       		.byte	0x50
 4512 0120 16000000 		.4byte	.LVL44
 4513 0124 4C010000 		.4byte	.LVL89
 4514 0128 0100     		.2byte	0x1
 4515 012a 54       		.byte	0x54
 4516 012b 00000000 		.4byte	0
 4517 012f 00000000 		.4byte	0
 4518              	.LLST6:
 4519 0133 00000000 		.4byte	.LVL40
 4520 0137 0C000000 		.4byte	.LVL41
 4521 013b 0100     		.2byte	0x1
 4522 013d 51       		.byte	0x51
 4523 013e 0C000000 		.4byte	.LVL41
 4524 0142 1C000000 		.4byte	.LVL46
 4525 0146 0100     		.2byte	0x1
 4526 0148 55       		.byte	0x55
 4527 0149 1C000000 		.4byte	.LVL46
 4528 014d 20000000 		.4byte	.LVL47
 4529 0151 0100     		.2byte	0x1
 4530 0153 50       		.byte	0x50
 4531 0154 20000000 		.4byte	.LVL47
 4532 0158 F4000000 		.4byte	.LVL79
 4533 015c 0100     		.2byte	0x1
 4534 015e 55       		.byte	0x55
 4535 015f 00000000 		.4byte	0
 4536 0163 00000000 		.4byte	0
 4537              	.LLST7:
 4538 0167 00000000 		.4byte	.LVL40
 4539 016b 0F000000 		.4byte	.LVL42-1
 4540 016f 0100     		.2byte	0x1
 4541 0171 52       		.byte	0x52
 4542 0172 0F000000 		.4byte	.LVL42-1
 4543 0176 26000000 		.4byte	.LVL49
 4544 017a 0100     		.2byte	0x1
 4545 017c 56       		.byte	0x56
 4546 017d 26000000 		.4byte	.LVL49
 4547 0181 32000000 		.4byte	.LVL50
 4548 0185 0100     		.2byte	0x1
 4549 0187 50       		.byte	0x50
 4550 0188 32000000 		.4byte	.LVL50
 4551 018c E2000000 		.4byte	.LVL76
 4552 0190 0300     		.2byte	0x3
 4553 0192 91       		.byte	0x91
 4554 0193 9C7F     		.sleb128 -100
 4555 0195 00000000 		.4byte	0
 4556 0199 00000000 		.4byte	0
 4557              	.LLST8:
 4558 019d 00000000 		.4byte	.LVL40
 4559 01a1 0F000000 		.4byte	.LVL42-1
 4560 01a5 0100     		.2byte	0x1
 4561 01a7 53       		.byte	0x53
 4562 01a8 0F000000 		.4byte	.LVL42-1
 4563 01ac 7E010000 		.4byte	.LVL98
 4564 01b0 0300     		.2byte	0x3
 4565 01b2 91       		.byte	0x91
ARM GAS  C:\Users\A85590\AppData\Local\Temp\cc53CFAh.s 			page 89


 4566 01b3 A07F     		.sleb128 -96
 4567 01b5 7E010000 		.4byte	.LVL98
 4568 01b9 82010000 		.4byte	.LVL99
 4569 01bd 0100     		.2byte	0x1
 4570 01bf 50       		.byte	0x50
 4571 01c0 82010000 		.4byte	.LVL99
 4572 01c4 1C040000 		.4byte	.LVL213
 4573 01c8 0300     		.2byte	0x3
 4574 01ca 91       		.byte	0x91
 4575 01cb 9C7F     		.sleb128 -100
 4576 01cd 00000000 		.4byte	0
 4577 01d1 00000000 		.4byte	0
 4578              	.LLST9:
 4579 01d5 00000000 		.4byte	.LVL40
 4580 01d9 88010000 		.4byte	.LVL101
 4581 01dd 0200     		.2byte	0x2
 4582 01df 91       		.byte	0x91
 4583 01e0 00       		.sleb128 0
 4584 01e1 88010000 		.4byte	.LVL101
 4585 01e5 8C010000 		.4byte	.LVL102
 4586 01e9 0100     		.2byte	0x1
 4587 01eb 50       		.byte	0x50
 4588 01ec 8C010000 		.4byte	.LVL102
 4589 01f0 26040000 		.4byte	.LVL216
 4590 01f4 0300     		.2byte	0x3
 4591 01f6 91       		.byte	0x91
 4592 01f7 A07F     		.sleb128 -96
 4593 01f9 00000000 		.4byte	0
 4594 01fd 00000000 		.4byte	0
 4595              	.LLST10:
 4596 0201 00000000 		.4byte	.LVL40
 4597 0205 92010000 		.4byte	.LVL104
 4598 0209 0200     		.2byte	0x2
 4599 020b 91       		.byte	0x91
 4600 020c 04       		.sleb128 4
 4601 020d 92010000 		.4byte	.LVL104
 4602 0211 96010000 		.4byte	.LVL105
 4603 0215 0100     		.2byte	0x1
 4604 0217 50       		.byte	0x50
 4605 0218 96010000 		.4byte	.LVL105
 4606 021c 86040000 		.4byte	.LVL239
 4607 0220 0200     		.2byte	0x2
 4608 0222 91       		.byte	0x91
 4609 0223 48       		.sleb128 -56
 4610 0224 00000000 		.4byte	0
 4611 0228 00000000 		.4byte	0
 4612              	.LLST11:
 4613 022c 74010000 		.4byte	.LVL95
 4614 0230 78010000 		.4byte	.LVL96
 4615 0234 0100     		.2byte	0x1
 4616 0236 50       		.byte	0x50
 4617 0237 78010000 		.4byte	.LVL96
 4618 023b 7B010000 		.4byte	.LVL97-1
 4619 023f 0100     		.2byte	0x1
 4620 0241 51       		.byte	0x51
 4621 0242 7B010000 		.4byte	.LVL97-1
 4622 0246 CA010000 		.4byte	.LVL119
ARM GAS  C:\Users\A85590\AppData\Local\Temp\cc53CFAh.s 			page 90


 4623 024a 0100     		.2byte	0x1
 4624 024c 54       		.byte	0x54
 4625 024d 12040000 		.4byte	.LVL210
 4626 0251 16040000 		.4byte	.LVL211
 4627 0255 0100     		.2byte	0x1
 4628 0257 50       		.byte	0x50
 4629 0258 16040000 		.4byte	.LVL211
 4630 025c 19040000 		.4byte	.LVL212-1
 4631 0260 0100     		.2byte	0x1
 4632 0262 51       		.byte	0x51
 4633 0263 19040000 		.4byte	.LVL212-1
 4634 0267 3E040000 		.4byte	.LVL223
 4635 026b 0100     		.2byte	0x1
 4636 026d 54       		.byte	0x54
 4637 026e 1A050000 		.4byte	.LVL256
 4638 0272 1E050000 		.4byte	.LVL257
 4639 0276 0100     		.2byte	0x1
 4640 0278 50       		.byte	0x50
 4641 0279 1E050000 		.4byte	.LVL257
 4642 027d 21050000 		.4byte	.LVL258-1
 4643 0281 0100     		.2byte	0x1
 4644 0283 51       		.byte	0x51
 4645 0284 21050000 		.4byte	.LVL258-1
 4646 0288 48050000 		.4byte	.LVL262
 4647 028c 0100     		.2byte	0x1
 4648 028e 54       		.byte	0x54
 4649 028f 00000000 		.4byte	0
 4650 0293 00000000 		.4byte	0
 4651              	.LLST12:
 4652 0297 68020000 		.4byte	.LVL153
 4653 029b 6C020000 		.4byte	.LVL154
 4654 029f 0100     		.2byte	0x1
 4655 02a1 50       		.byte	0x50
 4656 02a2 6C020000 		.4byte	.LVL154
 4657 02a6 1C040000 		.4byte	.LVL213
 4658 02aa 0200     		.2byte	0x2
 4659 02ac 91       		.byte	0x91
 4660 02ad 44       		.sleb128 -60
 4661 02ae 1C040000 		.4byte	.LVL213
 4662 02b2 20040000 		.4byte	.LVL214
 4663 02b6 0100     		.2byte	0x1
 4664 02b8 50       		.byte	0x50
 4665 02b9 20040000 		.4byte	.LVL214
 4666 02bd 86040000 		.4byte	.LVL239
 4667 02c1 0300     		.2byte	0x3
 4668 02c3 91       		.byte	0x91
 4669 02c4 9C7F     		.sleb128 -100
 4670 02c6 00000000 		.4byte	0
 4671 02ca 00000000 		.4byte	0
 4672              	.LLST13:
 4673 02ce F0020000 		.4byte	.LVL171
 4674 02d2 F4020000 		.4byte	.LVL172
 4675 02d6 0100     		.2byte	0x1
 4676 02d8 50       		.byte	0x50
 4677 02d9 F4020000 		.4byte	.LVL172
 4678 02dd 26040000 		.4byte	.LVL216
 4679 02e1 0300     		.2byte	0x3
ARM GAS  C:\Users\A85590\AppData\Local\Temp\cc53CFAh.s 			page 91


 4680 02e3 91       		.byte	0x91
 4681 02e4 B87F     		.sleb128 -72
 4682 02e6 26040000 		.4byte	.LVL216
 4683 02ea 2A040000 		.4byte	.LVL217
 4684 02ee 0100     		.2byte	0x1
 4685 02f0 50       		.byte	0x50
 4686 02f1 2A040000 		.4byte	.LVL217
 4687 02f5 86040000 		.4byte	.LVL239
 4688 02f9 0300     		.2byte	0x3
 4689 02fb 91       		.byte	0x91
 4690 02fc A07F     		.sleb128 -96
 4691 02fe 00000000 		.4byte	0
 4692 0302 00000000 		.4byte	0
 4693              	.LLST14:
 4694 0306 72030000 		.4byte	.LVL189
 4695 030a 78030000 		.4byte	.LVL190
 4696 030e 0100     		.2byte	0x1
 4697 0310 50       		.byte	0x50
 4698 0311 78030000 		.4byte	.LVL190
 4699 0315 30040000 		.4byte	.LVL219
 4700 0319 0300     		.2byte	0x3
 4701 031b 91       		.byte	0x91
 4702 031c BC7F     		.sleb128 -68
 4703 031e 30040000 		.4byte	.LVL219
 4704 0322 34040000 		.4byte	.LVL220
 4705 0326 0100     		.2byte	0x1
 4706 0328 50       		.byte	0x50
 4707 0329 34040000 		.4byte	.LVL220
 4708 032d 86040000 		.4byte	.LVL239
 4709 0331 0300     		.2byte	0x3
 4710 0333 91       		.byte	0x91
 4711 0334 A47F     		.sleb128 -92
 4712 0336 00000000 		.4byte	0
 4713 033a 00000000 		.4byte	0
 4714              	.LLST15:
 4715 033e C8030000 		.4byte	.LVL200
 4716 0342 CE030000 		.4byte	.LVL201
 4717 0346 0100     		.2byte	0x1
 4718 0348 50       		.byte	0x50
 4719 0349 CE030000 		.4byte	.LVL201
 4720 034d 3A040000 		.4byte	.LVL222
 4721 0351 0100     		.2byte	0x1
 4722 0353 55       		.byte	0x55
 4723 0354 3A040000 		.4byte	.LVL222
 4724 0358 42040000 		.4byte	.LVL224
 4725 035c 0100     		.2byte	0x1
 4726 035e 50       		.byte	0x50
 4727 035f 42040000 		.4byte	.LVL224
 4728 0363 86040000 		.4byte	.LVL239
 4729 0367 0100     		.2byte	0x1
 4730 0369 55       		.byte	0x55
 4731 036a 00000000 		.4byte	0
 4732 036e 00000000 		.4byte	0
 4733              	.LLST16:
 4734 0372 6A000000 		.4byte	.LVL57
 4735 0376 70000000 		.4byte	.LVL58
 4736 037a 0100     		.2byte	0x1
ARM GAS  C:\Users\A85590\AppData\Local\Temp\cc53CFAh.s 			page 92


 4737 037c 50       		.byte	0x50
 4738 037d 70000000 		.4byte	.LVL58
 4739 0381 50040000 		.4byte	.LVL227
 4740 0385 0300     		.2byte	0x3
 4741 0387 91       		.byte	0x91
 4742 0388 A87F     		.sleb128 -88
 4743 038a 50040000 		.4byte	.LVL227
 4744 038e 54040000 		.4byte	.LVL228
 4745 0392 0100     		.2byte	0x1
 4746 0394 50       		.byte	0x50
 4747 0395 54040000 		.4byte	.LVL228
 4748 0399 50050000 		.4byte	.LFE4
 4749 039d 0300     		.2byte	0x3
 4750 039f 91       		.byte	0x91
 4751 03a0 A87F     		.sleb128 -88
 4752 03a2 00000000 		.4byte	0
 4753 03a6 00000000 		.4byte	0
 4754              	.LLST17:
 4755 03aa A2000000 		.4byte	.LVL65
 4756 03ae A6000000 		.4byte	.LVL66
 4757 03b2 0100     		.2byte	0x1
 4758 03b4 50       		.byte	0x50
 4759 03b5 A6000000 		.4byte	.LVL66
 4760 03b9 62040000 		.4byte	.LVL231
 4761 03bd 0300     		.2byte	0x3
 4762 03bf 91       		.byte	0x91
 4763 03c0 AC7F     		.sleb128 -84
 4764 03c2 62040000 		.4byte	.LVL231
 4765 03c6 66040000 		.4byte	.LVL232
 4766 03ca 0100     		.2byte	0x1
 4767 03cc 50       		.byte	0x50
 4768 03cd 66040000 		.4byte	.LVL232
 4769 03d1 50050000 		.4byte	.LFE4
 4770 03d5 0300     		.2byte	0x3
 4771 03d7 91       		.byte	0x91
 4772 03d8 AC7F     		.sleb128 -84
 4773 03da 00000000 		.4byte	0
 4774 03de 00000000 		.4byte	0
 4775              	.LLST18:
 4776 03e2 D8000000 		.4byte	.LVL73
 4777 03e6 DC000000 		.4byte	.LVL74
 4778 03ea 0100     		.2byte	0x1
 4779 03ec 50       		.byte	0x50
 4780 03ed DC000000 		.4byte	.LVL74
 4781 03f1 74040000 		.4byte	.LVL235
 4782 03f5 0300     		.2byte	0x3
 4783 03f7 91       		.byte	0x91
 4784 03f8 B07F     		.sleb128 -80
 4785 03fa 74040000 		.4byte	.LVL235
 4786 03fe 78040000 		.4byte	.LVL236
 4787 0402 0100     		.2byte	0x1
 4788 0404 50       		.byte	0x50
 4789 0405 78040000 		.4byte	.LVL236
 4790 0409 50050000 		.4byte	.LFE4
 4791 040d 0300     		.2byte	0x3
 4792 040f 91       		.byte	0x91
 4793 0410 B07F     		.sleb128 -80
ARM GAS  C:\Users\A85590\AppData\Local\Temp\cc53CFAh.s 			page 93


 4794 0412 00000000 		.4byte	0
 4795 0416 00000000 		.4byte	0
 4796              	.LLST19:
 4797 041a 0E010000 		.4byte	.LVL83
 4798 041e 12010000 		.4byte	.LVL84
 4799 0422 0100     		.2byte	0x1
 4800 0424 50       		.byte	0x50
 4801 0425 12010000 		.4byte	.LVL84
 4802 0429 50050000 		.4byte	.LFE4
 4803 042d 0300     		.2byte	0x3
 4804 042f 91       		.byte	0x91
 4805 0430 B47F     		.sleb128 -76
 4806 0432 00000000 		.4byte	0
 4807 0436 00000000 		.4byte	0
 4808              	.LLST20:
 4809 043a 9C010000 		.4byte	.LVL107
 4810 043e A0010000 		.4byte	.LVL108
 4811 0442 0100     		.2byte	0x1
 4812 0444 50       		.byte	0x50
 4813 0445 A0010000 		.4byte	.LVL108
 4814 0449 86040000 		.4byte	.LVL239
 4815 044d 0200     		.2byte	0x2
 4816 044f 91       		.byte	0x91
 4817 0450 4C       		.sleb128 -52
 4818 0451 00000000 		.4byte	0
 4819 0455 00000000 		.4byte	0
 4820              	.LLST21:
 4821 0459 A6010000 		.4byte	.LVL110
 4822 045d AC010000 		.4byte	.LVL111
 4823 0461 0100     		.2byte	0x1
 4824 0463 50       		.byte	0x50
 4825 0464 AC010000 		.4byte	.LVL111
 4826 0468 86040000 		.4byte	.LVL239
 4827 046c 0200     		.2byte	0x2
 4828 046e 91       		.byte	0x91
 4829 046f 50       		.sleb128 -48
 4830 0470 00000000 		.4byte	0
 4831 0474 00000000 		.4byte	0
 4832              	.LLST22:
 4833 0478 B2010000 		.4byte	.LVL113
 4834 047c B8010000 		.4byte	.LVL114
 4835 0480 0100     		.2byte	0x1
 4836 0482 50       		.byte	0x50
 4837 0483 B8010000 		.4byte	.LVL114
 4838 0487 86040000 		.4byte	.LVL239
 4839 048b 0200     		.2byte	0x2
 4840 048d 91       		.byte	0x91
 4841 048e 54       		.sleb128 -44
 4842 048f 00000000 		.4byte	0
 4843 0493 00000000 		.4byte	0
 4844              	.LLST23:
 4845 0497 BE010000 		.4byte	.LVL116
 4846 049b C4010000 		.4byte	.LVL117
 4847 049f 0100     		.2byte	0x1
 4848 04a1 50       		.byte	0x50
 4849 04a2 C4010000 		.4byte	.LVL117
 4850 04a6 86040000 		.4byte	.LVL239
ARM GAS  C:\Users\A85590\AppData\Local\Temp\cc53CFAh.s 			page 94


 4851 04aa 0200     		.2byte	0x2
 4852 04ac 91       		.byte	0x91
 4853 04ad 58       		.sleb128 -40
 4854 04ae 00000000 		.4byte	0
 4855 04b2 00000000 		.4byte	0
 4856              	.LLST24:
 4857 04b6 CA010000 		.4byte	.LVL119
 4858 04ba D0010000 		.4byte	.LVL120
 4859 04be 0100     		.2byte	0x1
 4860 04c0 50       		.byte	0x50
 4861 04c1 D0010000 		.4byte	.LVL120
 4862 04c5 56020000 		.4byte	.LVL150
 4863 04c9 0100     		.2byte	0x1
 4864 04cb 54       		.byte	0x54
 4865 04cc 00000000 		.4byte	0
 4866 04d0 00000000 		.4byte	0
 4867              	.LLST25:
 4868 04d4 D6010000 		.4byte	.LVL122
 4869 04d8 DC010000 		.4byte	.LVL123
 4870 04dc 0100     		.2byte	0x1
 4871 04de 50       		.byte	0x50
 4872 04df DC010000 		.4byte	.LVL123
 4873 04e3 F0020000 		.4byte	.LVL171
 4874 04e7 0300     		.2byte	0x3
 4875 04e9 91       		.byte	0x91
 4876 04ea B87F     		.sleb128 -72
 4877 04ec 00000000 		.4byte	0
 4878 04f0 00000000 		.4byte	0
 4879              	.LLST26:
 4880 04f4 E2010000 		.4byte	.LVL125
 4881 04f8 E8010000 		.4byte	.LVL126
 4882 04fc 0100     		.2byte	0x1
 4883 04fe 50       		.byte	0x50
 4884 04ff E8010000 		.4byte	.LVL126
 4885 0503 32030000 		.4byte	.LVL180
 4886 0507 0300     		.2byte	0x3
 4887 0509 91       		.byte	0x91
 4888 050a BC7F     		.sleb128 -68
 4889 050c 32030000 		.4byte	.LVL180
 4890 0510 3C030000 		.4byte	.LVL182
 4891 0514 0100     		.2byte	0x1
 4892 0516 55       		.byte	0x55
 4893 0517 3C030000 		.4byte	.LVL182
 4894 051b 72030000 		.4byte	.LVL189
 4895 051f 0300     		.2byte	0x3
 4896 0521 91       		.byte	0x91
 4897 0522 BC7F     		.sleb128 -68
 4898 0524 00000000 		.4byte	0
 4899 0528 00000000 		.4byte	0
 4900              	.LLST27:
 4901 052c EE010000 		.4byte	.LVL128
 4902 0530 F6010000 		.4byte	.LVL129
 4903 0534 0100     		.2byte	0x1
 4904 0536 50       		.byte	0x50
 4905 0537 F6010000 		.4byte	.LVL129
 4906 053b 86040000 		.4byte	.LVL239
 4907 053f 0200     		.2byte	0x2
ARM GAS  C:\Users\A85590\AppData\Local\Temp\cc53CFAh.s 			page 95


 4908 0541 91       		.byte	0x91
 4909 0542 5C       		.sleb128 -36
 4910 0543 00000000 		.4byte	0
 4911 0547 00000000 		.4byte	0
 4912              	.LLST28:
 4913 054b FC010000 		.4byte	.LVL131
 4914 054f 00020000 		.4byte	.LVL132
 4915 0553 0100     		.2byte	0x1
 4916 0555 50       		.byte	0x50
 4917 0556 00020000 		.4byte	.LVL132
 4918 055a 86040000 		.4byte	.LVL239
 4919 055e 0200     		.2byte	0x2
 4920 0560 91       		.byte	0x91
 4921 0561 60       		.sleb128 -32
 4922 0562 00000000 		.4byte	0
 4923 0566 00000000 		.4byte	0
 4924              	.LLST29:
 4925 056a 06020000 		.4byte	.LVL134
 4926 056e 0A020000 		.4byte	.LVL135
 4927 0572 0100     		.2byte	0x1
 4928 0574 50       		.byte	0x50
 4929 0575 0A020000 		.4byte	.LVL135
 4930 0579 90020000 		.4byte	.LVL159
 4931 057d 0100     		.2byte	0x1
 4932 057f 55       		.byte	0x55
 4933 0580 00000000 		.4byte	0
 4934 0584 00000000 		.4byte	0
 4935              	.LLST30:
 4936 0588 10020000 		.4byte	.LVL137
 4937 058c 16020000 		.4byte	.LVL138
 4938 0590 0100     		.2byte	0x1
 4939 0592 50       		.byte	0x50
 4940 0593 16020000 		.4byte	.LVL138
 4941 0597 86040000 		.4byte	.LVL239
 4942 059b 0200     		.2byte	0x2
 4943 059d 91       		.byte	0x91
 4944 059e 40       		.sleb128 -64
 4945 059f 00000000 		.4byte	0
 4946 05a3 00000000 		.4byte	0
 4947              	.LLST31:
 4948 05a7 1C020000 		.4byte	.LVL140
 4949 05ab 22020000 		.4byte	.LVL141
 4950 05af 0100     		.2byte	0x1
 4951 05b1 50       		.byte	0x50
 4952 05b2 22020000 		.4byte	.LVL141
 4953 05b6 30040000 		.4byte	.LVL219
 4954 05ba 0300     		.2byte	0x3
 4955 05bc 91       		.byte	0x91
 4956 05bd A47F     		.sleb128 -92
 4957 05bf 00000000 		.4byte	0
 4958 05c3 00000000 		.4byte	0
 4959              	.LLST32:
 4960 05c7 28020000 		.4byte	.LVL143
 4961 05cb 2C020000 		.4byte	.LVL144
 4962 05cf 0100     		.2byte	0x1
 4963 05d1 50       		.byte	0x50
 4964 05d2 2C020000 		.4byte	.LVL144
ARM GAS  C:\Users\A85590\AppData\Local\Temp\cc53CFAh.s 			page 96


 4965 05d6 86040000 		.4byte	.LVL239
 4966 05da 0200     		.2byte	0x2
 4967 05dc 91       		.byte	0x91
 4968 05dd 64       		.sleb128 -28
 4969 05de 00000000 		.4byte	0
 4970 05e2 00000000 		.4byte	0
 4971              	.LLST33:
 4972 05e6 00000000 		.4byte	.LVL263
 4973 05ea 16000000 		.4byte	.LVL265
 4974 05ee 0100     		.2byte	0x1
 4975 05f0 50       		.byte	0x50
 4976 05f1 16000000 		.4byte	.LVL265
 4977 05f5 58000000 		.4byte	.LVL271
 4978 05f9 0100     		.2byte	0x1
 4979 05fb 54       		.byte	0x54
 4980 05fc 58000000 		.4byte	.LVL271
 4981 0600 5C000000 		.4byte	.LVL272
 4982 0604 0100     		.2byte	0x1
 4983 0606 50       		.byte	0x50
 4984 0607 5C000000 		.4byte	.LVL272
 4985 060b 12020000 		.4byte	.LVL341
 4986 060f 0300     		.2byte	0x3
 4987 0611 91       		.byte	0x91
 4988 0612 E87E     		.sleb128 -152
 4989 0614 00000000 		.4byte	0
 4990 0618 00000000 		.4byte	0
 4991              	.LLST34:
 4992 061c 00000000 		.4byte	.LVL263
 4993 0620 14000000 		.4byte	.LVL264
 4994 0624 0100     		.2byte	0x1
 4995 0626 51       		.byte	0x51
 4996 0627 14000000 		.4byte	.LVL264
 4997 062b 62000000 		.4byte	.LVL274
 4998 062f 0100     		.2byte	0x1
 4999 0631 55       		.byte	0x55
 5000 0632 62000000 		.4byte	.LVL274
 5001 0636 66000000 		.4byte	.LVL275
 5002 063a 0100     		.2byte	0x1
 5003 063c 50       		.byte	0x50
 5004 063d 66000000 		.4byte	.LVL275
 5005 0641 1C020000 		.4byte	.LVL344
 5006 0645 0300     		.2byte	0x3
 5007 0647 91       		.byte	0x91
 5008 0648 EC7E     		.sleb128 -148
 5009 064a 00000000 		.4byte	0
 5010 064e 00000000 		.4byte	0
 5011              	.LLST35:
 5012 0652 00000000 		.4byte	.LVL263
 5013 0656 19000000 		.4byte	.LVL266-1
 5014 065a 0100     		.2byte	0x1
 5015 065c 52       		.byte	0x52
 5016 065d 19000000 		.4byte	.LVL266-1
 5017 0661 6C000000 		.4byte	.LVL277
 5018 0665 0100     		.2byte	0x1
 5019 0667 56       		.byte	0x56
 5020 0668 6C000000 		.4byte	.LVL277
 5021 066c 78000000 		.4byte	.LVL278
ARM GAS  C:\Users\A85590\AppData\Local\Temp\cc53CFAh.s 			page 97


 5022 0670 0100     		.2byte	0x1
 5023 0672 50       		.byte	0x50
 5024 0673 78000000 		.4byte	.LVL278
 5025 0677 E2020000 		.4byte	.LVL398
 5026 067b 0300     		.2byte	0x3
 5027 067d 91       		.byte	0x91
 5028 067e F07E     		.sleb128 -144
 5029 0680 00000000 		.4byte	0
 5030 0684 00000000 		.4byte	0
 5031              	.LLST36:
 5032 0688 00000000 		.4byte	.LVL263
 5033 068c 19000000 		.4byte	.LVL266-1
 5034 0690 0100     		.2byte	0x1
 5035 0692 53       		.byte	0x53
 5036 0693 19000000 		.4byte	.LVL266-1
 5037 0697 C2010000 		.4byte	.LVL323
 5038 069b 0300     		.2byte	0x3
 5039 069d 91       		.byte	0x91
 5040 069e F47E     		.sleb128 -140
 5041 06a0 C2010000 		.4byte	.LVL323
 5042 06a4 C6010000 		.4byte	.LVL324
 5043 06a8 0100     		.2byte	0x1
 5044 06aa 50       		.byte	0x50
 5045 06ab C6010000 		.4byte	.LVL324
 5046 06af 6A050000 		.4byte	.LVL494
 5047 06b3 0200     		.2byte	0x2
 5048 06b5 91       		.byte	0x91
 5049 06b6 40       		.sleb128 -64
 5050 06b7 00000000 		.4byte	0
 5051 06bb 00000000 		.4byte	0
 5052              	.LLST37:
 5053 06bf 00000000 		.4byte	.LVL263
 5054 06c3 CC010000 		.4byte	.LVL326
 5055 06c7 0200     		.2byte	0x2
 5056 06c9 91       		.byte	0x91
 5057 06ca 00       		.sleb128 0
 5058 06cb CC010000 		.4byte	.LVL326
 5059 06cf D0010000 		.4byte	.LVL327
 5060 06d3 0100     		.2byte	0x1
 5061 06d5 50       		.byte	0x50
 5062 06d6 D0010000 		.4byte	.LVL327
 5063 06da C8050000 		.4byte	.LVL507
 5064 06de 0200     		.2byte	0x2
 5065 06e0 91       		.byte	0x91
 5066 06e1 44       		.sleb128 -60
 5067 06e2 00000000 		.4byte	0
 5068 06e6 00000000 		.4byte	0
 5069              	.LLST38:
 5070 06ea 00000000 		.4byte	.LVL263
 5071 06ee D6010000 		.4byte	.LVL329
 5072 06f2 0200     		.2byte	0x2
 5073 06f4 91       		.byte	0x91
 5074 06f5 04       		.sleb128 4
 5075 06f6 D6010000 		.4byte	.LVL329
 5076 06fa DA010000 		.4byte	.LVL330
 5077 06fe 0100     		.2byte	0x1
 5078 0700 50       		.byte	0x50
ARM GAS  C:\Users\A85590\AppData\Local\Temp\cc53CFAh.s 			page 98


 5079 0701 DA010000 		.4byte	.LVL330
 5080 0705 4A090000 		.4byte	.LVL641
 5081 0709 0200     		.2byte	0x2
 5082 070b 91       		.byte	0x91
 5083 070c 48       		.sleb128 -56
 5084 070d 00000000 		.4byte	0
 5085 0711 00000000 		.4byte	0
 5086              	.LLST39:
 5087 0715 00000000 		.4byte	.LVL263
 5088 0719 12020000 		.4byte	.LVL341
 5089 071d 0200     		.2byte	0x2
 5090 071f 91       		.byte	0x91
 5091 0720 08       		.sleb128 8
 5092 0721 12020000 		.4byte	.LVL341
 5093 0725 16020000 		.4byte	.LVL342
 5094 0729 0100     		.2byte	0x1
 5095 072b 50       		.byte	0x50
 5096 072c 16020000 		.4byte	.LVL342
 5097 0730 FA020000 		.4byte	.LVL405
 5098 0734 0300     		.2byte	0x3
 5099 0736 91       		.byte	0x91
 5100 0737 E87E     		.sleb128 -152
 5101 0739 FA020000 		.4byte	.LVL405
 5102 073d 02030000 		.4byte	.LVL408
 5103 0741 0100     		.2byte	0x1
 5104 0743 54       		.byte	0x54
 5105 0744 02030000 		.4byte	.LVL408
 5106 0748 A6050000 		.4byte	.LVL504
 5107 074c 0300     		.2byte	0x3
 5108 074e 91       		.byte	0x91
 5109 074f E87E     		.sleb128 -152
 5110 0751 00000000 		.4byte	0
 5111 0755 00000000 		.4byte	0
 5112              	.LLST40:
 5113 0759 00000000 		.4byte	.LVL263
 5114 075d 1C020000 		.4byte	.LVL344
 5115 0761 0200     		.2byte	0x2
 5116 0763 91       		.byte	0x91
 5117 0764 0C       		.sleb128 12
 5118 0765 1C020000 		.4byte	.LVL344
 5119 0769 20020000 		.4byte	.LVL345
 5120 076d 0100     		.2byte	0x1
 5121 076f 50       		.byte	0x50
 5122 0770 20020000 		.4byte	.LVL345
 5123 0774 14040000 		.4byte	.LVL441
 5124 0778 0300     		.2byte	0x3
 5125 077a 91       		.byte	0x91
 5126 077b EC7E     		.sleb128 -148
 5127 077d 14040000 		.4byte	.LVL441
 5128 0781 4A040000 		.4byte	.LVL452
 5129 0785 0100     		.2byte	0x1
 5130 0787 56       		.byte	0x56
 5131 0788 4A040000 		.4byte	.LVL452
 5132 078c 18060000 		.4byte	.LVL519
 5133 0790 0300     		.2byte	0x3
 5134 0792 91       		.byte	0x91
 5135 0793 EC7E     		.sleb128 -148
ARM GAS  C:\Users\A85590\AppData\Local\Temp\cc53CFAh.s 			page 99


 5136 0795 00000000 		.4byte	0
 5137 0799 00000000 		.4byte	0
 5138              	.LLST41:
 5139 079d 00000000 		.4byte	.LVL263
 5140 07a1 26020000 		.4byte	.LVL347
 5141 07a5 0200     		.2byte	0x2
 5142 07a7 91       		.byte	0x91
 5143 07a8 10       		.sleb128 16
 5144 07a9 26020000 		.4byte	.LVL347
 5145 07ad 2C020000 		.4byte	.LVL348
 5146 07b1 0100     		.2byte	0x1
 5147 07b3 50       		.byte	0x50
 5148 07b4 2C020000 		.4byte	.LVL348
 5149 07b8 60020000 		.4byte	.LVL360
 5150 07bc 0100     		.2byte	0x1
 5151 07be 54       		.byte	0x54
 5152 07bf 60020000 		.4byte	.LVL360
 5153 07c3 E2040000 		.4byte	.LVL471
 5154 07c7 0300     		.2byte	0x3
 5155 07c9 91       		.byte	0x91
 5156 07ca FC7E     		.sleb128 -132
 5157 07cc 00000000 		.4byte	0
 5158 07d0 00000000 		.4byte	0
 5159              	.LLST42:
 5160 07d4 B8010000 		.4byte	.LVL320
 5161 07d8 BC010000 		.4byte	.LVL321
 5162 07dc 0100     		.2byte	0x1
 5163 07de 50       		.byte	0x50
 5164 07df BC010000 		.4byte	.LVL321
 5165 07e3 BF010000 		.4byte	.LVL322-1
 5166 07e7 0100     		.2byte	0x1
 5167 07e9 51       		.byte	0x51
 5168 07ea BF010000 		.4byte	.LVL322-1
 5169 07ee E0010000 		.4byte	.LVL332
 5170 07f2 0100     		.2byte	0x1
 5171 07f4 54       		.byte	0x54
 5172 07f5 08020000 		.4byte	.LVL338
 5173 07f9 0C020000 		.4byte	.LVL339
 5174 07fd 0100     		.2byte	0x1
 5175 07ff 50       		.byte	0x50
 5176 0800 0C020000 		.4byte	.LVL339
 5177 0804 0F020000 		.4byte	.LVL340-1
 5178 0808 0100     		.2byte	0x1
 5179 080a 51       		.byte	0x51
 5180 080b 0F020000 		.4byte	.LVL340-1
 5181 080f 26020000 		.4byte	.LVL347
 5182 0813 0100     		.2byte	0x1
 5183 0815 54       		.byte	0x54
 5184 0816 D6080000 		.4byte	.LVL612
 5185 081a DA080000 		.4byte	.LVL613
 5186 081e 0100     		.2byte	0x1
 5187 0820 50       		.byte	0x50
 5188 0821 DA080000 		.4byte	.LVL613
 5189 0825 DD080000 		.4byte	.LVL614-1
 5190 0829 0100     		.2byte	0x1
 5191 082b 51       		.byte	0x51
 5192 082c DD080000 		.4byte	.LVL614-1
ARM GAS  C:\Users\A85590\AppData\Local\Temp\cc53CFAh.s 			page 100


 5193 0830 02090000 		.4byte	.LVL625
 5194 0834 0100     		.2byte	0x1
 5195 0836 54       		.byte	0x54
 5196 0837 D6090000 		.4byte	.LVL658
 5197 083b DA090000 		.4byte	.LVL659
 5198 083f 0100     		.2byte	0x1
 5199 0841 50       		.byte	0x50
 5200 0842 DA090000 		.4byte	.LVL659
 5201 0846 DD090000 		.4byte	.LVL660-1
 5202 084a 0100     		.2byte	0x1
 5203 084c 51       		.byte	0x51
 5204 084d DD090000 		.4byte	.LVL660-1
 5205 0851 020A0000 		.4byte	.LVL664
 5206 0855 0100     		.2byte	0x1
 5207 0857 54       		.byte	0x54
 5208 0858 00000000 		.4byte	0
 5209 085c 00000000 		.4byte	0
 5210              	.LLST43:
 5211 0860 84060000 		.4byte	.LVL535
 5212 0864 88060000 		.4byte	.LVL536
 5213 0868 0100     		.2byte	0x1
 5214 086a 50       		.byte	0x50
 5215 086b 88060000 		.4byte	.LVL536
 5216 086f E0080000 		.4byte	.LVL615
 5217 0873 0300     		.2byte	0x3
 5218 0875 91       		.byte	0x91
 5219 0876 947F     		.sleb128 -108
 5220 0878 E0080000 		.4byte	.LVL615
 5221 087c E4080000 		.4byte	.LVL616
 5222 0880 0100     		.2byte	0x1
 5223 0882 50       		.byte	0x50
 5224 0883 E4080000 		.4byte	.LVL616
 5225 0887 4A090000 		.4byte	.LVL641
 5226 088b 0300     		.2byte	0x3
 5227 088d 91       		.byte	0x91
 5228 088e E47E     		.sleb128 -156
 5229 0890 00000000 		.4byte	0
 5230 0894 00000000 		.4byte	0
 5231              	.LLST44:
 5232 0898 5C070000 		.4byte	.LVL564
 5233 089c 6A070000 		.4byte	.LVL565
 5234 08a0 0100     		.2byte	0x1
 5235 08a2 50       		.byte	0x50
 5236 08a3 6A070000 		.4byte	.LVL565
 5237 08a7 EA080000 		.4byte	.LVL618
 5238 08ab 0300     		.2byte	0x3
 5239 08ad 91       		.byte	0x91
 5240 08ae A87F     		.sleb128 -88
 5241 08b0 EA080000 		.4byte	.LVL618
 5242 08b4 EE080000 		.4byte	.LVL619
 5243 08b8 0100     		.2byte	0x1
 5244 08ba 50       		.byte	0x50
 5245 08bb EE080000 		.4byte	.LVL619
 5246 08bf 4A090000 		.4byte	.LVL641
 5247 08c3 0100     		.2byte	0x1
 5248 08c5 56       		.byte	0x56
 5249 08c6 00000000 		.4byte	0
ARM GAS  C:\Users\A85590\AppData\Local\Temp\cc53CFAh.s 			page 101


 5250 08ca 00000000 		.4byte	0
 5251              	.LLST45:
 5252 08ce 16080000 		.4byte	.LVL587
 5253 08d2 1A080000 		.4byte	.LVL588
 5254 08d6 0100     		.2byte	0x1
 5255 08d8 50       		.byte	0x50
 5256 08d9 1A080000 		.4byte	.LVL588
 5257 08dd F4080000 		.4byte	.LVL621
 5258 08e1 0100     		.2byte	0x1
 5259 08e3 57       		.byte	0x57
 5260 08e4 F4080000 		.4byte	.LVL621
 5261 08e8 F8080000 		.4byte	.LVL622
 5262 08ec 0100     		.2byte	0x1
 5263 08ee 50       		.byte	0x50
 5264 08ef F8080000 		.4byte	.LVL622
 5265 08f3 4A090000 		.4byte	.LVL641
 5266 08f7 0100     		.2byte	0x1
 5267 08f9 57       		.byte	0x57
 5268 08fa 00000000 		.4byte	0
 5269 08fe 00000000 		.4byte	0
 5270              	.LLST46:
 5271 0902 8E080000 		.4byte	.LVL602
 5272 0906 94080000 		.4byte	.LVL603
 5273 090a 0100     		.2byte	0x1
 5274 090c 50       		.byte	0x50
 5275 090d 94080000 		.4byte	.LVL603
 5276 0911 FE080000 		.4byte	.LVL624
 5277 0915 0100     		.2byte	0x1
 5278 0917 55       		.byte	0x55
 5279 0918 FE080000 		.4byte	.LVL624
 5280 091c 06090000 		.4byte	.LVL626
 5281 0920 0100     		.2byte	0x1
 5282 0922 50       		.byte	0x50
 5283 0923 06090000 		.4byte	.LVL626
 5284 0927 4A090000 		.4byte	.LVL641
 5285 092b 0100     		.2byte	0x1
 5286 092d 55       		.byte	0x55
 5287 092e 00000000 		.4byte	0
 5288 0932 00000000 		.4byte	0
 5289              	.LLST47:
 5290 0936 AE000000 		.4byte	.LVL285
 5291 093a B6000000 		.4byte	.LVL286
 5292 093e 0100     		.2byte	0x1
 5293 0940 50       		.byte	0x50
 5294 0941 B6000000 		.4byte	.LVL286
 5295 0945 14090000 		.4byte	.LVL629
 5296 0949 0300     		.2byte	0x3
 5297 094b 91       		.byte	0x91
 5298 094c 987F     		.sleb128 -104
 5299 094e 14090000 		.4byte	.LVL629
 5300 0952 18090000 		.4byte	.LVL630
 5301 0956 0100     		.2byte	0x1
 5302 0958 50       		.byte	0x50
 5303 0959 18090000 		.4byte	.LVL630
 5304 095d 020A0000 		.4byte	.LVL664
 5305 0961 0300     		.2byte	0x3
 5306 0963 91       		.byte	0x91
ARM GAS  C:\Users\A85590\AppData\Local\Temp\cc53CFAh.s 			page 102


 5307 0964 987F     		.sleb128 -104
 5308 0966 00000000 		.4byte	0
 5309 096a 00000000 		.4byte	0
 5310              	.LLST48:
 5311 096e E8000000 		.4byte	.LVL293
 5312 0972 EC000000 		.4byte	.LVL294
 5313 0976 0100     		.2byte	0x1
 5314 0978 50       		.byte	0x50
 5315 0979 EC000000 		.4byte	.LVL294
 5316 097d 26090000 		.4byte	.LVL633
 5317 0981 0300     		.2byte	0x3
 5318 0983 91       		.byte	0x91
 5319 0984 9C7F     		.sleb128 -100
 5320 0986 26090000 		.4byte	.LVL633
 5321 098a 2A090000 		.4byte	.LVL634
 5322 098e 0100     		.2byte	0x1
 5323 0990 50       		.byte	0x50
 5324 0991 2A090000 		.4byte	.LVL634
 5325 0995 020A0000 		.4byte	.LVL664
 5326 0999 0300     		.2byte	0x3
 5327 099b 91       		.byte	0x91
 5328 099c 9C7F     		.sleb128 -100
 5329 099e 00000000 		.4byte	0
 5330 09a2 00000000 		.4byte	0
 5331              	.LLST49:
 5332 09a6 1E010000 		.4byte	.LVL301
 5333 09aa 22010000 		.4byte	.LVL302
 5334 09ae 0100     		.2byte	0x1
 5335 09b0 50       		.byte	0x50
 5336 09b1 22010000 		.4byte	.LVL302
 5337 09b5 38090000 		.4byte	.LVL637
 5338 09b9 0300     		.2byte	0x3
 5339 09bb 91       		.byte	0x91
 5340 09bc A07F     		.sleb128 -96
 5341 09be 38090000 		.4byte	.LVL637
 5342 09c2 3C090000 		.4byte	.LVL638
 5343 09c6 0100     		.2byte	0x1
 5344 09c8 50       		.byte	0x50
 5345 09c9 3C090000 		.4byte	.LVL638
 5346 09cd 020A0000 		.4byte	.LVL664
 5347 09d1 0300     		.2byte	0x3
 5348 09d3 91       		.byte	0x91
 5349 09d4 A07F     		.sleb128 -96
 5350 09d6 00000000 		.4byte	0
 5351 09da 00000000 		.4byte	0
 5352              	.LLST50:
 5353 09de 54010000 		.4byte	.LVL309
 5354 09e2 58010000 		.4byte	.LVL310
 5355 09e6 0100     		.2byte	0x1
 5356 09e8 50       		.byte	0x50
 5357 09e9 58010000 		.4byte	.LVL310
 5358 09ed 020A0000 		.4byte	.LVL664
 5359 09f1 0300     		.2byte	0x3
 5360 09f3 91       		.byte	0x91
 5361 09f4 A47F     		.sleb128 -92
 5362 09f6 00000000 		.4byte	0
 5363 09fa 00000000 		.4byte	0
ARM GAS  C:\Users\A85590\AppData\Local\Temp\cc53CFAh.s 			page 103


 5364              	.LLST51:
 5365 09fe 90030000 		.4byte	.LVL425
 5366 0a02 94030000 		.4byte	.LVL426
 5367 0a06 0100     		.2byte	0x1
 5368 0a08 50       		.byte	0x50
 5369 0a09 94030000 		.4byte	.LVL426
 5370 0a0d 06050000 		.4byte	.LVL480
 5371 0a11 0300     		.2byte	0x3
 5372 0a13 91       		.byte	0x91
 5373 0a14 BC7F     		.sleb128 -68
 5374 0a16 00000000 		.4byte	0
 5375 0a1a 00000000 		.4byte	0
 5376              	.LLST52:
 5377 0a1e 24040000 		.4byte	.LVL444
 5378 0a22 2A040000 		.4byte	.LVL445
 5379 0a26 0100     		.2byte	0x1
 5380 0a28 50       		.byte	0x50
 5381 0a29 2A040000 		.4byte	.LVL445
 5382 0a2d 48040000 		.4byte	.LVL451
 5383 0a31 0100     		.2byte	0x1
 5384 0a33 54       		.byte	0x54
 5385 0a34 00000000 		.4byte	0
 5386 0a38 00000000 		.4byte	0
 5387              	.LLST53:
 5388 0a3c 3C020000 		.4byte	.LVL351
 5389 0a40 40020000 		.4byte	.LVL352
 5390 0a44 0100     		.2byte	0x1
 5391 0a46 50       		.byte	0x50
 5392 0a47 40020000 		.4byte	.LVL352
 5393 0a4b 58040000 		.4byte	.LVL454
 5394 0a4f 0300     		.2byte	0x3
 5395 0a51 91       		.byte	0x91
 5396 0a52 F47E     		.sleb128 -140
 5397 0a54 00000000 		.4byte	0
 5398 0a58 00000000 		.4byte	0
 5399              	.LLST54:
 5400 0a5c 46020000 		.4byte	.LVL354
 5401 0a60 4C020000 		.4byte	.LVL355
 5402 0a64 0100     		.2byte	0x1
 5403 0a66 50       		.byte	0x50
 5404 0a67 4C020000 		.4byte	.LVL355
 5405 0a6b 2A050000 		.4byte	.LVL485
 5406 0a6f 0300     		.2byte	0x3
 5407 0a71 91       		.byte	0x91
 5408 0a72 AC7F     		.sleb128 -84
 5409 0a74 00000000 		.4byte	0
 5410 0a78 00000000 		.4byte	0
 5411              	.LLST55:
 5412 0a7c 52020000 		.4byte	.LVL357
 5413 0a80 56020000 		.4byte	.LVL358
 5414 0a84 0100     		.2byte	0x1
 5415 0a86 50       		.byte	0x50
 5416 0a87 56020000 		.4byte	.LVL358
 5417 0a8b 64040000 		.4byte	.LVL456
 5418 0a8f 0300     		.2byte	0x3
 5419 0a91 91       		.byte	0x91
 5420 0a92 8C7F     		.sleb128 -116
ARM GAS  C:\Users\A85590\AppData\Local\Temp\cc53CFAh.s 			page 104


 5421 0a94 00000000 		.4byte	0
 5422 0a98 00000000 		.4byte	0
 5423              	.LLST56:
 5424 0a9c 68020000 		.4byte	.LVL362
 5425 0aa0 6C020000 		.4byte	.LVL363
 5426 0aa4 0100     		.2byte	0x1
 5427 0aa6 50       		.byte	0x50
 5428 0aa7 6C020000 		.4byte	.LVL363
 5429 0aab 4E050000 		.4byte	.LVL490
 5430 0aaf 0300     		.2byte	0x3
 5431 0ab1 91       		.byte	0x91
 5432 0ab2 B07F     		.sleb128 -80
 5433 0ab4 00000000 		.4byte	0
 5434 0ab8 00000000 		.4byte	0
 5435              	.LLST57:
 5436 0abc 46040000 		.4byte	.LVL450
 5437 0ac0 52040000 		.4byte	.LVL453
 5438 0ac4 0100     		.2byte	0x1
 5439 0ac6 50       		.byte	0x50
 5440 0ac7 52040000 		.4byte	.LVL453
 5441 0acb 86050000 		.4byte	.LVL499
 5442 0acf 0100     		.2byte	0x1
 5443 0ad1 57       		.byte	0x57
 5444 0ad2 86050000 		.4byte	.LVL499
 5445 0ad6 42060000 		.4byte	.LVL525
 5446 0ada 0300     		.2byte	0x3
 5447 0adc 91       		.byte	0x91
 5448 0add E47E     		.sleb128 -156
 5449 0adf 42060000 		.4byte	.LVL525
 5450 0ae3 4A060000 		.4byte	.LVL527
 5451 0ae7 0100     		.2byte	0x1
 5452 0ae9 57       		.byte	0x57
 5453 0aea 4A060000 		.4byte	.LVL527
 5454 0aee D0070000 		.4byte	.LVL577
 5455 0af2 0300     		.2byte	0x3
 5456 0af4 91       		.byte	0x91
 5457 0af5 E47E     		.sleb128 -156
 5458 0af7 D0070000 		.4byte	.LVL577
 5459 0afb F4070000 		.4byte	.LVL582
 5460 0aff 0100     		.2byte	0x1
 5461 0b01 57       		.byte	0x57
 5462 0b02 00000000 		.4byte	0
 5463 0b06 00000000 		.4byte	0
 5464              	.LLST58:
 5465 0b0a F2040000 		.4byte	.LVL474
 5466 0b0e F6040000 		.4byte	.LVL475
 5467 0b12 0100     		.2byte	0x1
 5468 0b14 50       		.byte	0x50
 5469 0b15 F6040000 		.4byte	.LVL475
 5470 0b19 3A070000 		.4byte	.LVL559
 5471 0b1d 0100     		.2byte	0x1
 5472 0b1f 54       		.byte	0x54
 5473 0b20 00000000 		.4byte	0
 5474 0b24 00000000 		.4byte	0
 5475              	.LLST59:
 5476 0b28 FC040000 		.4byte	.LVL477
 5477 0b2c 00050000 		.4byte	.LVL478
ARM GAS  C:\Users\A85590\AppData\Local\Temp\cc53CFAh.s 			page 105


 5478 0b30 0100     		.2byte	0x1
 5479 0b32 50       		.byte	0x50
 5480 0b33 00050000 		.4byte	.LVL478
 5481 0b37 4A090000 		.4byte	.LVL641
 5482 0b3b 0100     		.2byte	0x1
 5483 0b3d 59       		.byte	0x59
 5484 0b3e 00000000 		.4byte	0
 5485 0b42 00000000 		.4byte	0
 5486              	.LLST60:
 5487 0b46 06050000 		.4byte	.LVL480
 5488 0b4a 18050000 		.4byte	.LVL481
 5489 0b4e 0100     		.2byte	0x1
 5490 0b50 50       		.byte	0x50
 5491 0b51 18050000 		.4byte	.LVL481
 5492 0b55 4A090000 		.4byte	.LVL641
 5493 0b59 0300     		.2byte	0x3
 5494 0b5b 91       		.byte	0x91
 5495 0b5c BC7F     		.sleb128 -68
 5496 0b5e 00000000 		.4byte	0
 5497 0b62 00000000 		.4byte	0
 5498              	.LLST61:
 5499 0b66 68020000 		.4byte	.LVL362
 5500 0b6a 4A090000 		.4byte	.LVL641
 5501 0b6e 0300     		.2byte	0x3
 5502 0b70 91       		.byte	0x91
 5503 0b71 807F     		.sleb128 -128
 5504 0b73 00000000 		.4byte	0
 5505 0b77 00000000 		.4byte	0
 5506              	.LLST62:
 5507 0b7b 68020000 		.4byte	.LVL362
 5508 0b7f 4A090000 		.4byte	.LVL641
 5509 0b83 0300     		.2byte	0x3
 5510 0b85 91       		.byte	0x91
 5511 0b86 907F     		.sleb128 -112
 5512 0b88 00000000 		.4byte	0
 5513 0b8c 00000000 		.4byte	0
 5514              	.LLST63:
 5515 0b90 72020000 		.4byte	.LVL365
 5516 0b94 76020000 		.4byte	.LVL366
 5517 0b98 0100     		.2byte	0x1
 5518 0b9a 50       		.byte	0x50
 5519 0b9b 76020000 		.4byte	.LVL366
 5520 0b9f 4A090000 		.4byte	.LVL641
 5521 0ba3 0300     		.2byte	0x3
 5522 0ba5 91       		.byte	0x91
 5523 0ba6 847F     		.sleb128 -124
 5524 0ba8 00000000 		.4byte	0
 5525 0bac 00000000 		.4byte	0
 5526              	.LLST64:
 5527 0bb0 7C020000 		.4byte	.LVL368
 5528 0bb4 80020000 		.4byte	.LVL369
 5529 0bb8 0100     		.2byte	0x1
 5530 0bba 50       		.byte	0x50
 5531 0bbb 80020000 		.4byte	.LVL369
 5532 0bbf 4A090000 		.4byte	.LVL641
 5533 0bc3 0300     		.2byte	0x3
 5534 0bc5 91       		.byte	0x91
ARM GAS  C:\Users\A85590\AppData\Local\Temp\cc53CFAh.s 			page 106


 5535 0bc6 B47F     		.sleb128 -76
 5536 0bc8 00000000 		.4byte	0
 5537 0bcc 00000000 		.4byte	0
 5538              	.LLST65:
 5539 0bd0 86020000 		.4byte	.LVL371
 5540 0bd4 8A020000 		.4byte	.LVL372
 5541 0bd8 0100     		.2byte	0x1
 5542 0bda 50       		.byte	0x50
 5543 0bdb 8A020000 		.4byte	.LVL372
 5544 0bdf DC050000 		.4byte	.LVL510
 5545 0be3 0200     		.2byte	0x2
 5546 0be5 91       		.byte	0x91
 5547 0be6 4C       		.sleb128 -52
 5548 0be7 00000000 		.4byte	0
 5549 0beb 00000000 		.4byte	0
 5550              	.LLST66:
 5551 0bef 90020000 		.4byte	.LVL374
 5552 0bf3 96020000 		.4byte	.LVL375
 5553 0bf7 0100     		.2byte	0x1
 5554 0bf9 50       		.byte	0x50
 5555 0bfa 96020000 		.4byte	.LVL375
 5556 0bfe E6050000 		.4byte	.LVL512
 5557 0c02 0200     		.2byte	0x2
 5558 0c04 91       		.byte	0x91
 5559 0c05 50       		.sleb128 -48
 5560 0c06 00000000 		.4byte	0
 5561 0c0a 00000000 		.4byte	0
 5562              	.LLST67:
 5563 0c0e 9C020000 		.4byte	.LVL377
 5564 0c12 A0020000 		.4byte	.LVL378
 5565 0c16 0100     		.2byte	0x1
 5566 0c18 50       		.byte	0x50
 5567 0c19 A0020000 		.4byte	.LVL378
 5568 0c1d 8E040000 		.4byte	.LVL461
 5569 0c21 0300     		.2byte	0x3
 5570 0c23 91       		.byte	0x91
 5571 0c24 F87E     		.sleb128 -136
 5572 0c26 00000000 		.4byte	0
 5573 0c2a 00000000 		.4byte	0
 5574              	.LLST68:
 5575 0c2e A6020000 		.4byte	.LVL380
 5576 0c32 AA020000 		.4byte	.LVL381
 5577 0c36 0100     		.2byte	0x1
 5578 0c38 50       		.byte	0x50
 5579 0c39 AA020000 		.4byte	.LVL381
 5580 0c3d 36060000 		.4byte	.LVL523
 5581 0c41 0300     		.2byte	0x3
 5582 0c43 91       		.byte	0x91
 5583 0c44 A87F     		.sleb128 -88
 5584 0c46 00000000 		.4byte	0
 5585 0c4a 00000000 		.4byte	0
 5586              	.LLST69:
 5587 0c4e B0020000 		.4byte	.LVL383
 5588 0c52 B4020000 		.4byte	.LVL384
 5589 0c56 0100     		.2byte	0x1
 5590 0c58 50       		.byte	0x50
 5591 0c59 B4020000 		.4byte	.LVL384
ARM GAS  C:\Users\A85590\AppData\Local\Temp\cc53CFAh.s 			page 107


 5592 0c5d 16070000 		.4byte	.LVL554
 5593 0c61 0300     		.2byte	0x3
 5594 0c63 91       		.byte	0x91
 5595 0c64 B87F     		.sleb128 -72
 5596 0c66 00000000 		.4byte	0
 5597 0c6a 00000000 		.4byte	0
 5598              	.LLST70:
 5599 0c6e BA020000 		.4byte	.LVL386
 5600 0c72 BE020000 		.4byte	.LVL387
 5601 0c76 0100     		.2byte	0x1
 5602 0c78 50       		.byte	0x50
 5603 0c79 BE020000 		.4byte	.LVL387
 5604 0c7d 4A090000 		.4byte	.LVL641
 5605 0c81 0200     		.2byte	0x2
 5606 0c83 91       		.byte	0x91
 5607 0c84 54       		.sleb128 -44
 5608 0c85 00000000 		.4byte	0
 5609 0c89 00000000 		.4byte	0
 5610              	.LLST71:
 5611 0c8d C4020000 		.4byte	.LVL389
 5612 0c91 C8020000 		.4byte	.LVL390
 5613 0c95 0100     		.2byte	0x1
 5614 0c97 50       		.byte	0x50
 5615 0c98 C8020000 		.4byte	.LVL390
 5616 0c9c C2060000 		.4byte	.LVL543
 5617 0ca0 0300     		.2byte	0x3
 5618 0ca2 91       		.byte	0x91
 5619 0ca3 887F     		.sleb128 -120
 5620 0ca5 00000000 		.4byte	0
 5621 0ca9 00000000 		.4byte	0
 5622              	.LLST72:
 5623 0cad CE020000 		.4byte	.LVL392
 5624 0cb1 D2020000 		.4byte	.LVL393
 5625 0cb5 0100     		.2byte	0x1
 5626 0cb7 50       		.byte	0x50
 5627 0cb8 D2020000 		.4byte	.LVL393
 5628 0cbc 4A090000 		.4byte	.LVL641
 5629 0cc0 0200     		.2byte	0x2
 5630 0cc2 91       		.byte	0x91
 5631 0cc3 58       		.sleb128 -40
 5632 0cc4 00000000 		.4byte	0
 5633 0cc8 00000000 		.4byte	0
 5634              	.LLST73:
 5635 0ccc D8020000 		.4byte	.LVL395
 5636 0cd0 DC020000 		.4byte	.LVL396
 5637 0cd4 0100     		.2byte	0x1
 5638 0cd6 50       		.byte	0x50
 5639 0cd7 DC020000 		.4byte	.LVL396
 5640 0cdb 84060000 		.4byte	.LVL535
 5641 0cdf 0300     		.2byte	0x3
 5642 0ce1 91       		.byte	0x91
 5643 0ce2 947F     		.sleb128 -108
 5644 0ce4 00000000 		.4byte	0
 5645 0ce8 00000000 		.4byte	0
 5646              	.LLST74:
 5647 0cec E2020000 		.4byte	.LVL398
 5648 0cf0 E6020000 		.4byte	.LVL399
ARM GAS  C:\Users\A85590\AppData\Local\Temp\cc53CFAh.s 			page 108


 5649 0cf4 0100     		.2byte	0x1
 5650 0cf6 50       		.byte	0x50
 5651 0cf7 E6020000 		.4byte	.LVL399
 5652 0cfb DE060000 		.4byte	.LVL547
 5653 0cff 0300     		.2byte	0x3
 5654 0d01 91       		.byte	0x91
 5655 0d02 F07E     		.sleb128 -144
 5656 0d04 00000000 		.4byte	0
 5657 0d08 00000000 		.4byte	0
 5658              	.LLST75:
 5659 0d0c EC020000 		.4byte	.LVL401
 5660 0d10 F0020000 		.4byte	.LVL402
 5661 0d14 0100     		.2byte	0x1
 5662 0d16 50       		.byte	0x50
 5663 0d17 F0020000 		.4byte	.LVL402
 5664 0d1b 4A090000 		.4byte	.LVL641
 5665 0d1f 0200     		.2byte	0x2
 5666 0d21 91       		.byte	0x91
 5667 0d22 5C       		.sleb128 -36
 5668 0d23 00000000 		.4byte	0
 5669 0d27 00000000 		.4byte	0
 5670              	.LLST76:
 5671 0d2b F6020000 		.4byte	.LVL404
 5672 0d2f FC020000 		.4byte	.LVL406
 5673 0d33 0100     		.2byte	0x1
 5674 0d35 50       		.byte	0x50
 5675 0d36 FC020000 		.4byte	.LVL406
 5676 0d3a 7E050000 		.4byte	.LVL497
 5677 0d3e 0300     		.2byte	0x3
 5678 0d40 91       		.byte	0x91
 5679 0d41 E47E     		.sleb128 -156
 5680 0d43 00000000 		.4byte	0
 5681 0d47 00000000 		.4byte	0
 5682              	.LLST77:
 5683 0d4b 00000000 		.4byte	.LVL675
 5684 0d4f 0A000000 		.4byte	.LVL676
 5685 0d53 0100     		.2byte	0x1
 5686 0d55 50       		.byte	0x50
 5687 0d56 0A000000 		.4byte	.LVL676
 5688 0d5a 1C000000 		.4byte	.LFE13
 5689 0d5e 0400     		.2byte	0x4
 5690 0d60 F3       		.byte	0xf3
 5691 0d61 01       		.uleb128 0x1
 5692 0d62 50       		.byte	0x50
 5693 0d63 9F       		.byte	0x9f
 5694 0d64 00000000 		.4byte	0
 5695 0d68 00000000 		.4byte	0
 5696              	.LLST78:
 5697 0d6c 00000000 		.4byte	.LVL675
 5698 0d70 0E000000 		.4byte	.LVL677
 5699 0d74 0100     		.2byte	0x1
 5700 0d76 51       		.byte	0x51
 5701 0d77 0E000000 		.4byte	.LVL677
 5702 0d7b 1C000000 		.4byte	.LFE13
 5703 0d7f 0400     		.2byte	0x4
 5704 0d81 F3       		.byte	0xf3
 5705 0d82 01       		.uleb128 0x1
ARM GAS  C:\Users\A85590\AppData\Local\Temp\cc53CFAh.s 			page 109


 5706 0d83 51       		.byte	0x51
 5707 0d84 9F       		.byte	0x9f
 5708 0d85 00000000 		.4byte	0
 5709 0d89 00000000 		.4byte	0
 5710              	.LLST79:
 5711 0d8d 00000000 		.4byte	.LVL675
 5712 0d91 12000000 		.4byte	.LVL678
 5713 0d95 0100     		.2byte	0x1
 5714 0d97 52       		.byte	0x52
 5715 0d98 12000000 		.4byte	.LVL678
 5716 0d9c 1C000000 		.4byte	.LFE13
 5717 0da0 0400     		.2byte	0x4
 5718 0da2 F3       		.byte	0xf3
 5719 0da3 01       		.uleb128 0x1
 5720 0da4 52       		.byte	0x52
 5721 0da5 9F       		.byte	0x9f
 5722 0da6 00000000 		.4byte	0
 5723 0daa 00000000 		.4byte	0
 5724              		.section	.debug_aranges,"",%progbits
 5725 0000 7C000000 		.4byte	0x7c
 5726 0004 0200     		.2byte	0x2
 5727 0006 00000000 		.4byte	.Ldebug_info0
 5728 000a 04       		.byte	0x4
 5729 000b 00       		.byte	0
 5730 000c 0000     		.2byte	0
 5731 000e 0000     		.2byte	0
 5732 0010 00000000 		.4byte	.LFB5
 5733 0014 60000000 		.4byte	.LFE5-.LFB5
 5734 0018 00000000 		.4byte	.LFB6
 5735 001c D8000000 		.4byte	.LFE6-.LFB6
 5736 0020 00000000 		.4byte	.LFB1
 5737 0024 28000000 		.4byte	.LFE1-.LFB1
 5738 0028 00000000 		.4byte	.LFB2
 5739 002c 18000000 		.4byte	.LFE2-.LFB2
 5740 0030 00000000 		.4byte	.LFB4
 5741 0034 50050000 		.4byte	.LFE4-.LFB4
 5742 0038 00000000 		.4byte	.LFB3
 5743 003c 100A0000 		.4byte	.LFE3-.LFB3
 5744 0040 00000000 		.4byte	.LFB7
 5745 0044 24000000 		.4byte	.LFE7-.LFB7
 5746 0048 00000000 		.4byte	.LFB8
 5747 004c 24000000 		.4byte	.LFE8-.LFB8
 5748 0050 00000000 		.4byte	.LFB9
 5749 0054 2C000000 		.4byte	.LFE9-.LFB9
 5750 0058 00000000 		.4byte	.LFB10
 5751 005c 18000000 		.4byte	.LFE10-.LFB10
 5752 0060 00000000 		.4byte	.LFB11
 5753 0064 18000000 		.4byte	.LFE11-.LFB11
 5754 0068 00000000 		.4byte	.LFB12
 5755 006c 18000000 		.4byte	.LFE12-.LFB12
 5756 0070 00000000 		.4byte	.LFB13
 5757 0074 1C000000 		.4byte	.LFE13-.LFB13
 5758 0078 00000000 		.4byte	0
 5759 007c 00000000 		.4byte	0
 5760              		.section	.debug_ranges,"",%progbits
 5761              	.Ldebug_ranges0:
 5762 0000 00000000 		.4byte	.LFB5
ARM GAS  C:\Users\A85590\AppData\Local\Temp\cc53CFAh.s 			page 110


 5763 0004 60000000 		.4byte	.LFE5
 5764 0008 00000000 		.4byte	.LFB6
 5765 000c D8000000 		.4byte	.LFE6
 5766 0010 00000000 		.4byte	.LFB1
 5767 0014 28000000 		.4byte	.LFE1
 5768 0018 00000000 		.4byte	.LFB2
 5769 001c 18000000 		.4byte	.LFE2
 5770 0020 00000000 		.4byte	.LFB4
 5771 0024 50050000 		.4byte	.LFE4
 5772 0028 00000000 		.4byte	.LFB3
 5773 002c 100A0000 		.4byte	.LFE3
 5774 0030 00000000 		.4byte	.LFB7
 5775 0034 24000000 		.4byte	.LFE7
 5776 0038 00000000 		.4byte	.LFB8
 5777 003c 24000000 		.4byte	.LFE8
 5778 0040 00000000 		.4byte	.LFB9
 5779 0044 2C000000 		.4byte	.LFE9
 5780 0048 00000000 		.4byte	.LFB10
 5781 004c 18000000 		.4byte	.LFE10
 5782 0050 00000000 		.4byte	.LFB11
 5783 0054 18000000 		.4byte	.LFE11
 5784 0058 00000000 		.4byte	.LFB12
 5785 005c 18000000 		.4byte	.LFE12
 5786 0060 00000000 		.4byte	.LFB13
 5787 0064 1C000000 		.4byte	.LFE13
 5788 0068 00000000 		.4byte	0
 5789 006c 00000000 		.4byte	0
 5790              		.section	.debug_line,"",%progbits
 5791              	.Ldebug_line0:
 5792 0000 88020000 		.section	.debug_str,"MS",%progbits,1
 5792      02009300 
 5792      00000201 
 5792      FB0E0D00 
 5792      01010101 
 5793              	.LASF45:
 5794 0000 5F327130 		.ascii	"_2q0q2\000"
 5794      713200
 5795              	.LASF64:
 5796 0007 616E676C 		.ascii	"anglesComputed\000"
 5796      6573436F 
 5796      6D707574 
 5796      656400
 5797              	.LASF68:
 5798 0016 474E5520 		.ascii	"GNU C11 5.4.1 20160609 (release) [ARM/embedded-5-br"
 5798      43313120 
 5798      352E342E 
 5798      31203230 
 5798      31363036 
 5799 0049 616E6368 		.ascii	"anch revision 237715] -mcpu=cortex-m0 -mthumb -g -O"
 5799      20726576 
 5799      6973696F 
 5799      6E203233 
 5799      37373135 
 5800 007c 67202D66 		.ascii	"g -ffunction-sections -ffat-lto-objects\000"
 5800      66756E63 
 5800      74696F6E 
 5800      2D736563 
ARM GAS  C:\Users\A85590\AppData\Local\Temp\cc53CFAh.s 			page 111


 5800      74696F6E 
 5801              	.LASF10:
 5802 00a4 6C6F6E67 		.ascii	"long long unsigned int\000"
 5802      206C6F6E 
 5802      6720756E 
 5802      7369676E 
 5802      65642069 
 5803              	.LASF41:
 5804 00bb 5F326278 		.ascii	"_2bx\000"
 5804      00
 5805              	.LASF59:
 5806 00c0 67657451 		.ascii	"getQuaternion\000"
 5806      75617465 
 5806      726E696F 
 5806      6E00
 5807              	.LASF42:
 5808 00ce 5F32627A 		.ascii	"_2bz\000"
 5808      00
 5809              	.LASF65:
 5810 00d3 6174616E 		.ascii	"atan2f\000"
 5810      326600
 5811              	.LASF2:
 5812 00da 6C6F6E67 		.ascii	"long long int\000"
 5812      206C6F6E 
 5812      6720696E 
 5812      7400
 5813              	.LASF4:
 5814 00e8 7369676E 		.ascii	"signed char\000"
 5814      65642063 
 5814      68617200 
 5815              	.LASF8:
 5816 00f4 6C6F6E67 		.ascii	"long int\000"
 5816      20696E74 
 5816      00
 5817              	.LASF13:
 5818 00fd 646F7562 		.ascii	"double\000"
 5818      6C6500
 5819              	.LASF33:
 5820 0104 71317131 		.ascii	"q1q1\000"
 5820      00
 5821              	.LASF50:
 5822 0109 71317132 		.ascii	"q1q2\000"
 5822      00
 5823              	.LASF51:
 5824 010e 71317133 		.ascii	"q1q3\000"
 5824      00
 5825              	.LASF14:
 5826 0113 68616C66 		.ascii	"halfx\000"
 5826      7800
 5827              	.LASF19:
 5828 0119 71446F74 		.ascii	"qDot1\000"
 5828      3100
 5829              	.LASF20:
 5830 011f 71446F74 		.ascii	"qDot2\000"
 5830      3200
 5831              	.LASF21:
 5832 0125 71446F74 		.ascii	"qDot3\000"
ARM GAS  C:\Users\A85590\AppData\Local\Temp\cc53CFAh.s 			page 112


 5832      3300
 5833              	.LASF22:
 5834 012b 71446F74 		.ascii	"qDot4\000"
 5834      3400
 5835              	.LASF32:
 5836 0131 71307130 		.ascii	"q0q0\000"
 5836      00
 5837              	.LASF47:
 5838 0136 71307131 		.ascii	"q0q1\000"
 5838      00
 5839              	.LASF48:
 5840 013b 71307132 		.ascii	"q0q2\000"
 5840      00
 5841              	.LASF49:
 5842 0140 71307133 		.ascii	"q0q3\000"
 5842      00
 5843              	.LASF1:
 5844 0145 756E7369 		.ascii	"unsigned int\000"
 5844      676E6564 
 5844      20696E74 
 5844      00
 5845              	.LASF16:
 5846 0152 4D616467 		.ascii	"Madgwick_begin\000"
 5846      7769636B 
 5846      5F626567 
 5846      696E00
 5847              	.LASF69:
 5848 0161 4D616467 		.ascii	"Madgwick.c\000"
 5848      7769636B 
 5848      2E6300
 5849              	.LASF9:
 5850 016c 6C6F6E67 		.ascii	"long unsigned int\000"
 5850      20756E73 
 5850      69676E65 
 5850      6420696E 
 5850      7400
 5851              	.LASF7:
 5852 017e 73686F72 		.ascii	"short unsigned int\000"
 5852      7420756E 
 5852      7369676E 
 5852      65642069 
 5852      6E7400
 5853              	.LASF17:
 5854 0191 4D616467 		.ascii	"Madgwick_updateIMU\000"
 5854      7769636B 
 5854      5F757064 
 5854      61746549 
 5854      4D5500
 5855              	.LASF57:
 5856 01a4 67657450 		.ascii	"getPitchRadians\000"
 5856      69746368 
 5856      52616469 
 5856      616E7300 
 5857              	.LASF70:
 5858 01b4 433A5C55 		.ascii	"C:\\Users\\A85590\\Documents\\PSoC Creator\\AHRS\\S"
 5858      73657273 
 5858      5C413835 
ARM GAS  C:\Users\A85590\AppData\Local\Temp\cc53CFAh.s 			page 113


 5858      3539305C 
 5858      446F6375 
 5859 01e1 656E736F 		.ascii	"ensorFusion.cydsn\000"
 5859      72467573 
 5859      696F6E2E 
 5859      63796473 
 5859      6E00
 5860              	.LASF36:
 5861 01f3 4D616467 		.ascii	"Madgwick_update\000"
 5861      7769636B 
 5861      5F757064 
 5861      61746500 
 5862              	.LASF55:
 5863 0203 67657459 		.ascii	"getYaw\000"
 5863      617700
 5864              	.LASF40:
 5865 020a 5F327131 		.ascii	"_2q1mx\000"
 5865      6D7800
 5866              	.LASF66:
 5867 0211 6173696E 		.ascii	"asinf\000"
 5867      6600
 5868              	.LASF67:
 5869 0217 73717274 		.ascii	"sqrtf\000"
 5869      6600
 5870              	.LASF54:
 5871 021d 67657450 		.ascii	"getPitch\000"
 5871      69746368 
 5871      00
 5872              	.LASF71:
 5873 0226 696E7653 		.ascii	"invSqrt\000"
 5873      71727400 
 5874              	.LASF56:
 5875 022e 67657452 		.ascii	"getRollRadians\000"
 5875      6F6C6C52 
 5875      61646961 
 5875      6E7300
 5876              	.LASF11:
 5877 023d 73697A65 		.ascii	"sizetype\000"
 5877      74797065 
 5877      00
 5878              	.LASF3:
 5879 0246 6C6F6E67 		.ascii	"long double\000"
 5879      20646F75 
 5879      626C6500 
 5880              	.LASF63:
 5881 0252 70697463 		.ascii	"pitch\000"
 5881      6800
 5882              	.LASF72:
 5883 0258 636F6D70 		.ascii	"computeAngles\000"
 5883      75746541 
 5883      6E676C65 
 5883      7300
 5884              	.LASF27:
 5885 0266 5F347130 		.ascii	"_4q0\000"
 5885      00
 5886              	.LASF28:
 5887 026b 5F347131 		.ascii	"_4q1\000"
ARM GAS  C:\Users\A85590\AppData\Local\Temp\cc53CFAh.s 			page 114


 5887      00
 5888              	.LASF29:
 5889 0270 5F347132 		.ascii	"_4q2\000"
 5889      00
 5890              	.LASF62:
 5891 0275 726F6C6C 		.ascii	"roll\000"
 5891      00
 5892              	.LASF0:
 5893 027a 666C6F61 		.ascii	"float\000"
 5893      7400
 5894              	.LASF37:
 5895 0280 5F327130 		.ascii	"_2q0mx\000"
 5895      6D7800
 5896              	.LASF38:
 5897 0287 5F327130 		.ascii	"_2q0my\000"
 5897      6D7900
 5898              	.LASF39:
 5899 028e 5F327130 		.ascii	"_2q0mz\000"
 5899      6D7A00
 5900              	.LASF5:
 5901 0295 756E7369 		.ascii	"unsigned char\000"
 5901      676E6564 
 5901      20636861 
 5901      7200
 5902              	.LASF46:
 5903 02a3 5F327132 		.ascii	"_2q2q3\000"
 5903      713300
 5904              	.LASF6:
 5905 02aa 73686F72 		.ascii	"short int\000"
 5905      7420696E 
 5905      7400
 5906              	.LASF73:
 5907 02b4 4D616467 		.ascii	"Madgwick\000"
 5907      7769636B 
 5907      00
 5908              	.LASF43:
 5909 02bd 5F346278 		.ascii	"_4bx\000"
 5909      00
 5910              	.LASF44:
 5911 02c2 5F34627A 		.ascii	"_4bz\000"
 5911      00
 5912              	.LASF15:
 5913 02c7 73616D70 		.ascii	"sampleFrequency\000"
 5913      6C654672 
 5913      65717565 
 5913      6E637900 
 5914              	.LASF12:
 5915 02d7 63686172 		.ascii	"char\000"
 5915      00
 5916              	.LASF35:
 5917 02dc 71337133 		.ascii	"q3q3\000"
 5917      00
 5918              	.LASF18:
 5919 02e1 72656369 		.ascii	"recipNorm\000"
 5919      704E6F72 
 5919      6D00
 5920              	.LASF30:
ARM GAS  C:\Users\A85590\AppData\Local\Temp\cc53CFAh.s 			page 115


 5921 02eb 5F387131 		.ascii	"_8q1\000"
 5921      00
 5922              	.LASF31:
 5923 02f0 5F387132 		.ascii	"_8q2\000"
 5923      00
 5924              	.LASF61:
 5925 02f5 696E7653 		.ascii	"invSampleFreq\000"
 5925      616D706C 
 5925      65467265 
 5925      7100
 5926              	.LASF53:
 5927 0303 67657452 		.ascii	"getRoll\000"
 5927      6F6C6C00 
 5928              	.LASF60:
 5929 030b 62657461 		.ascii	"beta\000"
 5929      00
 5930              	.LASF23:
 5931 0310 5F327130 		.ascii	"_2q0\000"
 5931      00
 5932              	.LASF24:
 5933 0315 5F327131 		.ascii	"_2q1\000"
 5933      00
 5934              	.LASF25:
 5935 031a 5F327132 		.ascii	"_2q2\000"
 5935      00
 5936              	.LASF26:
 5937 031f 5F327133 		.ascii	"_2q3\000"
 5937      00
 5938              	.LASF34:
 5939 0324 71327132 		.ascii	"q2q2\000"
 5939      00
 5940              	.LASF52:
 5941 0329 71327133 		.ascii	"q2q3\000"
 5941      00
 5942              	.LASF58:
 5943 032e 67657459 		.ascii	"getYawRadians\000"
 5943      61775261 
 5943      6469616E 
 5943      7300
 5944              		.ident	"GCC: (GNU Tools for ARM Embedded Processors) 5.4.1 20160609 (release) [ARM/embedded-5-bran
