ARM GAS  C:\Users\a85495\AppData\Local\Temp\ccYAihM1.s 			page 1


   1              		.syntax unified
   2              		.cpu cortex-m3
   3              		.fpu softvfp
   4              		.eabi_attribute 20, 1
   5              		.eabi_attribute 21, 1
   6              		.eabi_attribute 23, 3
   7              		.eabi_attribute 24, 1
   8              		.eabi_attribute 25, 1
   9              		.eabi_attribute 26, 1
  10              		.eabi_attribute 30, 1
  11              		.eabi_attribute 34, 1
  12              		.eabi_attribute 18, 4
  13              		.thumb
  14              		.file	"debSerial.c"
  15              		.text
  16              	.Ltext0:
  17              		.cfi_sections	.debug_frame
  18              		.section	.text.serial_begin,"ax",%progbits
  19              		.align	2
  20              		.global	serial_begin
  21              		.thumb
  22              		.thumb_func
  23              		.type	serial_begin, %function
  24              	serial_begin:
  25              	.LFB63:
  26              		.file 1 "..\\..\\debSerial.c"
   1:..\../debSerial.c **** /*
   2:..\../debSerial.c **** 
   3:..\../debSerial.c **** */
   4:..\../debSerial.c **** #include "project.h"
   5:..\../debSerial.c **** #include <stdint.h>
   6:..\../debSerial.c **** #include <stdlib.h>
   7:..\../debSerial.c **** #include <stdio.h>
   8:..\../debSerial.c **** #include <debSerial.h>
   9:..\../debSerial.c **** #include <math.h>
  10:..\../debSerial.c **** 
  11:..\../debSerial.c **** char str[100];
  12:..\../debSerial.c **** 
  13:..\../debSerial.c **** void serial_begin(){
  27              		.loc 1 13 0
  28              		.cfi_startproc
  29              		@ args = 0, pretend = 0, frame = 0
  30              		@ frame_needed = 0, uses_anonymous_args = 0
  31 0000 08B5     		push	{r3, lr}
  32              		.cfi_def_cfa_offset 8
  33              		.cfi_offset 3, -8
  34              		.cfi_offset 14, -4
  14:..\../debSerial.c ****     debugSerial_Start();    //initialize the UART
  35              		.loc 1 14 0
  36 0002 FFF7FEFF 		bl	debugSerial_Start
  37              	.LVL0:
  38 0006 08BD     		pop	{r3, pc}
  39              		.cfi_endproc
  40              	.LFE63:
  41              		.size	serial_begin, .-serial_begin
  42              		.section	.text.serial_print,"ax",%progbits
  43              		.align	2
ARM GAS  C:\Users\a85495\AppData\Local\Temp\ccYAihM1.s 			page 2


  44              		.global	serial_print
  45              		.thumb
  46              		.thumb_func
  47              		.type	serial_print, %function
  48              	serial_print:
  49              	.LFB64:
  15:..\../debSerial.c ****     /*
  16:..\../debSerial.c ****     Description for PSoC datasheet:
  17:..\../debSerial.c ****         This is the preferred method to begin component operation.
  18:..\../debSerial.c ****         UART_Start() sets the initVar variable, calls the UART_Init()
  19:..\../debSerial.c ****         function, and then calls the UART_Enable() function.
  20:..\../debSerial.c ****     */
  21:..\../debSerial.c **** }
  22:..\../debSerial.c **** 
  23:..\../debSerial.c **** void serial_print(char *string)
  24:..\../debSerial.c **** {
  50              		.loc 1 24 0
  51              		.cfi_startproc
  52              		@ args = 0, pretend = 0, frame = 0
  53              		@ frame_needed = 0, uses_anonymous_args = 0
  54              	.LVL1:
  55 0000 08B5     		push	{r3, lr}
  56              		.cfi_def_cfa_offset 8
  57              		.cfi_offset 3, -8
  58              		.cfi_offset 14, -4
  25:..\../debSerial.c ****     debugSerial_PutString(string);
  59              		.loc 1 25 0
  60 0002 FFF7FEFF 		bl	debugSerial_PutString
  61              	.LVL2:
  62 0006 08BD     		pop	{r3, pc}
  63              		.cfi_endproc
  64              	.LFE64:
  65              		.size	serial_print, .-serial_print
  66              		.section	.text.serial_println,"ax",%progbits
  67              		.align	2
  68              		.global	serial_println
  69              		.thumb
  70              		.thumb_func
  71              		.type	serial_println, %function
  72              	serial_println:
  73              	.LFB65:
  26:..\../debSerial.c **** }
  27:..\../debSerial.c **** 
  28:..\../debSerial.c **** void serial_println(char *string)
  29:..\../debSerial.c **** {
  74              		.loc 1 29 0
  75              		.cfi_startproc
  76              		@ args = 0, pretend = 0, frame = 0
  77              		@ frame_needed = 0, uses_anonymous_args = 0
  78              	.LVL3:
  79 0000 08B5     		push	{r3, lr}
  80              		.cfi_def_cfa_offset 8
  81              		.cfi_offset 3, -8
  82              		.cfi_offset 14, -4
  30:..\../debSerial.c ****     debugSerial_PutString(string);
  83              		.loc 1 30 0
  84 0002 FFF7FEFF 		bl	debugSerial_PutString
ARM GAS  C:\Users\a85495\AppData\Local\Temp\ccYAihM1.s 			page 3


  85              	.LVL4:
  31:..\../debSerial.c ****     debugSerial_PutCRLF(' ');
  86              		.loc 1 31 0
  87 0006 2020     		movs	r0, #32
  88 0008 FFF7FEFF 		bl	debugSerial_PutCRLF
  89              	.LVL5:
  90 000c 08BD     		pop	{r3, pc}
  91              		.cfi_endproc
  92              	.LFE65:
  93              		.size	serial_println, .-serial_println
  94 000e 00BF     		.section	.text.serial_printChar,"ax",%progbits
  95              		.align	2
  96              		.global	serial_printChar
  97              		.thumb
  98              		.thumb_func
  99              		.type	serial_printChar, %function
 100              	serial_printChar:
 101              	.LFB66:
  32:..\../debSerial.c **** }
  33:..\../debSerial.c **** 
  34:..\../debSerial.c **** void serial_printChar(char letter){
 102              		.loc 1 34 0
 103              		.cfi_startproc
 104              		@ args = 0, pretend = 0, frame = 0
 105              		@ frame_needed = 0, uses_anonymous_args = 0
 106              	.LVL6:
 107 0000 08B5     		push	{r3, lr}
 108              		.cfi_def_cfa_offset 8
 109              		.cfi_offset 3, -8
 110              		.cfi_offset 14, -4
  35:..\../debSerial.c ****     debugSerial_PutChar(letter);   
 111              		.loc 1 35 0
 112 0002 FFF7FEFF 		bl	debugSerial_PutChar
 113              	.LVL7:
 114 0006 08BD     		pop	{r3, pc}
 115              		.cfi_endproc
 116              	.LFE66:
 117              		.size	serial_printChar, .-serial_printChar
 118              		.section	.text.serial_printCharln,"ax",%progbits
 119              		.align	2
 120              		.global	serial_printCharln
 121              		.thumb
 122              		.thumb_func
 123              		.type	serial_printCharln, %function
 124              	serial_printCharln:
 125              	.LFB67:
  36:..\../debSerial.c **** }
  37:..\../debSerial.c **** 
  38:..\../debSerial.c **** void serial_printCharln(char letter){
 126              		.loc 1 38 0
 127              		.cfi_startproc
 128              		@ args = 0, pretend = 0, frame = 0
 129              		@ frame_needed = 0, uses_anonymous_args = 0
 130              	.LVL8:
 131 0000 08B5     		push	{r3, lr}
 132              		.cfi_def_cfa_offset 8
 133              		.cfi_offset 3, -8
ARM GAS  C:\Users\a85495\AppData\Local\Temp\ccYAihM1.s 			page 4


 134              		.cfi_offset 14, -4
  39:..\../debSerial.c ****     debugSerial_PutCRLF(letter);   
 135              		.loc 1 39 0
 136 0002 FFF7FEFF 		bl	debugSerial_PutCRLF
 137              	.LVL9:
 138 0006 08BD     		pop	{r3, pc}
 139              		.cfi_endproc
 140              	.LFE67:
 141              		.size	serial_printCharln, .-serial_printCharln
 142              		.section	.text.serial_printDouble,"ax",%progbits
 143              		.align	2
 144              		.global	serial_printDouble
 145              		.thumb
 146              		.thumb_func
 147              		.type	serial_printDouble, %function
 148              	serial_printDouble:
 149              	.LFB68:
  40:..\../debSerial.c **** }
  41:..\../debSerial.c **** 
  42:..\../debSerial.c **** void serial_printDouble(double num){
 150              		.loc 1 42 0
 151              		.cfi_startproc
 152              		@ args = 0, pretend = 0, frame = 24
 153              		@ frame_needed = 0, uses_anonymous_args = 0
 154              	.LVL10:
 155 0000 00B5     		push	{lr}
 156              		.cfi_def_cfa_offset 4
 157              		.cfi_offset 14, -4
 158 0002 87B0     		sub	sp, sp, #28
 159              		.cfi_def_cfa_offset 32
 160 0004 0246     		mov	r2, r0
 161 0006 0B46     		mov	r3, r1
  43:..\../debSerial.c ****     char str[20];
  44:..\../debSerial.c **** 
  45:..\../debSerial.c ****     sprintf(str,"%f", num); 
 162              		.loc 1 45 0
 163 0008 01A8     		add	r0, sp, #4
 164              	.LVL11:
 165 000a 0449     		ldr	r1, .L13
 166 000c FFF7FEFF 		bl	sprintf
 167              	.LVL12:
  46:..\../debSerial.c ****     serial_print(str);
 168              		.loc 1 46 0
 169 0010 01A8     		add	r0, sp, #4
 170 0012 FFF7FEFF 		bl	serial_print
 171              	.LVL13:
  47:..\../debSerial.c **** }
 172              		.loc 1 47 0
 173 0016 07B0     		add	sp, sp, #28
 174              		.cfi_def_cfa_offset 4
 175              		@ sp needed
 176 0018 5DF804FB 		ldr	pc, [sp], #4
 177              	.L14:
 178              		.align	2
 179              	.L13:
 180 001c 00000000 		.word	.LC0
 181              		.cfi_endproc
ARM GAS  C:\Users\a85495\AppData\Local\Temp\ccYAihM1.s 			page 5


 182              	.LFE68:
 183              		.size	serial_printDouble, .-serial_printDouble
 184              		.section	.text.serial_printDoubleln,"ax",%progbits
 185              		.align	2
 186              		.global	serial_printDoubleln
 187              		.thumb
 188              		.thumb_func
 189              		.type	serial_printDoubleln, %function
 190              	serial_printDoubleln:
 191              	.LFB69:
  48:..\../debSerial.c **** 
  49:..\../debSerial.c **** void serial_printDoubleln(double num){
 192              		.loc 1 49 0
 193              		.cfi_startproc
 194              		@ args = 0, pretend = 0, frame = 24
 195              		@ frame_needed = 0, uses_anonymous_args = 0
 196              	.LVL14:
 197 0000 00B5     		push	{lr}
 198              		.cfi_def_cfa_offset 4
 199              		.cfi_offset 14, -4
 200 0002 87B0     		sub	sp, sp, #28
 201              		.cfi_def_cfa_offset 32
 202 0004 0246     		mov	r2, r0
 203 0006 0B46     		mov	r3, r1
  50:..\../debSerial.c ****     char str[20];
  51:..\../debSerial.c **** 
  52:..\../debSerial.c ****     sprintf(str,"%f", num); 
 204              		.loc 1 52 0
 205 0008 01A8     		add	r0, sp, #4
 206              	.LVL15:
 207 000a 0449     		ldr	r1, .L17
 208 000c FFF7FEFF 		bl	sprintf
 209              	.LVL16:
  53:..\../debSerial.c ****     serial_println(str);
 210              		.loc 1 53 0
 211 0010 01A8     		add	r0, sp, #4
 212 0012 FFF7FEFF 		bl	serial_println
 213              	.LVL17:
  54:..\../debSerial.c **** }
 214              		.loc 1 54 0
 215 0016 07B0     		add	sp, sp, #28
 216              		.cfi_def_cfa_offset 4
 217              		@ sp needed
 218 0018 5DF804FB 		ldr	pc, [sp], #4
 219              	.L18:
 220              		.align	2
 221              	.L17:
 222 001c 00000000 		.word	.LC0
 223              		.cfi_endproc
 224              	.LFE69:
 225              		.size	serial_printDoubleln, .-serial_printDoubleln
 226              		.global	__aeabi_f2d
 227              		.section	.text.serial_printFloat,"ax",%progbits
 228              		.align	2
 229              		.global	serial_printFloat
 230              		.thumb
 231              		.thumb_func
ARM GAS  C:\Users\a85495\AppData\Local\Temp\ccYAihM1.s 			page 6


 232              		.type	serial_printFloat, %function
 233              	serial_printFloat:
 234              	.LFB70:
  55:..\../debSerial.c **** 
  56:..\../debSerial.c **** void serial_printFloat(float num){
 235              		.loc 1 56 0
 236              		.cfi_startproc
 237              		@ args = 0, pretend = 0, frame = 24
 238              		@ frame_needed = 0, uses_anonymous_args = 0
 239              	.LVL18:
 240 0000 00B5     		push	{lr}
 241              		.cfi_def_cfa_offset 4
 242              		.cfi_offset 14, -4
 243 0002 87B0     		sub	sp, sp, #28
 244              		.cfi_def_cfa_offset 32
  57:..\../debSerial.c ****     char str[20];
  58:..\../debSerial.c **** 
  59:..\../debSerial.c ****     sprintf(str,"%f", num); 
 245              		.loc 1 59 0
 246 0004 FFF7FEFF 		bl	__aeabi_f2d
 247              	.LVL19:
 248 0008 0246     		mov	r2, r0
 249 000a 0B46     		mov	r3, r1
 250 000c 01A8     		add	r0, sp, #4
 251 000e 0449     		ldr	r1, .L21
 252 0010 FFF7FEFF 		bl	sprintf
 253              	.LVL20:
  60:..\../debSerial.c ****     serial_print(str);
 254              		.loc 1 60 0
 255 0014 01A8     		add	r0, sp, #4
 256 0016 FFF7FEFF 		bl	serial_print
 257              	.LVL21:
  61:..\../debSerial.c **** }
 258              		.loc 1 61 0
 259 001a 07B0     		add	sp, sp, #28
 260              		.cfi_def_cfa_offset 4
 261              		@ sp needed
 262 001c 5DF804FB 		ldr	pc, [sp], #4
 263              	.L22:
 264              		.align	2
 265              	.L21:
 266 0020 00000000 		.word	.LC0
 267              		.cfi_endproc
 268              	.LFE70:
 269              		.size	serial_printFloat, .-serial_printFloat
 270              		.section	.text.serial_printFloatln,"ax",%progbits
 271              		.align	2
 272              		.global	serial_printFloatln
 273              		.thumb
 274              		.thumb_func
 275              		.type	serial_printFloatln, %function
 276              	serial_printFloatln:
 277              	.LFB71:
  62:..\../debSerial.c **** 
  63:..\../debSerial.c **** void serial_printFloatln(float num){
 278              		.loc 1 63 0
 279              		.cfi_startproc
ARM GAS  C:\Users\a85495\AppData\Local\Temp\ccYAihM1.s 			page 7


 280              		@ args = 0, pretend = 0, frame = 24
 281              		@ frame_needed = 0, uses_anonymous_args = 0
 282              	.LVL22:
 283 0000 00B5     		push	{lr}
 284              		.cfi_def_cfa_offset 4
 285              		.cfi_offset 14, -4
 286 0002 87B0     		sub	sp, sp, #28
 287              		.cfi_def_cfa_offset 32
  64:..\../debSerial.c ****     char str[20];
  65:..\../debSerial.c **** 
  66:..\../debSerial.c ****     sprintf(str,"%f", num); 
 288              		.loc 1 66 0
 289 0004 FFF7FEFF 		bl	__aeabi_f2d
 290              	.LVL23:
 291 0008 0246     		mov	r2, r0
 292 000a 0B46     		mov	r3, r1
 293 000c 01A8     		add	r0, sp, #4
 294 000e 0449     		ldr	r1, .L25
 295 0010 FFF7FEFF 		bl	sprintf
 296              	.LVL24:
  67:..\../debSerial.c ****     serial_println(str);
 297              		.loc 1 67 0
 298 0014 01A8     		add	r0, sp, #4
 299 0016 FFF7FEFF 		bl	serial_println
 300              	.LVL25:
  68:..\../debSerial.c **** }
 301              		.loc 1 68 0
 302 001a 07B0     		add	sp, sp, #28
 303              		.cfi_def_cfa_offset 4
 304              		@ sp needed
 305 001c 5DF804FB 		ldr	pc, [sp], #4
 306              	.L26:
 307              		.align	2
 308              	.L25:
 309 0020 00000000 		.word	.LC0
 310              		.cfi_endproc
 311              	.LFE71:
 312              		.size	serial_printFloatln, .-serial_printFloatln
 313              		.section	.text.serial_printInt,"ax",%progbits
 314              		.align	2
 315              		.global	serial_printInt
 316              		.thumb
 317              		.thumb_func
 318              		.type	serial_printInt, %function
 319              	serial_printInt:
 320              	.LFB72:
  69:..\../debSerial.c **** 
  70:..\../debSerial.c **** void serial_printInt(int num){
 321              		.loc 1 70 0
 322              		.cfi_startproc
 323              		@ args = 0, pretend = 0, frame = 24
 324              		@ frame_needed = 0, uses_anonymous_args = 0
 325              	.LVL26:
 326 0000 00B5     		push	{lr}
 327              		.cfi_def_cfa_offset 4
 328              		.cfi_offset 14, -4
 329 0002 87B0     		sub	sp, sp, #28
ARM GAS  C:\Users\a85495\AppData\Local\Temp\ccYAihM1.s 			page 8


 330              		.cfi_def_cfa_offset 32
  71:..\../debSerial.c ****     char buffer[20];
  72:..\../debSerial.c ****     serial_print(itoa((num),buffer,10));
 331              		.loc 1 72 0
 332 0004 01A9     		add	r1, sp, #4
 333 0006 0A22     		movs	r2, #10
 334 0008 FFF7FEFF 		bl	itoa
 335              	.LVL27:
 336 000c FFF7FEFF 		bl	serial_print
 337              	.LVL28:
  73:..\../debSerial.c **** }
 338              		.loc 1 73 0
 339 0010 07B0     		add	sp, sp, #28
 340              		.cfi_def_cfa_offset 4
 341              		@ sp needed
 342 0012 5DF804FB 		ldr	pc, [sp], #4
 343              		.cfi_endproc
 344              	.LFE72:
 345              		.size	serial_printInt, .-serial_printInt
 346 0016 00BF     		.section	.text.serial_printIntln,"ax",%progbits
 347              		.align	2
 348              		.global	serial_printIntln
 349              		.thumb
 350              		.thumb_func
 351              		.type	serial_printIntln, %function
 352              	serial_printIntln:
 353              	.LFB73:
  74:..\../debSerial.c **** 
  75:..\../debSerial.c **** void serial_printIntln(int num){
 354              		.loc 1 75 0
 355              		.cfi_startproc
 356              		@ args = 0, pretend = 0, frame = 24
 357              		@ frame_needed = 0, uses_anonymous_args = 0
 358              	.LVL29:
 359 0000 00B5     		push	{lr}
 360              		.cfi_def_cfa_offset 4
 361              		.cfi_offset 14, -4
 362 0002 87B0     		sub	sp, sp, #28
 363              		.cfi_def_cfa_offset 32
  76:..\../debSerial.c ****     char buffer[20];
  77:..\../debSerial.c ****     //The 10 means that the number will be represented in the decimal base
  78:..\../debSerial.c ****     //if we wanted it in binary we would've just specified it as 2
  79:..\../debSerial.c ****     //16 for hex and 8 for octal
  80:..\../debSerial.c ****     serial_println(itoa((num),buffer,10));
 364              		.loc 1 80 0
 365 0004 01A9     		add	r1, sp, #4
 366 0006 0A22     		movs	r2, #10
 367 0008 FFF7FEFF 		bl	itoa
 368              	.LVL30:
 369 000c FFF7FEFF 		bl	serial_println
 370              	.LVL31:
  81:..\../debSerial.c **** }
 371              		.loc 1 81 0
 372 0010 07B0     		add	sp, sp, #28
 373              		.cfi_def_cfa_offset 4
 374              		@ sp needed
 375 0012 5DF804FB 		ldr	pc, [sp], #4
ARM GAS  C:\Users\a85495\AppData\Local\Temp\ccYAihM1.s 			page 9


 376              		.cfi_endproc
 377              	.LFE73:
 378              		.size	serial_printIntln, .-serial_printIntln
 379              		.comm	str,100,4
 380 0016 00BF     		.section	.rodata.str1.4,"aMS",%progbits,1
 381              		.align	2
 382              	.LC0:
 383 0000 256600   		.ascii	"%f\000"
 384 0003 00       		.text
 385              	.Letext0:
 386              		.file 2 "c:\\program files (x86)\\cypress\\psoc creator\\4.0\\psoc creator\\import\\gnu\\arm\\4.9.
 387              		.file 3 "c:\\program files (x86)\\cypress\\psoc creator\\4.0\\psoc creator\\import\\gnu\\arm\\4.9.
 388              		.file 4 "Generated_Source\\PSoC5/cytypes.h"
 389              		.file 5 "Generated_Source\\PSoC5/debugSerial.h"
 390              		.file 6 "c:\\program files (x86)\\cypress\\psoc creator\\4.0\\psoc creator\\import\\gnu\\arm\\4.9.
 391              		.file 7 "Generated_Source\\PSoC5/core_cm3.h"
 392              		.file 8 "c:\\program files (x86)\\cypress\\psoc creator\\4.0\\psoc creator\\import\\gnu\\arm\\4.9.