ARM GAS  C:\Users\a85495\AppData\Local\Temp\ccmFDgqk.s 			page 1


   1              		.syntax unified
   2              		.cpu cortex-m3
   3              		.fpu softvfp
   4              		.eabi_attribute 20, 1
   5              		.eabi_attribute 21, 1
   6              		.eabi_attribute 23, 3
   7              		.eabi_attribute 24, 1
   8              		.eabi_attribute 25, 1
   9              		.eabi_attribute 26, 1
  10              		.eabi_attribute 30, 1
  11              		.eabi_attribute 34, 1
  12              		.eabi_attribute 18, 4
  13              		.thumb
  14              		.file	"gyroscope.c"
  15              		.text
  16              	.Ltext0:
  17              		.cfi_sections	.debug_frame
  18              		.section	.text.gyro_write8,"ax",%progbits
  19              		.align	2
  20              		.global	gyro_write8
  21              		.thumb
  22              		.thumb_func
  23              		.type	gyro_write8, %function
  24              	gyro_write8:
  25              	.LFB63:
  26              		.file 1 "..\\..\\gyroscope.c"
   1:..\../gyroscope.c **** /*
   2:..\../gyroscope.c ****  * This is going to be the remade version of the FXAS21002C library from adafruit
   3:..\../gyroscope.c ****  * to support the PSoC Version of our project
   4:..\../gyroscope.c **** */
   5:..\../gyroscope.c **** 
   6:..\../gyroscope.c **** #include "gyroscope.h"
   7:..\../gyroscope.c **** #include "twi.h"
   8:..\../gyroscope.c **** #include "project.h"
   9:..\../gyroscope.c **** #include "SensorVal.h"
  10:..\../gyroscope.c **** #include "stdlib.h"
  11:..\../gyroscope.c **** #include <stdint.h>
  12:..\../gyroscope.c **** #include "debSerial.h"
  13:..\../gyroscope.c **** 
  14:..\../gyroscope.c **** static gyroRange_t _range;
  15:..\../gyroscope.c **** 
  16:..\../gyroscope.c **** void gyro_write8(uint8_t reg, uint8_t value)
  17:..\../gyroscope.c **** {
  27              		.loc 1 17 0
  28              		.cfi_startproc
  29              		@ args = 0, pretend = 0, frame = 8
  30              		@ frame_needed = 0, uses_anonymous_args = 0
  31              	.LVL0:
  32 0000 00B5     		push	{lr}
  33              		.cfi_def_cfa_offset 4
  34              		.cfi_offset 14, -4
  35 0002 83B0     		sub	sp, sp, #12
  36              		.cfi_def_cfa_offset 16
  18:..\../gyroscope.c **** 
  19:..\../gyroscope.c ****     //to write, you want to write 2 values: (1) The registeraddress you want to write to
  20:..\../gyroscope.c ****     //                                      (2) The value you wish to write to the register
  21:..\../gyroscope.c **** 
ARM GAS  C:\Users\a85495\AppData\Local\Temp\ccmFDgqk.s 			page 2


  22:..\../gyroscope.c ****     uint8_t Write_Buf[2] = {0};  //create an array where we will store the things to be written
  23:..\../gyroscope.c ****     Write_Buf[0] = (uint8_t)reg; //save the things to be sent in order in the array
  37              		.loc 1 23 0
  38 0004 8DF80400 		strb	r0, [sp, #4]
  24:..\../gyroscope.c ****     Write_Buf[1] = (uint8_t)value;
  39              		.loc 1 24 0
  40 0008 8DF80510 		strb	r1, [sp, #5]
  25:..\../gyroscope.c **** 
  26:..\../gyroscope.c ****     //Make a complete transfer (I2C_MODE_COMPLETE_XFER) to the gyroscope
  27:..\../gyroscope.c ****     //Before the array is sent, it first sends the address and that it's about to write to it
  28:..\../gyroscope.c ****     //Then, it sends the first array value which is the register value it's trying to write to
  29:..\../gyroscope.c ****     //And, finally once it receives an ACK it sends the second thing which is the value it is tryin
  30:..\../gyroscope.c ****     I2C_MasterWriteBuf(FXAS21002C_ADDRESS, (uint8 *)Write_Buf, 2, I2C_MODE_COMPLETE_XFER);
  41              		.loc 1 30 0
  42 000c 2120     		movs	r0, #33
  43              	.LVL1:
  44 000e 01A9     		add	r1, sp, #4
  45              	.LVL2:
  46 0010 0222     		movs	r2, #2
  47 0012 0023     		movs	r3, #0
  48 0014 FFF7FEFF 		bl	I2C_MasterWriteBuf
  49              	.LVL3:
  50              	.L2:
  31:..\../gyroscope.c ****     while ((I2C_MasterStatus() & I2C_MSTAT_WR_CMPLT) == 0) //Wait till the whole transfer is comple
  51              		.loc 1 31 0 discriminator 1
  52 0018 FFF7FEFF 		bl	I2C_MasterStatus
  53              	.LVL4:
  54 001c 10F0020F 		tst	r0, #2
  55 0020 FAD0     		beq	.L2
  32:..\../gyroscope.c ****     {
  33:..\../gyroscope.c ****     }
  34:..\../gyroscope.c **** 
  35:..\../gyroscope.c ****     return; //return 1 if everything was successful
  36:..\../gyroscope.c **** }
  56              		.loc 1 36 0
  57 0022 03B0     		add	sp, sp, #12
  58              		.cfi_def_cfa_offset 4
  59              		@ sp needed
  60 0024 5DF804FB 		ldr	pc, [sp], #4
  61              		.cfi_endproc
  62              	.LFE63:
  63              		.size	gyro_write8, .-gyro_write8
  64              		.section	.text.gyro_read8,"ax",%progbits
  65              		.align	2
  66              		.global	gyro_read8
  67              		.thumb
  68              		.thumb_func
  69              		.type	gyro_read8, %function
  70              	gyro_read8:
  71              	.LFB64:
  37:..\../gyroscope.c **** 
  38:..\../gyroscope.c **** uint8_t gyro_read8(uint8_t reg)
  39:..\../gyroscope.c **** {
  72              		.loc 1 39 0
  73              		.cfi_startproc
  74              		@ args = 0, pretend = 0, frame = 8
  75              		@ frame_needed = 0, uses_anonymous_args = 0
ARM GAS  C:\Users\a85495\AppData\Local\Temp\ccmFDgqk.s 			page 3


  76              	.LVL5:
  77 0000 00B5     		push	{lr}
  78              		.cfi_def_cfa_offset 4
  79              		.cfi_offset 14, -4
  80 0002 83B0     		sub	sp, sp, #12
  81              		.cfi_def_cfa_offset 16
  40:..\../gyroscope.c **** 
  41:..\../gyroscope.c ****     //to read:  (1)Write the register address you want to read from to the slave device
  42:..\../gyroscope.c ****     //          (2)Use MasterReadBuf to store what is contained in the refister into the read buffe
  43:..\../gyroscope.c **** 
  44:..\../gyroscope.c ****     uint8_t Write_Buf[1];
  45:..\../gyroscope.c ****     Write_Buf[0] = (uint8_t)reg;
  82              		.loc 1 45 0
  83 0004 8DF80400 		strb	r0, [sp, #4]
  46:..\../gyroscope.c **** 
  47:..\../gyroscope.c ****     uint8 Read_Buf[1] = {0};
  84              		.loc 1 47 0
  85 0008 0023     		movs	r3, #0
  86 000a 8DF80030 		strb	r3, [sp]
  48:..\../gyroscope.c **** 
  49:..\../gyroscope.c ****     //Make a transfer with no stop bit (I2C_MODE_NO_STOP) to the gyroscope
  50:..\../gyroscope.c ****     //Before the array is sent, it first sends the address and that it's about to write to it
  51:..\../gyroscope.c ****     //Then, it sends the first array value which is the register value it's trying to point to
  52:..\../gyroscope.c ****     //And, finally once it receives an ACK it sends the second thing which is the value it is tryin
  53:..\../gyroscope.c ****     I2C_MasterWriteBuf(FXAS21002C_ADDRESS, (uint8 *)Write_Buf, 1, I2C_MODE_NO_STOP);
  87              		.loc 1 53 0
  88 000e 2120     		movs	r0, #33
  89              	.LVL6:
  90 0010 01A9     		add	r1, sp, #4
  91              	.LVL7:
  92 0012 0122     		movs	r2, #1
  93 0014 0223     		movs	r3, #2
  94 0016 FFF7FEFF 		bl	I2C_MasterWriteBuf
  95              	.LVL8:
  54:..\../gyroscope.c ****     //while ((I2C_MasterStatus() & I2C_MSTAT_WR_CMPLT) == 0)
  55:..\../gyroscope.c ****     //{
  56:..\../gyroscope.c ****     //} //wait till Master status indicates that write is complete
  57:..\../gyroscope.c **** 
  58:..\../gyroscope.c ****     //Once the first tranfer was done with a NO STOP BIT it then tells the gyroscope that it is
  59:..\../gyroscope.c ****     //trying to read from it, after sending a repeated start. The Master will no extract as much
  60:..\../gyroscope.c ****     //bytes as we told it to, starting from the value in the register we told it to point to
  61:..\../gyroscope.c ****     I2C_MasterReadBuf(FXAS21002C_ADDRESS, (uint8 *)Read_Buf, 1, I2C_MODE_REPEAT_START);
  96              		.loc 1 61 0
  97 001a 2120     		movs	r0, #33
  98 001c 6946     		mov	r1, sp
  99 001e 0122     		movs	r2, #1
 100 0020 1346     		mov	r3, r2
 101 0022 FFF7FEFF 		bl	I2C_MasterReadBuf
 102              	.LVL9:
  62:..\../gyroscope.c ****     //while ((I2C_MasterStatus() & I2C_MSTAT_RD_CMPLT) == 0)
  63:..\../gyroscope.c ****     //{
  64:..\../gyroscope.c ****     //} //wait till Master status indicates read is complete
  65:..\../gyroscope.c **** 
  66:..\../gyroscope.c ****     return Read_Buf[0]; //return the value we just read
  67:..\../gyroscope.c **** }
 103              		.loc 1 67 0
 104 0026 9DF80000 		ldrb	r0, [sp]	@ zero_extendqisi2
ARM GAS  C:\Users\a85495\AppData\Local\Temp\ccmFDgqk.s 			page 4


 105 002a 03B0     		add	sp, sp, #12
 106              		.cfi_def_cfa_offset 4
 107              		@ sp needed
 108 002c 5DF804FB 		ldr	pc, [sp], #4
 109              		.cfi_endproc
 110              	.LFE64:
 111              		.size	gyro_read8, .-gyro_read8
 112              		.section	.text.gyro_begin,"ax",%progbits
 113              		.align	2
 114              		.global	gyro_begin
 115              		.thumb
 116              		.thumb_func
 117              		.type	gyro_begin, %function
 118              	gyro_begin:
 119              	.LFB65:
  68:..\../gyroscope.c **** 
  69:..\../gyroscope.c **** uint8_t gyro_begin(gyroRange_t rng)
  70:..\../gyroscope.c **** {
 120              		.loc 1 70 0
 121              		.cfi_startproc
 122              		@ args = 0, pretend = 0, frame = 0
 123              		@ frame_needed = 0, uses_anonymous_args = 0
 124              	.LVL10:
 125 0000 10B5     		push	{r4, lr}
 126              		.cfi_def_cfa_offset 8
 127              		.cfi_offset 4, -8
 128              		.cfi_offset 14, -4
 129 0002 0446     		mov	r4, r0
  71:..\../gyroscope.c ****   /* Enable I2C */
  72:..\../gyroscope.c ****   Wire_begin();
 130              		.loc 1 72 0
 131 0004 FFF7FEFF 		bl	Wire_begin
 132              	.LVL11:
  73:..\../gyroscope.c **** 
  74:..\../gyroscope.c ****   /* Set the range to an appropriate value */
  75:..\../gyroscope.c ****   _range = rng;
 133              		.loc 1 75 0
 134 0008 124B     		ldr	r3, .L10
 135 000a 1C80     		strh	r4, [r3]	@ movhi
  76:..\../gyroscope.c **** 
  77:..\../gyroscope.c ****   /* Clear the raw sensor data */
  78:..\../gyroscope.c ****   gyro_raw.x = 0;
 136              		.loc 1 78 0
 137 000c 124B     		ldr	r3, .L10+4
 138 000e 0022     		movs	r2, #0
 139 0010 1A80     		strh	r2, [r3]	@ movhi
  79:..\../gyroscope.c ****   gyro_raw.y = 0;
 140              		.loc 1 79 0
 141 0012 5A80     		strh	r2, [r3, #2]	@ movhi
  80:..\../gyroscope.c ****   gyro_raw.z = 0;
 142              		.loc 1 80 0
 143 0014 9A80     		strh	r2, [r3, #4]	@ movhi
  81:..\../gyroscope.c **** 
  82:..\../gyroscope.c ****   /* Make sure we have the correct chip ID since this checks
  83:..\../gyroscope.c ****      for correct address and that the IC is properly connected */
  84:..\../gyroscope.c ****   uint8_t id = gyro_read8(GYRO_REGISTER_WHO_AM_I);
 144              		.loc 1 84 0
ARM GAS  C:\Users\a85495\AppData\Local\Temp\ccmFDgqk.s 			page 5


 145 0016 0C20     		movs	r0, #12
 146 0018 FFF7FEFF 		bl	gyro_read8
 147              	.LVL12:
  85:..\../gyroscope.c ****   // Serial.print("WHO AM I? 0x"); Serial.println(id, HEX);
  86:..\../gyroscope.c ****   if (id != FXAS21002C_ID)
 148              		.loc 1 86 0
 149 001c D728     		cmp	r0, #215
 150 001e 04D0     		beq	.L7
  87:..\../gyroscope.c ****   {
  88:..\../gyroscope.c ****     serial_println("Incorrect ID, check wiring or code");
 151              		.loc 1 88 0
 152 0020 0E48     		ldr	r0, .L10+8
 153              	.LVL13:
 154 0022 FFF7FEFF 		bl	serial_println
 155              	.LVL14:
  89:..\../gyroscope.c ****     return false;
 156              		.loc 1 89 0
 157 0026 0020     		movs	r0, #0
 158 0028 10BD     		pop	{r4, pc}
 159              	.LVL15:
 160              	.L7:
  90:..\../gyroscope.c ****   }
  91:..\../gyroscope.c ****   serial_println("Correct ID");
 161              		.loc 1 91 0
 162 002a 0D48     		ldr	r0, .L10+12
 163              	.LVL16:
 164 002c FFF7FEFF 		bl	serial_println
 165              	.LVL17:
  92:..\../gyroscope.c **** 
  93:..\../gyroscope.c ****   /* Set CTRL_REG1 (0x13)
  94:..\../gyroscope.c ****    ====================================================================
  95:..\../gyroscope.c ****    BIT  Symbol    Description                                   Default
  96:..\../gyroscope.c ****    ---  ------    --------------------------------------------- -------
  97:..\../gyroscope.c ****      6  RESET     Reset device on 1                                   0
  98:..\../gyroscope.c ****      5  ST        Self test enabled on 1                              0
  99:..\../gyroscope.c ****    4:2  DR        Output data rate                                  000
 100:..\../gyroscope.c ****                   000 = 800 Hz
 101:..\../gyroscope.c ****                   001 = 400 Hz
 102:..\../gyroscope.c ****                   010 = 200 Hz
 103:..\../gyroscope.c ****                   011 = 100 Hz
 104:..\../gyroscope.c ****                   100 = 50 Hz
 105:..\../gyroscope.c ****                   101 = 25 Hz
 106:..\../gyroscope.c ****                   110 = 12.5 Hz
 107:..\../gyroscope.c ****                   111 = 12.5 Hz
 108:..\../gyroscope.c ****      1  ACTIVE    Standby(0)/Active(1)                                0
 109:..\../gyroscope.c ****      0  READY     Standby(0)/Ready(1)                                 0*/
 110:..\../gyroscope.c **** 
 111:..\../gyroscope.c ****   /* Reset then switch to active mode with 100Hz output */
 112:..\../gyroscope.c ****   gyro_write8(GYRO_REGISTER_CTRL_REG1, 0x00);  //clear all bit
 166              		.loc 1 112 0
 167 0030 1320     		movs	r0, #19
 168 0032 0021     		movs	r1, #0
 169 0034 FFF7FEFF 		bl	gyro_write8
 170              	.LVL18:
 113:..\../gyroscope.c ****   gyro_write8(GYRO_REGISTER_CTRL_REG1, (1<<6));  //set the reset bit
 171              		.loc 1 113 0
 172 0038 1320     		movs	r0, #19
ARM GAS  C:\Users\a85495\AppData\Local\Temp\ccmFDgqk.s 			page 6


 173 003a 4021     		movs	r1, #64
 174 003c FFF7FEFF 		bl	gyro_write8
 175              	.LVL19:
 114:..\../gyroscope.c ****   gyro_write8(GYRO_REGISTER_CTRL_REG1, 0x0E);    //
 176              		.loc 1 114 0
 177 0040 1320     		movs	r0, #19
 178 0042 0E21     		movs	r1, #14
 179 0044 FFF7FEFF 		bl	gyro_write8
 180              	.LVL20:
 115:..\../gyroscope.c ****   CyDelay(100); // 60 ms + 1/ODR
 181              		.loc 1 115 0
 182 0048 6420     		movs	r0, #100
 183 004a FFF7FEFF 		bl	CyDelay
 184              	.LVL21:
 116:..\../gyroscope.c ****   /* ------------------------------------------------------------------ */
 117:..\../gyroscope.c **** 
 118:..\../gyroscope.c ****   return true;
 185              		.loc 1 118 0
 186 004e 0120     		movs	r0, #1
 119:..\../gyroscope.c **** }
 187              		.loc 1 119 0
 188 0050 10BD     		pop	{r4, pc}
 189              	.L11:
 190 0052 00BF     		.align	2
 191              	.L10:
 192 0054 00000000 		.word	.LANCHOR0
 193 0058 00000000 		.word	gyro_raw
 194 005c 00000000 		.word	.LC0
 195 0060 24000000 		.word	.LC1
 196              		.cfi_endproc
 197              	.LFE65:
 198              		.size	gyro_begin, .-gyro_begin
 199              		.global	__aeabi_i2f
 200              		.global	__aeabi_f2iz
 201              		.global	__aeabi_fmul
 202              		.global	__aeabi_f2d
 203              		.global	__aeabi_dmul
 204              		.global	__aeabi_d2f
 205              		.section	.text.gyro_update,"ax",%progbits
 206              		.align	2
 207              		.global	gyro_update
 208              		.thumb
 209              		.thumb_func
 210              		.type	gyro_update, %function
 211              	gyro_update:
 212              	.LFB66:
 120:..\../gyroscope.c **** 
 121:..\../gyroscope.c **** uint8_t gyro_update()
 122:..\../gyroscope.c **** {
 213              		.loc 1 122 0
 214              		.cfi_startproc
 215              		@ args = 0, pretend = 0, frame = 16
 216              		@ frame_needed = 0, uses_anonymous_args = 0
 217 0000 2DE9F043 		push	{r4, r5, r6, r7, r8, r9, lr}
 218              		.cfi_def_cfa_offset 28
 219              		.cfi_offset 4, -28
 220              		.cfi_offset 5, -24
ARM GAS  C:\Users\a85495\AppData\Local\Temp\ccmFDgqk.s 			page 7


 221              		.cfi_offset 6, -20
 222              		.cfi_offset 7, -16
 223              		.cfi_offset 8, -12
 224              		.cfi_offset 9, -8
 225              		.cfi_offset 14, -4
 226 0004 85B0     		sub	sp, sp, #20
 227              		.cfi_def_cfa_offset 48
 228              	.LVL22:
 123:..\../gyroscope.c ****   uint8_t readingValid = false;
 124:..\../gyroscope.c **** 
 125:..\../gyroscope.c **** 
 126:..\../gyroscope.c ****   /* Clear the raw data placeholder */
 127:..\../gyroscope.c ****   gyro_raw.x = 0;
 229              		.loc 1 127 0
 230 0006 764A     		ldr	r2, .L22+8
 231 0008 0023     		movs	r3, #0
 232 000a 1380     		strh	r3, [r2]	@ movhi
 128:..\../gyroscope.c ****   gyro_raw.y = 0;
 233              		.loc 1 128 0
 234 000c 5380     		strh	r3, [r2, #2]	@ movhi
 129:..\../gyroscope.c ****   gyro_raw.z = 0;
 235              		.loc 1 129 0
 236 000e 9380     		strh	r3, [r2, #4]	@ movhi
 130:..\../gyroscope.c **** 
 131:..\../gyroscope.c ****   /* Read 7 bytes from the sensor */
 132:..\../gyroscope.c ****   /*Wire.beginTransmission((byte)FXAS21002C_ADDRESS);
 133:..\../gyroscope.c ****   #if ARDUINO >= 100
 134:..\../gyroscope.c ****     Wire.write(GYRO_REGISTER_STATUS | 0x80);
 135:..\../gyroscope.c ****   #else
 136:..\../gyroscope.c ****     Wire.send(GYRO_REGISTER_STATUS | 0x80);
 137:..\../gyroscope.c ****   #endif
 138:..\../gyroscope.c ****   Wire.endTransmission();
 139:..\../gyroscope.c ****   Wire.requestFrom((byte)FXAS21002C_ADDRESS, (byte)7);
 140:..\../gyroscope.c ****   */
 141:..\../gyroscope.c **** 
 142:..\../gyroscope.c ****     uint8_t Write_Buf[1];  //create a buffer that will store the register that we want to start rea
 143:..\../gyroscope.c ****     Write_Buf[0] = (uint8_t)GYRO_REGISTER_STATUS;   
 237              		.loc 1 143 0
 238 0010 8DF80C30 		strb	r3, [sp, #12]
 144:..\../gyroscope.c ****     
 145:..\../gyroscope.c ****     uint8_t Read_Buf[7] = {0}; //create an array that will store the data read
 239              		.loc 1 145 0
 240 0014 0193     		str	r3, [sp, #4]
 241 0016 ADF80830 		strh	r3, [sp, #8]	@ movhi
 242 001a 8DF80A30 		strb	r3, [sp, #10]
 146:..\../gyroscope.c ****     
 147:..\../gyroscope.c ****     I2C_MasterWriteBuf(FXAS21002C_ADDRESS, (uint8 *)Write_Buf, 1, I2C_MODE_NO_STOP);
 243              		.loc 1 147 0
 244 001e 2120     		movs	r0, #33
 245 0020 03A9     		add	r1, sp, #12
 246 0022 0122     		movs	r2, #1
 247 0024 0223     		movs	r3, #2
 248 0026 FFF7FEFF 		bl	I2C_MasterWriteBuf
 249              	.LVL23:
 250              	.L13:
 148:..\../gyroscope.c ****     while((I2C_MasterStatus() & I2C_MSTAT_WR_CMPLT) == 0){} //wait till Master status indicates tha
 251              		.loc 1 148 0 discriminator 1
ARM GAS  C:\Users\a85495\AppData\Local\Temp\ccmFDgqk.s 			page 8


 252 002a FFF7FEFF 		bl	I2C_MasterStatus
 253              	.LVL24:
 254 002e 10F0020F 		tst	r0, #2
 255 0032 FAD0     		beq	.L13
 149:..\../gyroscope.c ****     
 150:..\../gyroscope.c ****     I2C_MasterReadBuf(FXAS21002C_ADDRESS, (uint8 *) Read_Buf, sizeof(Read_Buf), I2C_MODE_REPEAT_STA
 256              		.loc 1 150 0
 257 0034 2120     		movs	r0, #33
 258 0036 01A9     		add	r1, sp, #4
 259 0038 0722     		movs	r2, #7
 260 003a 0123     		movs	r3, #1
 261 003c FFF7FEFF 		bl	I2C_MasterReadBuf
 262              	.LVL25:
 263              	.L14:
 151:..\../gyroscope.c ****     while((I2C_MasterStatus() & I2C_MSTAT_RD_CMPLT)==0){}   //wait till Master status indicates rea
 264              		.loc 1 151 0 discriminator 1
 265 0040 FFF7FEFF 		bl	I2C_MasterStatus
 266              	.LVL26:
 267 0044 10F0010F 		tst	r0, #1
 268 0048 FAD0     		beq	.L14
 269              	.LVL27:
 152:..\../gyroscope.c ****     
 153:..\../gyroscope.c **** 
 154:..\../gyroscope.c ****     uint8_t status = Read_Buf[0];
 155:..\../gyroscope.c ****     uint8_t xhi = Read_Buf[1];
 270              		.loc 1 155 0
 271 004a 9DF80500 		ldrb	r0, [sp, #5]	@ zero_extendqisi2
 272              	.LVL28:
 156:..\../gyroscope.c ****     uint8_t xlo = Read_Buf[2];
 273              		.loc 1 156 0
 274 004e 9DF80630 		ldrb	r3, [sp, #6]	@ zero_extendqisi2
 275              	.LVL29:
 157:..\../gyroscope.c ****     uint8_t yhi = Read_Buf[3];
 276              		.loc 1 157 0
 277 0052 9DF80790 		ldrb	r9, [sp, #7]	@ zero_extendqisi2
 278              	.LVL30:
 158:..\../gyroscope.c ****     uint8_t ylo = Read_Buf[4];
 279              		.loc 1 158 0
 280 0056 9DF80860 		ldrb	r6, [sp, #8]	@ zero_extendqisi2
 281              	.LVL31:
 159:..\../gyroscope.c ****     uint8_t zhi = Read_Buf[5];
 282              		.loc 1 159 0
 283 005a 9DF80980 		ldrb	r8, [sp, #9]	@ zero_extendqisi2
 284              	.LVL32:
 160:..\../gyroscope.c ****     uint8_t zlo = Read_Buf[6];
 285              		.loc 1 160 0
 286 005e 9DF80A50 		ldrb	r5, [sp, #10]	@ zero_extendqisi2
 287              	.LVL33:
 161:..\../gyroscope.c **** 
 162:..\../gyroscope.c ****   /* Shift values to create properly formed integer */
 163:..\../gyroscope.c ****   gyro.x = (int16_t)((xhi << 8) | xlo);
 288              		.loc 1 163 0
 289 0062 43EA0020 		orr	r0, r3, r0, lsl #8
 290              	.LVL34:
 291 0066 00B2     		sxth	r0, r0
 292 0068 FFF7FEFF 		bl	__aeabi_i2f
 293              	.LVL35:
ARM GAS  C:\Users\a85495\AppData\Local\Temp\ccmFDgqk.s 			page 9


 294 006c 0746     		mov	r7, r0
 295 006e 5D4C     		ldr	r4, .L22+12
 296 0070 2060     		str	r0, [r4]	@ float
 164:..\../gyroscope.c ****   gyro.y = (int16_t)((yhi << 8) | ylo);
 297              		.loc 1 164 0
 298 0072 46EA0920 		orr	r0, r6, r9, lsl #8
 299 0076 00B2     		sxth	r0, r0
 300 0078 FFF7FEFF 		bl	__aeabi_i2f
 301              	.LVL36:
 302 007c 0646     		mov	r6, r0
 303              	.LVL37:
 304 007e 6060     		str	r0, [r4, #4]	@ float
 165:..\../gyroscope.c ****   gyro.z = (int16_t)((zhi << 8) | zlo);
 305              		.loc 1 165 0
 306 0080 45EA0820 		orr	r0, r5, r8, lsl #8
 307 0084 00B2     		sxth	r0, r0
 308 0086 FFF7FEFF 		bl	__aeabi_i2f
 309              	.LVL38:
 310 008a 0546     		mov	r5, r0
 311              	.LVL39:
 312 008c A060     		str	r0, [r4, #8]	@ float
 166:..\../gyroscope.c **** 
 167:..\../gyroscope.c ****   /* Assign raw values in case someone needs them */
 168:..\../gyroscope.c ****   gyro_raw.x = gyro.x;
 313              		.loc 1 168 0
 314 008e 544C     		ldr	r4, .L22+8
 315 0090 3846     		mov	r0, r7
 316 0092 FFF7FEFF 		bl	__aeabi_f2iz
 317              	.LVL40:
 318 0096 2080     		strh	r0, [r4]	@ movhi
 169:..\../gyroscope.c ****   gyro_raw.y = gyro.y;
 319              		.loc 1 169 0
 320 0098 3046     		mov	r0, r6
 321 009a FFF7FEFF 		bl	__aeabi_f2iz
 322              	.LVL41:
 323 009e 6080     		strh	r0, [r4, #2]	@ movhi
 170:..\../gyroscope.c ****   gyro_raw.z = gyro.z;
 324              		.loc 1 170 0
 325 00a0 2846     		mov	r0, r5
 326 00a2 FFF7FEFF 		bl	__aeabi_f2iz
 327              	.LVL42:
 328 00a6 A080     		strh	r0, [r4, #4]	@ movhi
 171:..\../gyroscope.c **** 
 172:..\../gyroscope.c ****   #if GYROSCOPE_RAW_DEBUG
 173:..\../gyroscope.c ****         serial_print("gyro_raw.x = ");
 174:..\../gyroscope.c ****         serial_printInt(gyro_raw.x);
 175:..\../gyroscope.c ****         serial_print(" || gyro_raw.y = ");
 176:..\../gyroscope.c ****         serial_printInt(gyro_raw.y);
 177:..\../gyroscope.c ****         serial_print("|| gyro_raw.z = ");
 178:..\../gyroscope.c ****         serial_printInt(gyro_raw.z);
 179:..\../gyroscope.c ****         serial_println(" rad/s");
 180:..\../gyroscope.c **** 
 181:..\../gyroscope.c ****   #endif
 182:..\../gyroscope.c **** 
 183:..\../gyroscope.c ****   /* Compensate values depending on the resolution */
 184:..\../gyroscope.c ****   switch(_range)
 329              		.loc 1 184 0
ARM GAS  C:\Users\a85495\AppData\Local\Temp\ccmFDgqk.s 			page 10


 330 00a8 4F4B     		ldr	r3, .L22+16
 331 00aa 1B88     		ldrh	r3, [r3]
 332 00ac B3F5FA7F 		cmp	r3, #500
 333 00b0 1ED0     		beq	.L16
 334 00b2 02D8     		bhi	.L17
 335 00b4 FA2B     		cmp	r3, #250
 336 00b6 07D0     		beq	.L18
 337 00b8 55E0     		b	.L15
 338              	.L17:
 339 00ba B3F57A7F 		cmp	r3, #1000
 340 00be 2BD0     		beq	.L19
 341 00c0 B3F5FA6F 		cmp	r3, #2000
 342 00c4 3CD0     		beq	.L20
 343 00c6 4EE0     		b	.L15
 344              	.L18:
 185:..\../gyroscope.c ****   {
 186:..\../gyroscope.c ****     case GYRO_RANGE_250DPS:
 187:..\../gyroscope.c ****       gyro.x *= GYRO_SENSITIVITY_250DPS;
 345              		.loc 1 187 0
 346 00c8 464C     		ldr	r4, .L22+12
 347 00ca 3846     		mov	r0, r7
 348 00cc 4FF07051 		mov	r1, #1006632960
 349 00d0 FFF7FEFF 		bl	__aeabi_fmul
 350              	.LVL43:
 351 00d4 2060     		str	r0, [r4]	@ float
 188:..\../gyroscope.c ****       gyro.y *= GYRO_SENSITIVITY_250DPS;
 352              		.loc 1 188 0
 353 00d6 3046     		mov	r0, r6
 354 00d8 4FF07051 		mov	r1, #1006632960
 355 00dc FFF7FEFF 		bl	__aeabi_fmul
 356              	.LVL44:
 357 00e0 6060     		str	r0, [r4, #4]	@ float
 189:..\../gyroscope.c ****       gyro.z *= GYRO_SENSITIVITY_250DPS;
 358              		.loc 1 189 0
 359 00e2 2846     		mov	r0, r5
 360 00e4 4FF07051 		mov	r1, #1006632960
 361 00e8 FFF7FEFF 		bl	__aeabi_fmul
 362              	.LVL45:
 363 00ec A060     		str	r0, [r4, #8]	@ float
 190:..\../gyroscope.c ****       break;
 364              		.loc 1 190 0
 365 00ee 3AE0     		b	.L15
 366              	.L16:
 191:..\../gyroscope.c ****     case GYRO_RANGE_500DPS:
 192:..\../gyroscope.c ****       gyro.x *= GYRO_SENSITIVITY_500DPS;
 367              		.loc 1 192 0
 368 00f0 3C4C     		ldr	r4, .L22+12
 369 00f2 3846     		mov	r0, r7
 370 00f4 4FF07251 		mov	r1, #1015021568
 371 00f8 FFF7FEFF 		bl	__aeabi_fmul
 372              	.LVL46:
 373 00fc 2060     		str	r0, [r4]	@ float
 193:..\../gyroscope.c ****       gyro.y *= GYRO_SENSITIVITY_500DPS;
 374              		.loc 1 193 0
 375 00fe 3046     		mov	r0, r6
 376 0100 4FF07251 		mov	r1, #1015021568
 377 0104 FFF7FEFF 		bl	__aeabi_fmul
ARM GAS  C:\Users\a85495\AppData\Local\Temp\ccmFDgqk.s 			page 11


 378              	.LVL47:
 379 0108 6060     		str	r0, [r4, #4]	@ float
 194:..\../gyroscope.c ****       gyro.z *= GYRO_SENSITIVITY_500DPS;
 380              		.loc 1 194 0
 381 010a 2846     		mov	r0, r5
 382 010c 4FF07251 		mov	r1, #1015021568
 383 0110 FFF7FEFF 		bl	__aeabi_fmul
 384              	.LVL48:
 385 0114 A060     		str	r0, [r4, #8]	@ float
 195:..\../gyroscope.c ****       break;
 386              		.loc 1 195 0
 387 0116 26E0     		b	.L15
 388              	.L19:
 196:..\../gyroscope.c ****     case GYRO_RANGE_1000DPS:
 197:..\../gyroscope.c ****       gyro.x *= GYRO_SENSITIVITY_1000DPS;
 389              		.loc 1 197 0
 390 0118 324C     		ldr	r4, .L22+12
 391 011a 3846     		mov	r0, r7
 392 011c 4FF07451 		mov	r1, #1023410176
 393 0120 FFF7FEFF 		bl	__aeabi_fmul
 394              	.LVL49:
 395 0124 2060     		str	r0, [r4]	@ float
 198:..\../gyroscope.c ****       gyro.y *= GYRO_SENSITIVITY_1000DPS;
 396              		.loc 1 198 0
 397 0126 3046     		mov	r0, r6
 398 0128 4FF07451 		mov	r1, #1023410176
 399 012c FFF7FEFF 		bl	__aeabi_fmul
 400              	.LVL50:
 401 0130 6060     		str	r0, [r4, #4]	@ float
 199:..\../gyroscope.c ****       gyro.z *= GYRO_SENSITIVITY_1000DPS;
 402              		.loc 1 199 0
 403 0132 2846     		mov	r0, r5
 404 0134 4FF07451 		mov	r1, #1023410176
 405 0138 FFF7FEFF 		bl	__aeabi_fmul
 406              	.LVL51:
 407 013c A060     		str	r0, [r4, #8]	@ float
 200:..\../gyroscope.c ****       break;
 408              		.loc 1 200 0
 409 013e 12E0     		b	.L15
 410              	.L20:
 201:..\../gyroscope.c ****     case GYRO_RANGE_2000DPS:
 202:..\../gyroscope.c ****       gyro.x *= GYRO_SENSITIVITY_2000DPS;
 411              		.loc 1 202 0
 412 0140 284C     		ldr	r4, .L22+12
 413 0142 3846     		mov	r0, r7
 414 0144 4FF07651 		mov	r1, #1031798784
 415 0148 FFF7FEFF 		bl	__aeabi_fmul
 416              	.LVL52:
 417 014c 2060     		str	r0, [r4]	@ float
 203:..\../gyroscope.c ****       gyro.y *= GYRO_SENSITIVITY_2000DPS;
 418              		.loc 1 203 0
 419 014e 3046     		mov	r0, r6
 420 0150 4FF07651 		mov	r1, #1031798784
 421 0154 FFF7FEFF 		bl	__aeabi_fmul
 422              	.LVL53:
 423 0158 6060     		str	r0, [r4, #4]	@ float
 204:..\../gyroscope.c ****       gyro.z *= GYRO_SENSITIVITY_2000DPS;
ARM GAS  C:\Users\a85495\AppData\Local\Temp\ccmFDgqk.s 			page 12


 424              		.loc 1 204 0
 425 015a 2846     		mov	r0, r5
 426 015c 4FF07651 		mov	r1, #1031798784
 427 0160 FFF7FEFF 		bl	__aeabi_fmul
 428              	.LVL54:
 429 0164 A060     		str	r0, [r4, #8]	@ float
 430              	.L15:
 205:..\../gyroscope.c ****       break;
 206:..\../gyroscope.c ****   }
 207:..\../gyroscope.c **** 
 208:..\../gyroscope.c ****   /* Convert values to rad/s */
 209:..\../gyroscope.c ****   gyro.x *= SENSORS_DPS_TO_RADS;
 431              		.loc 1 209 0
 432 0166 1F4C     		ldr	r4, .L22+12
 433 0168 2068     		ldr	r0, [r4]	@ float
 434 016a FFF7FEFF 		bl	__aeabi_f2d
 435              	.LVL55:
 436 016e 1AA3     		adr	r3, .L22
 437 0170 D3E90023 		ldrd	r2, [r3]
 438 0174 FFF7FEFF 		bl	__aeabi_dmul
 439              	.LVL56:
 440 0178 FFF7FEFF 		bl	__aeabi_d2f
 441              	.LVL57:
 442 017c 2060     		str	r0, [r4]	@ float
 210:..\../gyroscope.c ****   gyro.y *= SENSORS_DPS_TO_RADS;
 443              		.loc 1 210 0
 444 017e 6068     		ldr	r0, [r4, #4]	@ float
 445 0180 FFF7FEFF 		bl	__aeabi_f2d
 446              	.LVL58:
 447 0184 14A3     		adr	r3, .L22
 448 0186 D3E90023 		ldrd	r2, [r3]
 449 018a FFF7FEFF 		bl	__aeabi_dmul
 450              	.LVL59:
 451 018e FFF7FEFF 		bl	__aeabi_d2f
 452              	.LVL60:
 453 0192 6060     		str	r0, [r4, #4]	@ float
 211:..\../gyroscope.c ****   gyro.z *= SENSORS_DPS_TO_RADS;
 454              		.loc 1 211 0
 455 0194 A068     		ldr	r0, [r4, #8]	@ float
 456 0196 FFF7FEFF 		bl	__aeabi_f2d
 457              	.LVL61:
 458 019a 0FA3     		adr	r3, .L22
 459 019c D3E90023 		ldrd	r2, [r3]
 460 01a0 FFF7FEFF 		bl	__aeabi_dmul
 461              	.LVL62:
 462 01a4 FFF7FEFF 		bl	__aeabi_d2f
 463              	.LVL63:
 464 01a8 A060     		str	r0, [r4, #8]	@ float
 212:..\../gyroscope.c **** 
 213:..\../gyroscope.c ****   #if GYROSCOPE_DEBUG
 214:..\../gyroscope.c ****         serial_print("gyro.x = ");
 465              		.loc 1 214 0
 466 01aa 1048     		ldr	r0, .L22+20
 467 01ac FFF7FEFF 		bl	serial_print
 468              	.LVL64:
 215:..\../gyroscope.c ****         serial_printFloat(gyro.x);
 469              		.loc 1 215 0
ARM GAS  C:\Users\a85495\AppData\Local\Temp\ccmFDgqk.s 			page 13


 470 01b0 2068     		ldr	r0, [r4]	@ float
 471 01b2 FFF7FEFF 		bl	serial_printFloat
 472              	.LVL65:
 216:..\../gyroscope.c ****         serial_print(" || gyro.y = ");
 473              		.loc 1 216 0
 474 01b6 0E48     		ldr	r0, .L22+24
 475 01b8 FFF7FEFF 		bl	serial_print
 476              	.LVL66:
 217:..\../gyroscope.c ****         serial_printFloat(gyro.y);
 477              		.loc 1 217 0
 478 01bc 6068     		ldr	r0, [r4, #4]	@ float
 479 01be FFF7FEFF 		bl	serial_printFloat
 480              	.LVL67:
 218:..\../gyroscope.c ****         serial_print("  || gyro.z = ");
 481              		.loc 1 218 0
 482 01c2 0C48     		ldr	r0, .L22+28
 483 01c4 FFF7FEFF 		bl	serial_print
 484              	.LVL68:
 219:..\../gyroscope.c ****         serial_printFloatln(gyro.z);
 485              		.loc 1 219 0
 486 01c8 A068     		ldr	r0, [r4, #8]	@ float
 487 01ca FFF7FEFF 		bl	serial_printFloatln
 488              	.LVL69:
 220:..\../gyroscope.c ****   #endif
 221:..\../gyroscope.c ****   readingValid = true;
 222:..\../gyroscope.c ****   return readingValid;
 223:..\../gyroscope.c **** }
 489              		.loc 1 223 0
 490 01ce 0120     		movs	r0, #1
 491 01d0 05B0     		add	sp, sp, #20
 492              		.cfi_def_cfa_offset 28
 493              		@ sp needed
 494 01d2 BDE8F083 		pop	{r4, r5, r6, r7, r8, r9, pc}
 495              	.LVL70:
 496              	.L23:
 497 01d6 00BF     		.align	3
 498              	.L22:
 499 01d8 06ED91AA 		.word	-1433277178
 500 01dc 46DF913F 		.word	1066524486
 501 01e0 00000000 		.word	gyro_raw
 502 01e4 00000000 		.word	gyro
 503 01e8 00000000 		.word	.LANCHOR0
 504 01ec 30000000 		.word	.LC2
 505 01f0 3C000000 		.word	.LC3
 506 01f4 4C000000 		.word	.LC4
 507              		.cfi_endproc
 508              	.LFE66:
 509              		.size	gyro_update, .-gyro_update
 510              		.section	.text.gyro_readData,"ax",%progbits
 511              		.align	2
 512              		.global	gyro_readData
 513              		.thumb
 514              		.thumb_func
 515              		.type	gyro_readData, %function
 516              	gyro_readData:
 517              	.LFB67:
 224:..\../gyroscope.c **** 
ARM GAS  C:\Users\a85495\AppData\Local\Temp\ccmFDgqk.s 			page 14


 225:..\../gyroscope.c **** void gyro_readData(gyroData_t *gyroscope)
 226:..\../gyroscope.c **** {
 518              		.loc 1 226 0
 519              		.cfi_startproc
 520              		@ args = 0, pretend = 0, frame = 0
 521              		@ frame_needed = 0, uses_anonymous_args = 0
 522              	.LVL71:
 523 0000 10B5     		push	{r4, lr}
 524              		.cfi_def_cfa_offset 8
 525              		.cfi_offset 4, -8
 526              		.cfi_offset 14, -4
 527 0002 0446     		mov	r4, r0
 227:..\../gyroscope.c ****     //gets the gyroscope data
 228:..\../gyroscope.c ****     gyro_update();
 528              		.loc 1 228 0
 529 0004 FFF7FEFF 		bl	gyro_update
 530              	.LVL72:
 229:..\../gyroscope.c ****     gyroscope->x = gyro.x;
 531              		.loc 1 229 0
 532 0008 034B     		ldr	r3, .L26
 533 000a 1A68     		ldr	r2, [r3]	@ float
 534 000c 2260     		str	r2, [r4]	@ float
 230:..\../gyroscope.c ****     gyroscope->y = gyro.y;
 535              		.loc 1 230 0
 536 000e 5A68     		ldr	r2, [r3, #4]	@ float
 537 0010 6260     		str	r2, [r4, #4]	@ float
 231:..\../gyroscope.c ****     gyroscope->z = gyro.z;
 538              		.loc 1 231 0
 539 0012 9B68     		ldr	r3, [r3, #8]	@ float
 540 0014 A360     		str	r3, [r4, #8]	@ float
 541 0016 10BD     		pop	{r4, pc}
 542              	.LVL73:
 543              	.L27:
 544              		.align	2
 545              	.L26:
 546 0018 00000000 		.word	gyro
 547              		.cfi_endproc
 548              	.LFE67:
 549              		.size	gyro_readData, .-gyro_readData
 550              		.section	.text.gyro_initialize,"ax",%progbits
 551              		.align	2
 552              		.global	gyro_initialize
 553              		.thumb
 554              		.thumb_func
 555              		.type	gyro_initialize, %function
 556              	gyro_initialize:
 557              	.LFB68:
 232:..\../gyroscope.c **** 
 233:..\../gyroscope.c **** }
 234:..\../gyroscope.c **** 
 235:..\../gyroscope.c **** uint8_t gyro_initialize(gyroRange_t rng){
 558              		.loc 1 235 0
 559              		.cfi_startproc
 560              		@ args = 0, pretend = 0, frame = 0
 561              		@ frame_needed = 0, uses_anonymous_args = 0
 562              	.LVL74:
 563 0000 08B5     		push	{r3, lr}
ARM GAS  C:\Users\a85495\AppData\Local\Temp\ccmFDgqk.s 			page 15


 564              		.cfi_def_cfa_offset 8
 565              		.cfi_offset 3, -8
 566              		.cfi_offset 14, -4
 567              	.LVL75:
 236:..\../gyroscope.c ****     uint8_t ret = 1;
 237:..\../gyroscope.c ****     ret = gyro_begin(rng);
 568              		.loc 1 237 0
 569 0002 FFF7FEFF 		bl	gyro_begin
 570              	.LVL76:
 238:..\../gyroscope.c ****     return ret;
 239:..\../gyroscope.c **** }
 571              		.loc 1 239 0
 572 0006 08BD     		pop	{r3, pc}
 573              		.cfi_endproc
 574              	.LFE68:
 575              		.size	gyro_initialize, .-gyro_initialize
 576              		.section	.text.gyro_getX,"ax",%progbits
 577              		.align	2
 578              		.global	gyro_getX
 579              		.thumb
 580              		.thumb_func
 581              		.type	gyro_getX, %function
 582              	gyro_getX:
 583              	.LFB69:
 240:..\../gyroscope.c **** 
 241:..\../gyroscope.c **** /*  These functions are provided to allow the user to extract
 242:..\../gyroscope.c ****  *  single pieces of data from the sensor readings safely
 243:..\../gyroscope.c ****  *  instead of just calling the sensor variables directly
 244:..\../gyroscope.c **** */
 245:..\../gyroscope.c **** float gyro_getX(void){
 584              		.loc 1 245 0
 585              		.cfi_startproc
 586              		@ args = 0, pretend = 0, frame = 0
 587              		@ frame_needed = 0, uses_anonymous_args = 0
 588              		@ link register save eliminated.
 246:..\../gyroscope.c ****   return (gyro.x);
 247:..\../gyroscope.c **** }
 589              		.loc 1 247 0
 590 0000 014B     		ldr	r3, .L31
 591 0002 1868     		ldr	r0, [r3]	@ float
 592 0004 7047     		bx	lr
 593              	.L32:
 594 0006 00BF     		.align	2
 595              	.L31:
 596 0008 00000000 		.word	gyro
 597              		.cfi_endproc
 598              	.LFE69:
 599              		.size	gyro_getX, .-gyro_getX
 600              		.section	.text.gyro_getY,"ax",%progbits
 601              		.align	2
 602              		.global	gyro_getY
 603              		.thumb
 604              		.thumb_func
 605              		.type	gyro_getY, %function
 606              	gyro_getY:
 607              	.LFB70:
 248:..\../gyroscope.c **** 
ARM GAS  C:\Users\a85495\AppData\Local\Temp\ccmFDgqk.s 			page 16


 249:..\../gyroscope.c **** float gyro_getY(void){
 608              		.loc 1 249 0
 609              		.cfi_startproc
 610              		@ args = 0, pretend = 0, frame = 0
 611              		@ frame_needed = 0, uses_anonymous_args = 0
 612              		@ link register save eliminated.
 250:..\../gyroscope.c ****   return (gyro.y);
 251:..\../gyroscope.c **** }
 613              		.loc 1 251 0
 614 0000 014B     		ldr	r3, .L34
 615 0002 5868     		ldr	r0, [r3, #4]	@ float
 616 0004 7047     		bx	lr
 617              	.L35:
 618 0006 00BF     		.align	2
 619              	.L34:
 620 0008 00000000 		.word	gyro
 621              		.cfi_endproc
 622              	.LFE70:
 623              		.size	gyro_getY, .-gyro_getY
 624              		.section	.text.gyro_getZ,"ax",%progbits
 625              		.align	2
 626              		.global	gyro_getZ
 627              		.thumb
 628              		.thumb_func
 629              		.type	gyro_getZ, %function
 630              	gyro_getZ:
 631              	.LFB71:
 252:..\../gyroscope.c **** 
 253:..\../gyroscope.c **** float gyro_getZ(void){
 632              		.loc 1 253 0
 633              		.cfi_startproc
 634              		@ args = 0, pretend = 0, frame = 0
 635              		@ frame_needed = 0, uses_anonymous_args = 0
 636              		@ link register save eliminated.
 254:..\../gyroscope.c ****   return (gyro.z);
 255:..\../gyroscope.c **** }...
 637              		.loc 1 255 0
 638 0000 014B     		ldr	r3, .L37
 639 0002 9868     		ldr	r0, [r3, #8]	@ float
 640 0004 7047     		bx	lr
 641              	.L38:
 642 0006 00BF     		.align	2
 643              	.L37:
 644 0008 00000000 		.word	gyro
 645              		.cfi_endproc
 646              	.LFE71:
 647              		.size	gyro_getZ, .-gyro_getZ
 648              		.section	.rodata.str1.4,"aMS",%progbits,1
 649              		.align	2
 650              	.LC0:
 651 0000 496E636F 		.ascii	"Incorrect ID, check wiring or code\000"
 651      72726563 
 651      74204944 
 651      2C206368 
 651      65636B20 
 652 0023 00       		.space	1
 653              	.LC1:
ARM GAS  C:\Users\a85495\AppData\Local\Temp\ccmFDgqk.s 			page 17


 654 0024 436F7272 		.ascii	"Correct ID\000"
 654      65637420 
 654      494400
 655 002f 00       		.space	1
 656              	.LC2:
 657 0030 6779726F 		.ascii	"gyro.x = \000"
 657      2E78203D 
 657      2000
 658 003a 0000     		.space	2
 659              	.LC3:
 660 003c 207C7C20 		.ascii	" || gyro.y = \000"
 660      6779726F 
 660      2E79203D 
 660      2000
 661 004a 0000     		.space	2
 662              	.LC4:
 663 004c 20207C7C 		.ascii	"  || gyro.z = \000"
 663      20677972 
 663      6F2E7A20 
 663      3D2000
 664 005b 00       		.bss
 665              		.align	1
 666              		.set	.LANCHOR0,. + 0
 667              		.type	_range, %object
 668              		.size	_range, 2
 669              	_range:
 670 0000 0000     		.space	2
 671              		.text
 672              	.Letext0:
 673              		.file 2 "c:\\program files (x86)\\cypress\\psoc creator\\4.0\\psoc creator\\import\\gnu\\arm\\4.9.
 674              		.file 3 "c:\\program files (x86)\\cypress\\psoc creator\\4.0\\psoc creator\\import\\gnu\\arm\\4.9.
 675              		.file 4 "..\\..\\gyroscope.h"
 676              		.file 5 "Generated_Source\\PSoC5/cytypes.h"
 677              		.file 6 "Generated_Source\\PSoC5/core_cm3.h"
 678              		.file 7 "..\\..\\SensorVal.h"
 679              		.file 8 "Generated_Source\\PSoC5/I2C.h"
 680              		.file 9 "..\\../debSerial.h"
 681              		.file 10 "Generated_Source\\PSoC5/CyLib.h"
 682              		.file 11 "..\\..\\twi.h"