ARM GAS  C:\Users\a85495\AppData\Local\Temp\cciseaw0.s 			page 1


   1              		.syntax unified
   2              		.cpu cortex-m3
   3              		.fpu softvfp
   4              		.eabi_attribute 20, 1
   5              		.eabi_attribute 21, 1
   6              		.eabi_attribute 23, 3
   7              		.eabi_attribute 24, 1
   8              		.eabi_attribute 25, 1
   9              		.eabi_attribute 26, 1
  10              		.eabi_attribute 30, 1
  11              		.eabi_attribute 34, 1
  12              		.eabi_attribute 18, 4
  13              		.thumb
  14              		.file	"sw_serial.c"
  15              		.text
  16              	.Ltext0:
  17              		.cfi_sections	.debug_frame
  18              		.section	.text.sw_serial_StartEx,"ax",%progbits
  19              		.align	2
  20              		.global	sw_serial_StartEx
  21              		.thumb
  22              		.thumb_func
  23              		.type	sw_serial_StartEx, %function
  24              	sw_serial_StartEx:
  25              	.LFB0:
  26              		.file 1 "Generated_Source\\PSoC5\\sw_serial.c"
   1:Generated_Source\PSoC5/sw_serial.c **** /*******************************************************************************
   2:Generated_Source\PSoC5/sw_serial.c **** * File Name: sw_serial.c
   3:Generated_Source\PSoC5/sw_serial.c **** * Version 1.50
   4:Generated_Source\PSoC5/sw_serial.c **** *
   5:Generated_Source\PSoC5/sw_serial.c **** * Description:
   6:Generated_Source\PSoC5/sw_serial.c **** *  This file provides the source code to the API for the Software Transmit UART.
   7:Generated_Source\PSoC5/sw_serial.c **** *
   8:Generated_Source\PSoC5/sw_serial.c **** ********************************************************************************
   9:Generated_Source\PSoC5/sw_serial.c **** * Copyright 2013-2015, Cypress Semiconductor Corporation.  All rights reserved.
  10:Generated_Source\PSoC5/sw_serial.c **** * You may use this file only in accordance with the license, terms, conditions,
  11:Generated_Source\PSoC5/sw_serial.c **** * disclaimers, and limitations in the end user license agreement accompanying
  12:Generated_Source\PSoC5/sw_serial.c **** * the software package with which this file was provided.
  13:Generated_Source\PSoC5/sw_serial.c **** *******************************************************************************/
  14:Generated_Source\PSoC5/sw_serial.c **** 
  15:Generated_Source\PSoC5/sw_serial.c **** #include "sw_serial_PVT.h"
  16:Generated_Source\PSoC5/sw_serial.c **** 
  17:Generated_Source\PSoC5/sw_serial.c **** #if(sw_serial_PIN_STATIC_MODE == 1u)
  18:Generated_Source\PSoC5/sw_serial.c ****     uint32 sw_serial_pinNumber = sw_serial_PIN_NUMBER;
  19:Generated_Source\PSoC5/sw_serial.c ****     uint32 sw_serial_pinPortNumber = sw_serial_PIN_PORT_NUMBER;
  20:Generated_Source\PSoC5/sw_serial.c ****     #if(CY_PSOC3)
  21:Generated_Source\PSoC5/sw_serial.c ****         uint32 pdata sw_serial_pinDrAdress = sw_serial_PIN_DR;
  22:Generated_Source\PSoC5/sw_serial.c ****     #else
  23:Generated_Source\PSoC5/sw_serial.c ****         uint32 sw_serial_pinDrAdress = sw_serial_PIN_DR;
  24:Generated_Source\PSoC5/sw_serial.c ****     #endif /* (CY_PSOC3) */
  25:Generated_Source\PSoC5/sw_serial.c **** #else
  26:Generated_Source\PSoC5/sw_serial.c ****     uint32 sw_serial_pinNumber;
  27:Generated_Source\PSoC5/sw_serial.c ****     uint32 sw_serial_pinPortNumber;
  28:Generated_Source\PSoC5/sw_serial.c ****     #if(CY_PSOC3)
  29:Generated_Source\PSoC5/sw_serial.c ****         uint32 pdata sw_serial_pinDrAdress;
  30:Generated_Source\PSoC5/sw_serial.c ****     #else
  31:Generated_Source\PSoC5/sw_serial.c ****         uint32 sw_serial_pinDrAdress;
ARM GAS  C:\Users\a85495\AppData\Local\Temp\cciseaw0.s 			page 2


  32:Generated_Source\PSoC5/sw_serial.c ****     #endif /* (CY_PSOC3) */
  33:Generated_Source\PSoC5/sw_serial.c **** #endif /* (sw_serial_PIN_STATIC_MODE == 1u) */
  34:Generated_Source\PSoC5/sw_serial.c **** 
  35:Generated_Source\PSoC5/sw_serial.c **** 
  36:Generated_Source\PSoC5/sw_serial.c **** #if(sw_serial_PIN_STATIC_MODE == 1u)
  37:Generated_Source\PSoC5/sw_serial.c ****     /*******************************************************************************
  38:Generated_Source\PSoC5/sw_serial.c ****     * Function Name: sw_serial_Start
  39:Generated_Source\PSoC5/sw_serial.c ****     ********************************************************************************
  40:Generated_Source\PSoC5/sw_serial.c ****     *
  41:Generated_Source\PSoC5/sw_serial.c ****     * Summary:
  42:Generated_Source\PSoC5/sw_serial.c ****     *  Empty function. Included for consistency with other
  43:Generated_Source\PSoC5/sw_serial.c ****     *  components. This API is not available when PinAssignmentMethod
  44:Generated_Source\PSoC5/sw_serial.c ****     *  is set to Dynamic.
  45:Generated_Source\PSoC5/sw_serial.c ****     *
  46:Generated_Source\PSoC5/sw_serial.c ****     * Parameters:
  47:Generated_Source\PSoC5/sw_serial.c ****     *  None
  48:Generated_Source\PSoC5/sw_serial.c ****     *
  49:Generated_Source\PSoC5/sw_serial.c ****     * Return:
  50:Generated_Source\PSoC5/sw_serial.c ****     *  None
  51:Generated_Source\PSoC5/sw_serial.c ****     *
  52:Generated_Source\PSoC5/sw_serial.c ****     *******************************************************************************/
  53:Generated_Source\PSoC5/sw_serial.c ****     void sw_serial_Start(void) 
  54:Generated_Source\PSoC5/sw_serial.c ****     {
  55:Generated_Source\PSoC5/sw_serial.c **** 
  56:Generated_Source\PSoC5/sw_serial.c ****     }
  57:Generated_Source\PSoC5/sw_serial.c **** #else
  58:Generated_Source\PSoC5/sw_serial.c ****     /*******************************************************************************
  59:Generated_Source\PSoC5/sw_serial.c ****     * Function Name: sw_serial_StartEx
  60:Generated_Source\PSoC5/sw_serial.c ****     ********************************************************************************
  61:Generated_Source\PSoC5/sw_serial.c ****     *
  62:Generated_Source\PSoC5/sw_serial.c ****     * Summary:
  63:Generated_Source\PSoC5/sw_serial.c ****     *  Configures the SW Tx UART to use the pin specified
  64:Generated_Source\PSoC5/sw_serial.c ****     *  by the parameters. This API is only available when
  65:Generated_Source\PSoC5/sw_serial.c ****     *  PinAssignmentMethod is set to Dynamic.
  66:Generated_Source\PSoC5/sw_serial.c ****     *
  67:Generated_Source\PSoC5/sw_serial.c ****     * Parameters:
  68:Generated_Source\PSoC5/sw_serial.c ****     *  port:  Port number for dynamic pin assignment
  69:Generated_Source\PSoC5/sw_serial.c ****     *  pin:   Pin number for dynamic pin assignment
  70:Generated_Source\PSoC5/sw_serial.c ****     *
  71:Generated_Source\PSoC5/sw_serial.c ****     * Return:
  72:Generated_Source\PSoC5/sw_serial.c ****     *  None
  73:Generated_Source\PSoC5/sw_serial.c ****     *
  74:Generated_Source\PSoC5/sw_serial.c ****     *******************************************************************************/
  75:Generated_Source\PSoC5/sw_serial.c ****     void sw_serial_StartEx(uint8 port, uint8 pin) 
  76:Generated_Source\PSoC5/sw_serial.c ****     {
  27              		.loc 1 76 0
  28              		.cfi_startproc
  29              		@ args = 0, pretend = 0, frame = 0
  30              		@ frame_needed = 0, uses_anonymous_args = 0
  31              		@ link register save eliminated.
  32              	.LVL0:
  77:Generated_Source\PSoC5/sw_serial.c ****         uint32 portConfigAddr;
  78:Generated_Source\PSoC5/sw_serial.c **** 
  79:Generated_Source\PSoC5/sw_serial.c ****         #if (CY_PSOC4)
  80:Generated_Source\PSoC5/sw_serial.c ****             uint32 portDataRegAddr;
  81:Generated_Source\PSoC5/sw_serial.c ****         #endif /* (CY_PSOC4) */
  82:Generated_Source\PSoC5/sw_serial.c **** 
ARM GAS  C:\Users\a85495\AppData\Local\Temp\cciseaw0.s 			page 3


  83:Generated_Source\PSoC5/sw_serial.c ****         if ((pin <= sw_serial_MAX_PIN_NUMBER) && (port <= sw_serial_MAX_PORT_NUMBER))
  33              		.loc 1 83 0
  34 0000 0729     		cmp	r1, #7
  35 0002 17D8     		bhi	.L1
  36              		.loc 1 83 0 is_stmt 0 discriminator 1
  37 0004 0F28     		cmp	r0, #15
  38 0006 15D8     		bhi	.L1
  39              	.LVL1:
  84:Generated_Source\PSoC5/sw_serial.c ****         {
  85:Generated_Source\PSoC5/sw_serial.c ****             #if (!CY_PSOC4)
  86:Generated_Source\PSoC5/sw_serial.c ****                 portConfigAddr = sw_serial_PORT_CNF_BASE;
  87:Generated_Source\PSoC5/sw_serial.c ****                 portConfigAddr += ((uint32)port * (sw_serial_MAX_PIN_NUMBER + 1u)) + pin;
  40              		.loc 1 87 0 is_stmt 1
  41 0008 01EBC003 		add	r3, r1, r0, lsl #3
  42 000c 03F18043 		add	r3, r3, #1073741824
  43 0010 03F5A043 		add	r3, r3, #20480
  44              	.LVL2:
  88:Generated_Source\PSoC5/sw_serial.c ****                 CyPins_SetPinDriveMode(portConfigAddr, CY_PINS_DM_STRONG);
  45              		.loc 1 88 0
  46 0014 1A78     		ldrb	r2, [r3]	@ zero_extendqisi2
  47 0016 02F0F102 		and	r2, r2, #241
  48 001a 42F00C02 		orr	r2, r2, #12
  49 001e 1A70     		strb	r2, [r3]
  89:Generated_Source\PSoC5/sw_serial.c ****                 CyPins_SetPin(portConfigAddr);
  50              		.loc 1 89 0
  51 0020 1A78     		ldrb	r2, [r3]	@ zero_extendqisi2
  52 0022 42F00102 		orr	r2, r2, #1
  53 0026 1A70     		strb	r2, [r3]
  90:Generated_Source\PSoC5/sw_serial.c ****                 sw_serial_pinDrAdress = portConfigAddr;
  54              		.loc 1 90 0
  55 0028 034A     		ldr	r2, .L3
  56 002a 1360     		str	r3, [r2]
  91:Generated_Source\PSoC5/sw_serial.c ****             #else
  92:Generated_Source\PSoC5/sw_serial.c ****                 portConfigAddr = sw_serial_PORT_CNF_BASE + (sw_serial_PORT_CNF_SIZE * port) +
  93:Generated_Source\PSoC5/sw_serial.c ****                                                                                 sw_serial_PORT_CNF_
  94:Generated_Source\PSoC5/sw_serial.c ****                 CY_SYS_PINS_SET_DRIVE_MODE(portConfigAddr, pin, CY_SYS_PINS_DM_STRONG);
  95:Generated_Source\PSoC5/sw_serial.c ****                 portDataRegAddr = sw_serial_PORT_CNF_BASE + (sw_serial_PORT_CNF_SIZE * port) +
  96:Generated_Source\PSoC5/sw_serial.c ****                                                                                 sw_serial_PORT_CNF_
  97:Generated_Source\PSoC5/sw_serial.c ****                 CY_SYS_PINS_SET_PIN(portDataRegAddr, pin);
  98:Generated_Source\PSoC5/sw_serial.c ****                 sw_serial_pinDrAdress = portDataRegAddr;
  99:Generated_Source\PSoC5/sw_serial.c ****             #endif /* (!CY_PSOC4) */
 100:Generated_Source\PSoC5/sw_serial.c ****             sw_serial_pinNumber = pin;
  57              		.loc 1 100 0
  58 002c 034B     		ldr	r3, .L3+4
  59              	.LVL3:
  60 002e 1960     		str	r1, [r3]
 101:Generated_Source\PSoC5/sw_serial.c ****             sw_serial_pinPortNumber = port;
  61              		.loc 1 101 0
  62 0030 034B     		ldr	r3, .L3+8
  63 0032 1860     		str	r0, [r3]
  64              	.LVL4:
  65              	.L1:
  66 0034 7047     		bx	lr
  67              	.L4:
  68 0036 00BF     		.align	2
  69              	.L3:
  70 0038 00000000 		.word	sw_serial_pinDrAdress
ARM GAS  C:\Users\a85495\AppData\Local\Temp\cciseaw0.s 			page 4


  71 003c 00000000 		.word	sw_serial_pinNumber
  72 0040 00000000 		.word	sw_serial_pinPortNumber
  73              		.cfi_endproc
  74              	.LFE0:
  75              		.size	sw_serial_StartEx, .-sw_serial_StartEx
  76              		.section	.text.sw_serial_Stop,"ax",%progbits
  77              		.align	2
  78              		.global	sw_serial_Stop
  79              		.thumb
  80              		.thumb_func
  81              		.type	sw_serial_Stop, %function
  82              	sw_serial_Stop:
  83              	.LFB1:
 102:Generated_Source\PSoC5/sw_serial.c ****         }
 103:Generated_Source\PSoC5/sw_serial.c ****     }
 104:Generated_Source\PSoC5/sw_serial.c **** #endif /* (sw_serial_PIN_STATIC_MODE == 1u) */
 105:Generated_Source\PSoC5/sw_serial.c **** 
 106:Generated_Source\PSoC5/sw_serial.c **** 
 107:Generated_Source\PSoC5/sw_serial.c **** /*******************************************************************************
 108:Generated_Source\PSoC5/sw_serial.c **** * Function Name: sw_serial_Stop
 109:Generated_Source\PSoC5/sw_serial.c **** ********************************************************************************
 110:Generated_Source\PSoC5/sw_serial.c **** *
 111:Generated_Source\PSoC5/sw_serial.c **** * Summary:
 112:Generated_Source\PSoC5/sw_serial.c **** *  Empty function. Included for consistency with other components.
 113:Generated_Source\PSoC5/sw_serial.c **** *
 114:Generated_Source\PSoC5/sw_serial.c **** * Parameters:
 115:Generated_Source\PSoC5/sw_serial.c **** *  None
 116:Generated_Source\PSoC5/sw_serial.c **** *
 117:Generated_Source\PSoC5/sw_serial.c **** * Return:
 118:Generated_Source\PSoC5/sw_serial.c **** *  None
 119:Generated_Source\PSoC5/sw_serial.c **** *
 120:Generated_Source\PSoC5/sw_serial.c **** *******************************************************************************/
 121:Generated_Source\PSoC5/sw_serial.c **** void sw_serial_Stop(void) 
 122:Generated_Source\PSoC5/sw_serial.c **** {
  84              		.loc 1 122 0
  85              		.cfi_startproc
  86              		@ args = 0, pretend = 0, frame = 0
  87              		@ frame_needed = 0, uses_anonymous_args = 0
  88              		@ link register save eliminated.
  89 0000 7047     		bx	lr
  90              		.cfi_endproc
  91              	.LFE1:
  92              		.size	sw_serial_Stop, .-sw_serial_Stop
  93 0002 00BF     		.section	.text.sw_serial_PutString,"ax",%progbits
  94              		.align	2
  95              		.global	sw_serial_PutString
  96              		.thumb
  97              		.thumb_func
  98              		.type	sw_serial_PutString, %function
  99              	sw_serial_PutString:
 100              	.LFB2:
 123:Generated_Source\PSoC5/sw_serial.c **** 
 124:Generated_Source\PSoC5/sw_serial.c **** }
 125:Generated_Source\PSoC5/sw_serial.c **** 
 126:Generated_Source\PSoC5/sw_serial.c **** 
 127:Generated_Source\PSoC5/sw_serial.c **** /*******************************************************************************
 128:Generated_Source\PSoC5/sw_serial.c **** * Function Name: sw_serial_PutString
ARM GAS  C:\Users\a85495\AppData\Local\Temp\cciseaw0.s 			page 5


 129:Generated_Source\PSoC5/sw_serial.c **** ********************************************************************************
 130:Generated_Source\PSoC5/sw_serial.c **** *
 131:Generated_Source\PSoC5/sw_serial.c **** * Summary:
 132:Generated_Source\PSoC5/sw_serial.c **** *  Sends a NULL terminated string via the Tx pin.
 133:Generated_Source\PSoC5/sw_serial.c **** *
 134:Generated_Source\PSoC5/sw_serial.c **** * Parameters:
 135:Generated_Source\PSoC5/sw_serial.c **** *  string: Pointer to the null terminated string to send
 136:Generated_Source\PSoC5/sw_serial.c **** *
 137:Generated_Source\PSoC5/sw_serial.c **** * Return:
 138:Generated_Source\PSoC5/sw_serial.c **** *  None
 139:Generated_Source\PSoC5/sw_serial.c **** *
 140:Generated_Source\PSoC5/sw_serial.c **** *******************************************************************************/
 141:Generated_Source\PSoC5/sw_serial.c **** void sw_serial_PutString(const char8 string[]) 
 142:Generated_Source\PSoC5/sw_serial.c **** {
 101              		.loc 1 142 0
 102              		.cfi_startproc
 103              		@ args = 0, pretend = 0, frame = 0
 104              		@ frame_needed = 0, uses_anonymous_args = 0
 105              	.LVL5:
 106              		.loc 1 142 0
 107 0000 38B5     		push	{r3, r4, r5, lr}
 108              		.cfi_def_cfa_offset 16
 109              		.cfi_offset 3, -16
 110              		.cfi_offset 4, -12
 111              		.cfi_offset 5, -8
 112              		.cfi_offset 14, -4
 113 0002 0546     		mov	r5, r0
 114              	.LVL6:
 143:Generated_Source\PSoC5/sw_serial.c ****     uint8 stringIndex = 1u;
 144:Generated_Source\PSoC5/sw_serial.c ****     char8 current = *string;
 115              		.loc 1 144 0
 116 0004 0078     		ldrb	r0, [r0]	@ zero_extendqisi2
 117              	.LVL7:
 143:Generated_Source\PSoC5/sw_serial.c ****     uint8 stringIndex = 1u;
 118              		.loc 1 143 0
 119 0006 0124     		movs	r4, #1
 145:Generated_Source\PSoC5/sw_serial.c **** 
 146:Generated_Source\PSoC5/sw_serial.c ****     /* Until null is reached, print next character */
 147:Generated_Source\PSoC5/sw_serial.c ****     while((char8) '\0' != current)
 120              		.loc 1 147 0
 121 0008 04E0     		b	.L7
 122              	.LVL8:
 123              	.L8:
 148:Generated_Source\PSoC5/sw_serial.c ****     {
 149:Generated_Source\PSoC5/sw_serial.c ****         sw_serial_PutChar((uint8)current);
 124              		.loc 1 149 0
 125 000a FFF7FEFF 		bl	sw_serial_PutChar
 126              	.LVL9:
 150:Generated_Source\PSoC5/sw_serial.c ****         current = string[stringIndex];
 127              		.loc 1 150 0
 128 000e 285D     		ldrb	r0, [r5, r4]	@ zero_extendqisi2
 129              	.LVL10:
 151:Generated_Source\PSoC5/sw_serial.c ****         stringIndex++;
 130              		.loc 1 151 0
 131 0010 0134     		adds	r4, r4, #1
 132              	.LVL11:
 133 0012 E4B2     		uxtb	r4, r4
ARM GAS  C:\Users\a85495\AppData\Local\Temp\cciseaw0.s 			page 6


 134              	.LVL12:
 135              	.L7:
 147:Generated_Source\PSoC5/sw_serial.c ****     {
 136              		.loc 1 147 0
 137 0014 0028     		cmp	r0, #0
 138 0016 F8D1     		bne	.L8
 152:Generated_Source\PSoC5/sw_serial.c ****     }
 153:Generated_Source\PSoC5/sw_serial.c **** }
 139              		.loc 1 153 0
 140 0018 38BD     		pop	{r3, r4, r5, pc}
 141              		.cfi_endproc
 142              	.LFE2:
 143              		.size	sw_serial_PutString, .-sw_serial_PutString
 144 001a 00BF     		.section	.text.sw_serial_PutArray,"ax",%progbits
 145              		.align	2
 146              		.global	sw_serial_PutArray
 147              		.thumb
 148              		.thumb_func
 149              		.type	sw_serial_PutArray, %function
 150              	sw_serial_PutArray:
 151              	.LFB3:
 154:Generated_Source\PSoC5/sw_serial.c **** 
 155:Generated_Source\PSoC5/sw_serial.c **** 
 156:Generated_Source\PSoC5/sw_serial.c **** /*******************************************************************************
 157:Generated_Source\PSoC5/sw_serial.c **** * Function Name: sw_serial_PutArray
 158:Generated_Source\PSoC5/sw_serial.c **** ********************************************************************************
 159:Generated_Source\PSoC5/sw_serial.c **** *
 160:Generated_Source\PSoC5/sw_serial.c **** * Summary:
 161:Generated_Source\PSoC5/sw_serial.c **** *  Sends byteCount bytes from a memory array via the Tx pin.
 162:Generated_Source\PSoC5/sw_serial.c **** *
 163:Generated_Source\PSoC5/sw_serial.c **** * Parameters:
 164:Generated_Source\PSoC5/sw_serial.c **** *  data: Pointer to the memory array
 165:Generated_Source\PSoC5/sw_serial.c **** *  byteCount: Number of bytes to be transmitted
 166:Generated_Source\PSoC5/sw_serial.c **** *
 167:Generated_Source\PSoC5/sw_serial.c **** * Return:
 168:Generated_Source\PSoC5/sw_serial.c **** *  None
 169:Generated_Source\PSoC5/sw_serial.c **** *
 170:Generated_Source\PSoC5/sw_serial.c **** *******************************************************************************/
 171:Generated_Source\PSoC5/sw_serial.c **** void sw_serial_PutArray(const uint8 array[], uint32 byteCount) 
 172:Generated_Source\PSoC5/sw_serial.c **** {
 152              		.loc 1 172 0
 153              		.cfi_startproc
 154              		@ args = 0, pretend = 0, frame = 0
 155              		@ frame_needed = 0, uses_anonymous_args = 0
 156              	.LVL13:
 157 0000 70B5     		push	{r4, r5, r6, lr}
 158              		.cfi_def_cfa_offset 16
 159              		.cfi_offset 4, -16
 160              		.cfi_offset 5, -12
 161              		.cfi_offset 6, -8
 162              		.cfi_offset 14, -4
 163 0002 0646     		mov	r6, r0
 164 0004 0D46     		mov	r5, r1
 165              	.LVL14:
 173:Generated_Source\PSoC5/sw_serial.c ****     uint32 arrayIndex;
 174:Generated_Source\PSoC5/sw_serial.c **** 
 175:Generated_Source\PSoC5/sw_serial.c ****     for (arrayIndex = 0u; arrayIndex < byteCount; arrayIndex++)
ARM GAS  C:\Users\a85495\AppData\Local\Temp\cciseaw0.s 			page 7


 166              		.loc 1 175 0
 167 0006 0024     		movs	r4, #0
 168 0008 03E0     		b	.L11
 169              	.LVL15:
 170              	.L12:
 176:Generated_Source\PSoC5/sw_serial.c ****     {
 177:Generated_Source\PSoC5/sw_serial.c ****         sw_serial_PutChar(array[arrayIndex]);
 171              		.loc 1 177 0 discriminator 3
 172 000a 305D     		ldrb	r0, [r6, r4]	@ zero_extendqisi2
 173 000c FFF7FEFF 		bl	sw_serial_PutChar
 174              	.LVL16:
 175:Generated_Source\PSoC5/sw_serial.c ****     {
 175              		.loc 1 175 0 discriminator 3
 176 0010 0134     		adds	r4, r4, #1
 177              	.LVL17:
 178              	.L11:
 175:Generated_Source\PSoC5/sw_serial.c ****     {
 179              		.loc 1 175 0 is_stmt 0 discriminator 1
 180 0012 AC42     		cmp	r4, r5
 181 0014 F9D3     		bcc	.L12
 178:Generated_Source\PSoC5/sw_serial.c ****     }
 179:Generated_Source\PSoC5/sw_serial.c **** }
 182              		.loc 1 179 0 is_stmt 1
 183 0016 70BD     		pop	{r4, r5, r6, pc}
 184              		.cfi_endproc
 185              	.LFE3:
 186              		.size	sw_serial_PutArray, .-sw_serial_PutArray
 187              		.section	.text.sw_serial_PutHexByte,"ax",%progbits
 188              		.align	2
 189              		.global	sw_serial_PutHexByte
 190              		.thumb
 191              		.thumb_func
 192              		.type	sw_serial_PutHexByte, %function
 193              	sw_serial_PutHexByte:
 194              	.LFB4:
 180:Generated_Source\PSoC5/sw_serial.c **** 
 181:Generated_Source\PSoC5/sw_serial.c **** 
 182:Generated_Source\PSoC5/sw_serial.c **** /*******************************************************************************
 183:Generated_Source\PSoC5/sw_serial.c **** * Function Name: sw_serial_PutHexByte
 184:Generated_Source\PSoC5/sw_serial.c **** ********************************************************************************
 185:Generated_Source\PSoC5/sw_serial.c **** *
 186:Generated_Source\PSoC5/sw_serial.c **** * Summary:
 187:Generated_Source\PSoC5/sw_serial.c **** *  Sends a byte in Hex representation (two characters, uppercase for A-F) via
 188:Generated_Source\PSoC5/sw_serial.c **** *  the Tx pin.
 189:Generated_Source\PSoC5/sw_serial.c **** *
 190:Generated_Source\PSoC5/sw_serial.c **** * Parameters:
 191:Generated_Source\PSoC5/sw_serial.c **** *  TxHexByte: The byte to be converted to ASCII characters and
 192:Generated_Source\PSoC5/sw_serial.c **** *             sent via the Tx pin.
 193:Generated_Source\PSoC5/sw_serial.c **** *
 194:Generated_Source\PSoC5/sw_serial.c **** * Return:
 195:Generated_Source\PSoC5/sw_serial.c **** *  None
 196:Generated_Source\PSoC5/sw_serial.c **** *
 197:Generated_Source\PSoC5/sw_serial.c **** *******************************************************************************/
 198:Generated_Source\PSoC5/sw_serial.c **** void sw_serial_PutHexByte(uint8 txHexByte) 
 199:Generated_Source\PSoC5/sw_serial.c **** {
 195              		.loc 1 199 0
 196              		.cfi_startproc
ARM GAS  C:\Users\a85495\AppData\Local\Temp\cciseaw0.s 			page 8


 197              		@ args = 0, pretend = 0, frame = 0
 198              		@ frame_needed = 0, uses_anonymous_args = 0
 199              	.LVL18:
 200 0000 38B5     		push	{r3, r4, r5, lr}
 201              		.cfi_def_cfa_offset 16
 202              		.cfi_offset 3, -16
 203              		.cfi_offset 4, -12
 204              		.cfi_offset 5, -8
 205              		.cfi_offset 14, -4
 206 0002 0446     		mov	r4, r0
 200:Generated_Source\PSoC5/sw_serial.c ****     static char8 const CYCODE sw_serial_hex[] = "0123456789ABCDEF";
 201:Generated_Source\PSoC5/sw_serial.c **** 
 202:Generated_Source\PSoC5/sw_serial.c ****     sw_serial_PutChar((uint8) sw_serial_hex[txHexByte >> sw_serial_BYTE_UPPER_NIBBLE_SHIFT]);
 207              		.loc 1 202 0
 208 0004 0309     		lsrs	r3, r0, #4
 209 0006 054D     		ldr	r5, .L16
 210 0008 E85C     		ldrb	r0, [r5, r3]	@ zero_extendqisi2
 211              	.LVL19:
 212 000a FFF7FEFF 		bl	sw_serial_PutChar
 213              	.LVL20:
 203:Generated_Source\PSoC5/sw_serial.c ****     sw_serial_PutChar((uint8) sw_serial_hex[txHexByte & sw_serial_BYTE_LOWER_NIBBLE_MASK]);
 214              		.loc 1 203 0
 215 000e 04F00F04 		and	r4, r4, #15
 216 0012 285D     		ldrb	r0, [r5, r4]	@ zero_extendqisi2
 217 0014 FFF7FEFF 		bl	sw_serial_PutChar
 218              	.LVL21:
 219 0018 38BD     		pop	{r3, r4, r5, pc}
 220              	.L17:
 221 001a 00BF     		.align	2
 222              	.L16:
 223 001c 00000000 		.word	.LANCHOR0
 224              		.cfi_endproc
 225              	.LFE4:
 226              		.size	sw_serial_PutHexByte, .-sw_serial_PutHexByte
 227              		.section	.text.sw_serial_PutHexInt,"ax",%progbits
 228              		.align	2
 229              		.global	sw_serial_PutHexInt
 230              		.thumb
 231              		.thumb_func
 232              		.type	sw_serial_PutHexInt, %function
 233              	sw_serial_PutHexInt:
 234              	.LFB5:
 204:Generated_Source\PSoC5/sw_serial.c **** }
 205:Generated_Source\PSoC5/sw_serial.c **** 
 206:Generated_Source\PSoC5/sw_serial.c **** 
 207:Generated_Source\PSoC5/sw_serial.c **** /*******************************************************************************
 208:Generated_Source\PSoC5/sw_serial.c **** * Function Name: sw_serial_PutHexInt
 209:Generated_Source\PSoC5/sw_serial.c **** ********************************************************************************
 210:Generated_Source\PSoC5/sw_serial.c **** *
 211:Generated_Source\PSoC5/sw_serial.c **** * Summary:
 212:Generated_Source\PSoC5/sw_serial.c **** *  Sends a 16-bit unsigned integer in Hex representation (four characters,
 213:Generated_Source\PSoC5/sw_serial.c **** *  uppercase for A-F) via the Tx pin.
 214:Generated_Source\PSoC5/sw_serial.c **** *
 215:Generated_Source\PSoC5/sw_serial.c **** * Parameters:
 216:Generated_Source\PSoC5/sw_serial.c **** *  TxHexInt: The uint16 to be converted to ASCII characters and sent via
 217:Generated_Source\PSoC5/sw_serial.c **** *            the Tx pin.
 218:Generated_Source\PSoC5/sw_serial.c **** *
ARM GAS  C:\Users\a85495\AppData\Local\Temp\cciseaw0.s 			page 9


 219:Generated_Source\PSoC5/sw_serial.c **** * Return:
 220:Generated_Source\PSoC5/sw_serial.c **** *  None
 221:Generated_Source\PSoC5/sw_serial.c **** *
 222:Generated_Source\PSoC5/sw_serial.c **** *******************************************************************************/
 223:Generated_Source\PSoC5/sw_serial.c **** void sw_serial_PutHexInt(uint16 txHexInt) 
 224:Generated_Source\PSoC5/sw_serial.c **** {
 235              		.loc 1 224 0
 236              		.cfi_startproc
 237              		@ args = 0, pretend = 0, frame = 0
 238              		@ frame_needed = 0, uses_anonymous_args = 0
 239              	.LVL22:
 240 0000 10B5     		push	{r4, lr}
 241              		.cfi_def_cfa_offset 8
 242              		.cfi_offset 4, -8
 243              		.cfi_offset 14, -4
 244 0002 0446     		mov	r4, r0
 225:Generated_Source\PSoC5/sw_serial.c ****     sw_serial_PutHexByte((uint8)(txHexInt >> sw_serial_U16_UPPER_BYTE_SHIFT));
 245              		.loc 1 225 0
 246 0004 000A     		lsrs	r0, r0, #8
 247              	.LVL23:
 248 0006 FFF7FEFF 		bl	sw_serial_PutHexByte
 249              	.LVL24:
 226:Generated_Source\PSoC5/sw_serial.c ****     sw_serial_PutHexByte((uint8)(txHexInt & sw_serial_U16_LOWER_BYTE_MASK));
 250              		.loc 1 226 0
 251 000a E0B2     		uxtb	r0, r4
 252 000c FFF7FEFF 		bl	sw_serial_PutHexByte
 253              	.LVL25:
 254 0010 10BD     		pop	{r4, pc}
 255              		.cfi_endproc
 256              	.LFE5:
 257              		.size	sw_serial_PutHexInt, .-sw_serial_PutHexInt
 258 0012 00BF     		.section	.text.sw_serial_PutCRLF,"ax",%progbits
 259              		.align	2
 260              		.global	sw_serial_PutCRLF
 261              		.thumb
 262              		.thumb_func
 263              		.type	sw_serial_PutCRLF, %function
 264              	sw_serial_PutCRLF:
 265              	.LFB6:
 227:Generated_Source\PSoC5/sw_serial.c **** }
 228:Generated_Source\PSoC5/sw_serial.c **** 
 229:Generated_Source\PSoC5/sw_serial.c **** 
 230:Generated_Source\PSoC5/sw_serial.c **** /*******************************************************************************
 231:Generated_Source\PSoC5/sw_serial.c **** * Function Name: sw_serial_PutCRLF
 232:Generated_Source\PSoC5/sw_serial.c **** ********************************************************************************
 233:Generated_Source\PSoC5/sw_serial.c **** *
 234:Generated_Source\PSoC5/sw_serial.c **** * Summary:
 235:Generated_Source\PSoC5/sw_serial.c **** *  Sends a carriage return (0x0D) and a line feed (0x0A) via the Tx pin.
 236:Generated_Source\PSoC5/sw_serial.c **** *
 237:Generated_Source\PSoC5/sw_serial.c **** * Parameters:
 238:Generated_Source\PSoC5/sw_serial.c **** *  None
 239:Generated_Source\PSoC5/sw_serial.c **** *
 240:Generated_Source\PSoC5/sw_serial.c **** * Return:
 241:Generated_Source\PSoC5/sw_serial.c **** *  None
 242:Generated_Source\PSoC5/sw_serial.c **** *
 243:Generated_Source\PSoC5/sw_serial.c **** *******************************************************************************/
 244:Generated_Source\PSoC5/sw_serial.c **** void sw_serial_PutCRLF(void) 
ARM GAS  C:\Users\a85495\AppData\Local\Temp\cciseaw0.s 			page 10


 245:Generated_Source\PSoC5/sw_serial.c **** {
 266              		.loc 1 245 0
 267              		.cfi_startproc
 268              		@ args = 0, pretend = 0, frame = 0
 269              		@ frame_needed = 0, uses_anonymous_args = 0
 270 0000 08B5     		push	{r3, lr}
 271              		.cfi_def_cfa_offset 8
 272              		.cfi_offset 3, -8
 273              		.cfi_offset 14, -4
 246:Generated_Source\PSoC5/sw_serial.c ****     sw_serial_PutChar(0x0Du);
 274              		.loc 1 246 0
 275 0002 0D20     		movs	r0, #13
 276 0004 FFF7FEFF 		bl	sw_serial_PutChar
 277              	.LVL26:
 247:Generated_Source\PSoC5/sw_serial.c ****     sw_serial_PutChar(0x0Au);
 278              		.loc 1 247 0
 279 0008 0A20     		movs	r0, #10
 280 000a FFF7FEFF 		bl	sw_serial_PutChar
 281              	.LVL27:
 282 000e 08BD     		pop	{r3, pc}
 283              		.cfi_endproc
 284              	.LFE6:
 285              		.size	sw_serial_PutCRLF, .-sw_serial_PutCRLF
 286              		.comm	sw_serial_pinDrAdress,4,4
 287              		.comm	sw_serial_pinPortNumber,4,4
 288              		.comm	sw_serial_pinNumber,4,4
 289              		.section	.rodata
 290              		.align	2
 291              		.set	.LANCHOR0,. + 0
 292              		.type	sw_serial_hex.4189, %object
 293              		.size	sw_serial_hex.4189, 17
 294              	sw_serial_hex.4189:
 295 0000 30313233 		.ascii	"0123456789ABCDEF\000"
 295      34353637 
 295      38394142 
 295      43444546 
 295      00
 296 0011 000000   		.text
 297              	.Letext0:
 298              		.file 2 "Generated_Source\\PSoC5\\cytypes.h"
 299              		.file 3 "Generated_Source\\PSoC5\\sw_serial.h"