ARM GAS  C:\Users\a85495\AppData\Local\Temp\ccz6JUSv.s 			page 1


   1              		.cpu cortex-m0
   2              		.fpu softvfp
   3              		.eabi_attribute 20, 1
   4              		.eabi_attribute 21, 1
   5              		.eabi_attribute 23, 3
   6              		.eabi_attribute 24, 1
   7              		.eabi_attribute 25, 1
   8              		.eabi_attribute 26, 1
   9              		.eabi_attribute 30, 1
  10              		.eabi_attribute 34, 0
  11              		.eabi_attribute 18, 4
  12              		.code	16
  13              		.file	"main.c"
  14              		.text
  15              	.Ltext0:
  16              		.cfi_sections	.debug_frame
  17              		.section	.text.read_battery_Handler,"ax",%progbits
  18              		.align	2
  19              		.global	read_battery_Handler
  20              		.code	16
  21              		.thumb_func
  22              		.type	read_battery_Handler, %function
  23              	read_battery_Handler:
  24              	.LFB34:
  25              		.file 1 "main.c"
   1:main.c        **** /* ========================================
   2:main.c        ****  *
   3:main.c        ****  * Copyright ARROW ELECTRONICS, 2017
   4:main.c        ****  * All Rights Reserved
   5:main.c        ****  * UNPUBLISHED, LICENSED SOFTWARE.
   6:main.c        ****  *
   7:main.c        ****  * CONFIDENTIAL AND PROPRIETARY INFORMATION
   8:main.c        ****  * WHICH IS THE PROPERTY OF your company.
   9:main.c        ****  *
  10:main.c        ****  * ========================================
  11:main.c        **** */
  12:main.c        **** 
  13:main.c        **** /* ========================================
  14:main.c        ****  *
  15:main.c        ****  * This code will read the neccessary information from Battery Babysitter
  16:main.c        ****  * And display the necessary information on a 4- 7 segment+dot display
  17:main.c        ****  *
  18:main.c        ****  * ========================================
  19:main.c        **** */
  20:main.c        **** #include "project.h"
  21:main.c        **** #include <batteryMonitor.h>
  22:main.c        **** #include <sev_seg.h>
  23:main.c        **** #include <mySerial.h>
  24:main.c        **** 
  25:main.c        **** //if in debug mode,
  26:main.c        **** //we will never enter hibernate mode
  27:main.c        **** //all that we will be doing is outputing the battery monitor
  28:main.c        **** //values through the UART line
  29:main.c        **** #define _DEBUG 0
  30:main.c        **** 
  31:main.c        **** // Set BATTERY_CAPACITY to the design capacity of your battery.
  32:main.c        **** const unsigned int BATTERY_CAPACITY = 2000; // e.g. 2000mAh battery
ARM GAS  C:\Users\a85495\AppData\Local\Temp\ccz6JUSv.s 			page 2


  33:main.c        **** 
  34:main.c        **** void setupBQ27441(void);
  35:main.c        **** 
  36:main.c        **** #if _DEBUG
  37:main.c        **** void getBatteryStats();
  38:main.c        **** #endif
  39:main.c        **** 
  40:main.c        **** //=============================================================//
  41:main.c        **** //=============Interrupt handler Prototype=====================//
  42:main.c        **** //=============================================================//
  43:main.c        **** 
  44:main.c        **** CY_ISR(read_battery_Handler);
  45:main.c        **** 
  46:main.c        **** //=============================================================//
  47:main.c        **** //============LED Toggler Functions Prototype==================//
  48:main.c        **** //=============================================================//
  49:main.c        **** 
  50:main.c        **** void toggleBoardLED(int numberOfTimes, int delayBetweenBlinks);
  51:main.c        **** void toggleRedLED(int numberOfTimes, int delayBetweenBlinks);
  52:main.c        **** void toggleYellowLED(int numberOfTimes, int delayBetweenBlinks);
  53:main.c        **** void toggleGreenLED(int numberOfTimes, int delayBetweenBlinks);
  54:main.c        **** void toggleSequenceLED(int numberOfTimes, int delayBetweenSequenceToggle);
  55:main.c        **** 
  56:main.c        **** //=============================================================//
  57:main.c        **** //==============Interrupt Handler function=====================//
  58:main.c        **** //=============================================================//
  59:main.c        **** 
  60:main.c        **** CY_ISR(read_battery_Handler){
  26              		.loc 1 60 0
  27              		.cfi_startproc
  28 0000 08B5     		push	{r3, lr}
  29              		.cfi_def_cfa_offset 8
  30              		.cfi_offset 3, -8
  31              		.cfi_offset 14, -4
  61:main.c        ****     
  62:main.c        ****     BOARD_LED_Write(~BOARD_LED_Read());    //TOGGLE THE BOARD LED TO SHOW that we are in an interru
  32              		.loc 1 62 0
  33 0002 FFF7FEFF 		bl	BOARD_LED_Read
  34              	.LVL0:
  35 0006 C043     		mvn	r0, r0
  36 0008 C0B2     		uxtb	r0, r0
  37 000a FFF7FEFF 		bl	BOARD_LED_Write
  38              	.LVL1:
  63:main.c        ****     unsigned int percentage = lipo_soc();  // Read state-of-charge (%)
  39              		.loc 1 63 0
  40 000e FFF7FEFF 		bl	lipo_soc
  41              	.LVL2:
  64:main.c        ****    
  65:main.c        ****     if(percentage <= 40){  //if the state of charge of the battery is greater than 40 percent
  42              		.loc 1 65 0
  43 0012 2828     		cmp	r0, #40
  44 0014 09D8     		bhi	.L2
  66:main.c        ****         RED_LED_Write(0);  //Keep the green lights on
  45              		.loc 1 66 0
  46 0016 0020     		mov	r0, #0
  47              	.LVL3:
  48 0018 FFF7FEFF 		bl	RED_LED_Write
ARM GAS  C:\Users\a85495\AppData\Local\Temp\ccz6JUSv.s 			page 3


  49              	.LVL4:
  67:main.c        ****         YELLOW_LED_Write(0); 
  50              		.loc 1 67 0
  51 001c 0020     		mov	r0, #0
  52 001e FFF7FEFF 		bl	YELLOW_LED_Write
  53              	.LVL5:
  68:main.c        ****         GREEN_LED_Write(1);
  54              		.loc 1 68 0
  55 0022 0120     		mov	r0, #1
  56 0024 FFF7FEFF 		bl	GREEN_LED_Write
  57              	.LVL6:
  58 0028 14E0     		b	.L3
  59              	.LVL7:
  60              	.L2:
  69:main.c        ****     }
  70:main.c        ****     else if(percentage >= 15){ //else if the state of charge of the battery is greater than 15 perc
  61              		.loc 1 70 0
  62 002a 0E28     		cmp	r0, #14
  63 002c 09D9     		bls	.L4
  71:main.c        ****         RED_LED_Write(0);      //Keep the Yellow light on
  64              		.loc 1 71 0
  65 002e 0020     		mov	r0, #0
  66              	.LVL8:
  67 0030 FFF7FEFF 		bl	RED_LED_Write
  68              	.LVL9:
  72:main.c        ****         YELLOW_LED_Write(1);
  69              		.loc 1 72 0
  70 0034 0120     		mov	r0, #1
  71 0036 FFF7FEFF 		bl	YELLOW_LED_Write
  72              	.LVL10:
  73:main.c        ****         GREEN_LED_Write(0);
  73              		.loc 1 73 0
  74 003a 0020     		mov	r0, #0
  75 003c FFF7FEFF 		bl	GREEN_LED_Write
  76              	.LVL11:
  77 0040 08E0     		b	.L3
  78              	.LVL12:
  79              	.L4:
  74:main.c        ****     }
  75:main.c        ****     else{
  76:main.c        ****         RED_LED_Write(1);    //else, which means that State of Charge is less than 15 percent
  80              		.loc 1 76 0
  81 0042 0120     		mov	r0, #1
  82              	.LVL13:
  83 0044 FFF7FEFF 		bl	RED_LED_Write
  84              	.LVL14:
  77:main.c        ****         YELLOW_LED_Write(0); //Keep the red light on to notify the user to charge the base station 
  85              		.loc 1 77 0
  86 0048 0020     		mov	r0, #0
  87 004a FFF7FEFF 		bl	YELLOW_LED_Write
  88              	.LVL15:
  78:main.c        ****         GREEN_LED_Write(0);
  89              		.loc 1 78 0
  90 004e 0020     		mov	r0, #0
  91 0050 FFF7FEFF 		bl	GREEN_LED_Write
  92              	.LVL16:
  93              	.L3:
ARM GAS  C:\Users\a85495\AppData\Local\Temp\ccz6JUSv.s 			page 4


  79:main.c        ****     }
  80:main.c        ****     CyDelay(10000);
  94              		.loc 1 80 0
  95 0054 0748     		ldr	r0, .L5
  96 0056 FFF7FEFF 		bl	CyDelay
  97              	.LVL17:
  81:main.c        ****     
  82:main.c        ****     RED_LED_Write(0);   //inialize all of the LEDs turned off
  98              		.loc 1 82 0
  99 005a 0020     		mov	r0, #0
 100 005c FFF7FEFF 		bl	RED_LED_Write
 101              	.LVL18:
  83:main.c        ****     YELLOW_LED_Write(0); 
 102              		.loc 1 83 0
 103 0060 0020     		mov	r0, #0
 104 0062 FFF7FEFF 		bl	YELLOW_LED_Write
 105              	.LVL19:
  84:main.c        ****     GREEN_LED_Write(0);
 106              		.loc 1 84 0
 107 0066 0020     		mov	r0, #0
 108 0068 FFF7FEFF 		bl	GREEN_LED_Write
 109              	.LVL20:
  85:main.c        ****     
  86:main.c        ****     butt_pin_ClearInterrupt(); //Clear the interrupt so that we are not going to be stuck in the in
 110              		.loc 1 86 0
 111 006c FFF7FEFF 		bl	butt_pin_ClearInterrupt
 112              	.LVL21:
  87:main.c        **** }    
 113              		.loc 1 87 0
 114              		@ sp needed
 115 0070 08BD     		pop	{r3, pc}
 116              	.L6:
 117 0072 C046     		.align	2
 118              	.L5:
 119 0074 10270000 		.word	10000
 120              		.cfi_endproc
 121              	.LFE34:
 122              		.size	read_battery_Handler, .-read_battery_Handler
 123              		.section	.text.toggleBoardLED,"ax",%progbits
 124              		.align	2
 125              		.global	toggleBoardLED
 126              		.code	16
 127              		.thumb_func
 128              		.type	toggleBoardLED, %function
 129              	toggleBoardLED:
 130              	.LFB37:
  88:main.c        **** 
  89:main.c        **** //=============================================================//
  90:main.c        **** //=======================Main Function=========================//
  91:main.c        **** //=============================================================//
  92:main.c        **** 
  93:main.c        **** int main(void)
  94:main.c        **** {
  95:main.c        ****     CyGlobalIntEnable;                          /* Enable global interrupts. */    
  96:main.c        ****     setupBQ27441();                             //Initializes battery monitor
  97:main.c        ****     read_battery_StartEx(read_battery_Handler); //Sets up the interrupt Handler
  98:main.c        ****     
ARM GAS  C:\Users\a85495\AppData\Local\Temp\ccz6JUSv.s 			page 5


  99:main.c        ****     RED_LED_Write(0);   //inialize all of the LEDs turned off
 100:main.c        ****     YELLOW_LED_Write(0); 
 101:main.c        ****     GREEN_LED_Write(0);
 102:main.c        ****     
 103:main.c        ****     #if _DEBUG         
 104:main.c        ****         serial_Start(); //If the user wishes to debug, then initialize serial communication
 105:main.c        ****     #else
 106:main.c        ****         //if there was a reset, check if it was caused by a hibernate wakeup
 107:main.c        ****         if(CySysPmGetResetReason() == CY_PM_RESET_REASON_WAKEUP_HIB){
 108:main.c        ****             CySysPmUnfreezeIo(); //if so, unfreeze the GPIO PINS
 109:main.c        ****         }
 110:main.c        ****     #endif
 111:main.c        ****     
 112:main.c        ****     for(;;)
 113:main.c        ****     {
 114:main.c        ****         #if _DEBUG  //if the _DEBUG MACRO value is 1
 115:main.c        ****             getBatteryStats(); //then the user is debuging so allow data to be sent through the UAR
 116:main.c        ****         #else
 117:main.c        ****             //if debug is off then allow for hibernate sleep to occur
 118:main.c        ****             CySysPmFreezeIo(); //allows us to retain their state upon wake up
 119:main.c        ****             //Pulls 150 nA
 120:main.c        ****             CySysPmHibernate(); //Puts the device in Hibernate state
 121:main.c        ****                                 //This turns off all of the clocks but retains logical state
 122:main.c        ****                                 //used for long period of inactivity 
 123:main.c        ****                                 //where the device is not needed for for critical tasks and periodi
 124:main.c        ****                                 //wake ups are not required
 125:main.c        ****                                 //Any exist resets the microcontroller
 126:main.c        ****         #endif
 127:main.c        ****     }
 128:main.c        **** }
 129:main.c        **** 
 130:main.c        **** //=============================================================//
 131:main.c        **** //========Battery Monitor Initialization Function==============//
 132:main.c        **** //=============================================================//
 133:main.c        **** 
 134:main.c        **** void setupBQ27441(void)
 135:main.c        **** {
 136:main.c        ****     #if _DEBUG  
 137:main.c        ****         // Use lipo.begin() to initialize the BQ27441-G1A and confirm that it's
 138:main.c        ****         // connected and communicating.
 139:main.c        ****         serial_println(" Lipo monitor communication being initialized.");
 140:main.c        ****         if (!lipo_begin()) // begin() will return true if communication is successful
 141:main.c        ****         {
 142:main.c        **** 	        // If communication fails, print an error message and loop forever.
 143:main.c        ****             serial_println(" Error: Unable to communicate with BQ27441.");
 144:main.c        ****             serial_println("  Check wiring and try again.");
 145:main.c        ****             serial_println("  (Battery must be plugged into Battery Babysitter!)");
 146:main.c        ****             while (1) ;
 147:main.c        ****         }
 148:main.c        ****         serial_println(" Connected to BQ27441!");
 149:main.c        ****   
 150:main.c        ****         // Uset lipo.setCapacity(BATTERY_CAPACITY) to set the design capacity
 151:main.c        ****         // of your battery.
 152:main.c        ****         serial_println(" Setting Lipo monitor capacity.");
 153:main.c        ****         lipo_setCapacity(BATTERY_CAPACITY);
 154:main.c        ****         serial_println(" Lipo monitor capacity set.");
 155:main.c        ****     #else
ARM GAS  C:\Users\a85495\AppData\Local\Temp\ccz6JUSv.s 			page 6


 156:main.c        ****         if(!lipo_begin()){  //if the battery monitor does not properly initialize
 157:main.c        ****            while(1){        //Toggle the RED led on indefinetly
 158:main.c        ****                 toggleRedLED(3, 500);
 159:main.c        ****                 CyDelay(2000);
 160:main.c        ****             }
 161:main.c        ****         }
 162:main.c        ****         toggleYellowLED(3, 1000); //else if all connections goes well, toggle the yellow LED 3 time
 163:main.c        ****         CyDelay(1000);            //wait for about 2 seconds to settle down the user after the Yell
 164:main.c        ****         
 165:main.c        ****         lipo_setCapacity(BATTERY_CAPACITY); //set the capacity of the Lipo battery to the specified
 166:main.c        ****         toggleGreenLED(3,1000);             //if the lipo capacity was set correctly and didn't get
 167:main.c        ****                                             //toggle the green LED 3 times with a seond interval to
 168:main.c        ****                                             //Battery Monitor is responsive and fully setup
 169:main.c        ****     #endif
 170:main.c        **** }
 171:main.c        **** 
 172:main.c        **** //=============================================================//
 173:main.c        **** //==============Battery Monitor Debug Function=================//
 174:main.c        **** //=============================================================//
 175:main.c        **** //=============Only ran if _DEBUG MACRO is a 1=================//
 176:main.c        **** 
 177:main.c        **** #if _DEBUG  //if debug is true then define the function if not it would not compile
 178:main.c        ****     void getBatteryStats()
 179:main.c        ****     {
 180:main.c        **** 
 181:main.c        ****         // Read battery stats from the BQ27441-G1A
 182:main.c        ****         unsigned int soc = lipo_soc();  // Read state-of-charge (%)
 183:main.c        ****         unsigned int volts = lipo_voltage(); // Read battery voltage (mV)
 184:main.c        **** 
 185:main.c        ****         set_lipo_current_arg(AVG);
 186:main.c        ****         int current = lipo_current(/*AVG*/); // Read average current (mA)
 187:main.c        **** 
 188:main.c        ****         set_lipo_capacity_arg(FULL_F);
 189:main.c        ****         unsigned int fullCapacity = lipo_capacity(/*FULL*/); // Read full capacity (mAh)
 190:main.c        **** 
 191:main.c        ****         set_lipo_capacity_arg(REMAIN);
 192:main.c        ****         unsigned int capacity = lipo_capacity(/*REMAIN*/); // Read remaining capacity (mAh)
 193:main.c        **** 
 194:main.c        ****         int power = lipo_power(); // Read average power draw (mW)
 195:main.c        ****         int health = lipo_soh(); // Read state-of-health (%)
 196:main.c        **** 
 197:main.c        **** 
 198:main.c        ****         serial_print("SOC(%) = "); 
 199:main.c        ****         serial_printInt(soc);
 200:main.c        ****         serial_print(" | Volt(mV) = "); 
 201:main.c        ****         serial_printInt(volts);
 202:main.c        ****         serial_print(" | Current(mA) = "); 
 203:main.c        ****         serial_printInt(current);
 204:main.c        **** 
 205:main.c        ****         serial_print(" | Remaining(mAh) = "); 
 206:main.c        ****         serial_printInt(capacity);
 207:main.c        ****         serial_print(" / full(mAh) = "); 
 208:main.c        ****         serial_printInt(fullCapacity);
 209:main.c        ****   
 210:main.c        ****         serial_print(" | Power(mW) = "); 
 211:main.c        ****         serial_printInt(power);
 212:main.c        ****         serial_print(" | Health = "); 
ARM GAS  C:\Users\a85495\AppData\Local\Temp\ccz6JUSv.s 			page 7


 213:main.c        ****         serial_printIntln(health);
 214:main.c        ****     }
 215:main.c        **** #endif
 216:main.c        **** 
 217:main.c        **** //=============================================================//
 218:main.c        **** //=======Function to help with board signallings===============//
 219:main.c        **** //=============================================================//
 220:main.c        **** 
 221:main.c        **** void toggleBoardLED(int numberOfTimes, int delayBetweenBlinks){
 131              		.loc 1 221 0
 132              		.cfi_startproc
 133              	.LVL22:
 134 0000 70B5     		push	{r4, r5, r6, lr}
 135              		.cfi_def_cfa_offset 16
 136              		.cfi_offset 4, -16
 137              		.cfi_offset 5, -12
 138              		.cfi_offset 6, -8
 139              		.cfi_offset 14, -4
 140 0002 061C     		mov	r6, r0
 141 0004 0C1C     		mov	r4, r1
 142              	.LVL23:
 222:main.c        ****     int i = 0;
 223:main.c        ****     for(i = 0; i<= numberOfTimes; i++){
 143              		.loc 1 223 0
 144 0006 0025     		mov	r5, #0
 145 0008 13E0     		b	.L8
 146              	.LVL24:
 147              	.L9:
 224:main.c        ****         BOARD_LED_Write(~BOARD_LED_Read());
 148              		.loc 1 224 0 discriminator 3
 149 000a FFF7FEFF 		bl	BOARD_LED_Read
 150              	.LVL25:
 151 000e C043     		mvn	r0, r0
 152 0010 C0B2     		uxtb	r0, r0
 153 0012 FFF7FEFF 		bl	BOARD_LED_Write
 154              	.LVL26:
 225:main.c        ****         CyDelay(500);
 155              		.loc 1 225 0 discriminator 3
 156 0016 FA20     		mov	r0, #250
 157 0018 4000     		lsl	r0, r0, #1
 158 001a FFF7FEFF 		bl	CyDelay
 159              	.LVL27:
 226:main.c        ****         BOARD_LED_Write(~BOARD_LED_Read());
 160              		.loc 1 226 0 discriminator 3
 161 001e FFF7FEFF 		bl	BOARD_LED_Read
 162              	.LVL28:
 163 0022 C043     		mvn	r0, r0
 164 0024 C0B2     		uxtb	r0, r0
 165 0026 FFF7FEFF 		bl	BOARD_LED_Write
 166              	.LVL29:
 227:main.c        ****         CyDelay(delayBetweenBlinks);
 167              		.loc 1 227 0 discriminator 3
 168 002a 201C     		mov	r0, r4
 169 002c FFF7FEFF 		bl	CyDelay
 170              	.LVL30:
 223:main.c        ****         BOARD_LED_Write(~BOARD_LED_Read());
 171              		.loc 1 223 0 discriminator 3
ARM GAS  C:\Users\a85495\AppData\Local\Temp\ccz6JUSv.s 			page 8


 172 0030 0135     		add	r5, r5, #1
 173              	.LVL31:
 174              	.L8:
 223:main.c        ****         BOARD_LED_Write(~BOARD_LED_Read());
 175              		.loc 1 223 0 is_stmt 0 discriminator 1
 176 0032 B542     		cmp	r5, r6
 177 0034 E9DD     		ble	.L9
 228:main.c        ****     }
 229:main.c        **** }
 178              		.loc 1 229 0 is_stmt 1
 179              		@ sp needed
 180              	.LVL32:
 181              	.LVL33:
 182              	.LVL34:
 183 0036 70BD     		pop	{r4, r5, r6, pc}
 184              		.cfi_endproc
 185              	.LFE37:
 186              		.size	toggleBoardLED, .-toggleBoardLED
 187              		.section	.text.toggleRedLED,"ax",%progbits
 188              		.align	2
 189              		.global	toggleRedLED
 190              		.code	16
 191              		.thumb_func
 192              		.type	toggleRedLED, %function
 193              	toggleRedLED:
 194              	.LFB38:
 230:main.c        **** 
 231:main.c        **** void toggleRedLED(int numberOfTimes, int delayBetweenBlinks){
 195              		.loc 1 231 0
 196              		.cfi_startproc
 197              	.LVL35:
 198 0000 70B5     		push	{r4, r5, r6, lr}
 199              		.cfi_def_cfa_offset 16
 200              		.cfi_offset 4, -16
 201              		.cfi_offset 5, -12
 202              		.cfi_offset 6, -8
 203              		.cfi_offset 14, -4
 204 0002 061C     		mov	r6, r0
 205 0004 0C1C     		mov	r4, r1
 206              	.LVL36:
 232:main.c        ****     int i = 0;
 233:main.c        ****     RED_LED_Write(0);
 207              		.loc 1 233 0
 208 0006 0020     		mov	r0, #0
 209              	.LVL37:
 210 0008 FFF7FEFF 		bl	RED_LED_Write
 211              	.LVL38:
 234:main.c        ****     
 235:main.c        ****     for(i = 0; i<= numberOfTimes; i++){
 212              		.loc 1 235 0
 213 000c 0025     		mov	r5, #0
 214 000e 13E0     		b	.L11
 215              	.LVL39:
 216              	.L12:
 236:main.c        ****         RED_LED_Write(~RED_LED_Read());
 217              		.loc 1 236 0 discriminator 3
 218 0010 FFF7FEFF 		bl	RED_LED_Read
ARM GAS  C:\Users\a85495\AppData\Local\Temp\ccz6JUSv.s 			page 9


 219              	.LVL40:
 220 0014 C043     		mvn	r0, r0
 221 0016 C0B2     		uxtb	r0, r0
 222 0018 FFF7FEFF 		bl	RED_LED_Write
 223              	.LVL41:
 237:main.c        ****         CyDelay(500);
 224              		.loc 1 237 0 discriminator 3
 225 001c FA20     		mov	r0, #250
 226 001e 4000     		lsl	r0, r0, #1
 227 0020 FFF7FEFF 		bl	CyDelay
 228              	.LVL42:
 238:main.c        ****         RED_LED_Write(~RED_LED_Read());
 229              		.loc 1 238 0 discriminator 3
 230 0024 FFF7FEFF 		bl	RED_LED_Read
 231              	.LVL43:
 232 0028 C043     		mvn	r0, r0
 233 002a C0B2     		uxtb	r0, r0
 234 002c FFF7FEFF 		bl	RED_LED_Write
 235              	.LVL44:
 239:main.c        ****         CyDelay(delayBetweenBlinks);
 236              		.loc 1 239 0 discriminator 3
 237 0030 201C     		mov	r0, r4
 238 0032 FFF7FEFF 		bl	CyDelay
 239              	.LVL45:
 235:main.c        ****         RED_LED_Write(~RED_LED_Read());
 240              		.loc 1 235 0 discriminator 3
 241 0036 0135     		add	r5, r5, #1
 242              	.LVL46:
 243              	.L11:
 235:main.c        ****         RED_LED_Write(~RED_LED_Read());
 244              		.loc 1 235 0 is_stmt 0 discriminator 1
 245 0038 B542     		cmp	r5, r6
 246 003a E9DD     		ble	.L12
 240:main.c        ****     }
 241:main.c        **** }
 247              		.loc 1 241 0 is_stmt 1
 248              		@ sp needed
 249              	.LVL47:
 250              	.LVL48:
 251              	.LVL49:
 252 003c 70BD     		pop	{r4, r5, r6, pc}
 253              		.cfi_endproc
 254              	.LFE38:
 255              		.size	toggleRedLED, .-toggleRedLED
 256 003e C046     		.section	.text.toggleYellowLED,"ax",%progbits
 257              		.align	2
 258              		.global	toggleYellowLED
 259              		.code	16
 260              		.thumb_func
 261              		.type	toggleYellowLED, %function
 262              	toggleYellowLED:
 263              	.LFB39:
 242:main.c        **** void toggleYellowLED(int numberOfTimes, int delayBetweenBlinks){
 264              		.loc 1 242 0
 265              		.cfi_startproc
 266              	.LVL50:
 267 0000 70B5     		push	{r4, r5, r6, lr}
ARM GAS  C:\Users\a85495\AppData\Local\Temp\ccz6JUSv.s 			page 10


 268              		.cfi_def_cfa_offset 16
 269              		.cfi_offset 4, -16
 270              		.cfi_offset 5, -12
 271              		.cfi_offset 6, -8
 272              		.cfi_offset 14, -4
 273 0002 061C     		mov	r6, r0
 274 0004 0C1C     		mov	r4, r1
 275              	.LVL51:
 243:main.c        ****     int i = 0;
 244:main.c        ****     YELLOW_LED_Write(0);
 276              		.loc 1 244 0
 277 0006 0020     		mov	r0, #0
 278              	.LVL52:
 279 0008 FFF7FEFF 		bl	YELLOW_LED_Write
 280              	.LVL53:
 245:main.c        ****     
 246:main.c        ****     for(i = 0; i<= numberOfTimes; i++){
 281              		.loc 1 246 0
 282 000c 0025     		mov	r5, #0
 283 000e 13E0     		b	.L14
 284              	.LVL54:
 285              	.L15:
 247:main.c        ****         YELLOW_LED_Write(~YELLOW_LED_Read());
 286              		.loc 1 247 0 discriminator 3
 287 0010 FFF7FEFF 		bl	YELLOW_LED_Read
 288              	.LVL55:
 289 0014 C043     		mvn	r0, r0
 290 0016 C0B2     		uxtb	r0, r0
 291 0018 FFF7FEFF 		bl	YELLOW_LED_Write
 292              	.LVL56:
 248:main.c        ****         CyDelay(500);
 293              		.loc 1 248 0 discriminator 3
 294 001c FA20     		mov	r0, #250
 295 001e 4000     		lsl	r0, r0, #1
 296 0020 FFF7FEFF 		bl	CyDelay
 297              	.LVL57:
 249:main.c        ****         YELLOW_LED_Write(~YELLOW_LED_Read());
 298              		.loc 1 249 0 discriminator 3
 299 0024 FFF7FEFF 		bl	YELLOW_LED_Read
 300              	.LVL58:
 301 0028 C043     		mvn	r0, r0
 302 002a C0B2     		uxtb	r0, r0
 303 002c FFF7FEFF 		bl	YELLOW_LED_Write
 304              	.LVL59:
 250:main.c        ****         CyDelay(delayBetweenBlinks);
 305              		.loc 1 250 0 discriminator 3
 306 0030 201C     		mov	r0, r4
 307 0032 FFF7FEFF 		bl	CyDelay
 308              	.LVL60:
 246:main.c        ****         YELLOW_LED_Write(~YELLOW_LED_Read());
 309              		.loc 1 246 0 discriminator 3
 310 0036 0135     		add	r5, r5, #1
 311              	.LVL61:
 312              	.L14:
 246:main.c        ****         YELLOW_LED_Write(~YELLOW_LED_Read());
 313              		.loc 1 246 0 is_stmt 0 discriminator 1
 314 0038 B542     		cmp	r5, r6
ARM GAS  C:\Users\a85495\AppData\Local\Temp\ccz6JUSv.s 			page 11


 315 003a E9DD     		ble	.L15
 251:main.c        ****     }
 252:main.c        **** }
 316              		.loc 1 252 0 is_stmt 1
 317              		@ sp needed
 318              	.LVL62:
 319              	.LVL63:
 320              	.LVL64:
 321 003c 70BD     		pop	{r4, r5, r6, pc}
 322              		.cfi_endproc
 323              	.LFE39:
 324              		.size	toggleYellowLED, .-toggleYellowLED
 325 003e C046     		.section	.text.toggleGreenLED,"ax",%progbits
 326              		.align	2
 327              		.global	toggleGreenLED
 328              		.code	16
 329              		.thumb_func
 330              		.type	toggleGreenLED, %function
 331              	toggleGreenLED:
 332              	.LFB40:
 253:main.c        **** void toggleGreenLED(int numberOfTimes, int delayBetweenBlinks){
 333              		.loc 1 253 0
 334              		.cfi_startproc
 335              	.LVL65:
 336 0000 70B5     		push	{r4, r5, r6, lr}
 337              		.cfi_def_cfa_offset 16
 338              		.cfi_offset 4, -16
 339              		.cfi_offset 5, -12
 340              		.cfi_offset 6, -8
 341              		.cfi_offset 14, -4
 342 0002 061C     		mov	r6, r0
 343 0004 0C1C     		mov	r4, r1
 344              	.LVL66:
 254:main.c        ****     int i = 0;
 255:main.c        ****     GREEN_LED_Write(0);
 345              		.loc 1 255 0
 346 0006 0020     		mov	r0, #0
 347              	.LVL67:
 348 0008 FFF7FEFF 		bl	GREEN_LED_Write
 349              	.LVL68:
 256:main.c        ****     
 257:main.c        ****     for(i = 0; i<= numberOfTimes; i++){
 350              		.loc 1 257 0
 351 000c 0025     		mov	r5, #0
 352 000e 13E0     		b	.L17
 353              	.LVL69:
 354              	.L18:
 258:main.c        ****         GREEN_LED_Write(~GREEN_LED_Read());
 355              		.loc 1 258 0 discriminator 3
 356 0010 FFF7FEFF 		bl	GREEN_LED_Read
 357              	.LVL70:
 358 0014 C043     		mvn	r0, r0
 359 0016 C0B2     		uxtb	r0, r0
 360 0018 FFF7FEFF 		bl	GREEN_LED_Write
 361              	.LVL71:
 259:main.c        ****         CyDelay(500);
 362              		.loc 1 259 0 discriminator 3
ARM GAS  C:\Users\a85495\AppData\Local\Temp\ccz6JUSv.s 			page 12


 363 001c FA20     		mov	r0, #250
 364 001e 4000     		lsl	r0, r0, #1
 365 0020 FFF7FEFF 		bl	CyDelay
 366              	.LVL72:
 260:main.c        ****         GREEN_LED_Write(~GREEN_LED_Read());
 367              		.loc 1 260 0 discriminator 3
 368 0024 FFF7FEFF 		bl	GREEN_LED_Read
 369              	.LVL73:
 370 0028 C043     		mvn	r0, r0
 371 002a C0B2     		uxtb	r0, r0
 372 002c FFF7FEFF 		bl	GREEN_LED_Write
 373              	.LVL74:
 261:main.c        ****         CyDelay(delayBetweenBlinks);
 374              		.loc 1 261 0 discriminator 3
 375 0030 201C     		mov	r0, r4
 376 0032 FFF7FEFF 		bl	CyDelay
 377              	.LVL75:
 257:main.c        ****         GREEN_LED_Write(~GREEN_LED_Read());
 378              		.loc 1 257 0 discriminator 3
 379 0036 0135     		add	r5, r5, #1
 380              	.LVL76:
 381              	.L17:
 257:main.c        ****         GREEN_LED_Write(~GREEN_LED_Read());
 382              		.loc 1 257 0 is_stmt 0 discriminator 1
 383 0038 B542     		cmp	r5, r6
 384 003a E9DD     		ble	.L18
 262:main.c        ****     }
 263:main.c        **** }
 385              		.loc 1 263 0 is_stmt 1
 386              		@ sp needed
 387              	.LVL77:
 388              	.LVL78:
 389              	.LVL79:
 390 003c 70BD     		pop	{r4, r5, r6, pc}
 391              		.cfi_endproc
 392              	.LFE40:
 393              		.size	toggleGreenLED, .-toggleGreenLED
 394 003e C046     		.section	.text.setupBQ27441,"ax",%progbits
 395              		.align	2
 396              		.global	setupBQ27441
 397              		.code	16
 398              		.thumb_func
 399              		.type	setupBQ27441, %function
 400              	setupBQ27441:
 401              	.LFB36:
 135:main.c        ****     #if _DEBUG  
 402              		.loc 1 135 0
 403              		.cfi_startproc
 404 0000 10B5     		push	{r4, lr}
 405              		.cfi_def_cfa_offset 8
 406              		.cfi_offset 4, -8
 407              		.cfi_offset 14, -4
 156:main.c        ****            while(1){        //Toggle the RED led on indefinetly
 408              		.loc 1 156 0
 409 0002 FFF7FEFF 		bl	lipo_begin
 410              	.LVL80:
 411 0006 0028     		cmp	r0, #0
ARM GAS  C:\Users\a85495\AppData\Local\Temp\ccz6JUSv.s 			page 13


 412 0008 09D1     		bne	.L20
 413              	.L21:
 158:main.c        ****                 CyDelay(2000);
 414              		.loc 1 158 0 discriminator 1
 415 000a 0320     		mov	r0, #3
 416 000c FA21     		mov	r1, #250
 417 000e 4900     		lsl	r1, r1, #1
 418 0010 FFF7FEFF 		bl	toggleRedLED
 419              	.LVL81:
 159:main.c        ****             }
 420              		.loc 1 159 0 discriminator 1
 421 0014 FA20     		mov	r0, #250
 422 0016 C000     		lsl	r0, r0, #3
 423 0018 FFF7FEFF 		bl	CyDelay
 424              	.LVL82:
 160:main.c        ****         }
 425              		.loc 1 160 0 discriminator 1
 426 001c F5E7     		b	.L21
 427              	.L20:
 162:main.c        ****         CyDelay(1000);            //wait for about 2 seconds to settle down the user after the Yell
 428              		.loc 1 162 0
 429 001e FA24     		mov	r4, #250
 430 0020 A400     		lsl	r4, r4, #2
 431 0022 0320     		mov	r0, #3
 432 0024 211C     		mov	r1, r4
 433 0026 FFF7FEFF 		bl	toggleYellowLED
 434              	.LVL83:
 163:main.c        ****         
 435              		.loc 1 163 0
 436 002a 201C     		mov	r0, r4
 437 002c FFF7FEFF 		bl	CyDelay
 438              	.LVL84:
 165:main.c        ****         toggleGreenLED(3,1000);             //if the lipo capacity was set correctly and didn't get
 439              		.loc 1 165 0
 440 0030 FA20     		mov	r0, #250
 441 0032 C000     		lsl	r0, r0, #3
 442 0034 FFF7FEFF 		bl	lipo_setCapacity
 443              	.LVL85:
 166:main.c        ****                                             //toggle the green LED 3 times with a seond interval to
 444              		.loc 1 166 0
 445 0038 0320     		mov	r0, #3
 446 003a 211C     		mov	r1, r4
 447 003c FFF7FEFF 		bl	toggleGreenLED
 448              	.LVL86:
 170:main.c        **** 
 449              		.loc 1 170 0
 450              		@ sp needed
 451 0040 10BD     		pop	{r4, pc}
 452              		.cfi_endproc
 453              	.LFE36:
 454              		.size	setupBQ27441, .-setupBQ27441
 455 0042 C046     		.section	.text.main,"ax",%progbits
 456              		.align	2
 457              		.global	main
 458              		.code	16
 459              		.thumb_func
 460              		.type	main, %function
ARM GAS  C:\Users\a85495\AppData\Local\Temp\ccz6JUSv.s 			page 14


 461              	main:
 462              	.LFB35:
  94:main.c        ****     CyGlobalIntEnable;                          /* Enable global interrupts. */    
 463              		.loc 1 94 0
 464              		.cfi_startproc
 465 0000 08B5     		push	{r3, lr}
 466              		.cfi_def_cfa_offset 8
 467              		.cfi_offset 3, -8
 468              		.cfi_offset 14, -4
  95:main.c        ****     setupBQ27441();                             //Initializes battery monitor
 469              		.loc 1 95 0
 470              	@ 95 "main.c" 1
 471 0002 62B6     		CPSIE   i
 472              	@ 0 "" 2
  96:main.c        ****     read_battery_StartEx(read_battery_Handler); //Sets up the interrupt Handler
 473              		.loc 1 96 0
 474              		.code	16
 475 0004 FFF7FEFF 		bl	setupBQ27441
 476              	.LVL87:
  97:main.c        ****     
 477              		.loc 1 97 0
 478 0008 0B48     		ldr	r0, .L25
 479 000a FFF7FEFF 		bl	read_battery_StartEx
 480              	.LVL88:
  99:main.c        ****     YELLOW_LED_Write(0); 
 481              		.loc 1 99 0
 482 000e 0020     		mov	r0, #0
 483 0010 FFF7FEFF 		bl	RED_LED_Write
 484              	.LVL89:
 100:main.c        ****     GREEN_LED_Write(0);
 485              		.loc 1 100 0
 486 0014 0020     		mov	r0, #0
 487 0016 FFF7FEFF 		bl	YELLOW_LED_Write
 488              	.LVL90:
 101:main.c        ****     
 489              		.loc 1 101 0
 490 001a 0020     		mov	r0, #0
 491 001c FFF7FEFF 		bl	GREEN_LED_Write
 492              	.LVL91:
 107:main.c        ****             CySysPmUnfreezeIo(); //if so, unfreeze the GPIO PINS
 493              		.loc 1 107 0
 494 0020 FFF7FEFF 		bl	CySysPmGetResetReason
 495              	.LVL92:
 496 0024 0228     		cmp	r0, #2
 497 0026 01D1     		bne	.L24
 108:main.c        ****         }
 498              		.loc 1 108 0
 499 0028 FFF7FEFF 		bl	CySysPmUnfreezeIo
 500              	.LVL93:
 501              	.L24:
 118:main.c        ****             //Pulls 150 nA
 502              		.loc 1 118 0 discriminator 1
 503 002c FFF7FEFF 		bl	CySysPmFreezeIo
 504              	.LVL94:
 120:main.c        ****                                 //This turns off all of the clocks but retains logical state
 505              		.loc 1 120 0 discriminator 1
 506 0030 FFF7FEFF 		bl	CySysPmHibernate
ARM GAS  C:\Users\a85495\AppData\Local\Temp\ccz6JUSv.s 			page 15


 507              	.LVL95:
 127:main.c        **** }
 508              		.loc 1 127 0 discriminator 1
 509 0034 FAE7     		b	.L24
 510              	.L26:
 511 0036 C046     		.align	2
 512              	.L25:
 513 0038 00000000 		.word	read_battery_Handler
 514              		.cfi_endproc
 515              	.LFE35:
 516              		.size	main, .-main
 517              		.section	.text.toggleSequenceLED,"ax",%progbits
 518              		.align	2
 519              		.global	toggleSequenceLED
 520              		.code	16
 521              		.thumb_func
 522              		.type	toggleSequenceLED, %function
 523              	toggleSequenceLED:
 524              	.LFB41:
 264:main.c        **** 
 265:main.c        **** void toggleSequenceLED(int numberOfTimes, int delayBetweenSequenceToggle){
 525              		.loc 1 265 0
 526              		.cfi_startproc
 527              	.LVL96:
 528 0000 70B5     		push	{r4, r5, r6, lr}
 529              		.cfi_def_cfa_offset 16
 530              		.cfi_offset 4, -16
 531              		.cfi_offset 5, -12
 532              		.cfi_offset 6, -8
 533              		.cfi_offset 14, -4
 534 0002 061C     		mov	r6, r0
 535 0004 0C1C     		mov	r4, r1
 536              	.LVL97:
 266:main.c        ****     int i = 0;
 267:main.c        ****     RED_LED_Write(0);   //turn all of the LEDS off at first
 537              		.loc 1 267 0
 538 0006 0020     		mov	r0, #0
 539              	.LVL98:
 540 0008 FFF7FEFF 		bl	RED_LED_Write
 541              	.LVL99:
 268:main.c        ****     YELLOW_LED_Write(0);
 542              		.loc 1 268 0
 543 000c 0020     		mov	r0, #0
 544 000e FFF7FEFF 		bl	YELLOW_LED_Write
 545              	.LVL100:
 269:main.c        ****     GREEN_LED_Write(0);
 546              		.loc 1 269 0
 547 0012 0020     		mov	r0, #0
 548 0014 FFF7FEFF 		bl	GREEN_LED_Write
 549              	.LVL101:
 270:main.c        ****     
 271:main.c        ****     for(i = 0; i < (numberOfTimes*2); i++){      //Then, for the number of specified times
 550              		.loc 1 271 0
 551 0018 0025     		mov	r5, #0
 552 001a 1BE0     		b	.L28
 553              	.LVL102:
 554              	.L29:
ARM GAS  C:\Users\a85495\AppData\Local\Temp\ccz6JUSv.s 			page 16


 272:main.c        ****         RED_LED_Write(~RED_LED_Read());      //toggle each LEDS in a sequence 
 555              		.loc 1 272 0 discriminator 3
 556 001c FFF7FEFF 		bl	RED_LED_Read
 557              	.LVL103:
 558 0020 C043     		mvn	r0, r0
 559 0022 C0B2     		uxtb	r0, r0
 560 0024 FFF7FEFF 		bl	RED_LED_Write
 561              	.LVL104:
 273:main.c        ****         CyDelay(delayBetweenSequenceToggle); //with the given intervals
 562              		.loc 1 273 0 discriminator 3
 563 0028 201C     		mov	r0, r4
 564 002a FFF7FEFF 		bl	CyDelay
 565              	.LVL105:
 274:main.c        ****         YELLOW_LED_Write(~YELLOW_LED_Read());
 566              		.loc 1 274 0 discriminator 3
 567 002e FFF7FEFF 		bl	YELLOW_LED_Read
 568              	.LVL106:
 569 0032 C043     		mvn	r0, r0
 570 0034 C0B2     		uxtb	r0, r0
 571 0036 FFF7FEFF 		bl	YELLOW_LED_Write
 572              	.LVL107:
 275:main.c        ****         CyDelay(delayBetweenSequenceToggle);
 573              		.loc 1 275 0 discriminator 3
 574 003a 201C     		mov	r0, r4
 575 003c FFF7FEFF 		bl	CyDelay
 576              	.LVL108:
 276:main.c        ****         GREEN_LED_Write(~GREEN_LED_Read());
 577              		.loc 1 276 0 discriminator 3
 578 0040 FFF7FEFF 		bl	GREEN_LED_Read
 579              	.LVL109:
 580 0044 C043     		mvn	r0, r0
 581 0046 C0B2     		uxtb	r0, r0
 582 0048 FFF7FEFF 		bl	GREEN_LED_Write
 583              	.LVL110:
 277:main.c        ****         CyDelay(delayBetweenSequenceToggle);
 584              		.loc 1 277 0 discriminator 3
 585 004c 201C     		mov	r0, r4
 586 004e FFF7FEFF 		bl	CyDelay
 587              	.LVL111:
 271:main.c        ****         RED_LED_Write(~RED_LED_Read());      //toggle each LEDS in a sequence 
 588              		.loc 1 271 0 discriminator 3
 589 0052 0135     		add	r5, r5, #1
 590              	.LVL112:
 591              	.L28:
 271:main.c        ****         RED_LED_Write(~RED_LED_Read());      //toggle each LEDS in a sequence 
 592              		.loc 1 271 0 is_stmt 0 discriminator 1
 593 0054 7300     		lsl	r3, r6, #1
 594 0056 AB42     		cmp	r3, r5
 595 0058 E0DC     		bgt	.L29
 278:main.c        ****     }
 279:main.c        **** }
 596              		.loc 1 279 0 is_stmt 1
 597              		@ sp needed
 598              	.LVL113:
 599              	.LVL114:
 600              	.LVL115:
 601 005a 70BD     		pop	{r4, r5, r6, pc}
ARM GAS  C:\Users\a85495\AppData\Local\Temp\ccz6JUSv.s 			page 17


 602              		.cfi_endproc
 603              	.LFE41:
 604              		.size	toggleSequenceLED, .-toggleSequenceLED
 605              		.global	BATTERY_CAPACITY
 606              		.section	.rodata
 607              		.align	2
 608              		.type	BATTERY_CAPACITY, %object
 609              		.size	BATTERY_CAPACITY, 4
 610              	BATTERY_CAPACITY:
 611 0000 D0070000 		.word	2000
 612              		.text
 613              	.Letext0:
 614              		.file 2 "c:\\program files (x86)\\cypress\\psoc creator\\4.0\\psoc creator\\import\\gnu\\arm\\4.9.
 615              		.file 3 "c:\\program files (x86)\\cypress\\psoc creator\\4.0\\psoc creator\\import\\gnu\\arm\\4.9.
 616              		.file 4 "Generated_Source\\PSoC4/cytypes.h"
 617              		.file 5 "..\\..\\..\\..\\PSoC Basestation\\Base_station_src/batteryMonitor.h"
 618              		.file 6 "Generated_Source\\PSoC4/BOARD_LED.h"
 619              		.file 7 "Generated_Source\\PSoC4/RED_LED.h"
 620              		.file 8 "Generated_Source\\PSoC4/YELLOW_LED.h"
 621              		.file 9 "Generated_Source\\PSoC4/GREEN_LED.h"
 622              		.file 10 "Generated_Source\\PSoC4/CyLib.h"
 623              		.file 11 "Generated_Source\\PSoC4/butt_pin.h"
 624              		.file 12 "Generated_Source\\PSoC4/read_battery.h"
 625              		.file 13 "Generated_Source\\PSoC4/cyPm.h"