ARM GAS  C:\Users\a85495\AppData\Local\Temp\ccVE0w01.s 			page 1


   1              		.cpu cortex-m0
   2              		.fpu softvfp
   3              		.eabi_attribute 20, 1
   4              		.eabi_attribute 21, 1
   5              		.eabi_attribute 23, 3
   6              		.eabi_attribute 24, 1
   7              		.eabi_attribute 25, 1
   8              		.eabi_attribute 26, 1
   9              		.eabi_attribute 30, 1
  10              		.eabi_attribute 34, 0
  11              		.eabi_attribute 18, 4
  12              		.code	16
  13              		.file	"serial_UART.c"
  14              		.text
  15              	.Ltext0:
  16              		.cfi_sections	.debug_frame
  17              		.section	.text.serial_UartInit,"ax",%progbits
  18              		.align	2
  19              		.global	serial_UartInit
  20              		.code	16
  21              		.thumb_func
  22              		.type	serial_UartInit, %function
  23              	serial_UartInit:
  24              	.LFB0:
  25              		.file 1 "Generated_Source\\PSoC4\\serial_UART.c"
   1:Generated_Source\PSoC4/serial_UART.c **** /***************************************************************************//**
   2:Generated_Source\PSoC4/serial_UART.c **** * \file serial_UART.c
   3:Generated_Source\PSoC4/serial_UART.c **** * \version 3.20
   4:Generated_Source\PSoC4/serial_UART.c **** *
   5:Generated_Source\PSoC4/serial_UART.c **** * \brief
   6:Generated_Source\PSoC4/serial_UART.c **** *  This file provides the source code to the API for the SCB Component in
   7:Generated_Source\PSoC4/serial_UART.c **** *  UART mode.
   8:Generated_Source\PSoC4/serial_UART.c **** *
   9:Generated_Source\PSoC4/serial_UART.c **** * Note:
  10:Generated_Source\PSoC4/serial_UART.c **** *
  11:Generated_Source\PSoC4/serial_UART.c **** *******************************************************************************
  12:Generated_Source\PSoC4/serial_UART.c **** * \copyright
  13:Generated_Source\PSoC4/serial_UART.c **** * Copyright 2013-2016, Cypress Semiconductor Corporation.  All rights reserved.
  14:Generated_Source\PSoC4/serial_UART.c **** * You may use this file only in accordance with the license, terms, conditions,
  15:Generated_Source\PSoC4/serial_UART.c **** * disclaimers, and limitations in the end user license agreement accompanying
  16:Generated_Source\PSoC4/serial_UART.c **** * the software package with which this file was provided.
  17:Generated_Source\PSoC4/serial_UART.c **** *******************************************************************************/
  18:Generated_Source\PSoC4/serial_UART.c **** 
  19:Generated_Source\PSoC4/serial_UART.c **** #include "serial_PVT.h"
  20:Generated_Source\PSoC4/serial_UART.c **** #include "serial_SPI_UART_PVT.h"
  21:Generated_Source\PSoC4/serial_UART.c **** #include "cyapicallbacks.h"
  22:Generated_Source\PSoC4/serial_UART.c **** 
  23:Generated_Source\PSoC4/serial_UART.c **** #if (serial_UART_WAKE_ENABLE_CONST && serial_UART_RX_WAKEUP_IRQ)
  24:Generated_Source\PSoC4/serial_UART.c ****     /**
  25:Generated_Source\PSoC4/serial_UART.c ****     * \addtogroup group_globals
  26:Generated_Source\PSoC4/serial_UART.c ****     * \{
  27:Generated_Source\PSoC4/serial_UART.c ****     */
  28:Generated_Source\PSoC4/serial_UART.c ****     /** This global variable determines whether to enable Skip Start
  29:Generated_Source\PSoC4/serial_UART.c ****     * functionality when serial_Sleep() function is called:
  30:Generated_Source\PSoC4/serial_UART.c ****     * 0 – disable, other values – enable. Default value is 1.
  31:Generated_Source\PSoC4/serial_UART.c ****     * It is only available when Enable wakeup from Deep Sleep Mode is enabled.
  32:Generated_Source\PSoC4/serial_UART.c ****     */
ARM GAS  C:\Users\a85495\AppData\Local\Temp\ccVE0w01.s 			page 2


  33:Generated_Source\PSoC4/serial_UART.c ****     uint8 serial_skipStart = 1u;
  34:Generated_Source\PSoC4/serial_UART.c ****     /** \} globals */
  35:Generated_Source\PSoC4/serial_UART.c **** #endif /* (serial_UART_WAKE_ENABLE_CONST && serial_UART_RX_WAKEUP_IRQ) */
  36:Generated_Source\PSoC4/serial_UART.c **** 
  37:Generated_Source\PSoC4/serial_UART.c **** #if(serial_SCB_MODE_UNCONFIG_CONST_CFG)
  38:Generated_Source\PSoC4/serial_UART.c **** 
  39:Generated_Source\PSoC4/serial_UART.c ****     /***************************************
  40:Generated_Source\PSoC4/serial_UART.c ****     *  Configuration Structure Initialization
  41:Generated_Source\PSoC4/serial_UART.c ****     ***************************************/
  42:Generated_Source\PSoC4/serial_UART.c **** 
  43:Generated_Source\PSoC4/serial_UART.c ****     const serial_UART_INIT_STRUCT serial_configUart =
  44:Generated_Source\PSoC4/serial_UART.c ****     {
  45:Generated_Source\PSoC4/serial_UART.c ****         serial_UART_SUB_MODE,
  46:Generated_Source\PSoC4/serial_UART.c ****         serial_UART_DIRECTION,
  47:Generated_Source\PSoC4/serial_UART.c ****         serial_UART_DATA_BITS_NUM,
  48:Generated_Source\PSoC4/serial_UART.c ****         serial_UART_PARITY_TYPE,
  49:Generated_Source\PSoC4/serial_UART.c ****         serial_UART_STOP_BITS_NUM,
  50:Generated_Source\PSoC4/serial_UART.c ****         serial_UART_OVS_FACTOR,
  51:Generated_Source\PSoC4/serial_UART.c ****         serial_UART_IRDA_LOW_POWER,
  52:Generated_Source\PSoC4/serial_UART.c ****         serial_UART_MEDIAN_FILTER_ENABLE,
  53:Generated_Source\PSoC4/serial_UART.c ****         serial_UART_RETRY_ON_NACK,
  54:Generated_Source\PSoC4/serial_UART.c ****         serial_UART_IRDA_POLARITY,
  55:Generated_Source\PSoC4/serial_UART.c ****         serial_UART_DROP_ON_PARITY_ERR,
  56:Generated_Source\PSoC4/serial_UART.c ****         serial_UART_DROP_ON_FRAME_ERR,
  57:Generated_Source\PSoC4/serial_UART.c ****         serial_UART_WAKE_ENABLE,
  58:Generated_Source\PSoC4/serial_UART.c ****         0u,
  59:Generated_Source\PSoC4/serial_UART.c ****         NULL,
  60:Generated_Source\PSoC4/serial_UART.c ****         0u,
  61:Generated_Source\PSoC4/serial_UART.c ****         NULL,
  62:Generated_Source\PSoC4/serial_UART.c ****         serial_UART_MP_MODE_ENABLE,
  63:Generated_Source\PSoC4/serial_UART.c ****         serial_UART_MP_ACCEPT_ADDRESS,
  64:Generated_Source\PSoC4/serial_UART.c ****         serial_UART_MP_RX_ADDRESS,
  65:Generated_Source\PSoC4/serial_UART.c ****         serial_UART_MP_RX_ADDRESS_MASK,
  66:Generated_Source\PSoC4/serial_UART.c ****         (uint32) serial_SCB_IRQ_INTERNAL,
  67:Generated_Source\PSoC4/serial_UART.c ****         serial_UART_INTR_RX_MASK,
  68:Generated_Source\PSoC4/serial_UART.c ****         serial_UART_RX_TRIGGER_LEVEL,
  69:Generated_Source\PSoC4/serial_UART.c ****         serial_UART_INTR_TX_MASK,
  70:Generated_Source\PSoC4/serial_UART.c ****         serial_UART_TX_TRIGGER_LEVEL,
  71:Generated_Source\PSoC4/serial_UART.c ****         (uint8) serial_UART_BYTE_MODE_ENABLE,
  72:Generated_Source\PSoC4/serial_UART.c ****         (uint8) serial_UART_CTS_ENABLE,
  73:Generated_Source\PSoC4/serial_UART.c ****         (uint8) serial_UART_CTS_POLARITY,
  74:Generated_Source\PSoC4/serial_UART.c ****         (uint8) serial_UART_RTS_POLARITY,
  75:Generated_Source\PSoC4/serial_UART.c ****         (uint8) serial_UART_RTS_FIFO_LEVEL
  76:Generated_Source\PSoC4/serial_UART.c ****     };
  77:Generated_Source\PSoC4/serial_UART.c **** 
  78:Generated_Source\PSoC4/serial_UART.c **** 
  79:Generated_Source\PSoC4/serial_UART.c ****     /*******************************************************************************
  80:Generated_Source\PSoC4/serial_UART.c ****     * Function Name: serial_UartInit
  81:Generated_Source\PSoC4/serial_UART.c ****     ****************************************************************************//**
  82:Generated_Source\PSoC4/serial_UART.c ****     *
  83:Generated_Source\PSoC4/serial_UART.c ****     *  Configures the serial for UART operation.
  84:Generated_Source\PSoC4/serial_UART.c ****     *
  85:Generated_Source\PSoC4/serial_UART.c ****     *  This function is intended specifically to be used when the serial
  86:Generated_Source\PSoC4/serial_UART.c ****     *  configuration is set to “Unconfigured serial” in the customizer.
  87:Generated_Source\PSoC4/serial_UART.c ****     *  After initializing the serial in UART mode using this function,
  88:Generated_Source\PSoC4/serial_UART.c ****     *  the component can be enabled using the serial_Start() or
  89:Generated_Source\PSoC4/serial_UART.c ****     * serial_Enable() function.
ARM GAS  C:\Users\a85495\AppData\Local\Temp\ccVE0w01.s 			page 3


  90:Generated_Source\PSoC4/serial_UART.c ****     *  This function uses a pointer to a structure that provides the configuration
  91:Generated_Source\PSoC4/serial_UART.c ****     *  settings. This structure contains the same information that would otherwise
  92:Generated_Source\PSoC4/serial_UART.c ****     *  be provided by the customizer settings.
  93:Generated_Source\PSoC4/serial_UART.c ****     *
  94:Generated_Source\PSoC4/serial_UART.c ****     *  \param config: pointer to a structure that contains the following list of
  95:Generated_Source\PSoC4/serial_UART.c ****     *   fields. These fields match the selections available in the customizer.
  96:Generated_Source\PSoC4/serial_UART.c ****     *   Refer to the customizer for further description of the settings.
  97:Generated_Source\PSoC4/serial_UART.c ****     *
  98:Generated_Source\PSoC4/serial_UART.c ****     *******************************************************************************/
  99:Generated_Source\PSoC4/serial_UART.c ****     void serial_UartInit(const serial_UART_INIT_STRUCT *config)
 100:Generated_Source\PSoC4/serial_UART.c ****     {
 101:Generated_Source\PSoC4/serial_UART.c ****         uint32 pinsConfig;
 102:Generated_Source\PSoC4/serial_UART.c **** 
 103:Generated_Source\PSoC4/serial_UART.c ****         if (NULL == config)
 104:Generated_Source\PSoC4/serial_UART.c ****         {
 105:Generated_Source\PSoC4/serial_UART.c ****             CYASSERT(0u != 0u); /* Halt execution due to bad function parameter */
 106:Generated_Source\PSoC4/serial_UART.c ****         }
 107:Generated_Source\PSoC4/serial_UART.c ****         else
 108:Generated_Source\PSoC4/serial_UART.c ****         {
 109:Generated_Source\PSoC4/serial_UART.c ****             /* Get direction to configure UART pins: TX, RX or TX+RX */
 110:Generated_Source\PSoC4/serial_UART.c ****             pinsConfig  = config->direction;
 111:Generated_Source\PSoC4/serial_UART.c **** 
 112:Generated_Source\PSoC4/serial_UART.c ****         #if !(serial_CY_SCBIP_V0 || serial_CY_SCBIP_V1)
 113:Generated_Source\PSoC4/serial_UART.c ****             /* Add RTS and CTS pins to configure */
 114:Generated_Source\PSoC4/serial_UART.c ****             pinsConfig |= (0u != config->rtsRxFifoLevel) ? (serial_UART_RTS_PIN_ENABLE) : (0u);
 115:Generated_Source\PSoC4/serial_UART.c ****             pinsConfig |= (0u != config->enableCts)      ? (serial_UART_CTS_PIN_ENABLE) : (0u);
 116:Generated_Source\PSoC4/serial_UART.c ****         #endif /* !(serial_CY_SCBIP_V0 || serial_CY_SCBIP_V1) */
 117:Generated_Source\PSoC4/serial_UART.c **** 
 118:Generated_Source\PSoC4/serial_UART.c ****             /* Configure pins */
 119:Generated_Source\PSoC4/serial_UART.c ****             serial_SetPins(serial_SCB_MODE_UART, config->mode, pinsConfig);
 120:Generated_Source\PSoC4/serial_UART.c **** 
 121:Generated_Source\PSoC4/serial_UART.c ****             /* Store internal configuration */
 122:Generated_Source\PSoC4/serial_UART.c ****             serial_scbMode       = (uint8) serial_SCB_MODE_UART;
 123:Generated_Source\PSoC4/serial_UART.c ****             serial_scbEnableWake = (uint8) config->enableWake;
 124:Generated_Source\PSoC4/serial_UART.c ****             serial_scbEnableIntr = (uint8) config->enableInterrupt;
 125:Generated_Source\PSoC4/serial_UART.c **** 
 126:Generated_Source\PSoC4/serial_UART.c ****             /* Set RX direction internal variables */
 127:Generated_Source\PSoC4/serial_UART.c ****             serial_rxBuffer      =         config->rxBuffer;
 128:Generated_Source\PSoC4/serial_UART.c ****             serial_rxDataBits    = (uint8) config->dataBits;
 129:Generated_Source\PSoC4/serial_UART.c ****             serial_rxBufferSize  = (uint8) config->rxBufferSize;
 130:Generated_Source\PSoC4/serial_UART.c **** 
 131:Generated_Source\PSoC4/serial_UART.c ****             /* Set TX direction internal variables */
 132:Generated_Source\PSoC4/serial_UART.c ****             serial_txBuffer      =         config->txBuffer;
 133:Generated_Source\PSoC4/serial_UART.c ****             serial_txDataBits    = (uint8) config->dataBits;
 134:Generated_Source\PSoC4/serial_UART.c ****             serial_txBufferSize  = (uint8) config->txBufferSize;
 135:Generated_Source\PSoC4/serial_UART.c **** 
 136:Generated_Source\PSoC4/serial_UART.c ****             /* Configure UART interface */
 137:Generated_Source\PSoC4/serial_UART.c ****             if(serial_UART_MODE_IRDA == config->mode)
 138:Generated_Source\PSoC4/serial_UART.c ****             {
 139:Generated_Source\PSoC4/serial_UART.c ****                 /* OVS settings: IrDA */
 140:Generated_Source\PSoC4/serial_UART.c ****                 serial_CTRL_REG  = ((0u != config->enableIrdaLowPower) ?
 141:Generated_Source\PSoC4/serial_UART.c ****                                                 (serial_UART_GET_CTRL_OVS_IRDA_LP(config->oversampl
 142:Generated_Source\PSoC4/serial_UART.c ****                                                 (serial_CTRL_OVS_IRDA_OVS16));
 143:Generated_Source\PSoC4/serial_UART.c ****             }
 144:Generated_Source\PSoC4/serial_UART.c ****             else
 145:Generated_Source\PSoC4/serial_UART.c ****             {
 146:Generated_Source\PSoC4/serial_UART.c ****                 /* OVS settings: UART and SmartCard */
ARM GAS  C:\Users\a85495\AppData\Local\Temp\ccVE0w01.s 			page 4


 147:Generated_Source\PSoC4/serial_UART.c ****                 serial_CTRL_REG  = serial_GET_CTRL_OVS(config->oversample);
 148:Generated_Source\PSoC4/serial_UART.c ****             }
 149:Generated_Source\PSoC4/serial_UART.c **** 
 150:Generated_Source\PSoC4/serial_UART.c ****             serial_CTRL_REG     |= serial_GET_CTRL_BYTE_MODE  (config->enableByteMode)      |
 151:Generated_Source\PSoC4/serial_UART.c ****                                              serial_GET_CTRL_ADDR_ACCEPT(config->multiprocAcceptAdd
 152:Generated_Source\PSoC4/serial_UART.c ****                                              serial_CTRL_UART;
 153:Generated_Source\PSoC4/serial_UART.c **** 
 154:Generated_Source\PSoC4/serial_UART.c ****             /* Configure sub-mode: UART, SmartCard or IrDA */
 155:Generated_Source\PSoC4/serial_UART.c ****             serial_UART_CTRL_REG = serial_GET_UART_CTRL_MODE(config->mode);
 156:Generated_Source\PSoC4/serial_UART.c **** 
 157:Generated_Source\PSoC4/serial_UART.c ****             /* Configure RX direction */
 158:Generated_Source\PSoC4/serial_UART.c ****             serial_UART_RX_CTRL_REG = serial_GET_UART_RX_CTRL_MODE(config->stopBits)              |
 159:Generated_Source\PSoC4/serial_UART.c ****                                         serial_GET_UART_RX_CTRL_POLARITY(config->enableInvertedRx) 
 160:Generated_Source\PSoC4/serial_UART.c ****                                         serial_GET_UART_RX_CTRL_MP_MODE(config->enableMultiproc)   
 161:Generated_Source\PSoC4/serial_UART.c ****                                         serial_GET_UART_RX_CTRL_DROP_ON_PARITY_ERR(config->dropOnPa
 162:Generated_Source\PSoC4/serial_UART.c ****                                         serial_GET_UART_RX_CTRL_DROP_ON_FRAME_ERR(config->dropOnFra
 163:Generated_Source\PSoC4/serial_UART.c **** 
 164:Generated_Source\PSoC4/serial_UART.c ****             if(serial_UART_PARITY_NONE != config->parity)
 165:Generated_Source\PSoC4/serial_UART.c ****             {
 166:Generated_Source\PSoC4/serial_UART.c ****                serial_UART_RX_CTRL_REG |= serial_GET_UART_RX_CTRL_PARITY(config->parity) |
 167:Generated_Source\PSoC4/serial_UART.c ****                                                     serial_UART_RX_CTRL_PARITY_ENABLED;
 168:Generated_Source\PSoC4/serial_UART.c ****             }
 169:Generated_Source\PSoC4/serial_UART.c **** 
 170:Generated_Source\PSoC4/serial_UART.c ****             serial_RX_CTRL_REG      = serial_GET_RX_CTRL_DATA_WIDTH(config->dataBits)       |
 171:Generated_Source\PSoC4/serial_UART.c ****                                                 serial_GET_RX_CTRL_MEDIAN(config->enableMedianFilte
 172:Generated_Source\PSoC4/serial_UART.c ****                                                 serial_GET_UART_RX_CTRL_ENABLED(config->direction);
 173:Generated_Source\PSoC4/serial_UART.c **** 
 174:Generated_Source\PSoC4/serial_UART.c ****             serial_RX_FIFO_CTRL_REG = serial_GET_RX_FIFO_CTRL_TRIGGER_LEVEL(config->rxTriggerLevel)
 175:Generated_Source\PSoC4/serial_UART.c **** 
 176:Generated_Source\PSoC4/serial_UART.c ****             /* Configure MP address */
 177:Generated_Source\PSoC4/serial_UART.c ****             serial_RX_MATCH_REG     = serial_GET_RX_MATCH_ADDR(config->multiprocAddr) |
 178:Generated_Source\PSoC4/serial_UART.c ****                                                 serial_GET_RX_MATCH_MASK(config->multiprocAddrMask)
 179:Generated_Source\PSoC4/serial_UART.c **** 
 180:Generated_Source\PSoC4/serial_UART.c ****             /* Configure RX direction */
 181:Generated_Source\PSoC4/serial_UART.c ****             serial_UART_TX_CTRL_REG = serial_GET_UART_TX_CTRL_MODE(config->stopBits) |
 182:Generated_Source\PSoC4/serial_UART.c ****                                                 serial_GET_UART_TX_CTRL_RETRY_NACK(config->enableRe
 183:Generated_Source\PSoC4/serial_UART.c **** 
 184:Generated_Source\PSoC4/serial_UART.c ****             if(serial_UART_PARITY_NONE != config->parity)
 185:Generated_Source\PSoC4/serial_UART.c ****             {
 186:Generated_Source\PSoC4/serial_UART.c ****                serial_UART_TX_CTRL_REG |= serial_GET_UART_TX_CTRL_PARITY(config->parity) |
 187:Generated_Source\PSoC4/serial_UART.c ****                                                     serial_UART_TX_CTRL_PARITY_ENABLED;
 188:Generated_Source\PSoC4/serial_UART.c ****             }
 189:Generated_Source\PSoC4/serial_UART.c **** 
 190:Generated_Source\PSoC4/serial_UART.c ****             serial_TX_CTRL_REG      = serial_GET_TX_CTRL_DATA_WIDTH(config->dataBits)    |
 191:Generated_Source\PSoC4/serial_UART.c ****                                                 serial_GET_UART_TX_CTRL_ENABLED(config->direction);
 192:Generated_Source\PSoC4/serial_UART.c **** 
 193:Generated_Source\PSoC4/serial_UART.c ****             serial_TX_FIFO_CTRL_REG = serial_GET_TX_FIFO_CTRL_TRIGGER_LEVEL(config->txTriggerLevel)
 194:Generated_Source\PSoC4/serial_UART.c **** 
 195:Generated_Source\PSoC4/serial_UART.c ****         #if !(serial_CY_SCBIP_V0 || serial_CY_SCBIP_V1)
 196:Generated_Source\PSoC4/serial_UART.c ****             serial_UART_FLOW_CTRL_REG = serial_GET_UART_FLOW_CTRL_CTS_ENABLE(config->enableCts) | \
 197:Generated_Source\PSoC4/serial_UART.c ****                                             serial_GET_UART_FLOW_CTRL_CTS_POLARITY (config->ctsPola
 198:Generated_Source\PSoC4/serial_UART.c ****                                             serial_GET_UART_FLOW_CTRL_RTS_POLARITY (config->rtsPola
 199:Generated_Source\PSoC4/serial_UART.c ****                                             serial_GET_UART_FLOW_CTRL_TRIGGER_LEVEL(config->rtsRxFi
 200:Generated_Source\PSoC4/serial_UART.c ****         #endif /* !(serial_CY_SCBIP_V0 || serial_CY_SCBIP_V1) */
 201:Generated_Source\PSoC4/serial_UART.c **** 
 202:Generated_Source\PSoC4/serial_UART.c ****             /* Configure interrupt with UART handler but do not enable it */
 203:Generated_Source\PSoC4/serial_UART.c ****             CyIntDisable    (serial_ISR_NUMBER);
ARM GAS  C:\Users\a85495\AppData\Local\Temp\ccVE0w01.s 			page 5


 204:Generated_Source\PSoC4/serial_UART.c ****             CyIntSetPriority(serial_ISR_NUMBER, serial_ISR_PRIORITY);
 205:Generated_Source\PSoC4/serial_UART.c ****             (void) CyIntSetVector(serial_ISR_NUMBER, &serial_SPI_UART_ISR);
 206:Generated_Source\PSoC4/serial_UART.c **** 
 207:Generated_Source\PSoC4/serial_UART.c ****             /* Configure WAKE interrupt */
 208:Generated_Source\PSoC4/serial_UART.c ****         #if(serial_UART_RX_WAKEUP_IRQ)
 209:Generated_Source\PSoC4/serial_UART.c ****             CyIntDisable    (serial_RX_WAKE_ISR_NUMBER);
 210:Generated_Source\PSoC4/serial_UART.c ****             CyIntSetPriority(serial_RX_WAKE_ISR_NUMBER, serial_RX_WAKE_ISR_PRIORITY);
 211:Generated_Source\PSoC4/serial_UART.c ****             (void) CyIntSetVector(serial_RX_WAKE_ISR_NUMBER, &serial_UART_WAKEUP_ISR);
 212:Generated_Source\PSoC4/serial_UART.c ****         #endif /* (serial_UART_RX_WAKEUP_IRQ) */
 213:Generated_Source\PSoC4/serial_UART.c **** 
 214:Generated_Source\PSoC4/serial_UART.c ****             /* Configure interrupt sources */
 215:Generated_Source\PSoC4/serial_UART.c ****             serial_INTR_I2C_EC_MASK_REG = serial_NO_INTR_SOURCES;
 216:Generated_Source\PSoC4/serial_UART.c ****             serial_INTR_SPI_EC_MASK_REG = serial_NO_INTR_SOURCES;
 217:Generated_Source\PSoC4/serial_UART.c ****             serial_INTR_SLAVE_MASK_REG  = serial_NO_INTR_SOURCES;
 218:Generated_Source\PSoC4/serial_UART.c ****             serial_INTR_MASTER_MASK_REG = serial_NO_INTR_SOURCES;
 219:Generated_Source\PSoC4/serial_UART.c ****             serial_INTR_RX_MASK_REG     = config->rxInterruptMask;
 220:Generated_Source\PSoC4/serial_UART.c ****             serial_INTR_TX_MASK_REG     = config->txInterruptMask;
 221:Generated_Source\PSoC4/serial_UART.c ****         
 222:Generated_Source\PSoC4/serial_UART.c ****             /* Configure TX interrupt sources to restore. */
 223:Generated_Source\PSoC4/serial_UART.c ****             serial_IntrTxMask = LO16(serial_INTR_TX_MASK_REG);
 224:Generated_Source\PSoC4/serial_UART.c **** 
 225:Generated_Source\PSoC4/serial_UART.c ****             /* Clear RX buffer indexes */
 226:Generated_Source\PSoC4/serial_UART.c ****             serial_rxBufferHead     = 0u;
 227:Generated_Source\PSoC4/serial_UART.c ****             serial_rxBufferTail     = 0u;
 228:Generated_Source\PSoC4/serial_UART.c ****             serial_rxBufferOverflow = 0u;
 229:Generated_Source\PSoC4/serial_UART.c **** 
 230:Generated_Source\PSoC4/serial_UART.c ****             /* Clear TX buffer indexes */
 231:Generated_Source\PSoC4/serial_UART.c ****             serial_txBufferHead = 0u;
 232:Generated_Source\PSoC4/serial_UART.c ****             serial_txBufferTail = 0u;
 233:Generated_Source\PSoC4/serial_UART.c ****         }
 234:Generated_Source\PSoC4/serial_UART.c ****     }
 235:Generated_Source\PSoC4/serial_UART.c **** 
 236:Generated_Source\PSoC4/serial_UART.c **** #else
 237:Generated_Source\PSoC4/serial_UART.c **** 
 238:Generated_Source\PSoC4/serial_UART.c ****     /*******************************************************************************
 239:Generated_Source\PSoC4/serial_UART.c ****     * Function Name: serial_UartInit
 240:Generated_Source\PSoC4/serial_UART.c ****     ****************************************************************************//**
 241:Generated_Source\PSoC4/serial_UART.c ****     *
 242:Generated_Source\PSoC4/serial_UART.c ****     *  Configures the SCB for the UART operation.
 243:Generated_Source\PSoC4/serial_UART.c ****     *
 244:Generated_Source\PSoC4/serial_UART.c ****     *******************************************************************************/
 245:Generated_Source\PSoC4/serial_UART.c ****     void serial_UartInit(void)
 246:Generated_Source\PSoC4/serial_UART.c ****     {
  26              		.loc 1 246 0
  27              		.cfi_startproc
  28 0000 10B5     		push	{r4, lr}
  29              		.cfi_def_cfa_offset 8
  30              		.cfi_offset 4, -8
  31              		.cfi_offset 14, -4
 247:Generated_Source\PSoC4/serial_UART.c ****         /* Configure UART interface */
 248:Generated_Source\PSoC4/serial_UART.c ****         serial_CTRL_REG = serial_UART_DEFAULT_CTRL;
  32              		.loc 1 248 0
  33 0002 1B4A     		ldr	r2, .L2
  34 0004 1B4B     		ldr	r3, .L2+4
  35 0006 1A60     		str	r2, [r3]
 249:Generated_Source\PSoC4/serial_UART.c **** 
 250:Generated_Source\PSoC4/serial_UART.c ****         /* Configure sub-mode: UART, SmartCard or IrDA */
ARM GAS  C:\Users\a85495\AppData\Local\Temp\ccVE0w01.s 			page 6


 251:Generated_Source\PSoC4/serial_UART.c ****         serial_UART_CTRL_REG = serial_UART_DEFAULT_UART_CTRL;
  36              		.loc 1 251 0
  37 0008 0024     		mov	r4, #0
  38 000a 1B4B     		ldr	r3, .L2+8
  39 000c 1C60     		str	r4, [r3]
 252:Generated_Source\PSoC4/serial_UART.c **** 
 253:Generated_Source\PSoC4/serial_UART.c ****         /* Configure RX direction */
 254:Generated_Source\PSoC4/serial_UART.c ****         serial_UART_RX_CTRL_REG = serial_UART_DEFAULT_UART_RX_CTRL;
  40              		.loc 1 254 0
  41 000e 0122     		mov	r2, #1
  42 0010 1A4B     		ldr	r3, .L2+12
  43 0012 1A60     		str	r2, [r3]
 255:Generated_Source\PSoC4/serial_UART.c ****         serial_RX_CTRL_REG      = serial_UART_DEFAULT_RX_CTRL;
  44              		.loc 1 255 0
  45 0014 1A4B     		ldr	r3, .L2+16
  46 0016 1B49     		ldr	r1, .L2+20
  47 0018 0B60     		str	r3, [r1]
 256:Generated_Source\PSoC4/serial_UART.c ****         serial_RX_FIFO_CTRL_REG = serial_UART_DEFAULT_RX_FIFO_CTRL;
  48              		.loc 1 256 0
  49 001a 0720     		mov	r0, #7
  50 001c 1A49     		ldr	r1, .L2+24
  51 001e 0860     		str	r0, [r1]
 257:Generated_Source\PSoC4/serial_UART.c ****         serial_RX_MATCH_REG     = serial_UART_DEFAULT_RX_MATCH_REG;
  52              		.loc 1 257 0
  53 0020 1A49     		ldr	r1, .L2+28
  54 0022 0C60     		str	r4, [r1]
 258:Generated_Source\PSoC4/serial_UART.c **** 
 259:Generated_Source\PSoC4/serial_UART.c ****         /* Configure TX direction */
 260:Generated_Source\PSoC4/serial_UART.c ****         serial_UART_TX_CTRL_REG = serial_UART_DEFAULT_UART_TX_CTRL;
  55              		.loc 1 260 0
  56 0024 1A49     		ldr	r1, .L2+32
  57 0026 0A60     		str	r2, [r1]
 261:Generated_Source\PSoC4/serial_UART.c ****         serial_TX_CTRL_REG      = serial_UART_DEFAULT_TX_CTRL;
  58              		.loc 1 261 0
  59 0028 1A4A     		ldr	r2, .L2+36
  60 002a 1360     		str	r3, [r2]
 262:Generated_Source\PSoC4/serial_UART.c ****         serial_TX_FIFO_CTRL_REG = serial_UART_DEFAULT_TX_FIFO_CTRL;
  61              		.loc 1 262 0
  62 002c 1A4B     		ldr	r3, .L2+40
  63 002e 1C60     		str	r4, [r3]
 263:Generated_Source\PSoC4/serial_UART.c **** 
 264:Generated_Source\PSoC4/serial_UART.c ****     #if !(serial_CY_SCBIP_V0 || serial_CY_SCBIP_V1)
 265:Generated_Source\PSoC4/serial_UART.c ****         serial_UART_FLOW_CTRL_REG = serial_UART_DEFAULT_FLOW_CTRL;
 266:Generated_Source\PSoC4/serial_UART.c ****     #endif /* !(serial_CY_SCBIP_V0 || serial_CY_SCBIP_V1) */
 267:Generated_Source\PSoC4/serial_UART.c **** 
 268:Generated_Source\PSoC4/serial_UART.c ****         /* Configure interrupt with UART handler but do not enable it */
 269:Generated_Source\PSoC4/serial_UART.c ****     #if(serial_SCB_IRQ_INTERNAL)
 270:Generated_Source\PSoC4/serial_UART.c ****         CyIntDisable    (serial_ISR_NUMBER);
  64              		.loc 1 270 0
  65 0030 0430     		add	r0, r0, #4
  66 0032 FFF7FEFF 		bl	CyIntDisable
  67              	.LVL0:
 271:Generated_Source\PSoC4/serial_UART.c ****         CyIntSetPriority(serial_ISR_NUMBER, serial_ISR_PRIORITY);
  68              		.loc 1 271 0
  69 0036 0B20     		mov	r0, #11
  70 0038 0321     		mov	r1, #3
  71 003a FFF7FEFF 		bl	CyIntSetPriority
ARM GAS  C:\Users\a85495\AppData\Local\Temp\ccVE0w01.s 			page 7


  72              	.LVL1:
 272:Generated_Source\PSoC4/serial_UART.c ****         (void) CyIntSetVector(serial_ISR_NUMBER, &serial_SPI_UART_ISR);
  73              		.loc 1 272 0
  74 003e 0B20     		mov	r0, #11
  75 0040 1649     		ldr	r1, .L2+44
  76 0042 FFF7FEFF 		bl	CyIntSetVector
  77              	.LVL2:
 273:Generated_Source\PSoC4/serial_UART.c ****     #endif /* (serial_SCB_IRQ_INTERNAL) */
 274:Generated_Source\PSoC4/serial_UART.c **** 
 275:Generated_Source\PSoC4/serial_UART.c ****         /* Configure WAKE interrupt */
 276:Generated_Source\PSoC4/serial_UART.c ****     #if(serial_UART_RX_WAKEUP_IRQ)
 277:Generated_Source\PSoC4/serial_UART.c ****         CyIntDisable    (serial_RX_WAKE_ISR_NUMBER);
 278:Generated_Source\PSoC4/serial_UART.c ****         CyIntSetPriority(serial_RX_WAKE_ISR_NUMBER, serial_RX_WAKE_ISR_PRIORITY);
 279:Generated_Source\PSoC4/serial_UART.c ****         (void) CyIntSetVector(serial_RX_WAKE_ISR_NUMBER, &serial_UART_WAKEUP_ISR);
 280:Generated_Source\PSoC4/serial_UART.c ****     #endif /* (serial_UART_RX_WAKEUP_IRQ) */
 281:Generated_Source\PSoC4/serial_UART.c **** 
 282:Generated_Source\PSoC4/serial_UART.c ****         /* Configure interrupt sources */
 283:Generated_Source\PSoC4/serial_UART.c ****         serial_INTR_I2C_EC_MASK_REG = serial_UART_DEFAULT_INTR_I2C_EC_MASK;
  78              		.loc 1 283 0
  79 0046 164B     		ldr	r3, .L2+48
  80 0048 1C60     		str	r4, [r3]
 284:Generated_Source\PSoC4/serial_UART.c ****         serial_INTR_SPI_EC_MASK_REG = serial_UART_DEFAULT_INTR_SPI_EC_MASK;
  81              		.loc 1 284 0
  82 004a 164B     		ldr	r3, .L2+52
  83 004c 1C60     		str	r4, [r3]
 285:Generated_Source\PSoC4/serial_UART.c ****         serial_INTR_SLAVE_MASK_REG  = serial_UART_DEFAULT_INTR_SLAVE_MASK;
  84              		.loc 1 285 0
  85 004e 164B     		ldr	r3, .L2+56
  86 0050 1C60     		str	r4, [r3]
 286:Generated_Source\PSoC4/serial_UART.c ****         serial_INTR_MASTER_MASK_REG = serial_UART_DEFAULT_INTR_MASTER_MASK;
  87              		.loc 1 286 0
  88 0052 164B     		ldr	r3, .L2+60
  89 0054 1C60     		str	r4, [r3]
 287:Generated_Source\PSoC4/serial_UART.c ****         serial_INTR_RX_MASK_REG     = serial_UART_DEFAULT_INTR_RX_MASK;
  90              		.loc 1 287 0
  91 0056 164B     		ldr	r3, .L2+64
  92 0058 1C60     		str	r4, [r3]
 288:Generated_Source\PSoC4/serial_UART.c ****         serial_INTR_TX_MASK_REG     = serial_UART_DEFAULT_INTR_TX_MASK;
  93              		.loc 1 288 0
  94 005a 164B     		ldr	r3, .L2+68
  95 005c 1C60     		str	r4, [r3]
 289:Generated_Source\PSoC4/serial_UART.c ****     
 290:Generated_Source\PSoC4/serial_UART.c ****         /* Configure TX interrupt sources to restore. */
 291:Generated_Source\PSoC4/serial_UART.c ****         serial_IntrTxMask = LO16(serial_INTR_TX_MASK_REG);
  96              		.loc 1 291 0
  97 005e 1A68     		ldr	r2, [r3]
  98 0060 154B     		ldr	r3, .L2+72
  99 0062 1A80     		strh	r2, [r3]
 292:Generated_Source\PSoC4/serial_UART.c **** 
 293:Generated_Source\PSoC4/serial_UART.c ****     #if(serial_INTERNAL_RX_SW_BUFFER_CONST)
 294:Generated_Source\PSoC4/serial_UART.c ****         serial_rxBufferHead     = 0u;
 295:Generated_Source\PSoC4/serial_UART.c ****         serial_rxBufferTail     = 0u;
 296:Generated_Source\PSoC4/serial_UART.c ****         serial_rxBufferOverflow = 0u;
 297:Generated_Source\PSoC4/serial_UART.c ****     #endif /* (serial_INTERNAL_RX_SW_BUFFER_CONST) */
 298:Generated_Source\PSoC4/serial_UART.c **** 
 299:Generated_Source\PSoC4/serial_UART.c ****     #if(serial_INTERNAL_TX_SW_BUFFER_CONST)
 300:Generated_Source\PSoC4/serial_UART.c ****         serial_txBufferHead = 0u;
ARM GAS  C:\Users\a85495\AppData\Local\Temp\ccVE0w01.s 			page 8


 100              		.loc 1 300 0
 101 0064 154B     		ldr	r3, .L2+76
 102 0066 1C60     		str	r4, [r3]
 301:Generated_Source\PSoC4/serial_UART.c ****         serial_txBufferTail = 0u;
 103              		.loc 1 301 0
 104 0068 154B     		ldr	r3, .L2+80
 105 006a 1C60     		str	r4, [r3]
 302:Generated_Source\PSoC4/serial_UART.c ****     #endif /* (serial_INTERNAL_TX_SW_BUFFER_CONST) */
 303:Generated_Source\PSoC4/serial_UART.c ****     }
 106              		.loc 1 303 0
 107              		@ sp needed
 108 006c 10BD     		pop	{r4, pc}
 109              	.L3:
 110 006e C046     		.align	2
 111              	.L2:
 112 0070 0B000002 		.word	33554443
 113 0074 00000740 		.word	1074200576
 114 0078 40000740 		.word	1074200640
 115 007c 48000740 		.word	1074200648
 116 0080 07000080 		.word	-2147483641
 117 0084 00030740 		.word	1074201344
 118 0088 04030740 		.word	1074201348
 119 008c 10030740 		.word	1074201360
 120 0090 44000740 		.word	1074200644
 121 0094 00020740 		.word	1074201088
 122 0098 04020740 		.word	1074201092
 123 009c 00000000 		.word	serial_SPI_UART_ISR
 124 00a0 880E0740 		.word	1074204296
 125 00a4 C80E0740 		.word	1074204360
 126 00a8 480F0740 		.word	1074204488
 127 00ac 080F0740 		.word	1074204424
 128 00b0 C80F0740 		.word	1074204616
 129 00b4 880F0740 		.word	1074204552
 130 00b8 00000000 		.word	serial_IntrTxMask
 131 00bc 00000000 		.word	serial_txBufferHead
 132 00c0 00000000 		.word	serial_txBufferTail
 133              		.cfi_endproc
 134              	.LFE0:
 135              		.size	serial_UartInit, .-serial_UartInit
 136              		.section	.text.serial_UartPostEnable,"ax",%progbits
 137              		.align	2
 138              		.global	serial_UartPostEnable
 139              		.code	16
 140              		.thumb_func
 141              		.type	serial_UartPostEnable, %function
 142              	serial_UartPostEnable:
 143              	.LFB1:
 304:Generated_Source\PSoC4/serial_UART.c **** #endif /* (serial_SCB_MODE_UNCONFIG_CONST_CFG) */
 305:Generated_Source\PSoC4/serial_UART.c **** 
 306:Generated_Source\PSoC4/serial_UART.c **** 
 307:Generated_Source\PSoC4/serial_UART.c **** /*******************************************************************************
 308:Generated_Source\PSoC4/serial_UART.c **** * Function Name: serial_UartPostEnable
 309:Generated_Source\PSoC4/serial_UART.c **** ****************************************************************************//**
 310:Generated_Source\PSoC4/serial_UART.c **** *
 311:Generated_Source\PSoC4/serial_UART.c **** *  Restores HSIOM settings for the UART output pins (TX and/or RTS) to be
 312:Generated_Source\PSoC4/serial_UART.c **** *  controlled by the SCB UART.
 313:Generated_Source\PSoC4/serial_UART.c **** *
ARM GAS  C:\Users\a85495\AppData\Local\Temp\ccVE0w01.s 			page 9


 314:Generated_Source\PSoC4/serial_UART.c **** *******************************************************************************/
 315:Generated_Source\PSoC4/serial_UART.c **** void serial_UartPostEnable(void)
 316:Generated_Source\PSoC4/serial_UART.c **** {
 144              		.loc 1 316 0
 145              		.cfi_startproc
 317:Generated_Source\PSoC4/serial_UART.c **** #if (serial_SCB_MODE_UNCONFIG_CONST_CFG)
 318:Generated_Source\PSoC4/serial_UART.c ****     #if (serial_TX_SDA_MISO_PIN)
 319:Generated_Source\PSoC4/serial_UART.c ****         if (serial_CHECK_TX_SDA_MISO_PIN_USED)
 320:Generated_Source\PSoC4/serial_UART.c ****         {
 321:Generated_Source\PSoC4/serial_UART.c ****             /* Set SCB UART to drive the output pin */
 322:Generated_Source\PSoC4/serial_UART.c ****             serial_SET_HSIOM_SEL(serial_TX_SDA_MISO_HSIOM_REG, serial_TX_SDA_MISO_HSIOM_MASK,
 323:Generated_Source\PSoC4/serial_UART.c ****                                            serial_TX_SDA_MISO_HSIOM_POS, serial_TX_SDA_MISO_HSIOM_S
 324:Generated_Source\PSoC4/serial_UART.c ****         }
 325:Generated_Source\PSoC4/serial_UART.c ****     #endif /* (serial_TX_SDA_MISO_PIN_PIN) */
 326:Generated_Source\PSoC4/serial_UART.c **** 
 327:Generated_Source\PSoC4/serial_UART.c ****     #if !(serial_CY_SCBIP_V0 || serial_CY_SCBIP_V1)
 328:Generated_Source\PSoC4/serial_UART.c ****         #if (serial_SS0_PIN)
 329:Generated_Source\PSoC4/serial_UART.c ****             if (serial_CHECK_SS0_PIN_USED)
 330:Generated_Source\PSoC4/serial_UART.c ****             {
 331:Generated_Source\PSoC4/serial_UART.c ****                 /* Set SCB UART to drive the output pin */
 332:Generated_Source\PSoC4/serial_UART.c ****                 serial_SET_HSIOM_SEL(serial_SS0_HSIOM_REG, serial_SS0_HSIOM_MASK,
 333:Generated_Source\PSoC4/serial_UART.c ****                                                serial_SS0_HSIOM_POS, serial_SS0_HSIOM_SEL_UART);
 334:Generated_Source\PSoC4/serial_UART.c ****             }
 335:Generated_Source\PSoC4/serial_UART.c ****         #endif /* (serial_SS0_PIN) */
 336:Generated_Source\PSoC4/serial_UART.c ****     #endif /* !(serial_CY_SCBIP_V0 || serial_CY_SCBIP_V1) */
 337:Generated_Source\PSoC4/serial_UART.c **** 
 338:Generated_Source\PSoC4/serial_UART.c **** #else
 339:Generated_Source\PSoC4/serial_UART.c ****     #if (serial_UART_TX_PIN)
 340:Generated_Source\PSoC4/serial_UART.c ****          /* Set SCB UART to drive the output pin */
 341:Generated_Source\PSoC4/serial_UART.c ****         serial_SET_HSIOM_SEL(serial_TX_HSIOM_REG, serial_TX_HSIOM_MASK,
 146              		.loc 1 341 0
 147 0000 064A     		ldr	r2, .L5
 148 0002 1168     		ldr	r1, [r2]
 149 0004 064B     		ldr	r3, .L5+4
 150 0006 0B40     		and	r3, r1
 151 0008 9021     		mov	r1, #144
 152 000a 0904     		lsl	r1, r1, #16
 153 000c 0B43     		orr	r3, r1
 154 000e 1360     		str	r3, [r2]
 342:Generated_Source\PSoC4/serial_UART.c ****                                        serial_TX_HSIOM_POS, serial_TX_HSIOM_SEL_UART);
 343:Generated_Source\PSoC4/serial_UART.c ****     #endif /* (serial_UART_TX_PIN) */
 344:Generated_Source\PSoC4/serial_UART.c **** 
 345:Generated_Source\PSoC4/serial_UART.c ****     #if (serial_UART_RTS_PIN)
 346:Generated_Source\PSoC4/serial_UART.c ****         /* Set SCB UART to drive the output pin */
 347:Generated_Source\PSoC4/serial_UART.c ****         serial_SET_HSIOM_SEL(serial_RTS_HSIOM_REG, serial_RTS_HSIOM_MASK,
 348:Generated_Source\PSoC4/serial_UART.c ****                                        serial_RTS_HSIOM_POS, serial_RTS_HSIOM_SEL_UART);
 349:Generated_Source\PSoC4/serial_UART.c ****     #endif /* (serial_UART_RTS_PIN) */
 350:Generated_Source\PSoC4/serial_UART.c **** #endif /* (serial_SCB_MODE_UNCONFIG_CONST_CFG) */
 351:Generated_Source\PSoC4/serial_UART.c **** 
 352:Generated_Source\PSoC4/serial_UART.c ****     /* Restore TX interrupt sources. */
 353:Generated_Source\PSoC4/serial_UART.c ****     serial_SetTxInterruptMode(serial_IntrTxMask);
 155              		.loc 1 353 0
 156 0010 044B     		ldr	r3, .L5+8
 157 0012 1A88     		ldrh	r2, [r3]
 158 0014 044B     		ldr	r3, .L5+12
 159 0016 1A60     		str	r2, [r3]
 354:Generated_Source\PSoC4/serial_UART.c **** }
ARM GAS  C:\Users\a85495\AppData\Local\Temp\ccVE0w01.s 			page 10


 160              		.loc 1 354 0
 161              		@ sp needed
 162 0018 7047     		bx	lr
 163              	.L6:
 164 001a C046     		.align	2
 165              	.L5:
 166 001c 00000140 		.word	1073807360
 167 0020 FFFF0FFF 		.word	-15728641
 168 0024 00000000 		.word	serial_IntrTxMask
 169 0028 880F0740 		.word	1074204552
 170              		.cfi_endproc
 171              	.LFE1:
 172              		.size	serial_UartPostEnable, .-serial_UartPostEnable
 173              		.section	.text.serial_UartStop,"ax",%progbits
 174              		.align	2
 175              		.global	serial_UartStop
 176              		.code	16
 177              		.thumb_func
 178              		.type	serial_UartStop, %function
 179              	serial_UartStop:
 180              	.LFB2:
 355:Generated_Source\PSoC4/serial_UART.c **** 
 356:Generated_Source\PSoC4/serial_UART.c **** 
 357:Generated_Source\PSoC4/serial_UART.c **** /*******************************************************************************
 358:Generated_Source\PSoC4/serial_UART.c **** * Function Name: serial_UartStop
 359:Generated_Source\PSoC4/serial_UART.c **** ****************************************************************************//**
 360:Generated_Source\PSoC4/serial_UART.c **** *
 361:Generated_Source\PSoC4/serial_UART.c **** *  Changes the HSIOM settings for the UART output pins (TX and/or RTS) to keep
 362:Generated_Source\PSoC4/serial_UART.c **** *  them inactive after the block is disabled. The output pins are controlled by
 363:Generated_Source\PSoC4/serial_UART.c **** *  the GPIO data register. Also, the function disables the skip start feature
 364:Generated_Source\PSoC4/serial_UART.c **** *  to not cause it to trigger after the component is enabled.
 365:Generated_Source\PSoC4/serial_UART.c **** *
 366:Generated_Source\PSoC4/serial_UART.c **** *******************************************************************************/
 367:Generated_Source\PSoC4/serial_UART.c **** void serial_UartStop(void)
 368:Generated_Source\PSoC4/serial_UART.c **** {
 181              		.loc 1 368 0
 182              		.cfi_startproc
 369:Generated_Source\PSoC4/serial_UART.c **** #if(serial_SCB_MODE_UNCONFIG_CONST_CFG)
 370:Generated_Source\PSoC4/serial_UART.c ****     #if (serial_TX_SDA_MISO_PIN)
 371:Generated_Source\PSoC4/serial_UART.c ****         if (serial_CHECK_TX_SDA_MISO_PIN_USED)
 372:Generated_Source\PSoC4/serial_UART.c ****         {
 373:Generated_Source\PSoC4/serial_UART.c ****             /* Set GPIO to drive output pin */
 374:Generated_Source\PSoC4/serial_UART.c ****             serial_SET_HSIOM_SEL(serial_TX_SDA_MISO_HSIOM_REG, serial_TX_SDA_MISO_HSIOM_MASK,
 375:Generated_Source\PSoC4/serial_UART.c ****                                            serial_TX_SDA_MISO_HSIOM_POS, serial_TX_SDA_MISO_HSIOM_S
 376:Generated_Source\PSoC4/serial_UART.c ****         }
 377:Generated_Source\PSoC4/serial_UART.c ****     #endif /* (serial_TX_SDA_MISO_PIN_PIN) */
 378:Generated_Source\PSoC4/serial_UART.c **** 
 379:Generated_Source\PSoC4/serial_UART.c ****     #if !(serial_CY_SCBIP_V0 || serial_CY_SCBIP_V1)
 380:Generated_Source\PSoC4/serial_UART.c ****         #if (serial_SS0_PIN)
 381:Generated_Source\PSoC4/serial_UART.c ****             if (serial_CHECK_SS0_PIN_USED)
 382:Generated_Source\PSoC4/serial_UART.c ****             {
 383:Generated_Source\PSoC4/serial_UART.c ****                 /* Set output pin state after block is disabled */
 384:Generated_Source\PSoC4/serial_UART.c ****                 serial_spi_ss0_Write(serial_GET_UART_RTS_INACTIVE);
 385:Generated_Source\PSoC4/serial_UART.c **** 
 386:Generated_Source\PSoC4/serial_UART.c ****                 /* Set GPIO to drive output pin */
 387:Generated_Source\PSoC4/serial_UART.c ****                 serial_SET_HSIOM_SEL(serial_SS0_HSIOM_REG, serial_SS0_HSIOM_MASK,
 388:Generated_Source\PSoC4/serial_UART.c ****                                                serial_SS0_HSIOM_POS, serial_SS0_HSIOM_SEL_GPIO);
ARM GAS  C:\Users\a85495\AppData\Local\Temp\ccVE0w01.s 			page 11


 389:Generated_Source\PSoC4/serial_UART.c ****             }
 390:Generated_Source\PSoC4/serial_UART.c ****         #endif /* (serial_SS0_PIN) */
 391:Generated_Source\PSoC4/serial_UART.c ****     #endif /* !(serial_CY_SCBIP_V0 || serial_CY_SCBIP_V1) */
 392:Generated_Source\PSoC4/serial_UART.c **** 
 393:Generated_Source\PSoC4/serial_UART.c **** #else
 394:Generated_Source\PSoC4/serial_UART.c ****     #if (serial_UART_TX_PIN)
 395:Generated_Source\PSoC4/serial_UART.c ****         /* Set GPIO to drive output pin */
 396:Generated_Source\PSoC4/serial_UART.c ****         serial_SET_HSIOM_SEL(serial_TX_HSIOM_REG, serial_TX_HSIOM_MASK,
 183              		.loc 1 396 0
 184 0000 064A     		ldr	r2, .L8
 185 0002 1168     		ldr	r1, [r2]
 186 0004 064B     		ldr	r3, .L8+4
 187 0006 0B40     		and	r3, r1
 188 0008 1360     		str	r3, [r2]
 397:Generated_Source\PSoC4/serial_UART.c ****                                        serial_TX_HSIOM_POS, serial_TX_HSIOM_SEL_GPIO);
 398:Generated_Source\PSoC4/serial_UART.c ****     #endif /* (serial_UART_TX_PIN) */
 399:Generated_Source\PSoC4/serial_UART.c **** 
 400:Generated_Source\PSoC4/serial_UART.c ****     #if (serial_UART_RTS_PIN)
 401:Generated_Source\PSoC4/serial_UART.c ****         /* Set output pin state after block is disabled */
 402:Generated_Source\PSoC4/serial_UART.c ****         serial_rts_Write(serial_GET_UART_RTS_INACTIVE);
 403:Generated_Source\PSoC4/serial_UART.c **** 
 404:Generated_Source\PSoC4/serial_UART.c ****         /* Set GPIO to drive output pin */
 405:Generated_Source\PSoC4/serial_UART.c ****         serial_SET_HSIOM_SEL(serial_RTS_HSIOM_REG, serial_RTS_HSIOM_MASK,
 406:Generated_Source\PSoC4/serial_UART.c ****                                        serial_RTS_HSIOM_POS, serial_RTS_HSIOM_SEL_GPIO);
 407:Generated_Source\PSoC4/serial_UART.c ****     #endif /* (serial_UART_RTS_PIN) */
 408:Generated_Source\PSoC4/serial_UART.c **** 
 409:Generated_Source\PSoC4/serial_UART.c **** #endif /* (serial_SCB_MODE_UNCONFIG_CONST_CFG) */
 410:Generated_Source\PSoC4/serial_UART.c **** 
 411:Generated_Source\PSoC4/serial_UART.c **** #if (serial_UART_WAKE_ENABLE_CONST)
 412:Generated_Source\PSoC4/serial_UART.c ****     /* Disable skip start feature used for wakeup */
 413:Generated_Source\PSoC4/serial_UART.c ****     serial_UART_RX_CTRL_REG &= (uint32) ~serial_UART_RX_CTRL_SKIP_START;
 414:Generated_Source\PSoC4/serial_UART.c **** #endif /* (serial_UART_WAKE_ENABLE_CONST) */
 415:Generated_Source\PSoC4/serial_UART.c **** 
 416:Generated_Source\PSoC4/serial_UART.c ****     /* Store TX interrupt sources (exclude level triggered). */
 417:Generated_Source\PSoC4/serial_UART.c ****     serial_IntrTxMask = LO16(serial_GetTxInterruptMode() & serial_INTR_UART_TX_RESTORE);
 189              		.loc 1 417 0
 190 000a 064B     		ldr	r3, .L8+8
 191 000c 1A68     		ldr	r2, [r3]
 192 000e E423     		mov	r3, #228
 193 0010 DB00     		lsl	r3, r3, #3
 194 0012 1340     		and	r3, r2
 195 0014 044A     		ldr	r2, .L8+12
 196 0016 1380     		strh	r3, [r2]
 418:Generated_Source\PSoC4/serial_UART.c **** }
 197              		.loc 1 418 0
 198              		@ sp needed
 199 0018 7047     		bx	lr
 200              	.L9:
 201 001a C046     		.align	2
 202              	.L8:
 203 001c 00000140 		.word	1073807360
 204 0020 FFFF0FFF 		.word	-15728641
 205 0024 880F0740 		.word	1074204552
 206 0028 00000000 		.word	serial_IntrTxMask
 207              		.cfi_endproc
 208              	.LFE2:
 209              		.size	serial_UartStop, .-serial_UartStop
ARM GAS  C:\Users\a85495\AppData\Local\Temp\ccVE0w01.s 			page 12


 210              		.section	.text.serial_UartSetRxAddress,"ax",%progbits
 211              		.align	2
 212              		.global	serial_UartSetRxAddress
 213              		.code	16
 214              		.thumb_func
 215              		.type	serial_UartSetRxAddress, %function
 216              	serial_UartSetRxAddress:
 217              	.LFB3:
 419:Generated_Source\PSoC4/serial_UART.c **** 
 420:Generated_Source\PSoC4/serial_UART.c **** 
 421:Generated_Source\PSoC4/serial_UART.c **** /*******************************************************************************
 422:Generated_Source\PSoC4/serial_UART.c **** * Function Name: serial_UartSetRxAddress
 423:Generated_Source\PSoC4/serial_UART.c **** ****************************************************************************//**
 424:Generated_Source\PSoC4/serial_UART.c **** *
 425:Generated_Source\PSoC4/serial_UART.c **** *  Sets the hardware detectable receiver address for the UART in the
 426:Generated_Source\PSoC4/serial_UART.c **** *  Multiprocessor mode.
 427:Generated_Source\PSoC4/serial_UART.c **** *
 428:Generated_Source\PSoC4/serial_UART.c **** *  \param address: Address for hardware address detection.
 429:Generated_Source\PSoC4/serial_UART.c **** *
 430:Generated_Source\PSoC4/serial_UART.c **** *******************************************************************************/
 431:Generated_Source\PSoC4/serial_UART.c **** void serial_UartSetRxAddress(uint32 address)
 432:Generated_Source\PSoC4/serial_UART.c **** {
 218              		.loc 1 432 0
 219              		.cfi_startproc
 220              	.LVL3:
 433:Generated_Source\PSoC4/serial_UART.c ****      uint32 matchReg;
 434:Generated_Source\PSoC4/serial_UART.c **** 
 435:Generated_Source\PSoC4/serial_UART.c ****     matchReg = serial_RX_MATCH_REG;
 221              		.loc 1 435 0
 222 0000 034A     		ldr	r2, .L11
 223 0002 1368     		ldr	r3, [r2]
 224              	.LVL4:
 436:Generated_Source\PSoC4/serial_UART.c **** 
 437:Generated_Source\PSoC4/serial_UART.c ****     matchReg &= ((uint32) ~serial_RX_MATCH_ADDR_MASK); /* Clear address bits */
 225              		.loc 1 437 0
 226 0004 FF21     		mov	r1, #255
 227 0006 8B43     		bic	r3, r1
 228              	.LVL5:
 438:Generated_Source\PSoC4/serial_UART.c ****     matchReg |= ((uint32)  (address & serial_RX_MATCH_ADDR_MASK)); /* Set address  */
 229              		.loc 1 438 0
 230 0008 0840     		and	r0, r1
 231              	.LVL6:
 232 000a 1843     		orr	r0, r3
 233              	.LVL7:
 439:Generated_Source\PSoC4/serial_UART.c **** 
 440:Generated_Source\PSoC4/serial_UART.c ****     serial_RX_MATCH_REG = matchReg;
 234              		.loc 1 440 0
 235 000c 1060     		str	r0, [r2]
 441:Generated_Source\PSoC4/serial_UART.c **** }
 236              		.loc 1 441 0
 237              		@ sp needed
 238 000e 7047     		bx	lr
 239              	.L12:
 240              		.align	2
 241              	.L11:
 242 0010 10030740 		.word	1074201360
 243              		.cfi_endproc
ARM GAS  C:\Users\a85495\AppData\Local\Temp\ccVE0w01.s 			page 13


 244              	.LFE3:
 245              		.size	serial_UartSetRxAddress, .-serial_UartSetRxAddress
 246              		.section	.text.serial_UartSetRxAddressMask,"ax",%progbits
 247              		.align	2
 248              		.global	serial_UartSetRxAddressMask
 249              		.code	16
 250              		.thumb_func
 251              		.type	serial_UartSetRxAddressMask, %function
 252              	serial_UartSetRxAddressMask:
 253              	.LFB4:
 442:Generated_Source\PSoC4/serial_UART.c **** 
 443:Generated_Source\PSoC4/serial_UART.c **** 
 444:Generated_Source\PSoC4/serial_UART.c **** /*******************************************************************************
 445:Generated_Source\PSoC4/serial_UART.c **** * Function Name: serial_UartSetRxAddressMask
 446:Generated_Source\PSoC4/serial_UART.c **** ****************************************************************************//**
 447:Generated_Source\PSoC4/serial_UART.c **** *
 448:Generated_Source\PSoC4/serial_UART.c **** *  Sets the hardware address mask for the UART in the Multiprocessor mode.
 449:Generated_Source\PSoC4/serial_UART.c **** *
 450:Generated_Source\PSoC4/serial_UART.c **** *  \param addressMask: Address mask.
 451:Generated_Source\PSoC4/serial_UART.c **** *   - Bit value 0 – excludes bit from address comparison.
 452:Generated_Source\PSoC4/serial_UART.c **** *   - Bit value 1 – the bit needs to match with the corresponding bit
 453:Generated_Source\PSoC4/serial_UART.c **** *     of the address.
 454:Generated_Source\PSoC4/serial_UART.c **** *
 455:Generated_Source\PSoC4/serial_UART.c **** *******************************************************************************/
 456:Generated_Source\PSoC4/serial_UART.c **** void serial_UartSetRxAddressMask(uint32 addressMask)
 457:Generated_Source\PSoC4/serial_UART.c **** {
 254              		.loc 1 457 0
 255              		.cfi_startproc
 256              	.LVL8:
 458:Generated_Source\PSoC4/serial_UART.c ****     uint32 matchReg;
 459:Generated_Source\PSoC4/serial_UART.c **** 
 460:Generated_Source\PSoC4/serial_UART.c ****     matchReg = serial_RX_MATCH_REG;
 257              		.loc 1 460 0
 258 0000 034A     		ldr	r2, .L14
 259 0002 1168     		ldr	r1, [r2]
 260              	.LVL9:
 461:Generated_Source\PSoC4/serial_UART.c **** 
 462:Generated_Source\PSoC4/serial_UART.c ****     matchReg &= ((uint32) ~serial_RX_MATCH_MASK_MASK); /* Clear address mask bits */
 261              		.loc 1 462 0
 262 0004 034B     		ldr	r3, .L14+4
 263 0006 0B40     		and	r3, r1
 264              	.LVL10:
 463:Generated_Source\PSoC4/serial_UART.c ****     matchReg |= ((uint32) (addressMask << serial_RX_MATCH_MASK_POS));
 265              		.loc 1 463 0
 266 0008 0004     		lsl	r0, r0, #16
 267              	.LVL11:
 268 000a 1843     		orr	r0, r3
 269              	.LVL12:
 464:Generated_Source\PSoC4/serial_UART.c **** 
 465:Generated_Source\PSoC4/serial_UART.c ****     serial_RX_MATCH_REG = matchReg;
 270              		.loc 1 465 0
 271 000c 1060     		str	r0, [r2]
 466:Generated_Source\PSoC4/serial_UART.c **** }
 272              		.loc 1 466 0
 273              		@ sp needed
 274 000e 7047     		bx	lr
 275              	.L15:
ARM GAS  C:\Users\a85495\AppData\Local\Temp\ccVE0w01.s 			page 14


 276              		.align	2
 277              	.L14:
 278 0010 10030740 		.word	1074201360
 279 0014 FFFF00FF 		.word	-16711681
 280              		.cfi_endproc
 281              	.LFE4:
 282              		.size	serial_UartSetRxAddressMask, .-serial_UartSetRxAddressMask
 283              		.section	.text.serial_UartGetChar,"ax",%progbits
 284              		.align	2
 285              		.global	serial_UartGetChar
 286              		.code	16
 287              		.thumb_func
 288              		.type	serial_UartGetChar, %function
 289              	serial_UartGetChar:
 290              	.LFB5:
 467:Generated_Source\PSoC4/serial_UART.c **** 
 468:Generated_Source\PSoC4/serial_UART.c **** 
 469:Generated_Source\PSoC4/serial_UART.c **** #if(serial_UART_RX_DIRECTION)
 470:Generated_Source\PSoC4/serial_UART.c ****     /*******************************************************************************
 471:Generated_Source\PSoC4/serial_UART.c ****     * Function Name: serial_UartGetChar
 472:Generated_Source\PSoC4/serial_UART.c ****     ****************************************************************************//**
 473:Generated_Source\PSoC4/serial_UART.c ****     *
 474:Generated_Source\PSoC4/serial_UART.c ****     *  Retrieves next data element from receive buffer.
 475:Generated_Source\PSoC4/serial_UART.c ****     *  This function is designed for ASCII characters and returns a char where
 476:Generated_Source\PSoC4/serial_UART.c ****     *  1 to 255 are valid characters and 0 indicates an error occurred or no data
 477:Generated_Source\PSoC4/serial_UART.c ****     *  is present.
 478:Generated_Source\PSoC4/serial_UART.c ****     *  - RX software buffer is disabled: Returns data element retrieved from RX
 479:Generated_Source\PSoC4/serial_UART.c ****     *    FIFO.
 480:Generated_Source\PSoC4/serial_UART.c ****     *  - RX software buffer is enabled: Returns data element from the software
 481:Generated_Source\PSoC4/serial_UART.c ****     *    receive buffer.
 482:Generated_Source\PSoC4/serial_UART.c ****     *
 483:Generated_Source\PSoC4/serial_UART.c ****     *  \return
 484:Generated_Source\PSoC4/serial_UART.c ****     *   Next data element from the receive buffer. ASCII character values from
 485:Generated_Source\PSoC4/serial_UART.c ****     *   1 to 255 are valid. A returned zero signifies an error condition or no
 486:Generated_Source\PSoC4/serial_UART.c ****     *   data available.
 487:Generated_Source\PSoC4/serial_UART.c ****     *
 488:Generated_Source\PSoC4/serial_UART.c ****     *  \sideeffect
 489:Generated_Source\PSoC4/serial_UART.c ****     *   The errors bits may not correspond with reading characters due to
 490:Generated_Source\PSoC4/serial_UART.c ****     *   RX FIFO and software buffer usage.
 491:Generated_Source\PSoC4/serial_UART.c ****     *   RX software buffer is enabled: The internal software buffer overflow
 492:Generated_Source\PSoC4/serial_UART.c ****     *   is not treated as an error condition.
 493:Generated_Source\PSoC4/serial_UART.c ****     *   Check serial_rxBufferOverflow to capture that error condition.
 494:Generated_Source\PSoC4/serial_UART.c ****     *
 495:Generated_Source\PSoC4/serial_UART.c ****     *******************************************************************************/
 496:Generated_Source\PSoC4/serial_UART.c ****     uint32 serial_UartGetChar(void)
 497:Generated_Source\PSoC4/serial_UART.c ****     {
 291              		.loc 1 497 0
 292              		.cfi_startproc
 293 0000 08B5     		push	{r3, lr}
 294              		.cfi_def_cfa_offset 8
 295              		.cfi_offset 3, -8
 296              		.cfi_offset 14, -4
 297              	.LVL13:
 498:Generated_Source\PSoC4/serial_UART.c ****         uint32 rxData = 0u;
 499:Generated_Source\PSoC4/serial_UART.c **** 
 500:Generated_Source\PSoC4/serial_UART.c ****         /* Reads data only if there is data to read */
 501:Generated_Source\PSoC4/serial_UART.c ****         if (0u != serial_SpiUartGetRxBufferSize())
ARM GAS  C:\Users\a85495\AppData\Local\Temp\ccVE0w01.s 			page 15


 298              		.loc 1 501 0
 299 0002 FFF7FEFF 		bl	serial_SpiUartGetRxBufferSize
 300              	.LVL14:
 301 0006 0028     		cmp	r0, #0
 302 0008 02D0     		beq	.L19
 502:Generated_Source\PSoC4/serial_UART.c ****         {
 503:Generated_Source\PSoC4/serial_UART.c ****             rxData = serial_SpiUartReadRxData();
 303              		.loc 1 503 0
 304 000a FFF7FEFF 		bl	serial_SpiUartReadRxData
 305              	.LVL15:
 306 000e 00E0     		b	.L17
 307              	.LVL16:
 308              	.L19:
 498:Generated_Source\PSoC4/serial_UART.c ****         uint32 rxData = 0u;
 309              		.loc 1 498 0
 310 0010 0020     		mov	r0, #0
 311              	.LVL17:
 312              	.L17:
 504:Generated_Source\PSoC4/serial_UART.c ****         }
 505:Generated_Source\PSoC4/serial_UART.c **** 
 506:Generated_Source\PSoC4/serial_UART.c ****         if (serial_CHECK_INTR_RX(serial_INTR_RX_ERR))
 313              		.loc 1 506 0
 314 0012 054B     		ldr	r3, .L20
 315 0014 1A68     		ldr	r2, [r3]
 316 0016 D823     		mov	r3, #216
 317 0018 9B00     		lsl	r3, r3, #2
 318 001a 1A42     		tst	r2, r3
 319 001c 03D0     		beq	.L18
 320              	.LVL18:
 507:Generated_Source\PSoC4/serial_UART.c ****         {
 508:Generated_Source\PSoC4/serial_UART.c ****             rxData = 0u; /* Error occurred: returns zero */
 509:Generated_Source\PSoC4/serial_UART.c ****             serial_ClearRxInterruptSource(serial_INTR_RX_ERR);
 321              		.loc 1 509 0
 322 001e 1A1C     		mov	r2, r3
 323 0020 014B     		ldr	r3, .L20
 324 0022 1A60     		str	r2, [r3]
 508:Generated_Source\PSoC4/serial_UART.c ****             serial_ClearRxInterruptSource(serial_INTR_RX_ERR);
 325              		.loc 1 508 0
 326 0024 0020     		mov	r0, #0
 327              	.LVL19:
 328              	.L18:
 510:Generated_Source\PSoC4/serial_UART.c ****         }
 511:Generated_Source\PSoC4/serial_UART.c **** 
 512:Generated_Source\PSoC4/serial_UART.c ****         return (rxData);
 513:Generated_Source\PSoC4/serial_UART.c ****     }
 329              		.loc 1 513 0
 330              		@ sp needed
 331 0026 08BD     		pop	{r3, pc}
 332              	.L21:
 333              		.align	2
 334              	.L20:
 335 0028 C00F0740 		.word	1074204608
 336              		.cfi_endproc
 337              	.LFE5:
 338              		.size	serial_UartGetChar, .-serial_UartGetChar
 339              		.section	.text.serial_UartGetByte,"ax",%progbits
 340              		.align	2
ARM GAS  C:\Users\a85495\AppData\Local\Temp\ccVE0w01.s 			page 16


 341              		.global	serial_UartGetByte
 342              		.code	16
 343              		.thumb_func
 344              		.type	serial_UartGetByte, %function
 345              	serial_UartGetByte:
 346              	.LFB6:
 514:Generated_Source\PSoC4/serial_UART.c **** 
 515:Generated_Source\PSoC4/serial_UART.c **** 
 516:Generated_Source\PSoC4/serial_UART.c ****     /*******************************************************************************
 517:Generated_Source\PSoC4/serial_UART.c ****     * Function Name: serial_UartGetByte
 518:Generated_Source\PSoC4/serial_UART.c ****     ****************************************************************************//**
 519:Generated_Source\PSoC4/serial_UART.c ****     *
 520:Generated_Source\PSoC4/serial_UART.c ****     *  Retrieves the next data element from the receive buffer, returns the
 521:Generated_Source\PSoC4/serial_UART.c ****     *  received byte and error condition.
 522:Generated_Source\PSoC4/serial_UART.c ****     *   - The RX software buffer is disabled: returns the data element retrieved
 523:Generated_Source\PSoC4/serial_UART.c ****     *     from the RX FIFO. Undefined data will be returned if the RX FIFO is
 524:Generated_Source\PSoC4/serial_UART.c ****     *     empty.
 525:Generated_Source\PSoC4/serial_UART.c ****     *   - The RX software buffer is enabled: returns data element from the
 526:Generated_Source\PSoC4/serial_UART.c ****     *     software receive buffer.
 527:Generated_Source\PSoC4/serial_UART.c ****     *
 528:Generated_Source\PSoC4/serial_UART.c ****     *  \return
 529:Generated_Source\PSoC4/serial_UART.c ****     *   Bits 7-0 contain the next data element from the receive buffer and
 530:Generated_Source\PSoC4/serial_UART.c ****     *   other bits contain the error condition.
 531:Generated_Source\PSoC4/serial_UART.c ****     *   - serial_UART_RX_OVERFLOW - Attempt to write to a full
 532:Generated_Source\PSoC4/serial_UART.c ****     *     receiver FIFO.
 533:Generated_Source\PSoC4/serial_UART.c ****     *   - serial_UART_RX_UNDERFLOW	Attempt to read from an empty
 534:Generated_Source\PSoC4/serial_UART.c ****     *     receiver FIFO.
 535:Generated_Source\PSoC4/serial_UART.c ****     *   - serial_UART_RX_FRAME_ERROR - UART framing error detected.
 536:Generated_Source\PSoC4/serial_UART.c ****     *   - serial_UART_RX_PARITY_ERROR - UART parity error detected.
 537:Generated_Source\PSoC4/serial_UART.c ****     *
 538:Generated_Source\PSoC4/serial_UART.c ****     *  \sideeffect
 539:Generated_Source\PSoC4/serial_UART.c ****     *   The errors bits may not correspond with reading characters due to
 540:Generated_Source\PSoC4/serial_UART.c ****     *   RX FIFO and software buffer usage.
 541:Generated_Source\PSoC4/serial_UART.c ****     *   RX software buffer is enabled: The internal software buffer overflow
 542:Generated_Source\PSoC4/serial_UART.c ****     *   is not treated as an error condition.
 543:Generated_Source\PSoC4/serial_UART.c ****     *   Check serial_rxBufferOverflow to capture that error condition.
 544:Generated_Source\PSoC4/serial_UART.c ****     *
 545:Generated_Source\PSoC4/serial_UART.c ****     *******************************************************************************/
 546:Generated_Source\PSoC4/serial_UART.c ****     uint32 serial_UartGetByte(void)
 547:Generated_Source\PSoC4/serial_UART.c ****     {
 347              		.loc 1 547 0
 348              		.cfi_startproc
 349 0000 08B5     		push	{r3, lr}
 350              		.cfi_def_cfa_offset 8
 351              		.cfi_offset 3, -8
 352              		.cfi_offset 14, -4
 548:Generated_Source\PSoC4/serial_UART.c ****         uint32 rxData;
 549:Generated_Source\PSoC4/serial_UART.c ****         uint32 tmpStatus;
 550:Generated_Source\PSoC4/serial_UART.c **** 
 551:Generated_Source\PSoC4/serial_UART.c ****         #if (serial_CHECK_RX_SW_BUFFER)
 552:Generated_Source\PSoC4/serial_UART.c ****         {
 553:Generated_Source\PSoC4/serial_UART.c ****             serial_DisableInt();
 554:Generated_Source\PSoC4/serial_UART.c ****         }
 555:Generated_Source\PSoC4/serial_UART.c ****         #endif
 556:Generated_Source\PSoC4/serial_UART.c **** 
 557:Generated_Source\PSoC4/serial_UART.c ****         if (0u != serial_SpiUartGetRxBufferSize())
 353              		.loc 1 557 0
ARM GAS  C:\Users\a85495\AppData\Local\Temp\ccVE0w01.s 			page 17


 354 0002 FFF7FEFF 		bl	serial_SpiUartGetRxBufferSize
 355              	.LVL20:
 356 0006 0028     		cmp	r0, #0
 357 0008 02D0     		beq	.L23
 558:Generated_Source\PSoC4/serial_UART.c ****         {
 559:Generated_Source\PSoC4/serial_UART.c ****             /* Enables interrupt to receive more bytes: at least one byte is in
 560:Generated_Source\PSoC4/serial_UART.c ****             * buffer.
 561:Generated_Source\PSoC4/serial_UART.c ****             */
 562:Generated_Source\PSoC4/serial_UART.c ****             #if (serial_CHECK_RX_SW_BUFFER)
 563:Generated_Source\PSoC4/serial_UART.c ****             {
 564:Generated_Source\PSoC4/serial_UART.c ****                 serial_EnableInt();
 565:Generated_Source\PSoC4/serial_UART.c ****             }
 566:Generated_Source\PSoC4/serial_UART.c ****             #endif
 567:Generated_Source\PSoC4/serial_UART.c **** 
 568:Generated_Source\PSoC4/serial_UART.c ****             /* Get received byte */
 569:Generated_Source\PSoC4/serial_UART.c ****             rxData = serial_SpiUartReadRxData();
 358              		.loc 1 569 0
 359 000a FFF7FEFF 		bl	serial_SpiUartReadRxData
 360              	.LVL21:
 361 000e 01E0     		b	.L24
 362              	.LVL22:
 363              	.L23:
 570:Generated_Source\PSoC4/serial_UART.c ****         }
 571:Generated_Source\PSoC4/serial_UART.c ****         else
 572:Generated_Source\PSoC4/serial_UART.c ****         {
 573:Generated_Source\PSoC4/serial_UART.c ****             /* Reads a byte directly from RX FIFO: underflow is raised in the
 574:Generated_Source\PSoC4/serial_UART.c ****             * case of empty. Otherwise the first received byte will be read.
 575:Generated_Source\PSoC4/serial_UART.c ****             */
 576:Generated_Source\PSoC4/serial_UART.c ****             rxData = serial_RX_FIFO_RD_REG;
 364              		.loc 1 576 0
 365 0010 054B     		ldr	r3, .L25
 366 0012 1868     		ldr	r0, [r3]
 367              	.LVL23:
 368              	.L24:
 577:Generated_Source\PSoC4/serial_UART.c **** 
 578:Generated_Source\PSoC4/serial_UART.c **** 
 579:Generated_Source\PSoC4/serial_UART.c ****             /* Enables interrupt to receive more bytes. */
 580:Generated_Source\PSoC4/serial_UART.c ****             #if (serial_CHECK_RX_SW_BUFFER)
 581:Generated_Source\PSoC4/serial_UART.c ****             {
 582:Generated_Source\PSoC4/serial_UART.c **** 
 583:Generated_Source\PSoC4/serial_UART.c ****                 /* The byte has been read from RX FIFO. Clear RX interrupt to
 584:Generated_Source\PSoC4/serial_UART.c ****                 * not involve interrupt handler when RX FIFO is empty.
 585:Generated_Source\PSoC4/serial_UART.c ****                 */
 586:Generated_Source\PSoC4/serial_UART.c ****                 serial_ClearRxInterruptSource(serial_INTR_RX_NOT_EMPTY);
 587:Generated_Source\PSoC4/serial_UART.c **** 
 588:Generated_Source\PSoC4/serial_UART.c ****                 serial_EnableInt();
 589:Generated_Source\PSoC4/serial_UART.c ****             }
 590:Generated_Source\PSoC4/serial_UART.c ****             #endif
 591:Generated_Source\PSoC4/serial_UART.c ****         }
 592:Generated_Source\PSoC4/serial_UART.c **** 
 593:Generated_Source\PSoC4/serial_UART.c ****         /* Get and clear RX error mask */
 594:Generated_Source\PSoC4/serial_UART.c ****         tmpStatus = (serial_GetRxInterruptSource() & serial_INTR_RX_ERR);
 369              		.loc 1 594 0
 370 0014 054A     		ldr	r2, .L25+4
 371 0016 1368     		ldr	r3, [r2]
 372 0018 D821     		mov	r1, #216
 373 001a 8900     		lsl	r1, r1, #2
ARM GAS  C:\Users\a85495\AppData\Local\Temp\ccVE0w01.s 			page 18


 374 001c 0B40     		and	r3, r1
 375              	.LVL24:
 595:Generated_Source\PSoC4/serial_UART.c ****         serial_ClearRxInterruptSource(serial_INTR_RX_ERR);
 376              		.loc 1 595 0
 377 001e 1160     		str	r1, [r2]
 596:Generated_Source\PSoC4/serial_UART.c **** 
 597:Generated_Source\PSoC4/serial_UART.c ****         /* Puts together data and error status:
 598:Generated_Source\PSoC4/serial_UART.c ****         * MP mode and accept address: 9th bit is set to notify mark.
 599:Generated_Source\PSoC4/serial_UART.c ****         */
 600:Generated_Source\PSoC4/serial_UART.c ****         rxData |= ((uint32) (tmpStatus << 8u));
 378              		.loc 1 600 0
 379 0020 1B02     		lsl	r3, r3, #8
 380              	.LVL25:
 381 0022 1843     		orr	r0, r3
 382              	.LVL26:
 601:Generated_Source\PSoC4/serial_UART.c **** 
 602:Generated_Source\PSoC4/serial_UART.c ****         return (rxData);
 603:Generated_Source\PSoC4/serial_UART.c ****     }
 383              		.loc 1 603 0
 384              		@ sp needed
 385 0024 08BD     		pop	{r3, pc}
 386              	.L26:
 387 0026 C046     		.align	2
 388              	.L25:
 389 0028 40030740 		.word	1074201408
 390 002c C00F0740 		.word	1074204608
 391              		.cfi_endproc
 392              	.LFE6:
 393              		.size	serial_UartGetByte, .-serial_UartGetByte
 394              		.section	.text.serial_UartPutString,"ax",%progbits
 395              		.align	2
 396              		.global	serial_UartPutString
 397              		.code	16
 398              		.thumb_func
 399              		.type	serial_UartPutString, %function
 400              	serial_UartPutString:
 401              	.LFB7:
 604:Generated_Source\PSoC4/serial_UART.c **** 
 605:Generated_Source\PSoC4/serial_UART.c **** 
 606:Generated_Source\PSoC4/serial_UART.c ****     #if !(serial_CY_SCBIP_V0 || serial_CY_SCBIP_V1)
 607:Generated_Source\PSoC4/serial_UART.c ****         /*******************************************************************************
 608:Generated_Source\PSoC4/serial_UART.c ****         * Function Name: serial_UartSetRtsPolarity
 609:Generated_Source\PSoC4/serial_UART.c ****         ****************************************************************************//**
 610:Generated_Source\PSoC4/serial_UART.c ****         *
 611:Generated_Source\PSoC4/serial_UART.c ****         *  Sets active polarity of RTS output signal.
 612:Generated_Source\PSoC4/serial_UART.c ****         *  Only available for PSoC 4100 BLE / PSoC 4200 BLE / PSoC 4100M / PSoC 4200M /
 613:Generated_Source\PSoC4/serial_UART.c ****         *  PSoC 4200L / PSoC 4000S / PSoC 4100S / PSoC Analog Coprocessor devices.
 614:Generated_Source\PSoC4/serial_UART.c ****         *
 615:Generated_Source\PSoC4/serial_UART.c ****         *  \param polarity: Active polarity of RTS output signal.
 616:Generated_Source\PSoC4/serial_UART.c ****         *   - serial_UART_RTS_ACTIVE_LOW  - RTS signal is active low.
 617:Generated_Source\PSoC4/serial_UART.c ****         *   - serial_UART_RTS_ACTIVE_HIGH - RTS signal is active high.
 618:Generated_Source\PSoC4/serial_UART.c ****         *
 619:Generated_Source\PSoC4/serial_UART.c ****         *******************************************************************************/
 620:Generated_Source\PSoC4/serial_UART.c ****         void serial_UartSetRtsPolarity(uint32 polarity)
 621:Generated_Source\PSoC4/serial_UART.c ****         {
 622:Generated_Source\PSoC4/serial_UART.c ****             if(0u != polarity)
 623:Generated_Source\PSoC4/serial_UART.c ****             {
ARM GAS  C:\Users\a85495\AppData\Local\Temp\ccVE0w01.s 			page 19


 624:Generated_Source\PSoC4/serial_UART.c ****                 serial_UART_FLOW_CTRL_REG |= (uint32)  serial_UART_FLOW_CTRL_RTS_POLARITY;
 625:Generated_Source\PSoC4/serial_UART.c ****             }
 626:Generated_Source\PSoC4/serial_UART.c ****             else
 627:Generated_Source\PSoC4/serial_UART.c ****             {
 628:Generated_Source\PSoC4/serial_UART.c ****                 serial_UART_FLOW_CTRL_REG &= (uint32) ~serial_UART_FLOW_CTRL_RTS_POLARITY;
 629:Generated_Source\PSoC4/serial_UART.c ****             }
 630:Generated_Source\PSoC4/serial_UART.c ****         }
 631:Generated_Source\PSoC4/serial_UART.c **** 
 632:Generated_Source\PSoC4/serial_UART.c **** 
 633:Generated_Source\PSoC4/serial_UART.c ****         /*******************************************************************************
 634:Generated_Source\PSoC4/serial_UART.c ****         * Function Name: serial_UartSetRtsFifoLevel
 635:Generated_Source\PSoC4/serial_UART.c ****         ****************************************************************************//**
 636:Generated_Source\PSoC4/serial_UART.c ****         *
 637:Generated_Source\PSoC4/serial_UART.c ****         *  Sets level in the RX FIFO for RTS signal activation.
 638:Generated_Source\PSoC4/serial_UART.c ****         *  While the RX FIFO has fewer entries than the RX FIFO level the RTS signal
 639:Generated_Source\PSoC4/serial_UART.c ****         *  remains active, otherwise the RTS signal becomes inactive.
 640:Generated_Source\PSoC4/serial_UART.c ****         *  Only available for PSoC 4100 BLE / PSoC 4200 BLE / PSoC 4100M / PSoC 4200M /
 641:Generated_Source\PSoC4/serial_UART.c ****         *  PSoC 4200L / PSoC 4000S / PSoC 4100S / PSoC Analog Coprocessor devices.
 642:Generated_Source\PSoC4/serial_UART.c ****         *
 643:Generated_Source\PSoC4/serial_UART.c ****         *  \param level: Level in the RX FIFO for RTS signal activation.
 644:Generated_Source\PSoC4/serial_UART.c ****         *   The range of valid level values is between 0 and RX FIFO depth - 1.
 645:Generated_Source\PSoC4/serial_UART.c ****         *   Setting level value to 0 disables RTS signal activation.
 646:Generated_Source\PSoC4/serial_UART.c ****         *
 647:Generated_Source\PSoC4/serial_UART.c ****         *******************************************************************************/
 648:Generated_Source\PSoC4/serial_UART.c ****         void serial_UartSetRtsFifoLevel(uint32 level)
 649:Generated_Source\PSoC4/serial_UART.c ****         {
 650:Generated_Source\PSoC4/serial_UART.c ****             uint32 uartFlowCtrl;
 651:Generated_Source\PSoC4/serial_UART.c **** 
 652:Generated_Source\PSoC4/serial_UART.c ****             uartFlowCtrl = serial_UART_FLOW_CTRL_REG;
 653:Generated_Source\PSoC4/serial_UART.c **** 
 654:Generated_Source\PSoC4/serial_UART.c ****             uartFlowCtrl &= ((uint32) ~serial_UART_FLOW_CTRL_TRIGGER_LEVEL_MASK); /* Clear level ma
 655:Generated_Source\PSoC4/serial_UART.c ****             uartFlowCtrl |= ((uint32) (serial_UART_FLOW_CTRL_TRIGGER_LEVEL_MASK & level));
 656:Generated_Source\PSoC4/serial_UART.c **** 
 657:Generated_Source\PSoC4/serial_UART.c ****             serial_UART_FLOW_CTRL_REG = uartFlowCtrl;
 658:Generated_Source\PSoC4/serial_UART.c ****         }
 659:Generated_Source\PSoC4/serial_UART.c ****     #endif /* !(serial_CY_SCBIP_V0 || serial_CY_SCBIP_V1) */
 660:Generated_Source\PSoC4/serial_UART.c **** 
 661:Generated_Source\PSoC4/serial_UART.c **** #endif /* (serial_UART_RX_DIRECTION) */
 662:Generated_Source\PSoC4/serial_UART.c **** 
 663:Generated_Source\PSoC4/serial_UART.c **** 
 664:Generated_Source\PSoC4/serial_UART.c **** #if(serial_UART_TX_DIRECTION)
 665:Generated_Source\PSoC4/serial_UART.c ****     /*******************************************************************************
 666:Generated_Source\PSoC4/serial_UART.c ****     * Function Name: serial_UartPutString
 667:Generated_Source\PSoC4/serial_UART.c ****     ****************************************************************************//**
 668:Generated_Source\PSoC4/serial_UART.c ****     *
 669:Generated_Source\PSoC4/serial_UART.c ****     *  Places a NULL terminated string in the transmit buffer to be sent at the
 670:Generated_Source\PSoC4/serial_UART.c ****     *  next available bus time.
 671:Generated_Source\PSoC4/serial_UART.c ****     *  This function is blocking and waits until there is a space available to put
 672:Generated_Source\PSoC4/serial_UART.c ****     *  requested data in transmit buffer.
 673:Generated_Source\PSoC4/serial_UART.c ****     *
 674:Generated_Source\PSoC4/serial_UART.c ****     *  \param string: pointer to the null terminated string array to be placed in the
 675:Generated_Source\PSoC4/serial_UART.c ****     *   transmit buffer.
 676:Generated_Source\PSoC4/serial_UART.c ****     *
 677:Generated_Source\PSoC4/serial_UART.c ****     *******************************************************************************/
 678:Generated_Source\PSoC4/serial_UART.c ****     void serial_UartPutString(const char8 string[])
 679:Generated_Source\PSoC4/serial_UART.c ****     {
 402              		.loc 1 679 0
ARM GAS  C:\Users\a85495\AppData\Local\Temp\ccVE0w01.s 			page 20


 403              		.cfi_startproc
 404              	.LVL27:
 405 0000 38B5     		push	{r3, r4, r5, lr}
 406              		.cfi_def_cfa_offset 16
 407              		.cfi_offset 3, -16
 408              		.cfi_offset 4, -12
 409              		.cfi_offset 5, -8
 410              		.cfi_offset 14, -4
 411 0002 051C     		mov	r5, r0
 412              	.LVL28:
 680:Generated_Source\PSoC4/serial_UART.c ****         uint32 bufIndex;
 681:Generated_Source\PSoC4/serial_UART.c **** 
 682:Generated_Source\PSoC4/serial_UART.c ****         bufIndex = 0u;
 413              		.loc 1 682 0
 414 0004 0024     		mov	r4, #0
 683:Generated_Source\PSoC4/serial_UART.c **** 
 684:Generated_Source\PSoC4/serial_UART.c ****         /* Blocks the control flow until all data has been sent */
 685:Generated_Source\PSoC4/serial_UART.c ****         while(string[bufIndex] != ((char8) 0))
 415              		.loc 1 685 0
 416 0006 02E0     		b	.L28
 417              	.LVL29:
 418              	.L29:
 686:Generated_Source\PSoC4/serial_UART.c ****         {
 687:Generated_Source\PSoC4/serial_UART.c ****             serial_UartPutChar((uint32) string[bufIndex]);
 419              		.loc 1 687 0
 420 0008 FFF7FEFF 		bl	serial_SpiUartWriteTxData
 421              	.LVL30:
 688:Generated_Source\PSoC4/serial_UART.c ****             bufIndex++;
 422              		.loc 1 688 0
 423 000c 0134     		add	r4, r4, #1
 424              	.LVL31:
 425              	.L28:
 685:Generated_Source\PSoC4/serial_UART.c ****         {
 426              		.loc 1 685 0
 427 000e 285D     		ldrb	r0, [r5, r4]
 428 0010 0028     		cmp	r0, #0
 429 0012 F9D1     		bne	.L29
 689:Generated_Source\PSoC4/serial_UART.c ****         }
 690:Generated_Source\PSoC4/serial_UART.c ****     }
 430              		.loc 1 690 0
 431              		@ sp needed
 432              	.LVL32:
 433              	.LVL33:
 434 0014 38BD     		pop	{r3, r4, r5, pc}
 435              		.cfi_endproc
 436              	.LFE7:
 437              		.size	serial_UartPutString, .-serial_UartPutString
 438 0016 C046     		.section	.text.serial_UartPutCRLF,"ax",%progbits
 439              		.align	2
 440              		.global	serial_UartPutCRLF
 441              		.code	16
 442              		.thumb_func
 443              		.type	serial_UartPutCRLF, %function
 444              	serial_UartPutCRLF:
 445              	.LFB8:
 691:Generated_Source\PSoC4/serial_UART.c **** 
 692:Generated_Source\PSoC4/serial_UART.c **** 
ARM GAS  C:\Users\a85495\AppData\Local\Temp\ccVE0w01.s 			page 21


 693:Generated_Source\PSoC4/serial_UART.c ****     /*******************************************************************************
 694:Generated_Source\PSoC4/serial_UART.c ****     * Function Name: serial_UartPutCRLF
 695:Generated_Source\PSoC4/serial_UART.c ****     ****************************************************************************//**
 696:Generated_Source\PSoC4/serial_UART.c ****     *
 697:Generated_Source\PSoC4/serial_UART.c ****     *  Places byte of data followed by a carriage return (0x0D) and line feed
 698:Generated_Source\PSoC4/serial_UART.c ****     *  (0x0A) in the transmit buffer.
 699:Generated_Source\PSoC4/serial_UART.c ****     *  This function is blocking and waits until there is a space available to put
 700:Generated_Source\PSoC4/serial_UART.c ****     *  all requested data in transmit buffer.
 701:Generated_Source\PSoC4/serial_UART.c ****     *
 702:Generated_Source\PSoC4/serial_UART.c ****     *  \param txDataByte: the data to be transmitted.
 703:Generated_Source\PSoC4/serial_UART.c ****     *
 704:Generated_Source\PSoC4/serial_UART.c ****     *******************************************************************************/
 705:Generated_Source\PSoC4/serial_UART.c ****     void serial_UartPutCRLF(uint32 txDataByte)
 706:Generated_Source\PSoC4/serial_UART.c ****     {
 446              		.loc 1 706 0
 447              		.cfi_startproc
 448              	.LVL34:
 449 0000 08B5     		push	{r3, lr}
 450              		.cfi_def_cfa_offset 8
 451              		.cfi_offset 3, -8
 452              		.cfi_offset 14, -4
 707:Generated_Source\PSoC4/serial_UART.c ****         serial_UartPutChar(txDataByte);  /* Blocks control flow until all data has been sent */
 453              		.loc 1 707 0
 454 0002 FFF7FEFF 		bl	serial_SpiUartWriteTxData
 455              	.LVL35:
 708:Generated_Source\PSoC4/serial_UART.c ****         serial_UartPutChar(0x0Du);       /* Blocks control flow until all data has been sent */
 456              		.loc 1 708 0
 457 0006 0D20     		mov	r0, #13
 458 0008 FFF7FEFF 		bl	serial_SpiUartWriteTxData
 459              	.LVL36:
 709:Generated_Source\PSoC4/serial_UART.c ****         serial_UartPutChar(0x0Au);       /* Blocks control flow until all data has been sent */
 460              		.loc 1 709 0
 461 000c 0A20     		mov	r0, #10
 462 000e FFF7FEFF 		bl	serial_SpiUartWriteTxData
 463              	.LVL37:
 710:Generated_Source\PSoC4/serial_UART.c ****     }
 464              		.loc 1 710 0
 465              		@ sp needed
 466 0012 08BD     		pop	{r3, pc}
 467              		.cfi_endproc
 468              	.LFE8:
 469              		.size	serial_UartPutCRLF, .-serial_UartPutCRLF
 470              		.text
 471              	.Letext0:
 472              		.file 2 "Generated_Source\\PSoC4/cytypes.h"
 473              		.file 3 "Generated_Source\\PSoC4\\serial_PVT.h"
 474              		.file 4 "Generated_Source\\PSoC4\\serial_SPI_UART_PVT.h"
 475              		.file 5 "Generated_Source\\PSoC4/CyLib.h"
 476              		.file 6 "Generated_Source\\PSoC4\\serial_SPI_UART.h"