ARM GAS  C:\Users\a85495\AppData\Local\Temp\ccaBlwKz.s 			page 1


   1              		.cpu cortex-m0
   2              		.fpu softvfp
   3              		.eabi_attribute 20, 1
   4              		.eabi_attribute 21, 1
   5              		.eabi_attribute 23, 3
   6              		.eabi_attribute 24, 1
   7              		.eabi_attribute 25, 1
   8              		.eabi_attribute 26, 1
   9              		.eabi_attribute 30, 1
  10              		.eabi_attribute 34, 0
  11              		.eabi_attribute 18, 4
  12              		.code	16
  13              		.file	"cyfitter_cfg.c"
  14              		.text
  15              	.Ltext0:
  16              		.cfi_sections	.debug_frame
  17              		.section	.text.cfg_write_bytes32,"ax",%progbits
  18              		.align	2
  19              		.code	16
  20              		.thumb_func
  21              		.type	cfg_write_bytes32, %function
  22              	cfg_write_bytes32:
  23              	.LFB3:
  24              		.file 1 "Generated_Source\\PSoC4\\cyfitter_cfg.c"
   1:Generated_Source\PSoC4/cyfitter_cfg.c **** /*******************************************************************************
   2:Generated_Source\PSoC4/cyfitter_cfg.c **** * File Name: cyfitter_cfg.c
   3:Generated_Source\PSoC4/cyfitter_cfg.c **** * 
   4:Generated_Source\PSoC4/cyfitter_cfg.c **** * PSoC Creator  4.0 Update 1
   5:Generated_Source\PSoC4/cyfitter_cfg.c **** *
   6:Generated_Source\PSoC4/cyfitter_cfg.c **** * Description:
   7:Generated_Source\PSoC4/cyfitter_cfg.c **** * This file contains device initialization code.
   8:Generated_Source\PSoC4/cyfitter_cfg.c **** * Except for the user defined sections in CyClockStartupError(), this file should not be modified.
   9:Generated_Source\PSoC4/cyfitter_cfg.c **** * This file is automatically generated by PSoC Creator.
  10:Generated_Source\PSoC4/cyfitter_cfg.c **** *
  11:Generated_Source\PSoC4/cyfitter_cfg.c **** ********************************************************************************
  12:Generated_Source\PSoC4/cyfitter_cfg.c **** * Copyright (c) 2007-2016 Cypress Semiconductor.  All rights reserved.
  13:Generated_Source\PSoC4/cyfitter_cfg.c **** * You may use this file only in accordance with the license, terms, conditions, 
  14:Generated_Source\PSoC4/cyfitter_cfg.c **** * disclaimers, and limitations in the end user license agreement accompanying 
  15:Generated_Source\PSoC4/cyfitter_cfg.c **** * the software package with which this file was provided.
  16:Generated_Source\PSoC4/cyfitter_cfg.c **** ********************************************************************************/
  17:Generated_Source\PSoC4/cyfitter_cfg.c **** 
  18:Generated_Source\PSoC4/cyfitter_cfg.c **** #include <string.h>
  19:Generated_Source\PSoC4/cyfitter_cfg.c **** #include "cytypes.h"
  20:Generated_Source\PSoC4/cyfitter_cfg.c **** #include "cydevice_trm.h"
  21:Generated_Source\PSoC4/cyfitter_cfg.c **** #include "cyfitter.h"
  22:Generated_Source\PSoC4/cyfitter_cfg.c **** #include "CyLib.h"
  23:Generated_Source\PSoC4/cyfitter_cfg.c **** #include "CyLFClk.h"
  24:Generated_Source\PSoC4/cyfitter_cfg.c **** #include "cyfitter_cfg.h"
  25:Generated_Source\PSoC4/cyfitter_cfg.c **** #include "cyapicallbacks.h"
  26:Generated_Source\PSoC4/cyfitter_cfg.c **** 
  27:Generated_Source\PSoC4/cyfitter_cfg.c **** 
  28:Generated_Source\PSoC4/cyfitter_cfg.c **** #if defined(__GNUC__) || defined(__ARMCC_VERSION)
  29:Generated_Source\PSoC4/cyfitter_cfg.c ****     #define CYPACKED 
  30:Generated_Source\PSoC4/cyfitter_cfg.c ****     #define CYPACKED_ATTR __attribute__ ((packed))
  31:Generated_Source\PSoC4/cyfitter_cfg.c ****     #define CYALIGNED __attribute__ ((aligned))
  32:Generated_Source\PSoC4/cyfitter_cfg.c ****     #define CY_CFG_UNUSED __attribute__ ((unused))
  33:Generated_Source\PSoC4/cyfitter_cfg.c ****     #ifndef CY_CFG_SECTION
ARM GAS  C:\Users\a85495\AppData\Local\Temp\ccaBlwKz.s 			page 2


  34:Generated_Source\PSoC4/cyfitter_cfg.c ****         #define CY_CFG_SECTION __attribute__ ((section(".psocinit")))
  35:Generated_Source\PSoC4/cyfitter_cfg.c ****     #endif
  36:Generated_Source\PSoC4/cyfitter_cfg.c ****     
  37:Generated_Source\PSoC4/cyfitter_cfg.c ****     #if defined(__ARMCC_VERSION)
  38:Generated_Source\PSoC4/cyfitter_cfg.c ****         #define CY_CFG_MEMORY_BARRIER() __memory_changed()
  39:Generated_Source\PSoC4/cyfitter_cfg.c ****     #else
  40:Generated_Source\PSoC4/cyfitter_cfg.c ****         #define CY_CFG_MEMORY_BARRIER() __sync_synchronize()
  41:Generated_Source\PSoC4/cyfitter_cfg.c ****     #endif
  42:Generated_Source\PSoC4/cyfitter_cfg.c ****     
  43:Generated_Source\PSoC4/cyfitter_cfg.c **** #elif defined(__ICCARM__)
  44:Generated_Source\PSoC4/cyfitter_cfg.c ****     #include <intrinsics.h>
  45:Generated_Source\PSoC4/cyfitter_cfg.c **** 
  46:Generated_Source\PSoC4/cyfitter_cfg.c ****     #define CYPACKED __packed
  47:Generated_Source\PSoC4/cyfitter_cfg.c ****     #define CYPACKED_ATTR 
  48:Generated_Source\PSoC4/cyfitter_cfg.c ****     #define CYALIGNED _Pragma("data_alignment=4")
  49:Generated_Source\PSoC4/cyfitter_cfg.c ****     #define CY_CFG_UNUSED _Pragma("diag_suppress=Pe177")
  50:Generated_Source\PSoC4/cyfitter_cfg.c ****     #define CY_CFG_SECTION _Pragma("location=\".psocinit\"")
  51:Generated_Source\PSoC4/cyfitter_cfg.c ****     
  52:Generated_Source\PSoC4/cyfitter_cfg.c ****     #define CY_CFG_MEMORY_BARRIER() __DMB()
  53:Generated_Source\PSoC4/cyfitter_cfg.c ****     
  54:Generated_Source\PSoC4/cyfitter_cfg.c **** #else
  55:Generated_Source\PSoC4/cyfitter_cfg.c ****     #error Unsupported toolchain
  56:Generated_Source\PSoC4/cyfitter_cfg.c **** #endif
  57:Generated_Source\PSoC4/cyfitter_cfg.c **** 
  58:Generated_Source\PSoC4/cyfitter_cfg.c **** 
  59:Generated_Source\PSoC4/cyfitter_cfg.c **** CY_CFG_UNUSED
  60:Generated_Source\PSoC4/cyfitter_cfg.c **** static void CYMEMZERO(void *s, size_t n);
  61:Generated_Source\PSoC4/cyfitter_cfg.c **** CY_CFG_UNUSED
  62:Generated_Source\PSoC4/cyfitter_cfg.c **** static void CYMEMZERO(void *s, size_t n)
  63:Generated_Source\PSoC4/cyfitter_cfg.c **** {
  64:Generated_Source\PSoC4/cyfitter_cfg.c **** 	(void)memset(s, 0, n);
  65:Generated_Source\PSoC4/cyfitter_cfg.c **** }
  66:Generated_Source\PSoC4/cyfitter_cfg.c **** CY_CFG_UNUSED
  67:Generated_Source\PSoC4/cyfitter_cfg.c **** static void CYCONFIGCPY(void *dest, const void *src, size_t n);
  68:Generated_Source\PSoC4/cyfitter_cfg.c **** CY_CFG_UNUSED
  69:Generated_Source\PSoC4/cyfitter_cfg.c **** static void CYCONFIGCPY(void *dest, const void *src, size_t n)
  70:Generated_Source\PSoC4/cyfitter_cfg.c **** {
  71:Generated_Source\PSoC4/cyfitter_cfg.c **** 	(void)memcpy(dest, src, n);
  72:Generated_Source\PSoC4/cyfitter_cfg.c **** }
  73:Generated_Source\PSoC4/cyfitter_cfg.c **** CY_CFG_UNUSED
  74:Generated_Source\PSoC4/cyfitter_cfg.c **** static void CYCONFIGCPYCODE(void *dest, const void *src, size_t n);
  75:Generated_Source\PSoC4/cyfitter_cfg.c **** CY_CFG_UNUSED
  76:Generated_Source\PSoC4/cyfitter_cfg.c **** static void CYCONFIGCPYCODE(void *dest, const void *src, size_t n)
  77:Generated_Source\PSoC4/cyfitter_cfg.c **** {
  78:Generated_Source\PSoC4/cyfitter_cfg.c **** 	(void)memcpy(dest, src, n);
  79:Generated_Source\PSoC4/cyfitter_cfg.c **** }
  80:Generated_Source\PSoC4/cyfitter_cfg.c **** 
  81:Generated_Source\PSoC4/cyfitter_cfg.c **** 
  82:Generated_Source\PSoC4/cyfitter_cfg.c **** 
  83:Generated_Source\PSoC4/cyfitter_cfg.c **** 
  84:Generated_Source\PSoC4/cyfitter_cfg.c **** /* Clock startup error codes                                                   */
  85:Generated_Source\PSoC4/cyfitter_cfg.c **** #define CYCLOCKSTART_NO_ERROR    0u
  86:Generated_Source\PSoC4/cyfitter_cfg.c **** #define CYCLOCKSTART_XTAL_ERROR  1u
  87:Generated_Source\PSoC4/cyfitter_cfg.c **** #define CYCLOCKSTART_32KHZ_ERROR 2u
  88:Generated_Source\PSoC4/cyfitter_cfg.c **** #define CYCLOCKSTART_PLL_ERROR   3u
  89:Generated_Source\PSoC4/cyfitter_cfg.c **** 
  90:Generated_Source\PSoC4/cyfitter_cfg.c **** 
ARM GAS  C:\Users\a85495\AppData\Local\Temp\ccaBlwKz.s 			page 3


  91:Generated_Source\PSoC4/cyfitter_cfg.c **** #ifdef CY_NEED_CYCLOCKSTARTUPERROR
  92:Generated_Source\PSoC4/cyfitter_cfg.c **** /*******************************************************************************
  93:Generated_Source\PSoC4/cyfitter_cfg.c **** * Function Name: CyClockStartupError
  94:Generated_Source\PSoC4/cyfitter_cfg.c **** ********************************************************************************
  95:Generated_Source\PSoC4/cyfitter_cfg.c **** * Summary:
  96:Generated_Source\PSoC4/cyfitter_cfg.c **** *  If an error is encountered during clock configuration (crystal startup error,
  97:Generated_Source\PSoC4/cyfitter_cfg.c **** *  PLL lock error, etc.), the system will end up here.  Unless reimplemented by
  98:Generated_Source\PSoC4/cyfitter_cfg.c **** *  the customer, this function will stop in an infinite loop.
  99:Generated_Source\PSoC4/cyfitter_cfg.c **** *
 100:Generated_Source\PSoC4/cyfitter_cfg.c **** * Parameters:
 101:Generated_Source\PSoC4/cyfitter_cfg.c **** *   void
 102:Generated_Source\PSoC4/cyfitter_cfg.c **** *
 103:Generated_Source\PSoC4/cyfitter_cfg.c **** * Return:
 104:Generated_Source\PSoC4/cyfitter_cfg.c **** *   void
 105:Generated_Source\PSoC4/cyfitter_cfg.c **** *
 106:Generated_Source\PSoC4/cyfitter_cfg.c **** *******************************************************************************/
 107:Generated_Source\PSoC4/cyfitter_cfg.c **** CY_CFG_UNUSED
 108:Generated_Source\PSoC4/cyfitter_cfg.c **** static void CyClockStartupError(uint8 errorCode);
 109:Generated_Source\PSoC4/cyfitter_cfg.c **** CY_CFG_UNUSED
 110:Generated_Source\PSoC4/cyfitter_cfg.c **** static void CyClockStartupError(uint8 errorCode)
 111:Generated_Source\PSoC4/cyfitter_cfg.c **** {
 112:Generated_Source\PSoC4/cyfitter_cfg.c ****     /* To remove the compiler warning if errorCode not used.                */
 113:Generated_Source\PSoC4/cyfitter_cfg.c ****     errorCode = errorCode;
 114:Generated_Source\PSoC4/cyfitter_cfg.c **** 
 115:Generated_Source\PSoC4/cyfitter_cfg.c ****     /* If we have a clock startup error (bad MHz crystal, PLL lock, etc.),  */
 116:Generated_Source\PSoC4/cyfitter_cfg.c ****     /* we will end up here to allow the customer to implement something to  */
 117:Generated_Source\PSoC4/cyfitter_cfg.c ****     /* deal with the clock condition.                                       */
 118:Generated_Source\PSoC4/cyfitter_cfg.c **** 
 119:Generated_Source\PSoC4/cyfitter_cfg.c **** #ifdef CY_CFG_CLOCK_STARTUP_ERROR_CALLBACK
 120:Generated_Source\PSoC4/cyfitter_cfg.c **** 	CY_CFG_Clock_Startup_ErrorCallback();
 121:Generated_Source\PSoC4/cyfitter_cfg.c **** #else
 122:Generated_Source\PSoC4/cyfitter_cfg.c **** 	/*  If not using CY_CFG_CLOCK_STARTUP_ERROR_CALLBACK, place your clock startup code here. */
 123:Generated_Source\PSoC4/cyfitter_cfg.c ****     /* `#START CyClockStartupError` */
 124:Generated_Source\PSoC4/cyfitter_cfg.c **** 
 125:Generated_Source\PSoC4/cyfitter_cfg.c **** 
 126:Generated_Source\PSoC4/cyfitter_cfg.c **** 
 127:Generated_Source\PSoC4/cyfitter_cfg.c ****     /* `#END` */
 128:Generated_Source\PSoC4/cyfitter_cfg.c **** 
 129:Generated_Source\PSoC4/cyfitter_cfg.c ****     /* If nothing else, stop here since the clocks have not started         */
 130:Generated_Source\PSoC4/cyfitter_cfg.c ****     /* correctly.                                                           */
 131:Generated_Source\PSoC4/cyfitter_cfg.c ****     while(1) {}
 132:Generated_Source\PSoC4/cyfitter_cfg.c **** #endif /* CY_CFG_CLOCK_STARTUP_ERROR_CALLBACK */ 
 133:Generated_Source\PSoC4/cyfitter_cfg.c **** }
 134:Generated_Source\PSoC4/cyfitter_cfg.c **** #endif
 135:Generated_Source\PSoC4/cyfitter_cfg.c **** 
 136:Generated_Source\PSoC4/cyfitter_cfg.c **** #define CY_CFG_BASE_ADDR_COUNT 7u
 137:Generated_Source\PSoC4/cyfitter_cfg.c **** CYPACKED typedef struct
 138:Generated_Source\PSoC4/cyfitter_cfg.c **** {
 139:Generated_Source\PSoC4/cyfitter_cfg.c **** 	uint8 offset;
 140:Generated_Source\PSoC4/cyfitter_cfg.c **** 	uint8 value;
 141:Generated_Source\PSoC4/cyfitter_cfg.c **** } CYPACKED_ATTR cy_cfg_addrvalue_t;
 142:Generated_Source\PSoC4/cyfitter_cfg.c **** 
 143:Generated_Source\PSoC4/cyfitter_cfg.c **** 
 144:Generated_Source\PSoC4/cyfitter_cfg.c **** 
 145:Generated_Source\PSoC4/cyfitter_cfg.c **** /*******************************************************************************
 146:Generated_Source\PSoC4/cyfitter_cfg.c **** * Function Name: cfg_write_bytes32
 147:Generated_Source\PSoC4/cyfitter_cfg.c **** ********************************************************************************
ARM GAS  C:\Users\a85495\AppData\Local\Temp\ccaBlwKz.s 			page 4


 148:Generated_Source\PSoC4/cyfitter_cfg.c **** * Summary:
 149:Generated_Source\PSoC4/cyfitter_cfg.c **** *  This function is used for setting up the chip configuration areas that
 150:Generated_Source\PSoC4/cyfitter_cfg.c **** *  contain relatively sparse data.
 151:Generated_Source\PSoC4/cyfitter_cfg.c **** *
 152:Generated_Source\PSoC4/cyfitter_cfg.c **** * Parameters:
 153:Generated_Source\PSoC4/cyfitter_cfg.c **** *   void
 154:Generated_Source\PSoC4/cyfitter_cfg.c **** *
 155:Generated_Source\PSoC4/cyfitter_cfg.c **** * Return:
 156:Generated_Source\PSoC4/cyfitter_cfg.c **** *   void
 157:Generated_Source\PSoC4/cyfitter_cfg.c **** *
 158:Generated_Source\PSoC4/cyfitter_cfg.c **** *******************************************************************************/
 159:Generated_Source\PSoC4/cyfitter_cfg.c **** static void cfg_write_bytes32(const uint32 addr_table[], const cy_cfg_addrvalue_t data_table[]);
 160:Generated_Source\PSoC4/cyfitter_cfg.c **** static void cfg_write_bytes32(const uint32 addr_table[], const cy_cfg_addrvalue_t data_table[])
 161:Generated_Source\PSoC4/cyfitter_cfg.c **** {
  25              		.loc 1 161 0
  26              		.cfi_startproc
  27              	.LVL0:
  28 0000 F0B5     		push	{r4, r5, r6, r7, lr}
  29              		.cfi_def_cfa_offset 20
  30              		.cfi_offset 4, -20
  31              		.cfi_offset 5, -16
  32              		.cfi_offset 6, -12
  33              		.cfi_offset 7, -8
  34              		.cfi_offset 14, -4
  35              	.LVL1:
 162:Generated_Source\PSoC4/cyfitter_cfg.c **** 	/* For 32-bit little-endian architectures */
 163:Generated_Source\PSoC4/cyfitter_cfg.c **** 	uint32 i, j = 0u;
  36              		.loc 1 163 0
  37 0002 0025     		mov	r5, #0
 164:Generated_Source\PSoC4/cyfitter_cfg.c **** 	for (i = 0u; i < CY_CFG_BASE_ADDR_COUNT; i++)
  38              		.loc 1 164 0
  39 0004 0027     		mov	r7, #0
  40 0006 11E0     		b	.L2
  41              	.LVL2:
  42              	.L5:
  43              	.LBB2:
 165:Generated_Source\PSoC4/cyfitter_cfg.c **** 	{
 166:Generated_Source\PSoC4/cyfitter_cfg.c **** 		uint32 baseAddr = addr_table[i];
  44              		.loc 1 166 0
  45 0008 BB00     		lsl	r3, r7, #2
  46 000a C658     		ldr	r6, [r0, r3]
  47              	.LVL3:
 167:Generated_Source\PSoC4/cyfitter_cfg.c **** 		uint8 count = (uint8)baseAddr;
  48              		.loc 1 167 0
  49 000c F3B2     		uxtb	r3, r6
  50              	.LVL4:
 168:Generated_Source\PSoC4/cyfitter_cfg.c **** 		baseAddr &= 0xFFFFFF00u;
  51              		.loc 1 168 0
  52 000e FF22     		mov	r2, #255
  53 0010 9643     		bic	r6, r2
  54              	.LVL5:
 169:Generated_Source\PSoC4/cyfitter_cfg.c **** 		while (count != 0u)
  55              		.loc 1 169 0
  56 0012 08E0     		b	.L3
  57              	.L4:
 170:Generated_Source\PSoC4/cyfitter_cfg.c **** 		{
 171:Generated_Source\PSoC4/cyfitter_cfg.c **** 			CY_SET_XTND_REG8((void CYFAR *)(baseAddr + data_table[j].offset), data_table[j].value);
ARM GAS  C:\Users\a85495\AppData\Local\Temp\ccaBlwKz.s 			page 5


  58              		.loc 1 171 0
  59 0014 6A00     		lsl	r2, r5, #1
  60 0016 8A18     		add	r2, r1, r2
  61 0018 1478     		ldrb	r4, [r2]
  62 001a A419     		add	r4, r4, r6
  63 001c 5278     		ldrb	r2, [r2, #1]
  64 001e 2270     		strb	r2, [r4]
 172:Generated_Source\PSoC4/cyfitter_cfg.c **** 			j++;
  65              		.loc 1 172 0
  66 0020 0135     		add	r5, r5, #1
  67              	.LVL6:
 173:Generated_Source\PSoC4/cyfitter_cfg.c **** 			count--;
  68              		.loc 1 173 0
  69 0022 013B     		sub	r3, r3, #1
  70              	.LVL7:
  71 0024 DBB2     		uxtb	r3, r3
  72              	.LVL8:
  73              	.L3:
 169:Generated_Source\PSoC4/cyfitter_cfg.c **** 		{
  74              		.loc 1 169 0
  75 0026 002B     		cmp	r3, #0
  76 0028 F4D1     		bne	.L4
  77              	.LBE2:
 164:Generated_Source\PSoC4/cyfitter_cfg.c **** 	{
  78              		.loc 1 164 0 discriminator 2
  79 002a 0137     		add	r7, r7, #1
  80              	.LVL9:
  81              	.L2:
 164:Generated_Source\PSoC4/cyfitter_cfg.c **** 	{
  82              		.loc 1 164 0 is_stmt 0 discriminator 1
  83 002c 062F     		cmp	r7, #6
  84 002e EBD9     		bls	.L5
 174:Generated_Source\PSoC4/cyfitter_cfg.c **** 		}
 175:Generated_Source\PSoC4/cyfitter_cfg.c **** 	}
 176:Generated_Source\PSoC4/cyfitter_cfg.c **** }
  85              		.loc 1 176 0 is_stmt 1
  86              		@ sp needed
  87              	.LVL10:
  88              	.LVL11:
  89 0030 F0BD     		pop	{r4, r5, r6, r7, pc}
  90              		.cfi_endproc
  91              	.LFE3:
  92              		.size	cfg_write_bytes32, .-cfg_write_bytes32
  93 0032 C046     		.section	.text.CYMEMZERO,"ax",%progbits
  94              		.align	2
  95              		.code	16
  96              		.thumb_func
  97              		.type	CYMEMZERO, %function
  98              	CYMEMZERO:
  99              	.LFB0:
  63:Generated_Source\PSoC4/cyfitter_cfg.c **** 	(void)memset(s, 0, n);
 100              		.loc 1 63 0
 101              		.cfi_startproc
 102              	.LVL12:
 103 0000 08B5     		push	{r3, lr}
 104              		.cfi_def_cfa_offset 8
 105              		.cfi_offset 3, -8
ARM GAS  C:\Users\a85495\AppData\Local\Temp\ccaBlwKz.s 			page 6


 106              		.cfi_offset 14, -4
 107 0002 0A1C     		mov	r2, r1
  64:Generated_Source\PSoC4/cyfitter_cfg.c **** }
 108              		.loc 1 64 0
 109 0004 0021     		mov	r1, #0
 110              	.LVL13:
 111 0006 FFF7FEFF 		bl	memset
 112              	.LVL14:
  65:Generated_Source\PSoC4/cyfitter_cfg.c **** CY_CFG_UNUSED
 113              		.loc 1 65 0
 114              		@ sp needed
 115 000a 08BD     		pop	{r3, pc}
 116              		.cfi_endproc
 117              	.LFE0:
 118              		.size	CYMEMZERO, .-CYMEMZERO
 119              		.section	.psocinit,"ax",%progbits
 120              		.align	2
 121              		.code	16
 122              		.thumb_func
 123              		.type	ClockSetup, %function
 124              	ClockSetup:
 125              	.LFB4:
 177:Generated_Source\PSoC4/cyfitter_cfg.c **** 
 178:Generated_Source\PSoC4/cyfitter_cfg.c **** 
 179:Generated_Source\PSoC4/cyfitter_cfg.c **** /*******************************************************************************
 180:Generated_Source\PSoC4/cyfitter_cfg.c **** * Function Name: ClockSetup
 181:Generated_Source\PSoC4/cyfitter_cfg.c **** ********************************************************************************
 182:Generated_Source\PSoC4/cyfitter_cfg.c **** *
 183:Generated_Source\PSoC4/cyfitter_cfg.c **** * Summary:
 184:Generated_Source\PSoC4/cyfitter_cfg.c **** *   Performs the initialization of all of the clocks in the device based on the
 185:Generated_Source\PSoC4/cyfitter_cfg.c **** *   settings in the Clock tab of the DWR.  This includes enabling the requested
 186:Generated_Source\PSoC4/cyfitter_cfg.c **** *   clocks and setting the necessary dividers to produce the desired frequency. 
 187:Generated_Source\PSoC4/cyfitter_cfg.c **** *
 188:Generated_Source\PSoC4/cyfitter_cfg.c **** * Parameters:
 189:Generated_Source\PSoC4/cyfitter_cfg.c **** *   void
 190:Generated_Source\PSoC4/cyfitter_cfg.c **** *
 191:Generated_Source\PSoC4/cyfitter_cfg.c **** * Return:
 192:Generated_Source\PSoC4/cyfitter_cfg.c **** *   void
 193:Generated_Source\PSoC4/cyfitter_cfg.c **** *
 194:Generated_Source\PSoC4/cyfitter_cfg.c **** *******************************************************************************/
 195:Generated_Source\PSoC4/cyfitter_cfg.c **** static void ClockSetup(void);
 196:Generated_Source\PSoC4/cyfitter_cfg.c **** CY_CFG_SECTION
 197:Generated_Source\PSoC4/cyfitter_cfg.c **** static void ClockSetup(void)
 198:Generated_Source\PSoC4/cyfitter_cfg.c **** {
 126              		.loc 1 198 0
 127              		.cfi_startproc
 128 0000 38B5     		push	{r3, r4, r5, lr}
 129              		.cfi_def_cfa_offset 16
 130              		.cfi_offset 3, -16
 131              		.cfi_offset 4, -12
 132              		.cfi_offset 5, -8
 133              		.cfi_offset 14, -4
 199:Generated_Source\PSoC4/cyfitter_cfg.c **** 	/* Enable HALF_EN before trimming for the flash accelerator. */
 200:Generated_Source\PSoC4/cyfitter_cfg.c **** 	CY_SET_REG32((void CYXDATA *)(CYREG_CLK_SELECT), (CY_GET_REG32((void *)CYREG_CLK_SELECT) | 0x00040
 134              		.loc 1 200 0
 135 0002 0F4C     		ldr	r4, .L8
 136 0004 2368     		ldr	r3, [r4]
ARM GAS  C:\Users\a85495\AppData\Local\Temp\ccaBlwKz.s 			page 7


 137 0006 8022     		mov	r2, #128
 138 0008 D202     		lsl	r2, r2, #11
 139 000a 1343     		orr	r3, r2
 140 000c 2360     		str	r3, [r4]
 201:Generated_Source\PSoC4/cyfitter_cfg.c **** 
 202:Generated_Source\PSoC4/cyfitter_cfg.c **** 	/* Setup and trim IMO based on desired frequency. */
 203:Generated_Source\PSoC4/cyfitter_cfg.c **** 	CySysClkWriteImoFreq(24u);
 141              		.loc 1 203 0
 142 000e 1820     		mov	r0, #24
 143 0010 FFF7FEFF 		bl	CySysClkWriteImoFreq
 144              	.LVL15:
 204:Generated_Source\PSoC4/cyfitter_cfg.c **** 
 205:Generated_Source\PSoC4/cyfitter_cfg.c **** 	/* Disable HALF_EN since it is not required at this IMO frequency. */
 206:Generated_Source\PSoC4/cyfitter_cfg.c **** 	CY_SET_REG32((void CYXDATA *)(CYREG_CLK_SELECT), (CY_GET_REG32((void *)CYREG_CLK_SELECT) & 0xFFFBF
 145              		.loc 1 206 0
 146 0014 2268     		ldr	r2, [r4]
 147 0016 0B4B     		ldr	r3, .L8+4
 148 0018 1340     		and	r3, r2
 149 001a 2360     		str	r3, [r4]
 207:Generated_Source\PSoC4/cyfitter_cfg.c **** 	/* CYDEV_CLK_ILO_CONFIG Starting address: CYDEV_CLK_ILO_CONFIG */
 208:Generated_Source\PSoC4/cyfitter_cfg.c **** 	CY_SET_XTND_REG32((void CYFAR *)(CYREG_CLK_ILO_CONFIG), 0x80000006u);
 150              		.loc 1 208 0
 151 001c 0A4A     		ldr	r2, .L8+8
 152 001e 0B4B     		ldr	r3, .L8+12
 153 0020 1A60     		str	r2, [r3]
 209:Generated_Source\PSoC4/cyfitter_cfg.c **** 
 210:Generated_Source\PSoC4/cyfitter_cfg.c **** 
 211:Generated_Source\PSoC4/cyfitter_cfg.c **** 	/* CYDEV_CLK_IMO_CONFIG Starting address: CYDEV_CLK_IMO_CONFIG */
 212:Generated_Source\PSoC4/cyfitter_cfg.c **** 	CY_SET_XTND_REG32((void CYFAR *)(CYREG_CLK_IMO_CONFIG), 0x80000000u);
 154              		.loc 1 212 0
 155 0022 063A     		sub	r2, r2, #6
 156 0024 0A4B     		ldr	r3, .L8+16
 157 0026 1A60     		str	r2, [r3]
 213:Generated_Source\PSoC4/cyfitter_cfg.c **** 
 214:Generated_Source\PSoC4/cyfitter_cfg.c **** 	/* CYDEV_CLK_SELECT Starting address: CYDEV_CLK_SELECT */
 215:Generated_Source\PSoC4/cyfitter_cfg.c **** 	CY_SET_XTND_REG32((void CYFAR *)(CYREG_CLK_SELECT), 0x00000000u);
 158              		.loc 1 215 0
 159 0028 0025     		mov	r5, #0
 160 002a 2560     		str	r5, [r4]
 216:Generated_Source\PSoC4/cyfitter_cfg.c **** 
 217:Generated_Source\PSoC4/cyfitter_cfg.c **** 	(void)CyIntSetVector(9u, &CySysWdtIsr);
 161              		.loc 1 217 0
 162 002c 0920     		mov	r0, #9
 163 002e 0949     		ldr	r1, .L8+20
 164 0030 FFF7FEFF 		bl	CyIntSetVector
 165              	.LVL16:
 218:Generated_Source\PSoC4/cyfitter_cfg.c **** 	CyIntEnable(9u);
 166              		.loc 1 218 0
 167 0034 0920     		mov	r0, #9
 168 0036 FFF7FEFF 		bl	CyIntEnable
 169              	.LVL17:
 219:Generated_Source\PSoC4/cyfitter_cfg.c **** 	CY_SET_XTND_REG32((void CYFAR *)(CYREG_WDT_CONFIG), 0x00000000u);
 170              		.loc 1 219 0
 171 003a 074B     		ldr	r3, .L8+24
 172 003c 1D60     		str	r5, [r3]
 220:Generated_Source\PSoC4/cyfitter_cfg.c **** }
 173              		.loc 1 220 0
ARM GAS  C:\Users\a85495\AppData\Local\Temp\ccaBlwKz.s 			page 8


 174              		@ sp needed
 175 003e 38BD     		pop	{r3, r4, r5, pc}
 176              	.L9:
 177              		.align	2
 178              	.L8:
 179 0040 00010B40 		.word	1074462976
 180 0044 FFFFFBFF 		.word	-262145
 181 0048 06000080 		.word	-2147483642
 182 004c 04010B40 		.word	1074462980
 183 0050 08010B40 		.word	1074462984
 184 0054 00000000 		.word	CySysWdtIsr
 185 0058 0C020B40 		.word	1074463244
 186              		.cfi_endproc
 187              	.LFE4:
 188              		.size	ClockSetup, .-ClockSetup
 189              		.align	2
 190              		.global	cyfitter_cfg
 191              		.code	16
 192              		.thumb_func
 193              		.type	cyfitter_cfg, %function
 194              	cyfitter_cfg:
 195              	.LFB6:
 221:Generated_Source\PSoC4/cyfitter_cfg.c **** 
 222:Generated_Source\PSoC4/cyfitter_cfg.c **** 
 223:Generated_Source\PSoC4/cyfitter_cfg.c **** /* Analog API Functions */
 224:Generated_Source\PSoC4/cyfitter_cfg.c **** 
 225:Generated_Source\PSoC4/cyfitter_cfg.c **** 
 226:Generated_Source\PSoC4/cyfitter_cfg.c **** /*******************************************************************************
 227:Generated_Source\PSoC4/cyfitter_cfg.c **** * Function Name: AnalogSetDefault
 228:Generated_Source\PSoC4/cyfitter_cfg.c **** ********************************************************************************
 229:Generated_Source\PSoC4/cyfitter_cfg.c **** *
 230:Generated_Source\PSoC4/cyfitter_cfg.c **** * Summary:
 231:Generated_Source\PSoC4/cyfitter_cfg.c **** *  Sets up the analog portions of the chip to default values based on chip
 232:Generated_Source\PSoC4/cyfitter_cfg.c **** *  configuration options from the project.
 233:Generated_Source\PSoC4/cyfitter_cfg.c **** *
 234:Generated_Source\PSoC4/cyfitter_cfg.c **** * Parameters:
 235:Generated_Source\PSoC4/cyfitter_cfg.c **** *  void
 236:Generated_Source\PSoC4/cyfitter_cfg.c **** *
 237:Generated_Source\PSoC4/cyfitter_cfg.c **** * Return:
 238:Generated_Source\PSoC4/cyfitter_cfg.c **** *  void
 239:Generated_Source\PSoC4/cyfitter_cfg.c **** *
 240:Generated_Source\PSoC4/cyfitter_cfg.c **** *******************************************************************************/
 241:Generated_Source\PSoC4/cyfitter_cfg.c **** static void AnalogSetDefault(void);
 242:Generated_Source\PSoC4/cyfitter_cfg.c **** static void AnalogSetDefault(void)
 243:Generated_Source\PSoC4/cyfitter_cfg.c **** {
 244:Generated_Source\PSoC4/cyfitter_cfg.c **** }
 245:Generated_Source\PSoC4/cyfitter_cfg.c **** 
 246:Generated_Source\PSoC4/cyfitter_cfg.c **** #define CY_AMUX_UNUSED CYREG_CM0_ROM_DWT
 247:Generated_Source\PSoC4/cyfitter_cfg.c **** 
 248:Generated_Source\PSoC4/cyfitter_cfg.c **** 
 249:Generated_Source\PSoC4/cyfitter_cfg.c **** /*******************************************************************************
 250:Generated_Source\PSoC4/cyfitter_cfg.c **** * Function Name: cyfitter_cfg
 251:Generated_Source\PSoC4/cyfitter_cfg.c **** ********************************************************************************
 252:Generated_Source\PSoC4/cyfitter_cfg.c **** * Summary:
 253:Generated_Source\PSoC4/cyfitter_cfg.c **** *  This function is called by the start-up code for the selected device. It
 254:Generated_Source\PSoC4/cyfitter_cfg.c **** *  performs all of the necessary device configuration based on the design
 255:Generated_Source\PSoC4/cyfitter_cfg.c **** *  settings.  This includes settings from the Design Wide Resources (DWR) such
ARM GAS  C:\Users\a85495\AppData\Local\Temp\ccaBlwKz.s 			page 9


 256:Generated_Source\PSoC4/cyfitter_cfg.c **** *  as Clocks and Pins as well as any component configuration that is necessary.
 257:Generated_Source\PSoC4/cyfitter_cfg.c **** *
 258:Generated_Source\PSoC4/cyfitter_cfg.c **** * Parameters:  
 259:Generated_Source\PSoC4/cyfitter_cfg.c **** *   void
 260:Generated_Source\PSoC4/cyfitter_cfg.c **** *
 261:Generated_Source\PSoC4/cyfitter_cfg.c **** * Return:
 262:Generated_Source\PSoC4/cyfitter_cfg.c **** *   void
 263:Generated_Source\PSoC4/cyfitter_cfg.c **** *
 264:Generated_Source\PSoC4/cyfitter_cfg.c **** *******************************************************************************/
 265:Generated_Source\PSoC4/cyfitter_cfg.c **** CY_CFG_SECTION
 266:Generated_Source\PSoC4/cyfitter_cfg.c **** void cyfitter_cfg(void)
 267:Generated_Source\PSoC4/cyfitter_cfg.c **** {
 196              		.loc 1 267 0
 197              		.cfi_startproc
 198 005c 10B5     		push	{r4, lr}
 199              		.cfi_def_cfa_offset 8
 200              		.cfi_offset 4, -8
 201              		.cfi_offset 14, -4
 268:Generated_Source\PSoC4/cyfitter_cfg.c **** 	/* Disable interrupts by default. Let user enable if/when they want. */
 269:Generated_Source\PSoC4/cyfitter_cfg.c **** 	CyGlobalIntDisable;
 202              		.loc 1 269 0
 203              	@ 269 "Generated_Source\PSoC4\cyfitter_cfg.c" 1
 204 005e 72B6     		CPSID   i
 205              	@ 0 "" 2
 270:Generated_Source\PSoC4/cyfitter_cfg.c **** 
 271:Generated_Source\PSoC4/cyfitter_cfg.c **** 	/* Enable the clock in the interrupt controller for the routed interrupts */
 272:Generated_Source\PSoC4/cyfitter_cfg.c **** 	CY_SET_REG8((void *)CYREG_UDB_UDBIF_INT_CLK_CTL, 0x01u);
 206              		.loc 1 272 0
 207              		.code	16
 208 0060 0122     		mov	r2, #1
 209 0062 264B     		ldr	r3, .L13
 210 0064 1A70     		strb	r2, [r3]
 211              	.LVL18:
 212              	.LBB3:
 273:Generated_Source\PSoC4/cyfitter_cfg.c **** 	{
 274:Generated_Source\PSoC4/cyfitter_cfg.c **** 		static const uint32 CYCODE cy_cfg_addr_table[] = {
 275:Generated_Source\PSoC4/cyfitter_cfg.c **** 			0x400F0004u, /* Base address: 0x400F0000 Count: 4 */
 276:Generated_Source\PSoC4/cyfitter_cfg.c **** 			0x400F3267u, /* Base address: 0x400F3200 Count: 103 */
 277:Generated_Source\PSoC4/cyfitter_cfg.c **** 			0x400F3351u, /* Base address: 0x400F3300 Count: 81 */
 278:Generated_Source\PSoC4/cyfitter_cfg.c **** 			0x400F4004u, /* Base address: 0x400F4000 Count: 4 */
 279:Generated_Source\PSoC4/cyfitter_cfg.c **** 			0x400F4102u, /* Base address: 0x400F4100 Count: 2 */
 280:Generated_Source\PSoC4/cyfitter_cfg.c **** 			0x400F4303u, /* Base address: 0x400F4300 Count: 3 */
 281:Generated_Source\PSoC4/cyfitter_cfg.c **** 			0x400F6002u, /* Base address: 0x400F6000 Count: 2 */
 282:Generated_Source\PSoC4/cyfitter_cfg.c **** 		};
 283:Generated_Source\PSoC4/cyfitter_cfg.c **** 
 284:Generated_Source\PSoC4/cyfitter_cfg.c **** 		static const cy_cfg_addrvalue_t CYCODE cy_cfg_data_table[] = {
 285:Generated_Source\PSoC4/cyfitter_cfg.c **** 			{0x02u, 0x18u},
 286:Generated_Source\PSoC4/cyfitter_cfg.c **** 			{0x12u, 0x18u},
 287:Generated_Source\PSoC4/cyfitter_cfg.c **** 			{0x22u, 0x14u},
 288:Generated_Source\PSoC4/cyfitter_cfg.c **** 			{0x32u, 0x0Cu},
 289:Generated_Source\PSoC4/cyfitter_cfg.c **** 			{0x00u, 0x01u},
 290:Generated_Source\PSoC4/cyfitter_cfg.c **** 			{0x03u, 0x10u},
 291:Generated_Source\PSoC4/cyfitter_cfg.c **** 			{0x04u, 0x01u},
 292:Generated_Source\PSoC4/cyfitter_cfg.c **** 			{0x08u, 0x02u},
 293:Generated_Source\PSoC4/cyfitter_cfg.c **** 			{0x0Cu, 0x08u},
 294:Generated_Source\PSoC4/cyfitter_cfg.c **** 			{0x0Du, 0x01u},
 295:Generated_Source\PSoC4/cyfitter_cfg.c **** 			{0x0Eu, 0x26u},
ARM GAS  C:\Users\a85495\AppData\Local\Temp\ccaBlwKz.s 			page 10


 296:Generated_Source\PSoC4/cyfitter_cfg.c **** 			{0x0Fu, 0x08u},
 297:Generated_Source\PSoC4/cyfitter_cfg.c **** 			{0x12u, 0x01u},
 298:Generated_Source\PSoC4/cyfitter_cfg.c **** 			{0x13u, 0x19u},
 299:Generated_Source\PSoC4/cyfitter_cfg.c **** 			{0x16u, 0x10u},
 300:Generated_Source\PSoC4/cyfitter_cfg.c **** 			{0x18u, 0x06u},
 301:Generated_Source\PSoC4/cyfitter_cfg.c **** 			{0x1Au, 0x38u},
 302:Generated_Source\PSoC4/cyfitter_cfg.c **** 			{0x1Bu, 0x10u},
 303:Generated_Source\PSoC4/cyfitter_cfg.c **** 			{0x1Cu, 0x01u},
 304:Generated_Source\PSoC4/cyfitter_cfg.c **** 			{0x1Du, 0x04u},
 305:Generated_Source\PSoC4/cyfitter_cfg.c **** 			{0x20u, 0x02u},
 306:Generated_Source\PSoC4/cyfitter_cfg.c **** 			{0x22u, 0x04u},
 307:Generated_Source\PSoC4/cyfitter_cfg.c **** 			{0x23u, 0x08u},
 308:Generated_Source\PSoC4/cyfitter_cfg.c **** 			{0x24u, 0x04u},
 309:Generated_Source\PSoC4/cyfitter_cfg.c **** 			{0x25u, 0x03u},
 310:Generated_Source\PSoC4/cyfitter_cfg.c **** 			{0x28u, 0x01u},
 311:Generated_Source\PSoC4/cyfitter_cfg.c **** 			{0x2Fu, 0x06u},
 312:Generated_Source\PSoC4/cyfitter_cfg.c **** 			{0x30u, 0x0Eu},
 313:Generated_Source\PSoC4/cyfitter_cfg.c **** 			{0x31u, 0x07u},
 314:Generated_Source\PSoC4/cyfitter_cfg.c **** 			{0x32u, 0x18u},
 315:Generated_Source\PSoC4/cyfitter_cfg.c **** 			{0x34u, 0x01u},
 316:Generated_Source\PSoC4/cyfitter_cfg.c **** 			{0x35u, 0x08u},
 317:Generated_Source\PSoC4/cyfitter_cfg.c **** 			{0x36u, 0x20u},
 318:Generated_Source\PSoC4/cyfitter_cfg.c **** 			{0x37u, 0x10u},
 319:Generated_Source\PSoC4/cyfitter_cfg.c **** 			{0x39u, 0x02u},
 320:Generated_Source\PSoC4/cyfitter_cfg.c **** 			{0x3Eu, 0x10u},
 321:Generated_Source\PSoC4/cyfitter_cfg.c **** 			{0x3Fu, 0x50u},
 322:Generated_Source\PSoC4/cyfitter_cfg.c **** 			{0x40u, 0x15u},
 323:Generated_Source\PSoC4/cyfitter_cfg.c **** 			{0x45u, 0x25u},
 324:Generated_Source\PSoC4/cyfitter_cfg.c **** 			{0x46u, 0x22u},
 325:Generated_Source\PSoC4/cyfitter_cfg.c **** 			{0x47u, 0x01u},
 326:Generated_Source\PSoC4/cyfitter_cfg.c **** 			{0x48u, 0x1Fu},
 327:Generated_Source\PSoC4/cyfitter_cfg.c **** 			{0x49u, 0xFFu},
 328:Generated_Source\PSoC4/cyfitter_cfg.c **** 			{0x4Au, 0xFFu},
 329:Generated_Source\PSoC4/cyfitter_cfg.c **** 			{0x4Bu, 0xFFu},
 330:Generated_Source\PSoC4/cyfitter_cfg.c **** 			{0x4Du, 0xA0u},
 331:Generated_Source\PSoC4/cyfitter_cfg.c **** 			{0x58u, 0x04u},
 332:Generated_Source\PSoC4/cyfitter_cfg.c **** 			{0x59u, 0x04u},
 333:Generated_Source\PSoC4/cyfitter_cfg.c **** 			{0x5Au, 0x04u},
 334:Generated_Source\PSoC4/cyfitter_cfg.c **** 			{0x5Bu, 0x04u},
 335:Generated_Source\PSoC4/cyfitter_cfg.c **** 			{0x5Cu, 0x99u},
 336:Generated_Source\PSoC4/cyfitter_cfg.c **** 			{0x5Du, 0x09u},
 337:Generated_Source\PSoC4/cyfitter_cfg.c **** 			{0x5Fu, 0x01u},
 338:Generated_Source\PSoC4/cyfitter_cfg.c **** 			{0x60u, 0x40u},
 339:Generated_Source\PSoC4/cyfitter_cfg.c **** 			{0x61u, 0x40u},
 340:Generated_Source\PSoC4/cyfitter_cfg.c **** 			{0x62u, 0xC0u},
 341:Generated_Source\PSoC4/cyfitter_cfg.c **** 			{0x64u, 0xC0u},
 342:Generated_Source\PSoC4/cyfitter_cfg.c **** 			{0x66u, 0xC0u},
 343:Generated_Source\PSoC4/cyfitter_cfg.c **** 			{0x82u, 0x21u},
 344:Generated_Source\PSoC4/cyfitter_cfg.c **** 			{0x83u, 0x08u},
 345:Generated_Source\PSoC4/cyfitter_cfg.c **** 			{0x84u, 0x6Du},
 346:Generated_Source\PSoC4/cyfitter_cfg.c **** 			{0x85u, 0x02u},
 347:Generated_Source\PSoC4/cyfitter_cfg.c **** 			{0x86u, 0x12u},
 348:Generated_Source\PSoC4/cyfitter_cfg.c **** 			{0x87u, 0x20u},
 349:Generated_Source\PSoC4/cyfitter_cfg.c **** 			{0x8Bu, 0x57u},
 350:Generated_Source\PSoC4/cyfitter_cfg.c **** 			{0x8Cu, 0x21u},
 351:Generated_Source\PSoC4/cyfitter_cfg.c **** 			{0x90u, 0xA4u},
 352:Generated_Source\PSoC4/cyfitter_cfg.c **** 			{0x92u, 0x5Au},
ARM GAS  C:\Users\a85495\AppData\Local\Temp\ccaBlwKz.s 			page 11


 353:Generated_Source\PSoC4/cyfitter_cfg.c **** 			{0x95u, 0x04u},
 354:Generated_Source\PSoC4/cyfitter_cfg.c **** 			{0x96u, 0x49u},
 355:Generated_Source\PSoC4/cyfitter_cfg.c **** 			{0x97u, 0x90u},
 356:Generated_Source\PSoC4/cyfitter_cfg.c **** 			{0x9Du, 0x01u},
 357:Generated_Source\PSoC4/cyfitter_cfg.c **** 			{0x9Eu, 0x89u},
 358:Generated_Source\PSoC4/cyfitter_cfg.c **** 			{0xA2u, 0x49u},
 359:Generated_Source\PSoC4/cyfitter_cfg.c **** 			{0xA4u, 0x10u},
 360:Generated_Source\PSoC4/cyfitter_cfg.c **** 			{0xA6u, 0x02u},
 361:Generated_Source\PSoC4/cyfitter_cfg.c **** 			{0xA9u, 0x57u},
 362:Generated_Source\PSoC4/cyfitter_cfg.c **** 			{0xAAu, 0x49u},
 363:Generated_Source\PSoC4/cyfitter_cfg.c **** 			{0xABu, 0x08u},
 364:Generated_Source\PSoC4/cyfitter_cfg.c **** 			{0xADu, 0xA0u},
 365:Generated_Source\PSoC4/cyfitter_cfg.c **** 			{0xAFu, 0x5Fu},
 366:Generated_Source\PSoC4/cyfitter_cfg.c **** 			{0xB0u, 0x07u},
 367:Generated_Source\PSoC4/cyfitter_cfg.c **** 			{0xB3u, 0xC0u},
 368:Generated_Source\PSoC4/cyfitter_cfg.c **** 			{0xB4u, 0x38u},
 369:Generated_Source\PSoC4/cyfitter_cfg.c **** 			{0xB5u, 0x30u},
 370:Generated_Source\PSoC4/cyfitter_cfg.c **** 			{0xB6u, 0xC0u},
 371:Generated_Source\PSoC4/cyfitter_cfg.c **** 			{0xB7u, 0x0Fu},
 372:Generated_Source\PSoC4/cyfitter_cfg.c **** 			{0xB8u, 0x02u},
 373:Generated_Source\PSoC4/cyfitter_cfg.c **** 			{0xBAu, 0x80u},
 374:Generated_Source\PSoC4/cyfitter_cfg.c **** 			{0xBBu, 0x28u},
 375:Generated_Source\PSoC4/cyfitter_cfg.c **** 			{0xC0u, 0x13u},
 376:Generated_Source\PSoC4/cyfitter_cfg.c **** 			{0xC5u, 0xCEu},
 377:Generated_Source\PSoC4/cyfitter_cfg.c **** 			{0xC7u, 0xB0u},
 378:Generated_Source\PSoC4/cyfitter_cfg.c **** 			{0xC8u, 0x23u},
 379:Generated_Source\PSoC4/cyfitter_cfg.c **** 			{0xC9u, 0xFFu},
 380:Generated_Source\PSoC4/cyfitter_cfg.c **** 			{0xCAu, 0xFFu},
 381:Generated_Source\PSoC4/cyfitter_cfg.c **** 			{0xCBu, 0xFFu},
 382:Generated_Source\PSoC4/cyfitter_cfg.c **** 			{0xD8u, 0x04u},
 383:Generated_Source\PSoC4/cyfitter_cfg.c **** 			{0xD9u, 0x04u},
 384:Generated_Source\PSoC4/cyfitter_cfg.c **** 			{0xDAu, 0x04u},
 385:Generated_Source\PSoC4/cyfitter_cfg.c **** 			{0xDBu, 0x04u},
 386:Generated_Source\PSoC4/cyfitter_cfg.c **** 			{0xDCu, 0x99u},
 387:Generated_Source\PSoC4/cyfitter_cfg.c **** 			{0xDDu, 0x09u},
 388:Generated_Source\PSoC4/cyfitter_cfg.c **** 			{0xDFu, 0x01u},
 389:Generated_Source\PSoC4/cyfitter_cfg.c **** 			{0xE2u, 0xC0u},
 390:Generated_Source\PSoC4/cyfitter_cfg.c **** 			{0xE4u, 0x40u},
 391:Generated_Source\PSoC4/cyfitter_cfg.c **** 			{0xE5u, 0x01u},
 392:Generated_Source\PSoC4/cyfitter_cfg.c **** 			{0x00u, 0x82u},
 393:Generated_Source\PSoC4/cyfitter_cfg.c **** 			{0x03u, 0x20u},
 394:Generated_Source\PSoC4/cyfitter_cfg.c **** 			{0x04u, 0x8Au},
 395:Generated_Source\PSoC4/cyfitter_cfg.c **** 			{0x06u, 0x08u},
 396:Generated_Source\PSoC4/cyfitter_cfg.c **** 			{0x0Au, 0xA2u},
 397:Generated_Source\PSoC4/cyfitter_cfg.c **** 			{0x0Du, 0x08u},
 398:Generated_Source\PSoC4/cyfitter_cfg.c **** 			{0x0Eu, 0x86u},
 399:Generated_Source\PSoC4/cyfitter_cfg.c **** 			{0x10u, 0xA0u},
 400:Generated_Source\PSoC4/cyfitter_cfg.c **** 			{0x12u, 0x08u},
 401:Generated_Source\PSoC4/cyfitter_cfg.c **** 			{0x15u, 0x06u},
 402:Generated_Source\PSoC4/cyfitter_cfg.c **** 			{0x17u, 0x10u},
 403:Generated_Source\PSoC4/cyfitter_cfg.c **** 			{0x18u, 0x80u},
 404:Generated_Source\PSoC4/cyfitter_cfg.c **** 			{0x19u, 0x50u},
 405:Generated_Source\PSoC4/cyfitter_cfg.c **** 			{0x1Au, 0x86u},
 406:Generated_Source\PSoC4/cyfitter_cfg.c **** 			{0x1Bu, 0x22u},
 407:Generated_Source\PSoC4/cyfitter_cfg.c **** 			{0x1Cu, 0x08u},
 408:Generated_Source\PSoC4/cyfitter_cfg.c **** 			{0x1Du, 0x08u},
 409:Generated_Source\PSoC4/cyfitter_cfg.c **** 			{0x1Eu, 0x80u},
ARM GAS  C:\Users\a85495\AppData\Local\Temp\ccaBlwKz.s 			page 12


 410:Generated_Source\PSoC4/cyfitter_cfg.c **** 			{0x1Fu, 0x80u},
 411:Generated_Source\PSoC4/cyfitter_cfg.c **** 			{0x20u, 0x01u},
 412:Generated_Source\PSoC4/cyfitter_cfg.c **** 			{0x22u, 0x18u},
 413:Generated_Source\PSoC4/cyfitter_cfg.c **** 			{0x23u, 0x04u},
 414:Generated_Source\PSoC4/cyfitter_cfg.c **** 			{0x26u, 0x80u},
 415:Generated_Source\PSoC4/cyfitter_cfg.c **** 			{0x27u, 0x84u},
 416:Generated_Source\PSoC4/cyfitter_cfg.c **** 			{0x29u, 0x10u},
 417:Generated_Source\PSoC4/cyfitter_cfg.c **** 			{0x2Bu, 0x02u},
 418:Generated_Source\PSoC4/cyfitter_cfg.c **** 			{0x2Du, 0x01u},
 419:Generated_Source\PSoC4/cyfitter_cfg.c **** 			{0x2Fu, 0x22u},
 420:Generated_Source\PSoC4/cyfitter_cfg.c **** 			{0x31u, 0x40u},
 421:Generated_Source\PSoC4/cyfitter_cfg.c **** 			{0x32u, 0x08u},
 422:Generated_Source\PSoC4/cyfitter_cfg.c **** 			{0x34u, 0x20u},
 423:Generated_Source\PSoC4/cyfitter_cfg.c **** 			{0x35u, 0x01u},
 424:Generated_Source\PSoC4/cyfitter_cfg.c **** 			{0x37u, 0x82u},
 425:Generated_Source\PSoC4/cyfitter_cfg.c **** 			{0x38u, 0x01u},
 426:Generated_Source\PSoC4/cyfitter_cfg.c **** 			{0x3Au, 0x10u},
 427:Generated_Source\PSoC4/cyfitter_cfg.c **** 			{0x3Bu, 0x04u},
 428:Generated_Source\PSoC4/cyfitter_cfg.c **** 			{0x3Cu, 0x80u},
 429:Generated_Source\PSoC4/cyfitter_cfg.c **** 			{0x3Eu, 0x42u},
 430:Generated_Source\PSoC4/cyfitter_cfg.c **** 			{0x40u, 0x01u},
 431:Generated_Source\PSoC4/cyfitter_cfg.c **** 			{0x41u, 0x08u},
 432:Generated_Source\PSoC4/cyfitter_cfg.c **** 			{0x47u, 0x80u},
 433:Generated_Source\PSoC4/cyfitter_cfg.c **** 			{0x48u, 0x40u},
 434:Generated_Source\PSoC4/cyfitter_cfg.c **** 			{0x4Au, 0x20u},
 435:Generated_Source\PSoC4/cyfitter_cfg.c **** 			{0x4Cu, 0x80u},
 436:Generated_Source\PSoC4/cyfitter_cfg.c **** 			{0x4Du, 0x04u},
 437:Generated_Source\PSoC4/cyfitter_cfg.c **** 			{0x4Fu, 0x80u},
 438:Generated_Source\PSoC4/cyfitter_cfg.c **** 			{0x51u, 0x01u},
 439:Generated_Source\PSoC4/cyfitter_cfg.c **** 			{0x56u, 0x18u},
 440:Generated_Source\PSoC4/cyfitter_cfg.c **** 			{0x57u, 0x40u},
 441:Generated_Source\PSoC4/cyfitter_cfg.c **** 			{0x58u, 0x10u},
 442:Generated_Source\PSoC4/cyfitter_cfg.c **** 			{0x5Au, 0x40u},
 443:Generated_Source\PSoC4/cyfitter_cfg.c **** 			{0x60u, 0x20u},
 444:Generated_Source\PSoC4/cyfitter_cfg.c **** 			{0x61u, 0x01u},
 445:Generated_Source\PSoC4/cyfitter_cfg.c **** 			{0x68u, 0x01u},
 446:Generated_Source\PSoC4/cyfitter_cfg.c **** 			{0x69u, 0x01u},
 447:Generated_Source\PSoC4/cyfitter_cfg.c **** 			{0x6Bu, 0x02u},
 448:Generated_Source\PSoC4/cyfitter_cfg.c **** 			{0x6Cu, 0x05u},
 449:Generated_Source\PSoC4/cyfitter_cfg.c **** 			{0x6Eu, 0x02u},
 450:Generated_Source\PSoC4/cyfitter_cfg.c **** 			{0x6Fu, 0x10u},
 451:Generated_Source\PSoC4/cyfitter_cfg.c **** 			{0x70u, 0x20u},
 452:Generated_Source\PSoC4/cyfitter_cfg.c **** 			{0x72u, 0x02u},
 453:Generated_Source\PSoC4/cyfitter_cfg.c **** 			{0x80u, 0x20u},
 454:Generated_Source\PSoC4/cyfitter_cfg.c **** 			{0x83u, 0x80u},
 455:Generated_Source\PSoC4/cyfitter_cfg.c **** 			{0x84u, 0x04u},
 456:Generated_Source\PSoC4/cyfitter_cfg.c **** 			{0x88u, 0x10u},
 457:Generated_Source\PSoC4/cyfitter_cfg.c **** 			{0x8Au, 0x20u},
 458:Generated_Source\PSoC4/cyfitter_cfg.c **** 			{0x8Eu, 0x80u},
 459:Generated_Source\PSoC4/cyfitter_cfg.c **** 			{0x8Fu, 0x04u},
 460:Generated_Source\PSoC4/cyfitter_cfg.c **** 			{0xC0u, 0xFDu},
 461:Generated_Source\PSoC4/cyfitter_cfg.c **** 			{0xC2u, 0xFDu},
 462:Generated_Source\PSoC4/cyfitter_cfg.c **** 			{0xC4u, 0x7Eu},
 463:Generated_Source\PSoC4/cyfitter_cfg.c **** 			{0xCAu, 0xDCu},
 464:Generated_Source\PSoC4/cyfitter_cfg.c **** 			{0xCCu, 0xBAu},
 465:Generated_Source\PSoC4/cyfitter_cfg.c **** 			{0xCEu, 0x97u},
 466:Generated_Source\PSoC4/cyfitter_cfg.c **** 			{0xD0u, 0x1Au},
ARM GAS  C:\Users\a85495\AppData\Local\Temp\ccaBlwKz.s 			page 13


 467:Generated_Source\PSoC4/cyfitter_cfg.c **** 			{0xD2u, 0x10u},
 468:Generated_Source\PSoC4/cyfitter_cfg.c **** 			{0xD6u, 0x0Cu},
 469:Generated_Source\PSoC4/cyfitter_cfg.c **** 			{0xD8u, 0x03u},
 470:Generated_Source\PSoC4/cyfitter_cfg.c **** 			{0xE2u, 0x40u},
 471:Generated_Source\PSoC4/cyfitter_cfg.c **** 			{0xE4u, 0x02u},
 472:Generated_Source\PSoC4/cyfitter_cfg.c **** 			{0xE6u, 0x10u},
 473:Generated_Source\PSoC4/cyfitter_cfg.c **** 			{0x6Cu, 0x01u},
 474:Generated_Source\PSoC4/cyfitter_cfg.c **** 			{0x70u, 0x40u},
 475:Generated_Source\PSoC4/cyfitter_cfg.c **** 			{0xDAu, 0x80u},
 476:Generated_Source\PSoC4/cyfitter_cfg.c **** 			{0xDCu, 0x20u},
 477:Generated_Source\PSoC4/cyfitter_cfg.c **** 			{0x8Cu, 0x41u},
 478:Generated_Source\PSoC4/cyfitter_cfg.c **** 			{0x94u, 0x82u},
 479:Generated_Source\PSoC4/cyfitter_cfg.c **** 			{0x57u, 0x08u},
 480:Generated_Source\PSoC4/cyfitter_cfg.c **** 			{0x87u, 0x08u},
 481:Generated_Source\PSoC4/cyfitter_cfg.c **** 			{0xD4u, 0x02u},
 482:Generated_Source\PSoC4/cyfitter_cfg.c **** 			{0x02u, 0x01u},
 483:Generated_Source\PSoC4/cyfitter_cfg.c **** 			{0x11u, 0x01u},
 484:Generated_Source\PSoC4/cyfitter_cfg.c **** 		};
 485:Generated_Source\PSoC4/cyfitter_cfg.c **** 
 486:Generated_Source\PSoC4/cyfitter_cfg.c **** 
 487:Generated_Source\PSoC4/cyfitter_cfg.c **** 
 488:Generated_Source\PSoC4/cyfitter_cfg.c **** 		CYPACKED typedef struct {
 489:Generated_Source\PSoC4/cyfitter_cfg.c **** 			void CYFAR *address;
 490:Generated_Source\PSoC4/cyfitter_cfg.c **** 			uint16 size;
 491:Generated_Source\PSoC4/cyfitter_cfg.c **** 		} CYPACKED_ATTR cfg_memset_t;
 492:Generated_Source\PSoC4/cyfitter_cfg.c **** 
 493:Generated_Source\PSoC4/cyfitter_cfg.c **** 		static const cfg_memset_t CYCODE cfg_memset_list [] = {
 494:Generated_Source\PSoC4/cyfitter_cfg.c **** 			/* address, size */
 495:Generated_Source\PSoC4/cyfitter_cfg.c **** 			{(void CYFAR *)(CYDEV_UDB_P0_U0_BASE), 1024u},
 496:Generated_Source\PSoC4/cyfitter_cfg.c **** 			{(void CYFAR *)(CYDEV_UDB_DSI0_BASE), 1024u},
 497:Generated_Source\PSoC4/cyfitter_cfg.c **** 		};
 498:Generated_Source\PSoC4/cyfitter_cfg.c **** 
 499:Generated_Source\PSoC4/cyfitter_cfg.c **** 		uint8 CYDATA i;
 500:Generated_Source\PSoC4/cyfitter_cfg.c **** 
 501:Generated_Source\PSoC4/cyfitter_cfg.c **** 		/* Zero out critical memory blocks before beginning configuration */
 502:Generated_Source\PSoC4/cyfitter_cfg.c **** 		for (i = 0u; i < (sizeof(cfg_memset_list)/sizeof(cfg_memset_list[0])); i++)
 213              		.loc 1 502 0
 214 0066 0024     		mov	r4, #0
 215 0068 10E0     		b	.L11
 216              	.LVL19:
 217              	.L12:
 218              	.LBB4:
 503:Generated_Source\PSoC4/cyfitter_cfg.c **** 		{
 504:Generated_Source\PSoC4/cyfitter_cfg.c **** 			const cfg_memset_t CYCODE * CYDATA ms = &cfg_memset_list[i];
 505:Generated_Source\PSoC4/cyfitter_cfg.c **** 			CYMEMZERO(ms->address, (size_t)(uint32)(ms->size));
 219              		.loc 1 505 0 discriminator 3
 220 006a 2548     		ldr	r0, .L13+4
 221 006c 6300     		lsl	r3, r4, #1
 222 006e 1A19     		add	r2, r3, r4
 223 0070 5200     		lsl	r2, r2, #1
 224 0072 8218     		add	r2, r0, r2
 225 0074 9188     		ldrh	r1, [r2, #4]
 226 0076 1B19     		add	r3, r3, r4
 227 0078 5B00     		lsl	r3, r3, #1
 228 007a 1A5A     		ldrh	r2, [r3, r0]
 229 007c C318     		add	r3, r0, r3
 230 007e 5888     		ldrh	r0, [r3, #2]
ARM GAS  C:\Users\a85495\AppData\Local\Temp\ccaBlwKz.s 			page 14


 231 0080 0004     		lsl	r0, r0, #16
 232 0082 1043     		orr	r0, r2
 233 0084 FFF7FEFF 		bl	CYMEMZERO
 234              	.LVL20:
 235              	.LBE4:
 502:Generated_Source\PSoC4/cyfitter_cfg.c **** 		{
 236              		.loc 1 502 0 discriminator 3
 237 0088 0134     		add	r4, r4, #1
 238              	.LVL21:
 239 008a E4B2     		uxtb	r4, r4
 240              	.LVL22:
 241              	.L11:
 502:Generated_Source\PSoC4/cyfitter_cfg.c **** 		{
 242              		.loc 1 502 0 is_stmt 0 discriminator 1
 243 008c 012C     		cmp	r4, #1
 244 008e ECD9     		bls	.L12
 506:Generated_Source\PSoC4/cyfitter_cfg.c **** 		}
 507:Generated_Source\PSoC4/cyfitter_cfg.c **** 
 508:Generated_Source\PSoC4/cyfitter_cfg.c **** 		cfg_write_bytes32(cy_cfg_addr_table, cy_cfg_data_table);
 245              		.loc 1 508 0 is_stmt 1
 246 0090 1B49     		ldr	r1, .L13+4
 247 0092 081C     		mov	r0, r1
 248 0094 0C30     		add	r0, r0, #12
 249 0096 2831     		add	r1, r1, #40
 250 0098 FFF7FEFF 		bl	cfg_write_bytes32
 251              	.LVL23:
 509:Generated_Source\PSoC4/cyfitter_cfg.c **** 
 510:Generated_Source\PSoC4/cyfitter_cfg.c **** 		/* HSIOM Starting address: CYDEV_HSIOM_BASE */
 511:Generated_Source\PSoC4/cyfitter_cfg.c **** 		CY_SET_XTND_REG32((void CYFAR *)(CYREG_HSIOM_PORT_SEL3), 0x0000EE30u);
 252              		.loc 1 511 0
 253 009c 194A     		ldr	r2, .L13+8
 254 009e 1A4B     		ldr	r3, .L13+12
 255 00a0 1A60     		str	r2, [r3]
 512:Generated_Source\PSoC4/cyfitter_cfg.c **** 
 513:Generated_Source\PSoC4/cyfitter_cfg.c **** 		/* UDB_PA_0 Starting address: CYDEV_UDB_PA0_BASE */
 514:Generated_Source\PSoC4/cyfitter_cfg.c **** 		CY_SET_XTND_REG32((void CYFAR *)(CYDEV_UDB_PA0_BASE), 0x00990000u);
 256              		.loc 1 514 0
 257 00a2 9923     		mov	r3, #153
 258 00a4 1B04     		lsl	r3, r3, #16
 259 00a6 194A     		ldr	r2, .L13+16
 260 00a8 1360     		str	r3, [r2]
 515:Generated_Source\PSoC4/cyfitter_cfg.c **** 
 516:Generated_Source\PSoC4/cyfitter_cfg.c **** 		/* UDB_PA_3 Starting address: CYDEV_UDB_PA3_BASE */
 517:Generated_Source\PSoC4/cyfitter_cfg.c **** 		CY_SET_XTND_REG32((void CYFAR *)(CYDEV_UDB_PA3_BASE), 0x00990000u);
 261              		.loc 1 517 0
 262 00aa 194A     		ldr	r2, .L13+20
 263 00ac 1360     		str	r3, [r2]
 518:Generated_Source\PSoC4/cyfitter_cfg.c **** 		CY_SET_XTND_REG32((void CYFAR *)(CYREG_UDB_PA3_CFG8), 0x00040000u);
 264              		.loc 1 518 0
 265 00ae 8022     		mov	r2, #128
 266 00b0 D202     		lsl	r2, r2, #11
 267 00b2 184B     		ldr	r3, .L13+24
 268 00b4 1A60     		str	r2, [r3]
 519:Generated_Source\PSoC4/cyfitter_cfg.c **** 
 520:Generated_Source\PSoC4/cyfitter_cfg.c **** 		/* INT_SELECT Starting address: CYDEV_CPUSS_INTR_SELECT */
 521:Generated_Source\PSoC4/cyfitter_cfg.c **** 		CY_SET_XTND_REG32((void CYFAR *)(CYREG_CPUSS_INTR_SELECT), 0x00000005u);
 269              		.loc 1 521 0
ARM GAS  C:\Users\a85495\AppData\Local\Temp\ccaBlwKz.s 			page 15


 270 00b6 0522     		mov	r2, #5
 271 00b8 174B     		ldr	r3, .L13+28
 272 00ba 1A60     		str	r2, [r3]
 522:Generated_Source\PSoC4/cyfitter_cfg.c **** 
 523:Generated_Source\PSoC4/cyfitter_cfg.c **** 		/* INT_CONFIG Starting address: CYDEV_UDB_INT_CFG */
 524:Generated_Source\PSoC4/cyfitter_cfg.c **** 		CY_SET_XTND_REG32((void CYFAR *)(CYREG_UDB_INT_CFG), 0x00000006u);
 273              		.loc 1 524 0
 274 00bc 0620     		mov	r0, #6
 275 00be 174B     		ldr	r3, .L13+32
 276 00c0 1860     		str	r0, [r3]
 525:Generated_Source\PSoC4/cyfitter_cfg.c **** 
 526:Generated_Source\PSoC4/cyfitter_cfg.c **** 		/* Enable digital routing */
 527:Generated_Source\PSoC4/cyfitter_cfg.c **** 		CY_SET_XTND_REG8((void *)CYREG_UDB_UDBIF_BANK_CTL, CY_GET_XTND_REG8((void *)CYREG_UDB_UDBIF_BANK_
 277              		.loc 1 527 0
 278 00c2 174B     		ldr	r3, .L13+36
 279 00c4 1978     		ldrb	r1, [r3]
 280 00c6 033A     		sub	r2, r2, #3
 281 00c8 0A43     		orr	r2, r1
 282 00ca 1A70     		strb	r2, [r3]
 528:Generated_Source\PSoC4/cyfitter_cfg.c **** 
 529:Generated_Source\PSoC4/cyfitter_cfg.c **** 		/* Enable UDB array */
 530:Generated_Source\PSoC4/cyfitter_cfg.c **** 		CY_SET_XTND_REG8((void *)CYREG_UDB_UDBIF_WAIT_CFG, (uint8)((CY_GET_XTND_REG8((void *)CYREG_UDB_UD
 283              		.loc 1 530 0
 284 00cc 154C     		ldr	r4, .L13+40
 285              	.LVL24:
 286 00ce 2278     		ldrb	r2, [r4]
 287 00d0 3C21     		mov	r1, #60
 288 00d2 8A43     		bic	r2, r1
 289 00d4 2839     		sub	r1, r1, #40
 290 00d6 0A43     		orr	r2, r1
 291 00d8 2270     		strb	r2, [r4]
 531:Generated_Source\PSoC4/cyfitter_cfg.c **** 		CY_SET_XTND_REG8((void *)CYREG_UDB_UDBIF_BANK_CTL, (uint8)(CY_GET_XTND_REG8((void *)CYREG_UDB_UDB
 292              		.loc 1 531 0
 293 00da 1978     		ldrb	r1, [r3]
 294 00dc 1622     		mov	r2, #22
 295 00de 0A43     		orr	r2, r1
 296 00e0 1A70     		strb	r2, [r3]
 297              	.LBE3:
 532:Generated_Source\PSoC4/cyfitter_cfg.c **** 	}
 533:Generated_Source\PSoC4/cyfitter_cfg.c **** 
 534:Generated_Source\PSoC4/cyfitter_cfg.c **** 	/* Perform second pass device configuration. These items must be configured in specific order afte
 535:Generated_Source\PSoC4/cyfitter_cfg.c **** 	/* IOPINS0_0 Starting address: CYDEV_PRT0_BASE */
 536:Generated_Source\PSoC4/cyfitter_cfg.c **** 	CY_SET_XTND_REG32((void CYFAR *)(CYREG_PRT0_PC), 0x00000006u);
 298              		.loc 1 536 0
 299 00e2 114B     		ldr	r3, .L13+44
 300 00e4 1860     		str	r0, [r3]
 537:Generated_Source\PSoC4/cyfitter_cfg.c **** 
 538:Generated_Source\PSoC4/cyfitter_cfg.c **** 	/* IOPINS0_3 Starting address: CYDEV_PRT3_BASE */
 539:Generated_Source\PSoC4/cyfitter_cfg.c **** 	CY_SET_XTND_REG32((void CYFAR *)(CYDEV_PRT3_BASE), 0x00000002u);
 301              		.loc 1 539 0
 302 00e6 114B     		ldr	r3, .L13+48
 303 00e8 0222     		mov	r2, #2
 304 00ea 1A60     		str	r2, [r3]
 540:Generated_Source\PSoC4/cyfitter_cfg.c **** 	CY_SET_XTND_REG32((void CYFAR *)(CYREG_PRT3_PC), 0x00000DB0u);
 305              		.loc 1 540 0
 306 00ec DB22     		mov	r2, #219
 307 00ee 1201     		lsl	r2, r2, #4
ARM GAS  C:\Users\a85495\AppData\Local\Temp\ccaBlwKz.s 			page 16


 308 00f0 0F4B     		ldr	r3, .L13+52
 309 00f2 1A60     		str	r2, [r3]
 541:Generated_Source\PSoC4/cyfitter_cfg.c **** 
 542:Generated_Source\PSoC4/cyfitter_cfg.c **** 
 543:Generated_Source\PSoC4/cyfitter_cfg.c **** 	/* Setup clocks based on selections from Clock DWR */
 544:Generated_Source\PSoC4/cyfitter_cfg.c **** 	ClockSetup();
 310              		.loc 1 544 0
 311 00f4 FFF784FF 		bl	ClockSetup
 312              	.LVL25:
 545:Generated_Source\PSoC4/cyfitter_cfg.c **** 
 546:Generated_Source\PSoC4/cyfitter_cfg.c **** 	/* Perform basic analog initialization to defaults */
 547:Generated_Source\PSoC4/cyfitter_cfg.c **** 	AnalogSetDefault();
 548:Generated_Source\PSoC4/cyfitter_cfg.c **** 
 549:Generated_Source\PSoC4/cyfitter_cfg.c **** }
 313              		.loc 1 549 0
 314              		@ sp needed
 315 00f8 10BD     		pop	{r4, pc}
 316              	.L14:
 317 00fa C046     		.align	2
 318              	.L13:
 319 00fc 1C700F40 		.word	1074753564
 320 0100 00000000 		.word	.LANCHOR0
 321 0104 30EE0000 		.word	60976
 322 0108 0C000140 		.word	1073807372
 323 010c 00500F40 		.word	1074745344
 324 0110 30500F40 		.word	1074745392
 325 0114 38500F40 		.word	1074745400
 326 0118 20000040 		.word	1073741856
 327 011c 00800F40 		.word	1074757632
 328 0120 00700F40 		.word	1074753536
 329 0124 01700F40 		.word	1074753537
 330 0128 08000440 		.word	1074003976
 331 012c 00030440 		.word	1074004736
 332 0130 08030440 		.word	1074004744
 333              		.cfi_endproc
 334              	.LFE6:
 335              		.size	cyfitter_cfg, .-cyfitter_cfg
 336              		.section	.rodata
 337              		.align	2
 338              		.set	.LANCHOR0,. + 0
 339              		.type	cfg_memset_list.4748, %object
 340              		.size	cfg_memset_list.4748, 12
 341              	cfg_memset_list.4748:
 342 0000 00300F40 		.word	1074737152
 343 0004 0004     		.short	1024
 344 0006 00400F40 		.4byte	1074741248
 345 000a 0004     		.short	1024
 346              		.type	cy_cfg_addr_table.4742, %object
 347              		.size	cy_cfg_addr_table.4742, 28
 348              	cy_cfg_addr_table.4742:
 349 000c 04000F40 		.word	1074724868
 350 0010 67320F40 		.word	1074737767
 351 0014 51330F40 		.word	1074738001
 352 0018 04400F40 		.word	1074741252
 353 001c 02410F40 		.word	1074741506
 354 0020 03430F40 		.word	1074742019
 355 0024 02600F40 		.word	1074749442
ARM GAS  C:\Users\a85495\AppData\Local\Temp\ccaBlwKz.s 			page 17


 356              		.type	cy_cfg_data_table.4743, %object
 357              		.size	cy_cfg_data_table.4743, 398
 358              	cy_cfg_data_table.4743:
 359 0028 02       		.byte	2
 360 0029 18       		.byte	24
 361 002a 12       		.byte	18
 362 002b 18       		.byte	24
 363 002c 22       		.byte	34
 364 002d 14       		.byte	20
 365 002e 32       		.byte	50
 366 002f 0C       		.byte	12
 367 0030 00       		.byte	0
 368 0031 01       		.byte	1
 369 0032 03       		.byte	3
 370 0033 10       		.byte	16
 371 0034 04       		.byte	4
 372 0035 01       		.byte	1
 373 0036 08       		.byte	8
 374 0037 02       		.byte	2
 375 0038 0C       		.byte	12
 376 0039 08       		.byte	8
 377 003a 0D       		.byte	13
 378 003b 01       		.byte	1
 379 003c 0E       		.byte	14
 380 003d 26       		.byte	38
 381 003e 0F       		.byte	15
 382 003f 08       		.byte	8
 383 0040 12       		.byte	18
 384 0041 01       		.byte	1
 385 0042 13       		.byte	19
 386 0043 19       		.byte	25
 387 0044 16       		.byte	22
 388 0045 10       		.byte	16
 389 0046 18       		.byte	24
 390 0047 06       		.byte	6
 391 0048 1A       		.byte	26
 392 0049 38       		.byte	56
 393 004a 1B       		.byte	27
 394 004b 10       		.byte	16
 395 004c 1C       		.byte	28
 396 004d 01       		.byte	1
 397 004e 1D       		.byte	29
 398 004f 04       		.byte	4
 399 0050 20       		.byte	32
 400 0051 02       		.byte	2
 401 0052 22       		.byte	34
 402 0053 04       		.byte	4
 403 0054 23       		.byte	35
 404 0055 08       		.byte	8
 405 0056 24       		.byte	36
 406 0057 04       		.byte	4
 407 0058 25       		.byte	37
 408 0059 03       		.byte	3
 409 005a 28       		.byte	40
 410 005b 01       		.byte	1
 411 005c 2F       		.byte	47
 412 005d 06       		.byte	6
ARM GAS  C:\Users\a85495\AppData\Local\Temp\ccaBlwKz.s 			page 18


 413 005e 30       		.byte	48
 414 005f 0E       		.byte	14
 415 0060 31       		.byte	49
 416 0061 07       		.byte	7
 417 0062 32       		.byte	50
 418 0063 18       		.byte	24
 419 0064 34       		.byte	52
 420 0065 01       		.byte	1
 421 0066 35       		.byte	53
 422 0067 08       		.byte	8
 423 0068 36       		.byte	54
 424 0069 20       		.byte	32
 425 006a 37       		.byte	55
 426 006b 10       		.byte	16
 427 006c 39       		.byte	57
 428 006d 02       		.byte	2
 429 006e 3E       		.byte	62
 430 006f 10       		.byte	16
 431 0070 3F       		.byte	63
 432 0071 50       		.byte	80
 433 0072 40       		.byte	64
 434 0073 15       		.byte	21
 435 0074 45       		.byte	69
 436 0075 25       		.byte	37
 437 0076 46       		.byte	70
 438 0077 22       		.byte	34
 439 0078 47       		.byte	71
 440 0079 01       		.byte	1
 441 007a 48       		.byte	72
 442 007b 1F       		.byte	31
 443 007c 49       		.byte	73
 444 007d FF       		.byte	-1
 445 007e 4A       		.byte	74
 446 007f FF       		.byte	-1
 447 0080 4B       		.byte	75
 448 0081 FF       		.byte	-1
 449 0082 4D       		.byte	77
 450 0083 A0       		.byte	-96
 451 0084 58       		.byte	88
 452 0085 04       		.byte	4
 453 0086 59       		.byte	89
 454 0087 04       		.byte	4
 455 0088 5A       		.byte	90
 456 0089 04       		.byte	4
 457 008a 5B       		.byte	91
 458 008b 04       		.byte	4
 459 008c 5C       		.byte	92
 460 008d 99       		.byte	-103
 461 008e 5D       		.byte	93
 462 008f 09       		.byte	9
 463 0090 5F       		.byte	95
 464 0091 01       		.byte	1
 465 0092 60       		.byte	96
 466 0093 40       		.byte	64
 467 0094 61       		.byte	97
 468 0095 40       		.byte	64
 469 0096 62       		.byte	98
ARM GAS  C:\Users\a85495\AppData\Local\Temp\ccaBlwKz.s 			page 19


 470 0097 C0       		.byte	-64
 471 0098 64       		.byte	100
 472 0099 C0       		.byte	-64
 473 009a 66       		.byte	102
 474 009b C0       		.byte	-64
 475 009c 82       		.byte	-126
 476 009d 21       		.byte	33
 477 009e 83       		.byte	-125
 478 009f 08       		.byte	8
 479 00a0 84       		.byte	-124
 480 00a1 6D       		.byte	109
 481 00a2 85       		.byte	-123
 482 00a3 02       		.byte	2
 483 00a4 86       		.byte	-122
 484 00a5 12       		.byte	18
 485 00a6 87       		.byte	-121
 486 00a7 20       		.byte	32
 487 00a8 8B       		.byte	-117
 488 00a9 57       		.byte	87
 489 00aa 8C       		.byte	-116
 490 00ab 21       		.byte	33
 491 00ac 90       		.byte	-112
 492 00ad A4       		.byte	-92
 493 00ae 92       		.byte	-110
 494 00af 5A       		.byte	90
 495 00b0 95       		.byte	-107
 496 00b1 04       		.byte	4
 497 00b2 96       		.byte	-106
 498 00b3 49       		.byte	73
 499 00b4 97       		.byte	-105
 500 00b5 90       		.byte	-112
 501 00b6 9D       		.byte	-99
 502 00b7 01       		.byte	1
 503 00b8 9E       		.byte	-98
 504 00b9 89       		.byte	-119
 505 00ba A2       		.byte	-94
 506 00bb 49       		.byte	73
 507 00bc A4       		.byte	-92
 508 00bd 10       		.byte	16
 509 00be A6       		.byte	-90
 510 00bf 02       		.byte	2
 511 00c0 A9       		.byte	-87
 512 00c1 57       		.byte	87
 513 00c2 AA       		.byte	-86
 514 00c3 49       		.byte	73
 515 00c4 AB       		.byte	-85
 516 00c5 08       		.byte	8
 517 00c6 AD       		.byte	-83
 518 00c7 A0       		.byte	-96
 519 00c8 AF       		.byte	-81
 520 00c9 5F       		.byte	95
 521 00ca B0       		.byte	-80
 522 00cb 07       		.byte	7
 523 00cc B3       		.byte	-77
 524 00cd C0       		.byte	-64
 525 00ce B4       		.byte	-76
 526 00cf 38       		.byte	56
ARM GAS  C:\Users\a85495\AppData\Local\Temp\ccaBlwKz.s 			page 20


 527 00d0 B5       		.byte	-75
 528 00d1 30       		.byte	48
 529 00d2 B6       		.byte	-74
 530 00d3 C0       		.byte	-64
 531 00d4 B7       		.byte	-73
 532 00d5 0F       		.byte	15
 533 00d6 B8       		.byte	-72
 534 00d7 02       		.byte	2
 535 00d8 BA       		.byte	-70
 536 00d9 80       		.byte	-128
 537 00da BB       		.byte	-69
 538 00db 28       		.byte	40
 539 00dc C0       		.byte	-64
 540 00dd 13       		.byte	19
 541 00de C5       		.byte	-59
 542 00df CE       		.byte	-50
 543 00e0 C7       		.byte	-57
 544 00e1 B0       		.byte	-80
 545 00e2 C8       		.byte	-56
 546 00e3 23       		.byte	35
 547 00e4 C9       		.byte	-55
 548 00e5 FF       		.byte	-1
 549 00e6 CA       		.byte	-54
 550 00e7 FF       		.byte	-1
 551 00e8 CB       		.byte	-53
 552 00e9 FF       		.byte	-1
 553 00ea D8       		.byte	-40
 554 00eb 04       		.byte	4
 555 00ec D9       		.byte	-39
 556 00ed 04       		.byte	4
 557 00ee DA       		.byte	-38
 558 00ef 04       		.byte	4
 559 00f0 DB       		.byte	-37
 560 00f1 04       		.byte	4
 561 00f2 DC       		.byte	-36
 562 00f3 99       		.byte	-103
 563 00f4 DD       		.byte	-35
 564 00f5 09       		.byte	9
 565 00f6 DF       		.byte	-33
 566 00f7 01       		.byte	1
 567 00f8 E2       		.byte	-30
 568 00f9 C0       		.byte	-64
 569 00fa E4       		.byte	-28
 570 00fb 40       		.byte	64
 571 00fc E5       		.byte	-27
 572 00fd 01       		.byte	1
 573 00fe 00       		.byte	0
 574 00ff 82       		.byte	-126
 575 0100 03       		.byte	3
 576 0101 20       		.byte	32
 577 0102 04       		.byte	4
 578 0103 8A       		.byte	-118
 579 0104 06       		.byte	6
 580 0105 08       		.byte	8
 581 0106 0A       		.byte	10
 582 0107 A2       		.byte	-94
 583 0108 0D       		.byte	13
ARM GAS  C:\Users\a85495\AppData\Local\Temp\ccaBlwKz.s 			page 21


 584 0109 08       		.byte	8
 585 010a 0E       		.byte	14
 586 010b 86       		.byte	-122
 587 010c 10       		.byte	16
 588 010d A0       		.byte	-96
 589 010e 12       		.byte	18
 590 010f 08       		.byte	8
 591 0110 15       		.byte	21
 592 0111 06       		.byte	6
 593 0112 17       		.byte	23
 594 0113 10       		.byte	16
 595 0114 18       		.byte	24
 596 0115 80       		.byte	-128
 597 0116 19       		.byte	25
 598 0117 50       		.byte	80
 599 0118 1A       		.byte	26
 600 0119 86       		.byte	-122
 601 011a 1B       		.byte	27
 602 011b 22       		.byte	34
 603 011c 1C       		.byte	28
 604 011d 08       		.byte	8
 605 011e 1D       		.byte	29
 606 011f 08       		.byte	8
 607 0120 1E       		.byte	30
 608 0121 80       		.byte	-128
 609 0122 1F       		.byte	31
 610 0123 80       		.byte	-128
 611 0124 20       		.byte	32
 612 0125 01       		.byte	1
 613 0126 22       		.byte	34
 614 0127 18       		.byte	24
 615 0128 23       		.byte	35
 616 0129 04       		.byte	4
 617 012a 26       		.byte	38
 618 012b 80       		.byte	-128
 619 012c 27       		.byte	39
 620 012d 84       		.byte	-124
 621 012e 29       		.byte	41
 622 012f 10       		.byte	16
 623 0130 2B       		.byte	43
 624 0131 02       		.byte	2
 625 0132 2D       		.byte	45
 626 0133 01       		.byte	1
 627 0134 2F       		.byte	47
 628 0135 22       		.byte	34
 629 0136 31       		.byte	49
 630 0137 40       		.byte	64
 631 0138 32       		.byte	50
 632 0139 08       		.byte	8
 633 013a 34       		.byte	52
 634 013b 20       		.byte	32
 635 013c 35       		.byte	53
 636 013d 01       		.byte	1
 637 013e 37       		.byte	55
 638 013f 82       		.byte	-126
 639 0140 38       		.byte	56
 640 0141 01       		.byte	1
ARM GAS  C:\Users\a85495\AppData\Local\Temp\ccaBlwKz.s 			page 22


 641 0142 3A       		.byte	58
 642 0143 10       		.byte	16
 643 0144 3B       		.byte	59
 644 0145 04       		.byte	4
 645 0146 3C       		.byte	60
 646 0147 80       		.byte	-128
 647 0148 3E       		.byte	62
 648 0149 42       		.byte	66
 649 014a 40       		.byte	64
 650 014b 01       		.byte	1
 651 014c 41       		.byte	65
 652 014d 08       		.byte	8
 653 014e 47       		.byte	71
 654 014f 80       		.byte	-128
 655 0150 48       		.byte	72
 656 0151 40       		.byte	64
 657 0152 4A       		.byte	74
 658 0153 20       		.byte	32
 659 0154 4C       		.byte	76
 660 0155 80       		.byte	-128
 661 0156 4D       		.byte	77
 662 0157 04       		.byte	4
 663 0158 4F       		.byte	79
 664 0159 80       		.byte	-128
 665 015a 51       		.byte	81
 666 015b 01       		.byte	1
 667 015c 56       		.byte	86
 668 015d 18       		.byte	24
 669 015e 57       		.byte	87
 670 015f 40       		.byte	64
 671 0160 58       		.byte	88
 672 0161 10       		.byte	16
 673 0162 5A       		.byte	90
 674 0163 40       		.byte	64
 675 0164 60       		.byte	96
 676 0165 20       		.byte	32
 677 0166 61       		.byte	97
 678 0167 01       		.byte	1
 679 0168 68       		.byte	104
 680 0169 01       		.byte	1
 681 016a 69       		.byte	105
 682 016b 01       		.byte	1
 683 016c 6B       		.byte	107
 684 016d 02       		.byte	2
 685 016e 6C       		.byte	108
 686 016f 05       		.byte	5
 687 0170 6E       		.byte	110
 688 0171 02       		.byte	2
 689 0172 6F       		.byte	111
 690 0173 10       		.byte	16
 691 0174 70       		.byte	112
 692 0175 20       		.byte	32
 693 0176 72       		.byte	114
 694 0177 02       		.byte	2
 695 0178 80       		.byte	-128
 696 0179 20       		.byte	32
 697 017a 83       		.byte	-125
ARM GAS  C:\Users\a85495\AppData\Local\Temp\ccaBlwKz.s 			page 23


 698 017b 80       		.byte	-128
 699 017c 84       		.byte	-124
 700 017d 04       		.byte	4
 701 017e 88       		.byte	-120
 702 017f 10       		.byte	16
 703 0180 8A       		.byte	-118
 704 0181 20       		.byte	32
 705 0182 8E       		.byte	-114
 706 0183 80       		.byte	-128
 707 0184 8F       		.byte	-113
 708 0185 04       		.byte	4
 709 0186 C0       		.byte	-64
 710 0187 FD       		.byte	-3
 711 0188 C2       		.byte	-62
 712 0189 FD       		.byte	-3
 713 018a C4       		.byte	-60
 714 018b 7E       		.byte	126
 715 018c CA       		.byte	-54
 716 018d DC       		.byte	-36
 717 018e CC       		.byte	-52
 718 018f BA       		.byte	-70
 719 0190 CE       		.byte	-50
 720 0191 97       		.byte	-105
 721 0192 D0       		.byte	-48
 722 0193 1A       		.byte	26
 723 0194 D2       		.byte	-46
 724 0195 10       		.byte	16
 725 0196 D6       		.byte	-42
 726 0197 0C       		.byte	12
 727 0198 D8       		.byte	-40
 728 0199 03       		.byte	3
 729 019a E2       		.byte	-30
 730 019b 40       		.byte	64
 731 019c E4       		.byte	-28
 732 019d 02       		.byte	2
 733 019e E6       		.byte	-26
 734 019f 10       		.byte	16
 735 01a0 6C       		.byte	108
 736 01a1 01       		.byte	1
 737 01a2 70       		.byte	112
 738 01a3 40       		.byte	64
 739 01a4 DA       		.byte	-38
 740 01a5 80       		.byte	-128
 741 01a6 DC       		.byte	-36
 742 01a7 20       		.byte	32
 743 01a8 8C       		.byte	-116
 744 01a9 41       		.byte	65
 745 01aa 94       		.byte	-108
 746 01ab 82       		.byte	-126
 747 01ac 57       		.byte	87
 748 01ad 08       		.byte	8
 749 01ae 87       		.byte	-121
 750 01af 08       		.byte	8
 751 01b0 D4       		.byte	-44
 752 01b1 02       		.byte	2
 753 01b2 02       		.byte	2
 754 01b3 01       		.byte	1
ARM GAS  C:\Users\a85495\AppData\Local\Temp\ccaBlwKz.s 			page 24


 755 01b4 11       		.byte	17
 756 01b5 01       		.byte	1
 757 01b6 0000     		.text
 758              	.Letext0:
 759              		.file 2 "c:\\program files (x86)\\cypress\\psoc creator\\4.0\\psoc creator\\import\\gnu\\arm\\4.9.
 760              		.file 3 "Generated_Source\\PSoC4\\cytypes.h"
 761              		.file 4 "Generated_Source\\PSoC4\\CyLib.h"