ARM GAS  C:\Users\A85590\AppData\Local\Temp\ccILqQZe.s 			page 1


   1              		.syntax unified
   2              		.cpu cortex-m3
   3              		.fpu softvfp
   4              		.eabi_attribute 20, 1
   5              		.eabi_attribute 21, 1
   6              		.eabi_attribute 23, 3
   7              		.eabi_attribute 24, 1
   8              		.eabi_attribute 25, 1
   9              		.eabi_attribute 26, 1
  10              		.eabi_attribute 30, 1
  11              		.eabi_attribute 34, 1
  12              		.eabi_attribute 18, 4
  13              		.thumb
  14              		.syntax unified
  15              		.file	"gps.c"
  16              		.text
  17              	.Ltext0:
  18              		.cfi_sections	.debug_frame
  19              		.section	.text.setGPSEcho,"ax",%progbits
  20              		.align	2
  21              		.global	setGPSEcho
  22              		.thumb
  23              		.thumb_func
  24              		.type	setGPSEcho, %function
  25              	setGPSEcho:
  26              	.LFB64:
  27              		.file 1 "..\\..\\gps.c"
   1:..\../gps.c   **** /***********************************
   2:..\../gps.c   **** This is our GPS library
   3:..\../gps.c   **** 
   4:..\../gps.c   **** Adafruit invests time and resources providing this open source code,
   5:..\../gps.c   **** please support Adafruit and open-source hardware by purchasing
   6:..\../gps.c   **** products from Adafruit!
   7:..\../gps.c   **** 
   8:..\../gps.c   **** Written by Limor Fried/Ladyada for Adafruit Industries.
   9:..\../gps.c   **** BSD license, check license.txt for more information
  10:..\../gps.c   **** All text above must be included in any redistribution
  11:..\../gps.c   **** ****************************************/
  12:..\../gps.c   **** 
  13:..\../gps.c   **** #include "gps.h"
  14:..\../gps.c   **** 
  15:..\../gps.c   **** #include "project.h"
  16:..\../gps.c   **** #include "stdlib.h"
  17:..\../gps.c   **** #include "stdint.h"
  18:..\../gps.c   **** #include "stdio.h"
  19:..\../gps.c   **** #include <ctype.h>
  20:..\../gps.c   **** #include "math.h"
  21:..\../gps.c   **** 
  22:..\../gps.c   **** #include "debSerial.h"
  23:..\../gps.c   **** #include "SensorVal.h"
  24:..\../gps.c   **** #include "millis.h"
  25:..\../gps.c   **** 
  26:..\../gps.c   **** uint8_t GPSECHO = 1;
  27:..\../gps.c   **** 
  28:..\../gps.c   **** #ifndef true
  29:..\../gps.c   **** #define true 1
  30:..\../gps.c   **** #endif
ARM GAS  C:\Users\A85590\AppData\Local\Temp\ccILqQZe.s 			page 2


  31:..\../gps.c   **** 
  32:..\../gps.c   **** #ifndef false
  33:..\../gps.c   **** #define false 0
  34:..\../gps.c   **** #endif
  35:..\../gps.c   **** 
  36:..\../gps.c   **** uint32_t last_time_printed = 0;
  37:..\../gps.c   **** 
  38:..\../gps.c   **** //how long are max NMEA lines to parse?
  39:..\../gps.c   **** 
  40:..\../gps.c   **** #define MAXLINELENGTH (120)
  41:..\../gps.c   **** 
  42:..\../gps.c   **** static uint8_t hour, minute, seconds, year, month, day;
  43:..\../gps.c   **** static uint16_t milliseconds;
  44:..\../gps.c   **** 
  45:..\../gps.c   **** // Floating point latitude and longitude value in degrees.
  46:..\../gps.c   **** static float latitude, longitude;
  47:..\../gps.c   **** 
  48:..\../gps.c   **** // Fixed point latitude and longitude value with degrees stored in units of 1/100000 degrees,
  49:..\../gps.c   **** // and minutes stored in units of 1/100000 degrees.  See pull #13 for more details:
  50:..\../gps.c   **** //   https://github.com/adafruit/Adafruit-GPS-Library/pull/13
  51:..\../gps.c   **** static int32_t latitude_fixed, longitude_fixed;
  52:..\../gps.c   **** static float latitudeDegrees, longitudeDegrees;
  53:..\../gps.c   **** static float geoidheight, altitude;
  54:..\../gps.c   **** static float speed, angle, magvariation, HDOP;
  55:..\../gps.c   **** static char lat, lon /*, mag*/;
  56:..\../gps.c   **** static uint8_t fix;
  57:..\../gps.c   **** static uint8_t fixquality, satellites;
  58:..\../gps.c   **** 
  59:..\../gps.c   **** static uint8_t paused;
  60:..\../gps.c   **** 
  61:..\../gps.c   **** static uint16_t LOCUS_serial, LOCUS_records;
  62:..\../gps.c   **** static uint8_t LOCUS_type, LOCUS_mode, LOCUS_config, LOCUS_interval, LOCUS_distance, LOCUS_speed, L
  63:..\../gps.c   **** 
  64:..\../gps.c   **** // we double buffer: read one line in and leave one for the main program
  65:..\../gps.c   **** static volatile char line1[MAXLINELENGTH];
  66:..\../gps.c   **** static volatile char line2[MAXLINELENGTH];
  67:..\../gps.c   **** // our index into filling the current line
  68:..\../gps.c   **** static volatile uint8_t lineidx = 0;
  69:..\../gps.c   **** // pointers to the double buffers
  70:..\../gps.c   **** static volatile char *currentline;
  71:..\../gps.c   **** static volatile char *lastline;
  72:..\../gps.c   **** static volatile uint8_t recvdflag; //should uint8_t remain uint8_t?
  73:..\../gps.c   **** static volatile uint8_t inStandbyMode;
  74:..\../gps.c   **** 
  75:..\../gps.c   **** void setGPSEcho(uint8_t val){
  28              		.loc 1 75 0
  29              		.cfi_startproc
  30              		@ args = 0, pretend = 0, frame = 0
  31              		@ frame_needed = 0, uses_anonymous_args = 0
  32              		@ link register save eliminated.
  33              	.LVL0:
  76:..\../gps.c   ****     GPSECHO = val;
  34              		.loc 1 76 0
  35 0000 014B     		ldr	r3, .L2
  36 0002 1870     		strb	r0, [r3]
  37 0004 7047     		bx	lr
  38              	.L3:
ARM GAS  C:\Users\A85590\AppData\Local\Temp\ccILqQZe.s 			page 3


  39 0006 00BF     		.align	2
  40              	.L2:
  41 0008 00000000 		.word	.LANCHOR0
  42              		.cfi_endproc
  43              	.LFE64:
  44              		.size	setGPSEcho, .-setGPSEcho
  45              		.section	.text.GPS_read,"ax",%progbits
  46              		.align	2
  47              		.global	GPS_read
  48              		.thumb
  49              		.thumb_func
  50              		.type	GPS_read, %function
  51              	GPS_read:
  52              	.LFB66:
  77:..\../gps.c   **** }
  78:..\../gps.c   **** 
  79:..\../gps.c   **** //static uint8_t GPS_parseResponse(char *response);
  80:..\../gps.c   **** 
  81:..\../gps.c   **** // CHANGE MADE HERE
  82:..\../gps.c   **** uint8_t GPS_parse(char *nmea)
  83:..\../gps.c   **** {
  84:..\../gps.c   ****   // do checksum check
  85:..\../gps.c   **** 
  86:..\../gps.c   ****   // first look if we even have one
  87:..\../gps.c   ****   if (nmea[strlen(nmea) - 4] == '*')
  88:..\../gps.c   ****   {
  89:..\../gps.c   ****     uint16_t sum = GPS_parseHex(nmea[strlen(nmea) - 3]) * 16;
  90:..\../gps.c   ****     sum += GPS_parseHex(nmea[strlen(nmea) - 2]);
  91:..\../gps.c   **** 
  92:..\../gps.c   ****     // check checksum
  93:..\../gps.c   ****     uint8_t i = 0;
  94:..\../gps.c   ****     for (i = 2; i < (strlen(nmea) - 4); i++)
  95:..\../gps.c   ****     {
  96:..\../gps.c   ****       sum ^= nmea[i];
  97:..\../gps.c   ****     }
  98:..\../gps.c   ****     if (sum != 0)
  99:..\../gps.c   ****     {
 100:..\../gps.c   ****       // bad checksum :(
 101:..\../gps.c   ****       return false;
 102:..\../gps.c   ****     }
 103:..\../gps.c   ****   }
 104:..\../gps.c   ****   int32_t degree;
 105:..\../gps.c   ****   long minutes;
 106:..\../gps.c   ****   char degreebuff[10];
 107:..\../gps.c   ****   // look for a few common sentences
 108:..\../gps.c   ****   if (strstr(nmea, "$GPGGA"))
 109:..\../gps.c   ****   {
 110:..\../gps.c   ****     // found GGA
 111:..\../gps.c   ****     char *p = nmea;
 112:..\../gps.c   ****     // get time
 113:..\../gps.c   ****     p = strchr(p, ',') + 1;
 114:..\../gps.c   ****     float timef = atof(p);
 115:..\../gps.c   ****     uint32_t time = timef;
 116:..\../gps.c   ****     hour = time / 10000;
 117:..\../gps.c   ****     minute = (time % 10000) / 100;
 118:..\../gps.c   ****     seconds = (time % 100);
 119:..\../gps.c   **** 
ARM GAS  C:\Users\A85590\AppData\Local\Temp\ccILqQZe.s 			page 4


 120:..\../gps.c   ****     milliseconds = fmod(timef, 1.0) * 1000;
 121:..\../gps.c   **** 
 122:..\../gps.c   ****     // parse out latitude
 123:..\../gps.c   ****     p = strchr(p, ',') + 1;
 124:..\../gps.c   ****     if (',' != *p)
 125:..\../gps.c   ****     {
 126:..\../gps.c   ****       strncpy(degreebuff, p, 2);
 127:..\../gps.c   ****       p += 2;
 128:..\../gps.c   ****       degreebuff[2] = '\0';
 129:..\../gps.c   ****       degree = atol(degreebuff) * 10000000;
 130:..\../gps.c   ****       strncpy(degreebuff, p, 2); // minutes
 131:..\../gps.c   ****       p += 3;                    // skip decimal point
 132:..\../gps.c   ****       strncpy(degreebuff + 2, p, 4);
 133:..\../gps.c   ****       degreebuff[6] = '\0';
 134:..\../gps.c   ****       minutes = 50 * atol(degreebuff) / 3;
 135:..\../gps.c   ****       latitude_fixed = degree + minutes;
 136:..\../gps.c   ****       latitude = degree / 100000 + minutes * 0.000006F;
 137:..\../gps.c   ****       latitudeDegrees = (latitude - 100 * (int)(latitude / 100)) / 60.0;
 138:..\../gps.c   ****       latitudeDegrees += (int)(latitude / 100);
 139:..\../gps.c   ****     }
 140:..\../gps.c   **** 
 141:..\../gps.c   ****     p = strchr(p, ',') + 1;
 142:..\../gps.c   ****     if (',' != *p)
 143:..\../gps.c   ****     {
 144:..\../gps.c   ****       if (p[0] == 'S')
 145:..\../gps.c   ****         latitudeDegrees *= -1.0;
 146:..\../gps.c   ****       if (p[0] == 'N')
 147:..\../gps.c   ****         lat = 'N';
 148:..\../gps.c   ****       else if (p[0] == 'S')
 149:..\../gps.c   ****         lat = 'S';
 150:..\../gps.c   ****       else if (p[0] == ',')
 151:..\../gps.c   ****         lat = 0;
 152:..\../gps.c   ****       else
 153:..\../gps.c   ****       {
 154:..\../gps.c   ****         return false;
 155:..\../gps.c   ****       } // adjusted formatting of return
 156:..\../gps.c   ****     }
 157:..\../gps.c   **** 
 158:..\../gps.c   ****     // parse out longitude
 159:..\../gps.c   ****     p = strchr(p, ',') + 1;
 160:..\../gps.c   ****     if (',' != *p)
 161:..\../gps.c   ****     {
 162:..\../gps.c   ****       strncpy(degreebuff, p, 3);
 163:..\../gps.c   ****       p += 3;
 164:..\../gps.c   ****       degreebuff[3] = '\0';
 165:..\../gps.c   ****       degree = atol(degreebuff) * 10000000;
 166:..\../gps.c   ****       strncpy(degreebuff, p, 2); // minutes
 167:..\../gps.c   ****       p += 3;                    // skip decimal point
 168:..\../gps.c   ****       strncpy(degreebuff + 2, p, 4);
 169:..\../gps.c   ****       degreebuff[6] = '\0';
 170:..\../gps.c   ****       minutes = 50 * atol(degreebuff) / 3;
 171:..\../gps.c   ****       longitude_fixed = degree + minutes;
 172:..\../gps.c   ****       longitude = degree / 100000 + minutes * 0.000006F;
 173:..\../gps.c   ****       longitudeDegrees = (longitude - 100 * (int)(longitude / 100)) / 60.0;
 174:..\../gps.c   ****       longitudeDegrees += (int)(longitude / 100);
 175:..\../gps.c   ****     }
 176:..\../gps.c   **** 
ARM GAS  C:\Users\A85590\AppData\Local\Temp\ccILqQZe.s 			page 5


 177:..\../gps.c   ****     p = strchr(p, ',') + 1;
 178:..\../gps.c   ****     if (',' != *p)
 179:..\../gps.c   ****     {
 180:..\../gps.c   ****       if (p[0] == 'W')
 181:..\../gps.c   ****         longitudeDegrees *= -1.0;
 182:..\../gps.c   ****       if (p[0] == 'W')
 183:..\../gps.c   ****         lon = 'W';
 184:..\../gps.c   ****       else if (p[0] == 'E')
 185:..\../gps.c   ****         lon = 'E';
 186:..\../gps.c   ****       else if (p[0] == ',')
 187:..\../gps.c   ****         lon = 0;
 188:..\../gps.c   ****       else
 189:..\../gps.c   ****         return false;
 190:..\../gps.c   ****     }
 191:..\../gps.c   **** 
 192:..\../gps.c   ****     p = strchr(p, ',') + 1;
 193:..\../gps.c   ****     if (',' != *p)
 194:..\../gps.c   ****     {
 195:..\../gps.c   ****       fixquality = atoi(p);
 196:..\../gps.c   ****     }
 197:..\../gps.c   **** 
 198:..\../gps.c   ****     p = strchr(p, ',') + 1;
 199:..\../gps.c   ****     if (',' != *p)
 200:..\../gps.c   ****     {
 201:..\../gps.c   ****       satellites = atoi(p);
 202:..\../gps.c   ****     }
 203:..\../gps.c   **** 
 204:..\../gps.c   ****     p = strchr(p, ',') + 1;
 205:..\../gps.c   ****     if (',' != *p)
 206:..\../gps.c   ****     {
 207:..\../gps.c   ****       HDOP = atof(p);
 208:..\../gps.c   ****     }
 209:..\../gps.c   **** 
 210:..\../gps.c   ****     p = strchr(p, ',') + 1;
 211:..\../gps.c   ****     if (',' != *p)
 212:..\../gps.c   ****     {
 213:..\../gps.c   ****       altitude = atof(p);
 214:..\../gps.c   ****     }
 215:..\../gps.c   **** 
 216:..\../gps.c   ****     p = strchr(p, ',') + 1;
 217:..\../gps.c   ****     p = strchr(p, ',') + 1;
 218:..\../gps.c   ****     if (',' != *p)
 219:..\../gps.c   ****     {
 220:..\../gps.c   ****       geoidheight = atof(p);
 221:..\../gps.c   ****     }
 222:..\../gps.c   ****     return true;
 223:..\../gps.c   ****   }
 224:..\../gps.c   ****   if (strstr(nmea, "$GPRMC"))
 225:..\../gps.c   ****   {
 226:..\../gps.c   ****     // found RMC
 227:..\../gps.c   ****     char *p = nmea;
 228:..\../gps.c   **** 
 229:..\../gps.c   ****     // get time
 230:..\../gps.c   ****     p = strchr(p, ',') + 1;
 231:..\../gps.c   ****     float timef = atof(p);
 232:..\../gps.c   ****     uint32_t time = timef;
 233:..\../gps.c   ****     hour = time / 10000;
ARM GAS  C:\Users\A85590\AppData\Local\Temp\ccILqQZe.s 			page 6


 234:..\../gps.c   ****     minute = (time % 10000) / 100;
 235:..\../gps.c   ****     seconds = (time % 100);
 236:..\../gps.c   **** 
 237:..\../gps.c   ****     milliseconds = fmod(timef, 1.0) * 1000;
 238:..\../gps.c   **** 
 239:..\../gps.c   ****     p = strchr(p, ',') + 1;
 240:..\../gps.c   ****     // Serial.println(p);
 241:..\../gps.c   ****     if (p[0] == 'A')
 242:..\../gps.c   ****       fix = true;
 243:..\../gps.c   ****     else if (p[0] == 'V')
 244:..\../gps.c   ****       fix = false;
 245:..\../gps.c   ****     else
 246:..\../gps.c   ****       return false;
 247:..\../gps.c   **** 
 248:..\../gps.c   ****     // parse out latitude
 249:..\../gps.c   ****     p = strchr(p, ',') + 1;
 250:..\../gps.c   ****     if (',' != *p)
 251:..\../gps.c   ****     {
 252:..\../gps.c   ****       strncpy(degreebuff, p, 2);
 253:..\../gps.c   ****       p += 2;
 254:..\../gps.c   ****       degreebuff[2] = '\0';
 255:..\../gps.c   ****       long degree = atol(degreebuff) * 10000000;
 256:..\../gps.c   ****       strncpy(degreebuff, p, 2); // minutes
 257:..\../gps.c   ****       p += 3;                    // skip decimal point
 258:..\../gps.c   ****       strncpy(degreebuff + 2, p, 4);
 259:..\../gps.c   ****       degreebuff[6] = '\0';
 260:..\../gps.c   ****       long minutes = 50 * atol(degreebuff) / 3;
 261:..\../gps.c   ****       latitude_fixed = degree + minutes;
 262:..\../gps.c   ****       latitude = degree / 100000 + minutes * 0.000006F;
 263:..\../gps.c   ****       latitudeDegrees = (latitude - 100 * (int)(latitude / 100)) / 60.0;
 264:..\../gps.c   ****       latitudeDegrees += (int)(latitude / 100);
 265:..\../gps.c   ****     }
 266:..\../gps.c   **** 
 267:..\../gps.c   ****     p = strchr(p, ',') + 1;
 268:..\../gps.c   ****     if (',' != *p)
 269:..\../gps.c   ****     {
 270:..\../gps.c   ****       if (p[0] == 'S')
 271:..\../gps.c   ****         latitudeDegrees *= -1.0;
 272:..\../gps.c   ****       if (p[0] == 'N')
 273:..\../gps.c   ****         lat = 'N';
 274:..\../gps.c   ****       else if (p[0] == 'S')
 275:..\../gps.c   ****         lat = 'S';
 276:..\../gps.c   ****       else if (p[0] == ',')
 277:..\../gps.c   ****         lat = 0;
 278:..\../gps.c   ****       else
 279:..\../gps.c   ****       {
 280:..\../gps.c   ****         return false;
 281:..\../gps.c   ****       } // adjust formatting of return
 282:..\../gps.c   ****     }
 283:..\../gps.c   **** 
 284:..\../gps.c   ****     // parse out longitude
 285:..\../gps.c   ****     p = strchr(p, ',') + 1;
 286:..\../gps.c   ****     if (',' != *p)
 287:..\../gps.c   ****     {
 288:..\../gps.c   ****       strncpy(degreebuff, p, 3);
 289:..\../gps.c   ****       p += 3;
 290:..\../gps.c   ****       degreebuff[3] = '\0';
ARM GAS  C:\Users\A85590\AppData\Local\Temp\ccILqQZe.s 			page 7


 291:..\../gps.c   ****       degree = atol(degreebuff) * 10000000;
 292:..\../gps.c   ****       strncpy(degreebuff, p, 2); // minutes
 293:..\../gps.c   ****       p += 3;                    // skip decimal point
 294:..\../gps.c   ****       strncpy(degreebuff + 2, p, 4);
 295:..\../gps.c   ****       degreebuff[6] = '\0';
 296:..\../gps.c   ****       minutes = 50 * atol(degreebuff) / 3;
 297:..\../gps.c   ****       longitude_fixed = degree + minutes;
 298:..\../gps.c   ****       longitude = degree / 100000 + minutes * 0.000006F;
 299:..\../gps.c   ****       longitudeDegrees = (longitude - 100 * (int)(longitude / 100)) / 60.0;
 300:..\../gps.c   ****       longitudeDegrees += (int)(longitude / 100);
 301:..\../gps.c   ****     }
 302:..\../gps.c   **** 
 303:..\../gps.c   ****     p = strchr(p, ',') + 1;
 304:..\../gps.c   ****     if (',' != *p)
 305:..\../gps.c   ****     {
 306:..\../gps.c   ****       if (p[0] == 'W')
 307:..\../gps.c   ****         longitudeDegrees *= -1.0;
 308:..\../gps.c   ****       if (p[0] == 'W')
 309:..\../gps.c   ****         lon = 'W';
 310:..\../gps.c   ****       else if (p[0] == 'E')
 311:..\../gps.c   ****         lon = 'E';
 312:..\../gps.c   ****       else if (p[0] == ',')
 313:..\../gps.c   ****         lon = 0;
 314:..\../gps.c   ****       else
 315:..\../gps.c   ****       {
 316:..\../gps.c   ****         return false;
 317:..\../gps.c   ****       } // Formatting adjustment
 318:..\../gps.c   ****     }
 319:..\../gps.c   ****     // speed
 320:..\../gps.c   ****     p = strchr(p, ',') + 1;
 321:..\../gps.c   ****     if (',' != *p)
 322:..\../gps.c   ****     {
 323:..\../gps.c   ****       speed = atof(p);
 324:..\../gps.c   ****     }
 325:..\../gps.c   **** 
 326:..\../gps.c   ****     // angle
 327:..\../gps.c   ****     p = strchr(p, ',') + 1;
 328:..\../gps.c   ****     if (',' != *p)
 329:..\../gps.c   ****     {
 330:..\../gps.c   ****       angle = atof(p);
 331:..\../gps.c   ****     }
 332:..\../gps.c   **** 
 333:..\../gps.c   ****     p = strchr(p, ',') + 1;
 334:..\../gps.c   ****     if (',' != *p)
 335:..\../gps.c   ****     {
 336:..\../gps.c   ****       uint32_t fulldate = atof(p);
 337:..\../gps.c   ****       day = fulldate / 10000;
 338:..\../gps.c   ****       month = (fulldate % 10000) / 100;
 339:..\../gps.c   ****       year = (fulldate % 100);
 340:..\../gps.c   ****     }
 341:..\../gps.c   ****     // we dont parse the remaining, yet!
 342:..\../gps.c   ****     return true;
 343:..\../gps.c   ****   }
 344:..\../gps.c   **** 
 345:..\../gps.c   ****   return false;
 346:..\../gps.c   **** }
 347:..\../gps.c   **** 
ARM GAS  C:\Users\A85590\AppData\Local\Temp\ccILqQZe.s 			page 8


 348:..\../gps.c   **** char GPS_read(void)
 349:..\../gps.c   **** {
  53              		.loc 1 349 0
  54              		.cfi_startproc
  55              		@ args = 0, pretend = 0, frame = 0
  56              		@ frame_needed = 0, uses_anonymous_args = 0
  57              	.LVL1:
 350:..\../gps.c   ****   char c = 0;
 351:..\../gps.c   **** 
 352:..\../gps.c   ****   if (paused)
  58              		.loc 1 352 0
  59 0000 204B     		ldr	r3, .L13
  60 0002 1B78     		ldrb	r3, [r3]	@ zero_extendqisi2
  61 0004 002B     		cmp	r3, #0
  62 0006 38D1     		bne	.L9
 349:..\../gps.c   ****   char c = 0;
  63              		.loc 1 349 0
  64 0008 10B5     		push	{r4, lr}
  65              		.cfi_def_cfa_offset 8
  66              		.cfi_offset 4, -8
  67              		.cfi_offset 14, -4
 353:..\../gps.c   ****     return c;
 354:..\../gps.c   **** 
 355:..\../gps.c   ****   if (!gpsSerial_GetRxBufferSize())
  68              		.loc 1 355 0
  69 000a FFF7FEFF 		bl	gpsSerial_GetRxBufferSize
  70              	.LVL2:
  71 000e 0028     		cmp	r0, #0
  72 0010 35D0     		beq	.L10
 356:..\../gps.c   ****   {
 357:..\../gps.c   ****     return c;
 358:..\../gps.c   ****   }
 359:..\../gps.c   **** 
 360:..\../gps.c   ****   c = gpsSerial_GetChar();
  73              		.loc 1 360 0
  74 0012 FFF7FEFF 		bl	gpsSerial_GetChar
  75              	.LVL3:
 361:..\../gps.c   **** 
 362:..\../gps.c   ****   if (c == '\n')
  76              		.loc 1 362 0
  77 0016 0A28     		cmp	r0, #10
  78 0018 1FD1     		bne	.L6
 363:..\../gps.c   ****   {
 364:..\../gps.c   ****     currentline[lineidx] = 0;
  79              		.loc 1 364 0
  80 001a 1A4B     		ldr	r3, .L13
  81 001c 5968     		ldr	r1, [r3, #4]
  82 001e 1A7A     		ldrb	r2, [r3, #8]	@ zero_extendqisi2
  83 0020 D2B2     		uxtb	r2, r2
  84 0022 0024     		movs	r4, #0
  85 0024 8C54     		strb	r4, [r1, r2]
 365:..\../gps.c   **** 
 366:..\../gps.c   ****     if (currentline == line1)
  86              		.loc 1 366 0
  87 0026 0C33     		adds	r3, r3, #12
  88 0028 9942     		cmp	r1, r3
  89 002a 08D1     		bne	.L7
ARM GAS  C:\Users\A85590\AppData\Local\Temp\ccILqQZe.s 			page 9


 367:..\../gps.c   ****     {
 368:..\../gps.c   ****       currentline = line2;
  90              		.loc 1 368 0
  91 002c 0C3B     		subs	r3, r3, #12
  92 002e 03F18402 		add	r2, r3, #132
  93 0032 5A60     		str	r2, [r3, #4]
 369:..\../gps.c   ****       lastline = line1;
  94              		.loc 1 369 0
  95 0034 03F10C02 		add	r2, r3, #12
  96 0038 C3F8FC20 		str	r2, [r3, #252]
  97 003c 07E0     		b	.L8
  98              	.L7:
 370:..\../gps.c   ****     }
 371:..\../gps.c   ****     else
 372:..\../gps.c   ****     {
 373:..\../gps.c   ****       currentline = line1;
  99              		.loc 1 373 0
 100 003e 114B     		ldr	r3, .L13
 101 0040 03F10C02 		add	r2, r3, #12
 102 0044 5A60     		str	r2, [r3, #4]
 374:..\../gps.c   ****       lastline = line2;
 103              		.loc 1 374 0
 104 0046 03F18402 		add	r2, r3, #132
 105 004a C3F8FC20 		str	r2, [r3, #252]
 106              	.L8:
 375:..\../gps.c   ****     }
 376:..\../gps.c   **** 
 377:..\../gps.c   ****     lineidx = 0;
 107              		.loc 1 377 0
 108 004e 0D4B     		ldr	r3, .L13
 109 0050 0022     		movs	r2, #0
 110 0052 1A72     		strb	r2, [r3, #8]
 378:..\../gps.c   ****     recvdflag = true;
 111              		.loc 1 378 0
 112 0054 0122     		movs	r2, #1
 113 0056 83F80021 		strb	r2, [r3, #256]
 114              	.L6:
 379:..\../gps.c   ****   }
 380:..\../gps.c   **** 
 381:..\../gps.c   ****   currentline[lineidx++] = c;
 115              		.loc 1 381 0
 116 005a 0A4B     		ldr	r3, .L13
 117 005c 5C68     		ldr	r4, [r3, #4]
 118 005e 1A7A     		ldrb	r2, [r3, #8]	@ zero_extendqisi2
 119 0060 D2B2     		uxtb	r2, r2
 120 0062 511C     		adds	r1, r2, #1
 121 0064 C9B2     		uxtb	r1, r1
 122 0066 1972     		strb	r1, [r3, #8]
 123 0068 A054     		strb	r0, [r4, r2]
 382:..\../gps.c   ****   if (lineidx >= MAXLINELENGTH)
 124              		.loc 1 382 0
 125 006a 1B7A     		ldrb	r3, [r3, #8]	@ zero_extendqisi2
 126 006c DBB2     		uxtb	r3, r3
 127 006e 772B     		cmp	r3, #119
 128 0070 06D9     		bls	.L5
 383:..\../gps.c   ****     lineidx = MAXLINELENGTH - 1;
 129              		.loc 1 383 0
ARM GAS  C:\Users\A85590\AppData\Local\Temp\ccILqQZe.s 			page 10


 130 0072 7722     		movs	r2, #119
 131 0074 034B     		ldr	r3, .L13
 132 0076 1A72     		strb	r2, [r3, #8]
 133 0078 10BD     		pop	{r4, pc}
 134              	.LVL4:
 135              	.L9:
 136              		.cfi_def_cfa_offset 0
 137              		.cfi_restore 4
 138              		.cfi_restore 14
 353:..\../gps.c   **** 
 139              		.loc 1 353 0
 140 007a 0020     		movs	r0, #0
 384:..\../gps.c   **** 
 385:..\../gps.c   ****   return c;
 386:..\../gps.c   **** }
 141              		.loc 1 386 0
 142 007c 7047     		bx	lr
 143              	.L10:
 144              		.cfi_def_cfa_offset 8
 145              		.cfi_offset 4, -8
 146              		.cfi_offset 14, -4
 357:..\../gps.c   ****   }
 147              		.loc 1 357 0
 148 007e 0020     		movs	r0, #0
 149              	.LVL5:
 150              	.L5:
 151              		.loc 1 386 0
 152 0080 10BD     		pop	{r4, pc}
 153              	.L14:
 154 0082 00BF     		.align	2
 155              	.L13:
 156 0084 00000000 		.word	.LANCHOR1
 157              		.cfi_endproc
 158              	.LFE66:
 159              		.size	GPS_read, .-GPS_read
 160              		.section	.text.GPS_common_init,"ax",%progbits
 161              		.align	2
 162              		.global	GPS_common_init
 163              		.thumb
 164              		.thumb_func
 165              		.type	GPS_common_init, %function
 166              	GPS_common_init:
 167              	.LFB67:
 387:..\../gps.c   **** 
 388:..\../gps.c   **** // Initialization code used by all constructor types
 389:..\../gps.c   **** void GPS_common_init(void)
 390:..\../gps.c   **** {
 168              		.loc 1 390 0
 169              		.cfi_startproc
 170              		@ args = 0, pretend = 0, frame = 0
 171              		@ frame_needed = 0, uses_anonymous_args = 0
 172              		@ link register save eliminated.
 391:..\../gps.c   **** 
 392:..\../gps.c   ****   recvdflag = false;
 173              		.loc 1 392 0
 174 0000 184B     		ldr	r3, .L16
 175 0002 0022     		movs	r2, #0
ARM GAS  C:\Users\A85590\AppData\Local\Temp\ccILqQZe.s 			page 11


 176 0004 83F80021 		strb	r2, [r3, #256]
 393:..\../gps.c   ****   paused = false;
 177              		.loc 1 393 0
 178 0008 1A70     		strb	r2, [r3]
 394:..\../gps.c   ****   lineidx = 0;
 179              		.loc 1 394 0
 180 000a 1A72     		strb	r2, [r3, #8]
 395:..\../gps.c   ****   currentline = line1;
 181              		.loc 1 395 0
 182 000c 03F10C01 		add	r1, r3, #12
 183 0010 5960     		str	r1, [r3, #4]
 396:..\../gps.c   ****   lastline = line2;
 184              		.loc 1 396 0
 185 0012 03F18401 		add	r1, r3, #132
 186 0016 C3F8FC10 		str	r1, [r3, #252]
 397:..\../gps.c   **** 
 398:..\../gps.c   ****   hour = minute = seconds = year = month = day = fixquality = satellites = 0;                // uin
 187              		.loc 1 398 0
 188 001a 83F80121 		strb	r2, [r3, #257]
 189 001e 83F80221 		strb	r2, [r3, #258]
 190 0022 83F80321 		strb	r2, [r3, #259]
 191 0026 83F80421 		strb	r2, [r3, #260]
 192 002a 83F80521 		strb	r2, [r3, #261]
 193 002e 83F80621 		strb	r2, [r3, #262]
 194 0032 83F80721 		strb	r2, [r3, #263]
 195 0036 83F80821 		strb	r2, [r3, #264]
 399:..\../gps.c   ****   lat = lon /*= mag*/ = 0;                                                                   // cha
 196              		.loc 1 399 0
 197 003a 83F80921 		strb	r2, [r3, #265]
 198 003e 83F80A21 		strb	r2, [r3, #266]
 400:..\../gps.c   ****   fix = false;                                                                               // uin
 199              		.loc 1 400 0
 200 0042 83F80B21 		strb	r2, [r3, #267]
 401:..\../gps.c   ****   milliseconds = 0;                                                                          // uin
 201              		.loc 1 401 0
 202 0046 A3F80C21 		strh	r2, [r3, #268]	@ movhi
 402:..\../gps.c   ****   latitude = longitude = geoidheight = altitude = speed = angle = magvariation = HDOP = 0.0; // flo
 203              		.loc 1 402 0
 204 004a 0022     		movs	r2, #0
 205 004c C3F81021 		str	r2, [r3, #272]	@ float
 206 0050 C3F81421 		str	r2, [r3, #276]	@ float
 207 0054 C3F81821 		str	r2, [r3, #280]	@ float
 208 0058 C3F81C21 		str	r2, [r3, #284]	@ float
 209 005c C3F82021 		str	r2, [r3, #288]	@ float
 210 0060 7047     		bx	lr
 211              	.L17:
 212 0062 00BF     		.align	2
 213              	.L16:
 214 0064 00000000 		.word	.LANCHOR1
 215              		.cfi_endproc
 216              	.LFE67:
 217              		.size	GPS_common_init, .-GPS_common_init
 218              		.section	.text.GPS_begin,"ax",%progbits
 219              		.align	2
 220              		.global	GPS_begin
 221              		.thumb
 222              		.thumb_func
ARM GAS  C:\Users\A85590\AppData\Local\Temp\ccILqQZe.s 			page 12


 223              		.type	GPS_begin, %function
 224              	GPS_begin:
 225              	.LFB68:
 403:..\../gps.c   **** }
 404:..\../gps.c   **** 
 405:..\../gps.c   **** void GPS_begin()
 406:..\../gps.c   **** {
 226              		.loc 1 406 0
 227              		.cfi_startproc
 228              		@ args = 0, pretend = 0, frame = 0
 229              		@ frame_needed = 0, uses_anonymous_args = 0
 230 0000 08B5     		push	{r3, lr}
 231              		.cfi_def_cfa_offset 8
 232              		.cfi_offset 3, -8
 233              		.cfi_offset 14, -4
 407:..\../gps.c   ****   GPS_common_init();
 234              		.loc 1 407 0
 235 0002 FFF7FEFF 		bl	GPS_common_init
 236              	.LVL6:
 408:..\../gps.c   ****   CyDelay(10);
 237              		.loc 1 408 0
 238 0006 0A20     		movs	r0, #10
 239 0008 FFF7FEFF 		bl	CyDelay
 240              	.LVL7:
 241 000c 08BD     		pop	{r3, pc}
 242              		.cfi_endproc
 243              	.LFE68:
 244              		.size	GPS_begin, .-GPS_begin
 245 000e 00BF     		.section	.text.GPS_sendCommand,"ax",%progbits
 246              		.align	2
 247              		.global	GPS_sendCommand
 248              		.thumb
 249              		.thumb_func
 250              		.type	GPS_sendCommand, %function
 251              	GPS_sendCommand:
 252              	.LFB69:
 409:..\../gps.c   **** }
 410:..\../gps.c   **** 
 411:..\../gps.c   **** void GPS_sendCommand(const char *str)
 412:..\../gps.c   **** {
 253              		.loc 1 412 0
 254              		.cfi_startproc
 255              		@ args = 0, pretend = 0, frame = 0
 256              		@ frame_needed = 0, uses_anonymous_args = 0
 257              	.LVL8:
 258 0000 08B5     		push	{r3, lr}
 259              		.cfi_def_cfa_offset 8
 260              		.cfi_offset 3, -8
 261              		.cfi_offset 14, -4
 413:..\../gps.c   ****   gpsSerial_PutString(str);
 262              		.loc 1 413 0
 263 0002 FFF7FEFF 		bl	gpsSerial_PutString
 264              	.LVL9:
 265 0006 08BD     		pop	{r3, pc}
 266              		.cfi_endproc
 267              	.LFE69:
 268              		.size	GPS_sendCommand, .-GPS_sendCommand
ARM GAS  C:\Users\A85590\AppData\Local\Temp\ccILqQZe.s 			page 13


 269              		.section	.text.GPS_newNMEAreceived,"ax",%progbits
 270              		.align	2
 271              		.global	GPS_newNMEAreceived
 272              		.thumb
 273              		.thumb_func
 274              		.type	GPS_newNMEAreceived, %function
 275              	GPS_newNMEAreceived:
 276              	.LFB70:
 414:..\../gps.c   **** }
 415:..\../gps.c   **** 
 416:..\../gps.c   **** uint8_t GPS_newNMEAreceived(void)
 417:..\../gps.c   **** {
 277              		.loc 1 417 0
 278              		.cfi_startproc
 279              		@ args = 0, pretend = 0, frame = 0
 280              		@ frame_needed = 0, uses_anonymous_args = 0
 281              		@ link register save eliminated.
 418:..\../gps.c   ****   return recvdflag;
 282              		.loc 1 418 0
 283 0000 014B     		ldr	r3, .L23
 284 0002 93F80001 		ldrb	r0, [r3, #256]	@ zero_extendqisi2
 419:..\../gps.c   **** }
 285              		.loc 1 419 0
 286 0006 7047     		bx	lr
 287              	.L24:
 288              		.align	2
 289              	.L23:
 290 0008 00000000 		.word	.LANCHOR1
 291              		.cfi_endproc
 292              	.LFE70:
 293              		.size	GPS_newNMEAreceived, .-GPS_newNMEAreceived
 294              		.section	.text.GPS_pause,"ax",%progbits
 295              		.align	2
 296              		.global	GPS_pause
 297              		.thumb
 298              		.thumb_func
 299              		.type	GPS_pause, %function
 300              	GPS_pause:
 301              	.LFB71:
 420:..\../gps.c   **** 
 421:..\../gps.c   **** void GPS_pause(uint8_t p)
 422:..\../gps.c   **** {
 302              		.loc 1 422 0
 303              		.cfi_startproc
 304              		@ args = 0, pretend = 0, frame = 0
 305              		@ frame_needed = 0, uses_anonymous_args = 0
 306              		@ link register save eliminated.
 307              	.LVL10:
 423:..\../gps.c   ****   paused = p;
 308              		.loc 1 423 0
 309 0000 014B     		ldr	r3, .L26
 310 0002 1870     		strb	r0, [r3]
 311 0004 7047     		bx	lr
 312              	.L27:
 313 0006 00BF     		.align	2
 314              	.L26:
 315 0008 00000000 		.word	.LANCHOR1
ARM GAS  C:\Users\A85590\AppData\Local\Temp\ccILqQZe.s 			page 14


 316              		.cfi_endproc
 317              	.LFE71:
 318              		.size	GPS_pause, .-GPS_pause
 319              		.section	.text.GPS_lastNMEA,"ax",%progbits
 320              		.align	2
 321              		.global	GPS_lastNMEA
 322              		.thumb
 323              		.thumb_func
 324              		.type	GPS_lastNMEA, %function
 325              	GPS_lastNMEA:
 326              	.LFB72:
 424:..\../gps.c   **** }
 425:..\../gps.c   **** 
 426:..\../gps.c   **** char *GPS_lastNMEA(void)
 427:..\../gps.c   **** {
 327              		.loc 1 427 0
 328              		.cfi_startproc
 329              		@ args = 0, pretend = 0, frame = 0
 330              		@ frame_needed = 0, uses_anonymous_args = 0
 331              		@ link register save eliminated.
 428:..\../gps.c   ****   recvdflag = false;
 332              		.loc 1 428 0
 333 0000 034B     		ldr	r3, .L29
 334 0002 0022     		movs	r2, #0
 335 0004 83F80021 		strb	r2, [r3, #256]
 429:..\../gps.c   ****   return (char *)lastline;
 430:..\../gps.c   **** }
 336              		.loc 1 430 0
 337 0008 D3F8FC00 		ldr	r0, [r3, #252]
 338 000c 7047     		bx	lr
 339              	.L30:
 340 000e 00BF     		.align	2
 341              	.L29:
 342 0010 00000000 		.word	.LANCHOR1
 343              		.cfi_endproc
 344              	.LFE72:
 345              		.size	GPS_lastNMEA, .-GPS_lastNMEA
 346              		.section	.text.GPS_parseHex,"ax",%progbits
 347              		.align	2
 348              		.global	GPS_parseHex
 349              		.thumb
 350              		.thumb_func
 351              		.type	GPS_parseHex, %function
 352              	GPS_parseHex:
 353              	.LFB73:
 431:..\../gps.c   **** 
 432:..\../gps.c   **** // read a Hex value and return the decimal equivalent
 433:..\../gps.c   **** uint8_t GPS_parseHex(char c)
 434:..\../gps.c   **** {
 354              		.loc 1 434 0
 355              		.cfi_startproc
 356              		@ args = 0, pretend = 0, frame = 0
 357              		@ frame_needed = 0, uses_anonymous_args = 0
 358              		@ link register save eliminated.
 359              	.LVL11:
 435:..\../gps.c   ****   if (c < '0')
 360              		.loc 1 435 0
ARM GAS  C:\Users\A85590\AppData\Local\Temp\ccILqQZe.s 			page 15


 361 0000 2F28     		cmp	r0, #47
 362 0002 0BD9     		bls	.L34
 436:..\../gps.c   ****     return 0;
 437:..\../gps.c   ****   if (c <= '9')
 363              		.loc 1 437 0
 364 0004 3928     		cmp	r0, #57
 365 0006 02D8     		bhi	.L33
 438:..\../gps.c   ****     return c - '0';
 366              		.loc 1 438 0
 367 0008 3038     		subs	r0, r0, #48
 368              	.LVL12:
 369 000a C0B2     		uxtb	r0, r0
 370 000c 7047     		bx	lr
 371              	.LVL13:
 372              	.L33:
 439:..\../gps.c   ****   if (c < 'A')
 373              		.loc 1 439 0
 374 000e 4028     		cmp	r0, #64
 375 0010 06D9     		bls	.L35
 440:..\../gps.c   ****     return 0;
 441:..\../gps.c   ****   if (c <= 'F')
 376              		.loc 1 441 0
 377 0012 4628     		cmp	r0, #70
 378 0014 06D8     		bhi	.L36
 442:..\../gps.c   ****     return (c - 'A') + 10;
 379              		.loc 1 442 0
 380 0016 3738     		subs	r0, r0, #55
 381              	.LVL14:
 382 0018 C0B2     		uxtb	r0, r0
 383 001a 7047     		bx	lr
 384              	.LVL15:
 385              	.L34:
 436:..\../gps.c   ****   if (c <= '9')
 386              		.loc 1 436 0
 387 001c 0020     		movs	r0, #0
 388              	.LVL16:
 389 001e 7047     		bx	lr
 390              	.LVL17:
 391              	.L35:
 440:..\../gps.c   ****     return 0;
 392              		.loc 1 440 0
 393 0020 0020     		movs	r0, #0
 394              	.LVL18:
 395 0022 7047     		bx	lr
 396              	.LVL19:
 397              	.L36:
 443:..\../gps.c   ****   // if (c > 'F')
 444:..\../gps.c   ****   return 0;
 398              		.loc 1 444 0
 399 0024 0020     		movs	r0, #0
 400              	.LVL20:
 445:..\../gps.c   **** }
 401              		.loc 1 445 0
 402 0026 7047     		bx	lr
 403              		.cfi_endproc
 404              	.LFE73:
 405              		.size	GPS_parseHex, .-GPS_parseHex
ARM GAS  C:\Users\A85590\AppData\Local\Temp\ccILqQZe.s 			page 16


 406              		.global	__aeabi_d2f
 407              		.global	__aeabi_f2uiz
 408              		.global	__aeabi_f2d
 409              		.global	__aeabi_dmul
 410              		.global	__aeabi_d2uiz
 411              		.global	__aeabi_i2f
 412              		.global	__aeabi_fmul
 413              		.global	__aeabi_fadd
 414              		.global	__aeabi_fdiv
 415              		.global	__aeabi_f2iz
 416              		.global	__aeabi_fsub
 417              		.section	.text.GPS_parse,"ax",%progbits
 418              		.align	2
 419              		.global	GPS_parse
 420              		.thumb
 421              		.thumb_func
 422              		.type	GPS_parse, %function
 423              	GPS_parse:
 424              	.LFB65:
  83:..\../gps.c   ****   // do checksum check
 425              		.loc 1 83 0
 426              		.cfi_startproc
 427              		@ args = 0, pretend = 0, frame = 16
 428              		@ frame_needed = 0, uses_anonymous_args = 0
 429              	.LVL21:
 430 0000 2DE9F041 		push	{r4, r5, r6, r7, r8, lr}
 431              		.cfi_def_cfa_offset 24
 432              		.cfi_offset 4, -24
 433              		.cfi_offset 5, -20
 434              		.cfi_offset 6, -16
 435              		.cfi_offset 7, -12
 436              		.cfi_offset 8, -8
 437              		.cfi_offset 14, -4
 438 0004 84B0     		sub	sp, sp, #16
 439              		.cfi_def_cfa_offset 40
 440 0006 0546     		mov	r5, r0
  87:..\../gps.c   ****   {
 441              		.loc 1 87 0
 442 0008 FFF7FEFF 		bl	strlen
 443              	.LVL22:
 444 000c 061F     		subs	r6, r0, #4
 445 000e AB5D     		ldrb	r3, [r5, r6]	@ zero_extendqisi2
 446 0010 2A2B     		cmp	r3, #42
 447 0012 17D1     		bne	.L38
 448 0014 0746     		mov	r7, r0
 449              	.LBB2:
  89:..\../gps.c   ****     sum += GPS_parseHex(nmea[strlen(nmea) - 2]);
 450              		.loc 1 89 0
 451 0016 C31E     		subs	r3, r0, #3
 452 0018 E85C     		ldrb	r0, [r5, r3]	@ zero_extendqisi2
 453 001a FFF7FEFF 		bl	GPS_parseHex
 454              	.LVL23:
 455 001e 0001     		lsls	r0, r0, #4
 456 0020 84B2     		uxth	r4, r0
 457              	.LVL24:
  90:..\../gps.c   **** 
 458              		.loc 1 90 0
ARM GAS  C:\Users\A85590\AppData\Local\Temp\ccILqQZe.s 			page 17


 459 0022 023F     		subs	r7, r7, #2
 460 0024 E85D     		ldrb	r0, [r5, r7]	@ zero_extendqisi2
 461 0026 FFF7FEFF 		bl	GPS_parseHex
 462              	.LVL25:
 463 002a 2044     		add	r0, r0, r4
 464 002c 80B2     		uxth	r0, r0
 465              	.LVL26:
  94:..\../gps.c   ****     {
 466              		.loc 1 94 0
 467 002e 0223     		movs	r3, #2
 468 0030 03E0     		b	.L39
 469              	.LVL27:
 470              	.L40:
  96:..\../gps.c   ****     }
 471              		.loc 1 96 0 discriminator 3
 472 0032 EA5C     		ldrb	r2, [r5, r3]	@ zero_extendqisi2
 473 0034 5040     		eors	r0, r0, r2
 474              	.LVL28:
  94:..\../gps.c   ****     {
 475              		.loc 1 94 0 discriminator 3
 476 0036 0133     		adds	r3, r3, #1
 477              	.LVL29:
 478 0038 DBB2     		uxtb	r3, r3
 479              	.LVL30:
 480              	.L39:
  94:..\../gps.c   ****     {
 481              		.loc 1 94 0 is_stmt 0 discriminator 1
 482 003a 9E42     		cmp	r6, r3
 483 003c F9D8     		bhi	.L40
  98:..\../gps.c   ****     {
 484              		.loc 1 98 0 is_stmt 1
 485 003e 0028     		cmp	r0, #0
 486 0040 40F06E83 		bne	.L71
 487              	.LVL31:
 488              	.L38:
 489              	.LBE2:
 108:..\../gps.c   ****   {
 490              		.loc 1 108 0
 491 0044 CA49     		ldr	r1, .L81
 492 0046 2846     		mov	r0, r5
 493 0048 FFF7FEFF 		bl	strstr
 494              	.LVL32:
 495 004c 0028     		cmp	r0, #0
 496 004e 00F0A781 		beq	.L42
 497              	.LVL33:
 498              	.LBB3:
 113:..\../gps.c   ****     float timef = atof(p);
 499              		.loc 1 113 0
 500 0052 2C21     		movs	r1, #44
 501 0054 2846     		mov	r0, r5
 502 0056 FFF7FEFF 		bl	strchr
 503              	.LVL34:
 504 005a 441C     		adds	r4, r0, #1
 505              	.LVL35:
 114:..\../gps.c   ****     uint32_t time = timef;
 506              		.loc 1 114 0
 507 005c 2046     		mov	r0, r4
ARM GAS  C:\Users\A85590\AppData\Local\Temp\ccILqQZe.s 			page 18


 508 005e FFF7FEFF 		bl	atof
 509              	.LVL36:
 510 0062 FFF7FEFF 		bl	__aeabi_d2f
 511              	.LVL37:
 512 0066 0546     		mov	r5, r0
 513              	.LVL38:
 115:..\../gps.c   ****     hour = time / 10000;
 514              		.loc 1 115 0
 515 0068 FFF7FEFF 		bl	__aeabi_f2uiz
 516              	.LVL39:
 116:..\../gps.c   ****     minute = (time % 10000) / 100;
 517              		.loc 1 116 0
 518 006c C14B     		ldr	r3, .L81+4
 519 006e A3FB0023 		umull	r2, r3, r3, r0
 520 0072 5B0B     		lsrs	r3, r3, #13
 521 0074 C04E     		ldr	r6, .L81+8
 522 0076 86F80831 		strb	r3, [r6, #264]
 117:..\../gps.c   ****     seconds = (time % 100);
 523              		.loc 1 117 0
 524 007a 42F21072 		movw	r2, #10000
 525 007e 02FB1303 		mls	r3, r2, r3, r0
 526 0082 BE4A     		ldr	r2, .L81+12
 527 0084 A2FB0313 		umull	r1, r3, r2, r3
 528 0088 5B09     		lsrs	r3, r3, #5
 529 008a 86F80731 		strb	r3, [r6, #263]
 118:..\../gps.c   **** 
 530              		.loc 1 118 0
 531 008e A2FB0023 		umull	r2, r3, r2, r0
 532 0092 5B09     		lsrs	r3, r3, #5
 533 0094 6422     		movs	r2, #100
 534 0096 02FB1303 		mls	r3, r2, r3, r0
 535 009a 86F80631 		strb	r3, [r6, #262]
 120:..\../gps.c   **** 
 536              		.loc 1 120 0
 537 009e 2846     		mov	r0, r5
 538              	.LVL40:
 539 00a0 FFF7FEFF 		bl	__aeabi_f2d
 540              	.LVL41:
 541 00a4 0022     		movs	r2, #0
 542 00a6 B64B     		ldr	r3, .L81+16
 543 00a8 FFF7FEFF 		bl	fmod
 544              	.LVL42:
 545 00ac 0022     		movs	r2, #0
 546 00ae B54B     		ldr	r3, .L81+20
 547 00b0 FFF7FEFF 		bl	__aeabi_dmul
 548              	.LVL43:
 549 00b4 FFF7FEFF 		bl	__aeabi_d2uiz
 550              	.LVL44:
 551 00b8 A6F80C01 		strh	r0, [r6, #268]	@ movhi
 123:..\../gps.c   ****     if (',' != *p)
 552              		.loc 1 123 0
 553 00bc 2C21     		movs	r1, #44
 554 00be 2046     		mov	r0, r4
 555 00c0 FFF7FEFF 		bl	strchr
 556              	.LVL45:
 557 00c4 0546     		mov	r5, r0
 558              	.LVL46:
ARM GAS  C:\Users\A85590\AppData\Local\Temp\ccILqQZe.s 			page 19


 559 00c6 461C     		adds	r6, r0, #1
 560              	.LVL47:
 124:..\../gps.c   ****     {
 561              		.loc 1 124 0
 562 00c8 4378     		ldrb	r3, [r0, #1]	@ zero_extendqisi2
 563 00ca 2C2B     		cmp	r3, #44
 564 00cc 59D0     		beq	.L43
 126:..\../gps.c   ****       p += 2;
 565              		.loc 1 126 0
 566 00ce 0222     		movs	r2, #2
 567 00d0 3146     		mov	r1, r6
 568 00d2 01A8     		add	r0, sp, #4
 569 00d4 FFF7FEFF 		bl	strncpy
 570              	.LVL48:
 127:..\../gps.c   ****       degreebuff[2] = '\0';
 571              		.loc 1 127 0
 572 00d8 EE1C     		adds	r6, r5, #3
 573              	.LVL49:
 128:..\../gps.c   ****       degree = atol(degreebuff) * 10000000;
 574              		.loc 1 128 0
 575 00da 4FF00008 		mov	r8, #0
 576 00de 04AF     		add	r7, sp, #16
 577 00e0 07F80A8D 		strb	r8, [r7, #-10]!
 129:..\../gps.c   ****       strncpy(degreebuff, p, 2); // minutes
 578              		.loc 1 129 0
 579 00e4 01A8     		add	r0, sp, #4
 580 00e6 FFF7FEFF 		bl	atol
 581              	.LVL50:
 582 00ea A74C     		ldr	r4, .L81+24
 583 00ec 04FB00F4 		mul	r4, r4, r0
 584              	.LVL51:
 130:..\../gps.c   ****       p += 3;                    // skip decimal point
 585              		.loc 1 130 0
 586 00f0 0222     		movs	r2, #2
 587 00f2 3146     		mov	r1, r6
 588 00f4 01A8     		add	r0, sp, #4
 589 00f6 FFF7FEFF 		bl	strncpy
 590              	.LVL52:
 131:..\../gps.c   ****       strncpy(degreebuff + 2, p, 4);
 591              		.loc 1 131 0
 592 00fa AE1D     		adds	r6, r5, #6
 593              	.LVL53:
 132:..\../gps.c   ****       degreebuff[6] = '\0';
 594              		.loc 1 132 0
 595 00fc 0422     		movs	r2, #4
 596 00fe 3146     		mov	r1, r6
 597 0100 3846     		mov	r0, r7
 598 0102 FFF7FEFF 		bl	strncpy
 599              	.LVL54:
 133:..\../gps.c   ****       minutes = 50 * atol(degreebuff) / 3;
 600              		.loc 1 133 0
 601 0106 8DF80A80 		strb	r8, [sp, #10]
 134:..\../gps.c   ****       latitude_fixed = degree + minutes;
 602              		.loc 1 134 0
 603 010a 01A8     		add	r0, sp, #4
 604 010c FFF7FEFF 		bl	atol
 605              	.LVL55:
ARM GAS  C:\Users\A85590\AppData\Local\Temp\ccILqQZe.s 			page 20


 606 0110 3223     		movs	r3, #50
 607 0112 03FB00F0 		mul	r0, r3, r0
 608 0116 9D4B     		ldr	r3, .L81+28
 609 0118 83FB0023 		smull	r2, r3, r3, r0
 610              	.LVL56:
 136:..\../gps.c   ****       latitudeDegrees = (latitude - 100 * (int)(latitude / 100)) / 60.0;
 611              		.loc 1 136 0
 612 011c 9C4A     		ldr	r2, .L81+32
 613 011e 82FB0412 		smull	r1, r2, r2, r4
 614 0122 E417     		asrs	r4, r4, #31
 615              	.LVL57:
 616 0124 C4EB6234 		rsb	r4, r4, r2, asr #13
 617 0128 A3EBE070 		sub	r0, r3, r0, asr #31
 618              	.LVL58:
 619 012c FFF7FEFF 		bl	__aeabi_i2f
 620              	.LVL59:
 621 0130 9849     		ldr	r1, .L81+36
 622 0132 FFF7FEFF 		bl	__aeabi_fmul
 623              	.LVL60:
 624 0136 0546     		mov	r5, r0
 625 0138 2046     		mov	r0, r4
 626 013a FFF7FEFF 		bl	__aeabi_i2f
 627              	.LVL61:
 628 013e 2946     		mov	r1, r5
 629 0140 FFF7FEFF 		bl	__aeabi_fadd
 630              	.LVL62:
 631 0144 0746     		mov	r7, r0
 632 0146 8C4C     		ldr	r4, .L81+8
 633 0148 C4F82001 		str	r0, [r4, #288]	@ float
 137:..\../gps.c   ****       latitudeDegrees += (int)(latitude / 100);
 634              		.loc 1 137 0
 635 014c 9249     		ldr	r1, .L81+40
 636 014e FFF7FEFF 		bl	__aeabi_fdiv
 637              	.LVL63:
 638 0152 FFF7FEFF 		bl	__aeabi_f2iz
 639              	.LVL64:
 640 0156 0546     		mov	r5, r0
 641 0158 6420     		movs	r0, #100
 642 015a 00FB05F0 		mul	r0, r0, r5
 643 015e FFF7FEFF 		bl	__aeabi_i2f
 644              	.LVL65:
 645 0162 0146     		mov	r1, r0
 646 0164 3846     		mov	r0, r7
 647 0166 FFF7FEFF 		bl	__aeabi_fsub
 648              	.LVL66:
 649 016a 8C49     		ldr	r1, .L81+44
 650 016c FFF7FEFF 		bl	__aeabi_fdiv
 651              	.LVL67:
 652 0170 0746     		mov	r7, r0
 138:..\../gps.c   ****     }
 653              		.loc 1 138 0
 654 0172 2846     		mov	r0, r5
 655 0174 FFF7FEFF 		bl	__aeabi_i2f
 656              	.LVL68:
 657 0178 3946     		mov	r1, r7
 658 017a FFF7FEFF 		bl	__aeabi_fadd
 659              	.LVL69:
ARM GAS  C:\Users\A85590\AppData\Local\Temp\ccILqQZe.s 			page 21


 660 017e C4F82401 		str	r0, [r4, #292]	@ float
 661              	.L43:
 141:..\../gps.c   ****     if (',' != *p)
 662              		.loc 1 141 0
 663 0182 2C21     		movs	r1, #44
 664 0184 3046     		mov	r0, r6
 665 0186 FFF7FEFF 		bl	strchr
 666              	.LVL70:
 667 018a 421C     		adds	r2, r0, #1
 668              	.LVL71:
 142:..\../gps.c   ****     {
 669              		.loc 1 142 0
 670 018c 4378     		ldrb	r3, [r0, #1]	@ zero_extendqisi2
 671 018e 2C2B     		cmp	r3, #44
 672 0190 1DD0     		beq	.L44
 144:..\../gps.c   ****         latitudeDegrees *= -1.0;
 673              		.loc 1 144 0
 674 0192 532B     		cmp	r3, #83
 675 0194 06D1     		bne	.L45
 145:..\../gps.c   ****       if (p[0] == 'N')
 676              		.loc 1 145 0
 677 0196 7848     		ldr	r0, .L81+8
 678 0198 D0F82411 		ldr	r1, [r0, #292]
 679 019c 01F10041 		add	r1, r1, #-2147483648
 680 01a0 C0F82411 		str	r1, [r0, #292]	@ float
 681              	.L45:
 146:..\../gps.c   ****         lat = 'N';
 682              		.loc 1 146 0
 683 01a4 4E2B     		cmp	r3, #78
 684 01a6 04D1     		bne	.L46
 147:..\../gps.c   ****       else if (p[0] == 'S')
 685              		.loc 1 147 0
 686 01a8 4E21     		movs	r1, #78
 687 01aa 734B     		ldr	r3, .L81+8
 688 01ac 83F80A11 		strb	r1, [r3, #266]
 689 01b0 0DE0     		b	.L44
 690              	.L46:
 148:..\../gps.c   ****         lat = 'S';
 691              		.loc 1 148 0
 692 01b2 532B     		cmp	r3, #83
 693 01b4 04D1     		bne	.L47
 149:..\../gps.c   ****       else if (p[0] == ',')
 694              		.loc 1 149 0
 695 01b6 5321     		movs	r1, #83
 696 01b8 6F4B     		ldr	r3, .L81+8
 697 01ba 83F80A11 		strb	r1, [r3, #266]
 698 01be 06E0     		b	.L44
 699              	.L47:
 150:..\../gps.c   ****         lat = 0;
 700              		.loc 1 150 0
 701 01c0 2C2B     		cmp	r3, #44
 702 01c2 40F0AF82 		bne	.L72
 151:..\../gps.c   ****       else
 703              		.loc 1 151 0
 704 01c6 0021     		movs	r1, #0
 705 01c8 6B4B     		ldr	r3, .L81+8
 706 01ca 83F80A11 		strb	r1, [r3, #266]
ARM GAS  C:\Users\A85590\AppData\Local\Temp\ccILqQZe.s 			page 22


 707              	.L44:
 159:..\../gps.c   ****     if (',' != *p)
 708              		.loc 1 159 0
 709 01ce 2C21     		movs	r1, #44
 710 01d0 1046     		mov	r0, r2
 711 01d2 FFF7FEFF 		bl	strchr
 712              	.LVL72:
 713 01d6 0546     		mov	r5, r0
 714 01d8 461C     		adds	r6, r0, #1
 715              	.LVL73:
 160:..\../gps.c   ****     {
 716              		.loc 1 160 0
 717 01da 4378     		ldrb	r3, [r0, #1]	@ zero_extendqisi2
 718 01dc 2C2B     		cmp	r3, #44
 719 01de 58D0     		beq	.L48
 162:..\../gps.c   ****       p += 3;
 720              		.loc 1 162 0
 721 01e0 0322     		movs	r2, #3
 722 01e2 3146     		mov	r1, r6
 723 01e4 01A8     		add	r0, sp, #4
 724 01e6 FFF7FEFF 		bl	strncpy
 725              	.LVL74:
 163:..\../gps.c   ****       degreebuff[3] = '\0';
 726              		.loc 1 163 0
 727 01ea 2E1D     		adds	r6, r5, #4
 728              	.LVL75:
 164:..\../gps.c   ****       degree = atol(degreebuff) * 10000000;
 729              		.loc 1 164 0
 730 01ec 0027     		movs	r7, #0
 731 01ee 8DF80770 		strb	r7, [sp, #7]
 165:..\../gps.c   ****       strncpy(degreebuff, p, 2); // minutes
 732              		.loc 1 165 0
 733 01f2 01A8     		add	r0, sp, #4
 734 01f4 FFF7FEFF 		bl	atol
 735              	.LVL76:
 736 01f8 634C     		ldr	r4, .L81+24
 737 01fa 04FB00F4 		mul	r4, r4, r0
 738              	.LVL77:
 166:..\../gps.c   ****       p += 3;                    // skip decimal point
 739              		.loc 1 166 0
 740 01fe 0222     		movs	r2, #2
 741 0200 3146     		mov	r1, r6
 742 0202 01A8     		add	r0, sp, #4
 743 0204 FFF7FEFF 		bl	strncpy
 744              	.LVL78:
 167:..\../gps.c   ****       strncpy(degreebuff + 2, p, 4);
 745              		.loc 1 167 0
 746 0208 EE1D     		adds	r6, r5, #7
 747              	.LVL79:
 168:..\../gps.c   ****       degreebuff[6] = '\0';
 748              		.loc 1 168 0
 749 020a 0422     		movs	r2, #4
 750 020c 3146     		mov	r1, r6
 751 020e 0DF10600 		add	r0, sp, #6
 752 0212 FFF7FEFF 		bl	strncpy
 753              	.LVL80:
 169:..\../gps.c   ****       minutes = 50 * atol(degreebuff) / 3;
ARM GAS  C:\Users\A85590\AppData\Local\Temp\ccILqQZe.s 			page 23


 754              		.loc 1 169 0
 755 0216 8DF80A70 		strb	r7, [sp, #10]
 170:..\../gps.c   ****       longitude_fixed = degree + minutes;
 756              		.loc 1 170 0
 757 021a 01A8     		add	r0, sp, #4
 758 021c FFF7FEFF 		bl	atol
 759              	.LVL81:
 760 0220 3223     		movs	r3, #50
 761 0222 03FB00F0 		mul	r0, r3, r0
 762 0226 594B     		ldr	r3, .L81+28
 763 0228 83FB0023 		smull	r2, r3, r3, r0
 764              	.LVL82:
 172:..\../gps.c   ****       longitudeDegrees = (longitude - 100 * (int)(longitude / 100)) / 60.0;
 765              		.loc 1 172 0
 766 022c 584A     		ldr	r2, .L81+32
 767 022e 82FB0412 		smull	r1, r2, r2, r4
 768 0232 E417     		asrs	r4, r4, #31
 769              	.LVL83:
 770 0234 C4EB6234 		rsb	r4, r4, r2, asr #13
 771 0238 A3EBE070 		sub	r0, r3, r0, asr #31
 772              	.LVL84:
 773 023c FFF7FEFF 		bl	__aeabi_i2f
 774              	.LVL85:
 775 0240 5449     		ldr	r1, .L81+36
 776 0242 FFF7FEFF 		bl	__aeabi_fmul
 777              	.LVL86:
 778 0246 0546     		mov	r5, r0
 779 0248 2046     		mov	r0, r4
 780 024a FFF7FEFF 		bl	__aeabi_i2f
 781              	.LVL87:
 782 024e 2946     		mov	r1, r5
 783 0250 FFF7FEFF 		bl	__aeabi_fadd
 784              	.LVL88:
 785 0254 0746     		mov	r7, r0
 786 0256 484C     		ldr	r4, .L81+8
 787 0258 C4F81C01 		str	r0, [r4, #284]	@ float
 173:..\../gps.c   ****       longitudeDegrees += (int)(longitude / 100);
 788              		.loc 1 173 0
 789 025c 4E49     		ldr	r1, .L81+40
 790 025e FFF7FEFF 		bl	__aeabi_fdiv
 791              	.LVL89:
 792 0262 FFF7FEFF 		bl	__aeabi_f2iz
 793              	.LVL90:
 794 0266 0546     		mov	r5, r0
 795 0268 6420     		movs	r0, #100
 796 026a 00FB05F0 		mul	r0, r0, r5
 797 026e FFF7FEFF 		bl	__aeabi_i2f
 798              	.LVL91:
 799 0272 0146     		mov	r1, r0
 800 0274 3846     		mov	r0, r7
 801 0276 FFF7FEFF 		bl	__aeabi_fsub
 802              	.LVL92:
 803 027a 4849     		ldr	r1, .L81+44
 804 027c FFF7FEFF 		bl	__aeabi_fdiv
 805              	.LVL93:
 806 0280 0746     		mov	r7, r0
 174:..\../gps.c   ****     }
ARM GAS  C:\Users\A85590\AppData\Local\Temp\ccILqQZe.s 			page 24


 807              		.loc 1 174 0
 808 0282 2846     		mov	r0, r5
 809 0284 FFF7FEFF 		bl	__aeabi_i2f
 810              	.LVL94:
 811 0288 3946     		mov	r1, r7
 812 028a FFF7FEFF 		bl	__aeabi_fadd
 813              	.LVL95:
 814 028e C4F82801 		str	r0, [r4, #296]	@ float
 815              	.L48:
 177:..\../gps.c   ****     if (',' != *p)
 816              		.loc 1 177 0
 817 0292 2C21     		movs	r1, #44
 818 0294 3046     		mov	r0, r6
 819 0296 FFF7FEFF 		bl	strchr
 820              	.LVL96:
 821 029a 421C     		adds	r2, r0, #1
 822              	.LVL97:
 178:..\../gps.c   ****     {
 823              		.loc 1 178 0
 824 029c 4378     		ldrb	r3, [r0, #1]	@ zero_extendqisi2
 825 029e 2C2B     		cmp	r3, #44
 826 02a0 1DD0     		beq	.L49
 180:..\../gps.c   ****         longitudeDegrees *= -1.0;
 827              		.loc 1 180 0
 828 02a2 572B     		cmp	r3, #87
 829 02a4 06D1     		bne	.L50
 181:..\../gps.c   ****       if (p[0] == 'W')
 830              		.loc 1 181 0
 831 02a6 3448     		ldr	r0, .L81+8
 832 02a8 D0F82811 		ldr	r1, [r0, #296]
 833 02ac 01F10041 		add	r1, r1, #-2147483648
 834 02b0 C0F82811 		str	r1, [r0, #296]	@ float
 835              	.L50:
 182:..\../gps.c   ****         lon = 'W';
 836              		.loc 1 182 0
 837 02b4 572B     		cmp	r3, #87
 838 02b6 04D1     		bne	.L51
 183:..\../gps.c   ****       else if (p[0] == 'E')
 839              		.loc 1 183 0
 840 02b8 5721     		movs	r1, #87
 841 02ba 2F4B     		ldr	r3, .L81+8
 842 02bc 83F80911 		strb	r1, [r3, #265]
 843 02c0 0DE0     		b	.L49
 844              	.L51:
 184:..\../gps.c   ****         lon = 'E';
 845              		.loc 1 184 0
 846 02c2 452B     		cmp	r3, #69
 847 02c4 04D1     		bne	.L52
 185:..\../gps.c   ****       else if (p[0] == ',')
 848              		.loc 1 185 0
 849 02c6 4521     		movs	r1, #69
 850 02c8 2B4B     		ldr	r3, .L81+8
 851 02ca 83F80911 		strb	r1, [r3, #265]
 852 02ce 06E0     		b	.L49
 853              	.L52:
 186:..\../gps.c   ****         lon = 0;
 854              		.loc 1 186 0
ARM GAS  C:\Users\A85590\AppData\Local\Temp\ccILqQZe.s 			page 25


 855 02d0 2C2B     		cmp	r3, #44
 856 02d2 40F02982 		bne	.L73
 187:..\../gps.c   ****       else
 857              		.loc 1 187 0
 858 02d6 0021     		movs	r1, #0
 859 02d8 274B     		ldr	r3, .L81+8
 860 02da 83F80911 		strb	r1, [r3, #265]
 861              	.L49:
 192:..\../gps.c   ****     if (',' != *p)
 862              		.loc 1 192 0
 863 02de 2C21     		movs	r1, #44
 864 02e0 1046     		mov	r0, r2
 865 02e2 FFF7FEFF 		bl	strchr
 866              	.LVL98:
 867 02e6 441C     		adds	r4, r0, #1
 868              	.LVL99:
 193:..\../gps.c   ****     {
 869              		.loc 1 193 0
 870 02e8 4378     		ldrb	r3, [r0, #1]	@ zero_extendqisi2
 871 02ea 2C2B     		cmp	r3, #44
 872 02ec 05D0     		beq	.L53
 195:..\../gps.c   ****     }
 873              		.loc 1 195 0
 874 02ee 2046     		mov	r0, r4
 875 02f0 FFF7FEFF 		bl	atoi
 876              	.LVL100:
 877 02f4 204B     		ldr	r3, .L81+8
 878 02f6 83F80201 		strb	r0, [r3, #258]
 879              	.L53:
 198:..\../gps.c   ****     if (',' != *p)
 880              		.loc 1 198 0
 881 02fa 2C21     		movs	r1, #44
 882 02fc 2046     		mov	r0, r4
 883 02fe FFF7FEFF 		bl	strchr
 884              	.LVL101:
 885 0302 441C     		adds	r4, r0, #1
 886              	.LVL102:
 199:..\../gps.c   ****     {
 887              		.loc 1 199 0
 888 0304 4378     		ldrb	r3, [r0, #1]	@ zero_extendqisi2
 889 0306 2C2B     		cmp	r3, #44
 890 0308 05D0     		beq	.L54
 201:..\../gps.c   ****     }
 891              		.loc 1 201 0
 892 030a 2046     		mov	r0, r4
 893 030c FFF7FEFF 		bl	atoi
 894              	.LVL103:
 895 0310 194B     		ldr	r3, .L81+8
 896 0312 83F80101 		strb	r0, [r3, #257]
 897              	.L54:
 204:..\../gps.c   ****     if (',' != *p)
 898              		.loc 1 204 0
 899 0316 2C21     		movs	r1, #44
 900 0318 2046     		mov	r0, r4
 901 031a FFF7FEFF 		bl	strchr
 902              	.LVL104:
 903 031e 441C     		adds	r4, r0, #1
ARM GAS  C:\Users\A85590\AppData\Local\Temp\ccILqQZe.s 			page 26


 904              	.LVL105:
 205:..\../gps.c   ****     {
 905              		.loc 1 205 0
 906 0320 4378     		ldrb	r3, [r0, #1]	@ zero_extendqisi2
 907 0322 2C2B     		cmp	r3, #44
 908 0324 02D0     		beq	.L55
 207:..\../gps.c   ****     }
 909              		.loc 1 207 0
 910 0326 2046     		mov	r0, r4
 911 0328 FFF7FEFF 		bl	atof
 912              	.LVL106:
 913              	.L55:
 210:..\../gps.c   ****     if (',' != *p)
 914              		.loc 1 210 0
 915 032c 2C21     		movs	r1, #44
 916 032e 2046     		mov	r0, r4
 917 0330 FFF7FEFF 		bl	strchr
 918              	.LVL107:
 919 0334 441C     		adds	r4, r0, #1
 920              	.LVL108:
 211:..\../gps.c   ****     {
 921              		.loc 1 211 0
 922 0336 4378     		ldrb	r3, [r0, #1]	@ zero_extendqisi2
 923 0338 2C2B     		cmp	r3, #44
 924 033a 07D0     		beq	.L56
 213:..\../gps.c   ****     }
 925              		.loc 1 213 0
 926 033c 2046     		mov	r0, r4
 927 033e FFF7FEFF 		bl	atof
 928              	.LVL109:
 929 0342 FFF7FEFF 		bl	__aeabi_d2f
 930              	.LVL110:
 931 0346 0C4B     		ldr	r3, .L81+8
 932 0348 C3F81801 		str	r0, [r3, #280]	@ float
 933              	.L56:
 216:..\../gps.c   ****     p = strchr(p, ',') + 1;
 934              		.loc 1 216 0
 935 034c 2C21     		movs	r1, #44
 936 034e 2046     		mov	r0, r4
 937 0350 FFF7FEFF 		bl	strchr
 938              	.LVL111:
 217:..\../gps.c   ****     if (',' != *p)
 939              		.loc 1 217 0
 940 0354 2C21     		movs	r1, #44
 941 0356 0130     		adds	r0, r0, #1
 942              	.LVL112:
 943 0358 FFF7FEFF 		bl	strchr
 944              	.LVL113:
 945 035c 421C     		adds	r2, r0, #1
 946              	.LVL114:
 218:..\../gps.c   ****     {
 947              		.loc 1 218 0
 948 035e 4378     		ldrb	r3, [r0, #1]	@ zero_extendqisi2
 949 0360 2C2B     		cmp	r3, #44
 950 0362 00F0E381 		beq	.L74
 220:..\../gps.c   ****     }
 951              		.loc 1 220 0
ARM GAS  C:\Users\A85590\AppData\Local\Temp\ccILqQZe.s 			page 27


 952 0366 1046     		mov	r0, r2
 953 0368 FFF7FEFF 		bl	atof
 954              	.LVL115:
 222:..\../gps.c   ****   }
 955              		.loc 1 222 0
 956 036c 0120     		movs	r0, #1
 957 036e E8E1     		b	.L41
 958              	.L82:
 959              		.align	2
 960              	.L81:
 961 0370 00000000 		.word	.LC0
 962 0374 5917B7D1 		.word	-776530087
 963 0378 00000000 		.word	.LANCHOR1
 964 037c 1F85EB51 		.word	1374389535
 965 0380 0000F03F 		.word	1072693248
 966 0384 00408F40 		.word	1083129856
 967 0388 80969800 		.word	10000000
 968 038c 56555555 		.word	1431655766
 969 0390 89B5F814 		.word	351843721
 970 0394 9C53C936 		.word	919163804
 971 0398 0000C842 		.word	1120403456
 972 039c 00007042 		.word	1114636288
 973              	.LVL116:
 974              	.L42:
 975              	.LBE3:
 224:..\../gps.c   ****   {
 976              		.loc 1 224 0
 977 03a0 AC49     		ldr	r1, .L83
 978 03a2 2846     		mov	r0, r5
 979 03a4 FFF7FEFF 		bl	strstr
 980              	.LVL117:
 981 03a8 0028     		cmp	r0, #0
 982 03aa 00F0C181 		beq	.L75
 983              	.LVL118:
 984              	.LBB4:
 230:..\../gps.c   ****     float timef = atof(p);
 985              		.loc 1 230 0
 986 03ae 2C21     		movs	r1, #44
 987 03b0 2846     		mov	r0, r5
 988 03b2 FFF7FEFF 		bl	strchr
 989              	.LVL119:
 990 03b6 441C     		adds	r4, r0, #1
 991              	.LVL120:
 231:..\../gps.c   ****     uint32_t time = timef;
 992              		.loc 1 231 0
 993 03b8 2046     		mov	r0, r4
 994 03ba FFF7FEFF 		bl	atof
 995              	.LVL121:
 996 03be FFF7FEFF 		bl	__aeabi_d2f
 997              	.LVL122:
 998 03c2 0546     		mov	r5, r0
 999              	.LVL123:
 232:..\../gps.c   ****     hour = time / 10000;
 1000              		.loc 1 232 0
 1001 03c4 FFF7FEFF 		bl	__aeabi_f2uiz
 1002              	.LVL124:
 233:..\../gps.c   ****     minute = (time % 10000) / 100;
ARM GAS  C:\Users\A85590\AppData\Local\Temp\ccILqQZe.s 			page 28


 1003              		.loc 1 233 0
 1004 03c8 A34B     		ldr	r3, .L83+4
 1005 03ca A3FB0023 		umull	r2, r3, r3, r0
 1006 03ce 5B0B     		lsrs	r3, r3, #13
 1007 03d0 A24E     		ldr	r6, .L83+8
 1008 03d2 86F80831 		strb	r3, [r6, #264]
 234:..\../gps.c   ****     seconds = (time % 100);
 1009              		.loc 1 234 0
 1010 03d6 42F21072 		movw	r2, #10000
 1011 03da 02FB1303 		mls	r3, r2, r3, r0
 1012 03de A04A     		ldr	r2, .L83+12
 1013 03e0 A2FB0313 		umull	r1, r3, r2, r3
 1014 03e4 5B09     		lsrs	r3, r3, #5
 1015 03e6 86F80731 		strb	r3, [r6, #263]
 235:..\../gps.c   **** 
 1016              		.loc 1 235 0
 1017 03ea A2FB0023 		umull	r2, r3, r2, r0
 1018 03ee 5B09     		lsrs	r3, r3, #5
 1019 03f0 6422     		movs	r2, #100
 1020 03f2 02FB1303 		mls	r3, r2, r3, r0
 1021 03f6 86F80631 		strb	r3, [r6, #262]
 237:..\../gps.c   **** 
 1022              		.loc 1 237 0
 1023 03fa 2846     		mov	r0, r5
 1024              	.LVL125:
 1025 03fc FFF7FEFF 		bl	__aeabi_f2d
 1026              	.LVL126:
 1027 0400 0022     		movs	r2, #0
 1028 0402 984B     		ldr	r3, .L83+16
 1029 0404 FFF7FEFF 		bl	fmod
 1030              	.LVL127:
 1031 0408 0022     		movs	r2, #0
 1032 040a 974B     		ldr	r3, .L83+20
 1033 040c FFF7FEFF 		bl	__aeabi_dmul
 1034              	.LVL128:
 1035 0410 FFF7FEFF 		bl	__aeabi_d2uiz
 1036              	.LVL129:
 1037 0414 A6F80C01 		strh	r0, [r6, #268]	@ movhi
 239:..\../gps.c   ****     // Serial.println(p);
 1038              		.loc 1 239 0
 1039 0418 2C21     		movs	r1, #44
 1040 041a 2046     		mov	r0, r4
 1041 041c FFF7FEFF 		bl	strchr
 1042              	.LVL130:
 1043 0420 421C     		adds	r2, r0, #1
 1044              	.LVL131:
 241:..\../gps.c   ****       fix = true;
 1045              		.loc 1 241 0
 1046 0422 4378     		ldrb	r3, [r0, #1]	@ zero_extendqisi2
 1047 0424 412B     		cmp	r3, #65
 1048 0426 03D1     		bne	.L57
 242:..\../gps.c   ****     else if (p[0] == 'V')
 1049              		.loc 1 242 0
 1050 0428 0121     		movs	r1, #1
 1051 042a 86F80B11 		strb	r1, [r6, #267]
 1052 042e 06E0     		b	.L58
 1053              	.L57:
ARM GAS  C:\Users\A85590\AppData\Local\Temp\ccILqQZe.s 			page 29


 243:..\../gps.c   ****       fix = false;
 1054              		.loc 1 243 0
 1055 0430 562B     		cmp	r3, #86
 1056 0432 40F07F81 		bne	.L76
 244:..\../gps.c   ****     else
 1057              		.loc 1 244 0
 1058 0436 0021     		movs	r1, #0
 1059 0438 884B     		ldr	r3, .L83+8
 1060 043a 83F80B11 		strb	r1, [r3, #267]
 1061              	.L58:
 249:..\../gps.c   ****     if (',' != *p)
 1062              		.loc 1 249 0
 1063 043e 2C21     		movs	r1, #44
 1064 0440 1046     		mov	r0, r2
 1065 0442 FFF7FEFF 		bl	strchr
 1066              	.LVL132:
 1067 0446 0546     		mov	r5, r0
 1068              	.LVL133:
 1069 0448 461C     		adds	r6, r0, #1
 1070              	.LVL134:
 250:..\../gps.c   ****     {
 1071              		.loc 1 250 0
 1072 044a 4378     		ldrb	r3, [r0, #1]	@ zero_extendqisi2
 1073 044c 2C2B     		cmp	r3, #44
 1074 044e 59D0     		beq	.L59
 1075              	.LBB5:
 252:..\../gps.c   ****       p += 2;
 1076              		.loc 1 252 0
 1077 0450 0222     		movs	r2, #2
 1078 0452 3146     		mov	r1, r6
 1079 0454 01A8     		add	r0, sp, #4
 1080 0456 FFF7FEFF 		bl	strncpy
 1081              	.LVL135:
 253:..\../gps.c   ****       degreebuff[2] = '\0';
 1082              		.loc 1 253 0
 1083 045a EE1C     		adds	r6, r5, #3
 1084              	.LVL136:
 254:..\../gps.c   ****       long degree = atol(degreebuff) * 10000000;
 1085              		.loc 1 254 0
 1086 045c 4FF00008 		mov	r8, #0
 1087 0460 04AF     		add	r7, sp, #16
 1088 0462 07F80A8D 		strb	r8, [r7, #-10]!
 255:..\../gps.c   ****       strncpy(degreebuff, p, 2); // minutes
 1089              		.loc 1 255 0
 1090 0466 01A8     		add	r0, sp, #4
 1091 0468 FFF7FEFF 		bl	atol
 1092              	.LVL137:
 1093 046c 7F4C     		ldr	r4, .L83+24
 1094 046e 04FB00F4 		mul	r4, r4, r0
 1095              	.LVL138:
 256:..\../gps.c   ****       p += 3;                    // skip decimal point
 1096              		.loc 1 256 0
 1097 0472 0222     		movs	r2, #2
 1098 0474 3146     		mov	r1, r6
 1099 0476 01A8     		add	r0, sp, #4
 1100 0478 FFF7FEFF 		bl	strncpy
 1101              	.LVL139:
ARM GAS  C:\Users\A85590\AppData\Local\Temp\ccILqQZe.s 			page 30


 257:..\../gps.c   ****       strncpy(degreebuff + 2, p, 4);
 1102              		.loc 1 257 0
 1103 047c AE1D     		adds	r6, r5, #6
 1104              	.LVL140:
 258:..\../gps.c   ****       degreebuff[6] = '\0';
 1105              		.loc 1 258 0
 1106 047e 0422     		movs	r2, #4
 1107 0480 3146     		mov	r1, r6
 1108 0482 3846     		mov	r0, r7
 1109 0484 FFF7FEFF 		bl	strncpy
 1110              	.LVL141:
 259:..\../gps.c   ****       long minutes = 50 * atol(degreebuff) / 3;
 1111              		.loc 1 259 0
 1112 0488 8DF80A80 		strb	r8, [sp, #10]
 260:..\../gps.c   ****       latitude_fixed = degree + minutes;
 1113              		.loc 1 260 0
 1114 048c 01A8     		add	r0, sp, #4
 1115 048e FFF7FEFF 		bl	atol
 1116              	.LVL142:
 1117 0492 3223     		movs	r3, #50
 1118 0494 03FB00F0 		mul	r0, r3, r0
 1119 0498 754B     		ldr	r3, .L83+28
 1120 049a 83FB0023 		smull	r2, r3, r3, r0
 1121              	.LVL143:
 262:..\../gps.c   ****       latitudeDegrees = (latitude - 100 * (int)(latitude / 100)) / 60.0;
 1122              		.loc 1 262 0
 1123 049e 754A     		ldr	r2, .L83+32
 1124 04a0 82FB0412 		smull	r1, r2, r2, r4
 1125 04a4 E417     		asrs	r4, r4, #31
 1126              	.LVL144:
 1127 04a6 C4EB6234 		rsb	r4, r4, r2, asr #13
 1128 04aa A3EBE070 		sub	r0, r3, r0, asr #31
 1129              	.LVL145:
 1130 04ae FFF7FEFF 		bl	__aeabi_i2f
 1131              	.LVL146:
 1132 04b2 7149     		ldr	r1, .L83+36
 1133 04b4 FFF7FEFF 		bl	__aeabi_fmul
 1134              	.LVL147:
 1135 04b8 0546     		mov	r5, r0
 1136 04ba 2046     		mov	r0, r4
 1137 04bc FFF7FEFF 		bl	__aeabi_i2f
 1138              	.LVL148:
 1139 04c0 2946     		mov	r1, r5
 1140 04c2 FFF7FEFF 		bl	__aeabi_fadd
 1141              	.LVL149:
 1142 04c6 0746     		mov	r7, r0
 1143 04c8 644C     		ldr	r4, .L83+8
 1144 04ca C4F82001 		str	r0, [r4, #288]	@ float
 263:..\../gps.c   ****       latitudeDegrees += (int)(latitude / 100);
 1145              		.loc 1 263 0
 1146 04ce 6B49     		ldr	r1, .L83+40
 1147 04d0 FFF7FEFF 		bl	__aeabi_fdiv
 1148              	.LVL150:
 1149 04d4 FFF7FEFF 		bl	__aeabi_f2iz
 1150              	.LVL151:
 1151 04d8 0546     		mov	r5, r0
 1152 04da 6420     		movs	r0, #100
ARM GAS  C:\Users\A85590\AppData\Local\Temp\ccILqQZe.s 			page 31


 1153 04dc 00FB05F0 		mul	r0, r0, r5
 1154 04e0 FFF7FEFF 		bl	__aeabi_i2f
 1155              	.LVL152:
 1156 04e4 0146     		mov	r1, r0
 1157 04e6 3846     		mov	r0, r7
 1158 04e8 FFF7FEFF 		bl	__aeabi_fsub
 1159              	.LVL153:
 1160 04ec 6449     		ldr	r1, .L83+44
 1161 04ee FFF7FEFF 		bl	__aeabi_fdiv
 1162              	.LVL154:
 1163 04f2 0746     		mov	r7, r0
 264:..\../gps.c   ****     }
 1164              		.loc 1 264 0
 1165 04f4 2846     		mov	r0, r5
 1166 04f6 FFF7FEFF 		bl	__aeabi_i2f
 1167              	.LVL155:
 1168 04fa 3946     		mov	r1, r7
 1169 04fc FFF7FEFF 		bl	__aeabi_fadd
 1170              	.LVL156:
 1171 0500 C4F82401 		str	r0, [r4, #292]	@ float
 1172              	.L59:
 1173              	.LBE5:
 267:..\../gps.c   ****     if (',' != *p)
 1174              		.loc 1 267 0
 1175 0504 2C21     		movs	r1, #44
 1176 0506 3046     		mov	r0, r6
 1177 0508 FFF7FEFF 		bl	strchr
 1178              	.LVL157:
 1179 050c 421C     		adds	r2, r0, #1
 1180              	.LVL158:
 268:..\../gps.c   ****     {
 1181              		.loc 1 268 0
 1182 050e 4378     		ldrb	r3, [r0, #1]	@ zero_extendqisi2
 1183 0510 2C2B     		cmp	r3, #44
 1184 0512 1DD0     		beq	.L60
 270:..\../gps.c   ****         latitudeDegrees *= -1.0;
 1185              		.loc 1 270 0
 1186 0514 532B     		cmp	r3, #83
 1187 0516 06D1     		bne	.L61
 271:..\../gps.c   ****       if (p[0] == 'N')
 1188              		.loc 1 271 0
 1189 0518 5048     		ldr	r0, .L83+8
 1190 051a D0F82411 		ldr	r1, [r0, #292]
 1191 051e 01F10041 		add	r1, r1, #-2147483648
 1192 0522 C0F82411 		str	r1, [r0, #292]	@ float
 1193              	.L61:
 272:..\../gps.c   ****         lat = 'N';
 1194              		.loc 1 272 0
 1195 0526 4E2B     		cmp	r3, #78
 1196 0528 04D1     		bne	.L62
 273:..\../gps.c   ****       else if (p[0] == 'S')
 1197              		.loc 1 273 0
 1198 052a 4E21     		movs	r1, #78
 1199 052c 4B4B     		ldr	r3, .L83+8
 1200 052e 83F80A11 		strb	r1, [r3, #266]
 1201 0532 0DE0     		b	.L60
 1202              	.L62:
ARM GAS  C:\Users\A85590\AppData\Local\Temp\ccILqQZe.s 			page 32


 274:..\../gps.c   ****         lat = 'S';
 1203              		.loc 1 274 0
 1204 0534 532B     		cmp	r3, #83
 1205 0536 04D1     		bne	.L63
 275:..\../gps.c   ****       else if (p[0] == ',')
 1206              		.loc 1 275 0
 1207 0538 5321     		movs	r1, #83
 1208 053a 484B     		ldr	r3, .L83+8
 1209 053c 83F80A11 		strb	r1, [r3, #266]
 1210 0540 06E0     		b	.L60
 1211              	.L63:
 276:..\../gps.c   ****         lat = 0;
 1212              		.loc 1 276 0
 1213 0542 2C2B     		cmp	r3, #44
 1214 0544 40F0F880 		bne	.L77
 277:..\../gps.c   ****       else
 1215              		.loc 1 277 0
 1216 0548 0021     		movs	r1, #0
 1217 054a 444B     		ldr	r3, .L83+8
 1218 054c 83F80A11 		strb	r1, [r3, #266]
 1219              	.L60:
 285:..\../gps.c   ****     if (',' != *p)
 1220              		.loc 1 285 0
 1221 0550 2C21     		movs	r1, #44
 1222 0552 1046     		mov	r0, r2
 1223 0554 FFF7FEFF 		bl	strchr
 1224              	.LVL159:
 1225 0558 0546     		mov	r5, r0
 1226 055a 461C     		adds	r6, r0, #1
 1227              	.LVL160:
 286:..\../gps.c   ****     {
 1228              		.loc 1 286 0
 1229 055c 4378     		ldrb	r3, [r0, #1]	@ zero_extendqisi2
 1230 055e 2C2B     		cmp	r3, #44
 1231 0560 58D0     		beq	.L64
 288:..\../gps.c   ****       p += 3;
 1232              		.loc 1 288 0
 1233 0562 0322     		movs	r2, #3
 1234 0564 3146     		mov	r1, r6
 1235 0566 01A8     		add	r0, sp, #4
 1236 0568 FFF7FEFF 		bl	strncpy
 1237              	.LVL161:
 289:..\../gps.c   ****       degreebuff[3] = '\0';
 1238              		.loc 1 289 0
 1239 056c 2E1D     		adds	r6, r5, #4
 1240              	.LVL162:
 290:..\../gps.c   ****       degree = atol(degreebuff) * 10000000;
 1241              		.loc 1 290 0
 1242 056e 0027     		movs	r7, #0
 1243 0570 8DF80770 		strb	r7, [sp, #7]
 291:..\../gps.c   ****       strncpy(degreebuff, p, 2); // minutes
 1244              		.loc 1 291 0
 1245 0574 01A8     		add	r0, sp, #4
 1246 0576 FFF7FEFF 		bl	atol
 1247              	.LVL163:
 1248 057a 3C4C     		ldr	r4, .L83+24
 1249 057c 04FB00F4 		mul	r4, r4, r0
ARM GAS  C:\Users\A85590\AppData\Local\Temp\ccILqQZe.s 			page 33


 1250              	.LVL164:
 292:..\../gps.c   ****       p += 3;                    // skip decimal point
 1251              		.loc 1 292 0
 1252 0580 0222     		movs	r2, #2
 1253 0582 3146     		mov	r1, r6
 1254 0584 01A8     		add	r0, sp, #4
 1255 0586 FFF7FEFF 		bl	strncpy
 1256              	.LVL165:
 293:..\../gps.c   ****       strncpy(degreebuff + 2, p, 4);
 1257              		.loc 1 293 0
 1258 058a EE1D     		adds	r6, r5, #7
 1259              	.LVL166:
 294:..\../gps.c   ****       degreebuff[6] = '\0';
 1260              		.loc 1 294 0
 1261 058c 0422     		movs	r2, #4
 1262 058e 3146     		mov	r1, r6
 1263 0590 0DF10600 		add	r0, sp, #6
 1264 0594 FFF7FEFF 		bl	strncpy
 1265              	.LVL167:
 295:..\../gps.c   ****       minutes = 50 * atol(degreebuff) / 3;
 1266              		.loc 1 295 0
 1267 0598 8DF80A70 		strb	r7, [sp, #10]
 296:..\../gps.c   ****       longitude_fixed = degree + minutes;
 1268              		.loc 1 296 0
 1269 059c 01A8     		add	r0, sp, #4
 1270 059e FFF7FEFF 		bl	atol
 1271              	.LVL168:
 1272 05a2 3223     		movs	r3, #50
 1273 05a4 03FB00F0 		mul	r0, r3, r0
 1274 05a8 314B     		ldr	r3, .L83+28
 1275 05aa 83FB0023 		smull	r2, r3, r3, r0
 1276              	.LVL169:
 298:..\../gps.c   ****       longitudeDegrees = (longitude - 100 * (int)(longitude / 100)) / 60.0;
 1277              		.loc 1 298 0
 1278 05ae 314A     		ldr	r2, .L83+32
 1279 05b0 82FB0412 		smull	r1, r2, r2, r4
 1280 05b4 E417     		asrs	r4, r4, #31
 1281              	.LVL170:
 1282 05b6 C4EB6234 		rsb	r4, r4, r2, asr #13
 1283 05ba A3EBE070 		sub	r0, r3, r0, asr #31
 1284              	.LVL171:
 1285 05be FFF7FEFF 		bl	__aeabi_i2f
 1286              	.LVL172:
 1287 05c2 2D49     		ldr	r1, .L83+36
 1288 05c4 FFF7FEFF 		bl	__aeabi_fmul
 1289              	.LVL173:
 1290 05c8 0546     		mov	r5, r0
 1291 05ca 2046     		mov	r0, r4
 1292 05cc FFF7FEFF 		bl	__aeabi_i2f
 1293              	.LVL174:
 1294 05d0 2946     		mov	r1, r5
 1295 05d2 FFF7FEFF 		bl	__aeabi_fadd
 1296              	.LVL175:
 1297 05d6 0746     		mov	r7, r0
 1298 05d8 204C     		ldr	r4, .L83+8
 1299 05da C4F81C01 		str	r0, [r4, #284]	@ float
 299:..\../gps.c   ****       longitudeDegrees += (int)(longitude / 100);
ARM GAS  C:\Users\A85590\AppData\Local\Temp\ccILqQZe.s 			page 34


 1300              		.loc 1 299 0
 1301 05de 2749     		ldr	r1, .L83+40
 1302 05e0 FFF7FEFF 		bl	__aeabi_fdiv
 1303              	.LVL176:
 1304 05e4 FFF7FEFF 		bl	__aeabi_f2iz
 1305              	.LVL177:
 1306 05e8 0546     		mov	r5, r0
 1307 05ea 6420     		movs	r0, #100
 1308 05ec 00FB05F0 		mul	r0, r0, r5
 1309 05f0 FFF7FEFF 		bl	__aeabi_i2f
 1310              	.LVL178:
 1311 05f4 0146     		mov	r1, r0
 1312 05f6 3846     		mov	r0, r7
 1313 05f8 FFF7FEFF 		bl	__aeabi_fsub
 1314              	.LVL179:
 1315 05fc 2049     		ldr	r1, .L83+44
 1316 05fe FFF7FEFF 		bl	__aeabi_fdiv
 1317              	.LVL180:
 1318 0602 0746     		mov	r7, r0
 300:..\../gps.c   ****     }
 1319              		.loc 1 300 0
 1320 0604 2846     		mov	r0, r5
 1321 0606 FFF7FEFF 		bl	__aeabi_i2f
 1322              	.LVL181:
 1323 060a 3946     		mov	r1, r7
 1324 060c FFF7FEFF 		bl	__aeabi_fadd
 1325              	.LVL182:
 1326 0610 C4F82801 		str	r0, [r4, #296]	@ float
 1327              	.L64:
 303:..\../gps.c   ****     if (',' != *p)
 1328              		.loc 1 303 0
 1329 0614 2C21     		movs	r1, #44
 1330 0616 3046     		mov	r0, r6
 1331 0618 FFF7FEFF 		bl	strchr
 1332              	.LVL183:
 1333 061c 421C     		adds	r2, r0, #1
 1334              	.LVL184:
 304:..\../gps.c   ****     {
 1335              		.loc 1 304 0
 1336 061e 4378     		ldrb	r3, [r0, #1]	@ zero_extendqisi2
 1337 0620 2C2B     		cmp	r3, #44
 1338 0622 35D0     		beq	.L65
 306:..\../gps.c   ****         longitudeDegrees *= -1.0;
 1339              		.loc 1 306 0
 1340 0624 572B     		cmp	r3, #87
 1341 0626 06D1     		bne	.L66
 307:..\../gps.c   ****       if (p[0] == 'W')
 1342              		.loc 1 307 0
 1343 0628 0C48     		ldr	r0, .L83+8
 1344 062a D0F82811 		ldr	r1, [r0, #296]
 1345 062e 01F10041 		add	r1, r1, #-2147483648
 1346 0632 C0F82811 		str	r1, [r0, #296]	@ float
 1347              	.L66:
 308:..\../gps.c   ****         lon = 'W';
 1348              		.loc 1 308 0
 1349 0636 572B     		cmp	r3, #87
 1350 0638 04D1     		bne	.L67
ARM GAS  C:\Users\A85590\AppData\Local\Temp\ccILqQZe.s 			page 35


 309:..\../gps.c   ****       else if (p[0] == 'E')
 1351              		.loc 1 309 0
 1352 063a 5721     		movs	r1, #87
 1353 063c 074B     		ldr	r3, .L83+8
 1354 063e 83F80911 		strb	r1, [r3, #265]
 1355 0642 25E0     		b	.L65
 1356              	.L67:
 310:..\../gps.c   ****         lon = 'E';
 1357              		.loc 1 310 0
 1358 0644 452B     		cmp	r3, #69
 1359 0646 1DD1     		bne	.L68
 311:..\../gps.c   ****       else if (p[0] == ',')
 1360              		.loc 1 311 0
 1361 0648 4521     		movs	r1, #69
 1362 064a 044B     		ldr	r3, .L83+8
 1363 064c 83F80911 		strb	r1, [r3, #265]
 1364 0650 1EE0     		b	.L65
 1365              	.L84:
 1366 0652 00BF     		.align	2
 1367              	.L83:
 1368 0654 08000000 		.word	.LC1
 1369 0658 5917B7D1 		.word	-776530087
 1370 065c 00000000 		.word	.LANCHOR1
 1371 0660 1F85EB51 		.word	1374389535
 1372 0664 0000F03F 		.word	1072693248
 1373 0668 00408F40 		.word	1083129856
 1374 066c 80969800 		.word	10000000
 1375 0670 56555555 		.word	1431655766
 1376 0674 89B5F814 		.word	351843721
 1377 0678 9C53C936 		.word	919163804
 1378 067c 0000C842 		.word	1120403456
 1379 0680 00007042 		.word	1114636288
 1380              	.L68:
 312:..\../gps.c   ****         lon = 0;
 1381              		.loc 1 312 0
 1382 0684 2C2B     		cmp	r3, #44
 1383 0686 59D1     		bne	.L78
 313:..\../gps.c   ****       else
 1384              		.loc 1 313 0
 1385 0688 0021     		movs	r1, #0
 1386 068a 2F4B     		ldr	r3, .L85
 1387 068c 83F80911 		strb	r1, [r3, #265]
 1388              	.L65:
 320:..\../gps.c   ****     if (',' != *p)
 1389              		.loc 1 320 0
 1390 0690 2C21     		movs	r1, #44
 1391 0692 1046     		mov	r0, r2
 1392 0694 FFF7FEFF 		bl	strchr
 1393              	.LVL185:
 1394 0698 441C     		adds	r4, r0, #1
 1395              	.LVL186:
 321:..\../gps.c   ****     {
 1396              		.loc 1 321 0
 1397 069a 4378     		ldrb	r3, [r0, #1]	@ zero_extendqisi2
 1398 069c 2C2B     		cmp	r3, #44
 1399 069e 07D0     		beq	.L69
 323:..\../gps.c   ****     }
ARM GAS  C:\Users\A85590\AppData\Local\Temp\ccILqQZe.s 			page 36


 1400              		.loc 1 323 0
 1401 06a0 2046     		mov	r0, r4
 1402 06a2 FFF7FEFF 		bl	atof
 1403              	.LVL187:
 1404 06a6 FFF7FEFF 		bl	__aeabi_d2f
 1405              	.LVL188:
 1406 06aa 274B     		ldr	r3, .L85
 1407 06ac C3F81401 		str	r0, [r3, #276]	@ float
 1408              	.L69:
 327:..\../gps.c   ****     if (',' != *p)
 1409              		.loc 1 327 0
 1410 06b0 2C21     		movs	r1, #44
 1411 06b2 2046     		mov	r0, r4
 1412 06b4 FFF7FEFF 		bl	strchr
 1413              	.LVL189:
 1414 06b8 441C     		adds	r4, r0, #1
 1415              	.LVL190:
 328:..\../gps.c   ****     {
 1416              		.loc 1 328 0
 1417 06ba 4378     		ldrb	r3, [r0, #1]	@ zero_extendqisi2
 1418 06bc 2C2B     		cmp	r3, #44
 1419 06be 07D0     		beq	.L70
 330:..\../gps.c   ****     }
 1420              		.loc 1 330 0
 1421 06c0 2046     		mov	r0, r4
 1422 06c2 FFF7FEFF 		bl	atof
 1423              	.LVL191:
 1424 06c6 FFF7FEFF 		bl	__aeabi_d2f
 1425              	.LVL192:
 1426 06ca 1F4B     		ldr	r3, .L85
 1427 06cc C3F81001 		str	r0, [r3, #272]	@ float
 1428              	.L70:
 333:..\../gps.c   ****     if (',' != *p)
 1429              		.loc 1 333 0
 1430 06d0 2C21     		movs	r1, #44
 1431 06d2 2046     		mov	r0, r4
 1432 06d4 FFF7FEFF 		bl	strchr
 1433              	.LVL193:
 1434 06d8 421C     		adds	r2, r0, #1
 1435              	.LVL194:
 334:..\../gps.c   ****     {
 1436              		.loc 1 334 0
 1437 06da 4378     		ldrb	r3, [r0, #1]	@ zero_extendqisi2
 1438 06dc 2C2B     		cmp	r3, #44
 1439 06de 2FD0     		beq	.L79
 1440              	.LBB6:
 336:..\../gps.c   ****       day = fulldate / 10000;
 1441              		.loc 1 336 0
 1442 06e0 1046     		mov	r0, r2
 1443 06e2 FFF7FEFF 		bl	atof
 1444              	.LVL195:
 1445 06e6 FFF7FEFF 		bl	__aeabi_d2uiz
 1446              	.LVL196:
 337:..\../gps.c   ****       month = (fulldate % 10000) / 100;
 1447              		.loc 1 337 0
 1448 06ea 184B     		ldr	r3, .L85+4
 1449 06ec A3FB0023 		umull	r2, r3, r3, r0
ARM GAS  C:\Users\A85590\AppData\Local\Temp\ccILqQZe.s 			page 37


 1450 06f0 5B0B     		lsrs	r3, r3, #13
 1451 06f2 1549     		ldr	r1, .L85
 1452 06f4 81F80331 		strb	r3, [r1, #259]
 338:..\../gps.c   ****       year = (fulldate % 100);
 1453              		.loc 1 338 0
 1454 06f8 42F21072 		movw	r2, #10000
 1455 06fc 02FB1303 		mls	r3, r2, r3, r0
 1456 0700 134A     		ldr	r2, .L85+8
 1457 0702 A2FB0343 		umull	r4, r3, r2, r3
 1458 0706 5B09     		lsrs	r3, r3, #5
 1459 0708 81F80431 		strb	r3, [r1, #260]
 339:..\../gps.c   ****     }
 1460              		.loc 1 339 0
 1461 070c A2FB0023 		umull	r2, r3, r2, r0
 1462 0710 5B09     		lsrs	r3, r3, #5
 1463 0712 6422     		movs	r2, #100
 1464 0714 02FB1303 		mls	r3, r2, r3, r0
 1465 0718 81F80531 		strb	r3, [r1, #261]
 1466              	.LBE6:
 342:..\../gps.c   ****   }
 1467              		.loc 1 342 0
 1468 071c 0120     		movs	r0, #1
 1469              	.LVL197:
 1470 071e 10E0     		b	.L41
 1471              	.LVL198:
 1472              	.L71:
 1473              	.LBE4:
 1474              	.LBB7:
 101:..\../gps.c   ****     }
 1475              		.loc 1 101 0
 1476 0720 0020     		movs	r0, #0
 1477              	.LVL199:
 1478 0722 0EE0     		b	.L41
 1479              	.LVL200:
 1480              	.L72:
 1481              	.LBE7:
 1482              	.LBB8:
 154:..\../gps.c   ****       } // adjusted formatting of return
 1483              		.loc 1 154 0
 1484 0724 0020     		movs	r0, #0
 1485 0726 0CE0     		b	.L41
 1486              	.L73:
 189:..\../gps.c   ****     }
 1487              		.loc 1 189 0
 1488 0728 0020     		movs	r0, #0
 1489 072a 0AE0     		b	.L41
 1490              	.L74:
 222:..\../gps.c   ****   }
 1491              		.loc 1 222 0
 1492 072c 0120     		movs	r0, #1
 1493 072e 08E0     		b	.L41
 1494              	.LVL201:
 1495              	.L75:
 1496              	.LBE8:
 345:..\../gps.c   **** }
 1497              		.loc 1 345 0
 1498 0730 0020     		movs	r0, #0
ARM GAS  C:\Users\A85590\AppData\Local\Temp\ccILqQZe.s 			page 38


 1499 0732 06E0     		b	.L41
 1500              	.LVL202:
 1501              	.L76:
 1502              	.LBB9:
 246:..\../gps.c   **** 
 1503              		.loc 1 246 0
 1504 0734 0020     		movs	r0, #0
 1505 0736 04E0     		b	.L41
 1506              	.LVL203:
 1507              	.L77:
 280:..\../gps.c   ****       } // adjust formatting of return
 1508              		.loc 1 280 0
 1509 0738 0020     		movs	r0, #0
 1510 073a 02E0     		b	.L41
 1511              	.L78:
 316:..\../gps.c   ****       } // Formatting adjustment
 1512              		.loc 1 316 0
 1513 073c 0020     		movs	r0, #0
 1514 073e 00E0     		b	.L41
 1515              	.L79:
 342:..\../gps.c   ****   }
 1516              		.loc 1 342 0
 1517 0740 0120     		movs	r0, #1
 1518              	.LVL204:
 1519              	.L41:
 1520              	.LBE9:
 346:..\../gps.c   **** 
 1521              		.loc 1 346 0
 1522 0742 04B0     		add	sp, sp, #16
 1523              		.cfi_def_cfa_offset 24
 1524              		@ sp needed
 1525 0744 BDE8F081 		pop	{r4, r5, r6, r7, r8, pc}
 1526              	.L86:
 1527              		.align	2
 1528              	.L85:
 1529 0748 00000000 		.word	.LANCHOR1
 1530 074c 5917B7D1 		.word	-776530087
 1531 0750 1F85EB51 		.word	1374389535
 1532              		.cfi_endproc
 1533              	.LFE65:
 1534              		.size	GPS_parse, .-GPS_parse
 1535              		.section	.text.GPS_waitForSentence,"ax",%progbits
 1536              		.align	2
 1537              		.global	GPS_waitForSentence
 1538              		.thumb
 1539              		.thumb_func
 1540              		.type	GPS_waitForSentence, %function
 1541              	GPS_waitForSentence:
 1542              	.LFB74:
 446:..\../gps.c   **** 
 447:..\../gps.c   **** uint8_t GPS_waitForSentence(const char *wait4me, uint8_t max)
 448:..\../gps.c   **** {
 1543              		.loc 1 448 0
 1544              		.cfi_startproc
 1545              		@ args = 0, pretend = 0, frame = 24
 1546              		@ frame_needed = 0, uses_anonymous_args = 0
 1547              	.LVL205:
ARM GAS  C:\Users\A85590\AppData\Local\Temp\ccILqQZe.s 			page 39


 1548 0000 70B5     		push	{r4, r5, r6, lr}
 1549              		.cfi_def_cfa_offset 16
 1550              		.cfi_offset 4, -16
 1551              		.cfi_offset 5, -12
 1552              		.cfi_offset 6, -8
 1553              		.cfi_offset 14, -4
 1554 0002 86B0     		sub	sp, sp, #24
 1555              		.cfi_def_cfa_offset 40
 1556 0004 0646     		mov	r6, r0
 1557 0006 0D46     		mov	r5, r1
 1558              	.LVL206:
 449:..\../gps.c   ****   char str[20];
 450:..\../gps.c   **** 
 451:..\../gps.c   ****   uint8_t i = 0;
 1559              		.loc 1 451 0
 1560 0008 0024     		movs	r4, #0
 452:..\../gps.c   ****   while (i < max)
 1561              		.loc 1 452 0
 1562 000a 13E0     		b	.L89
 1563              	.LVL207:
 1564              	.L91:
 453:..\../gps.c   ****   {
 454:..\../gps.c   ****     if (GPS_newNMEAreceived())
 1565              		.loc 1 454 0
 1566 000c FFF7FEFF 		bl	GPS_newNMEAreceived
 1567              	.LVL208:
 1568 0010 80B1     		cbz	r0, .L89
 1569              	.LBB10:
 455:..\../gps.c   ****     {
 456:..\../gps.c   ****       char *nmea = GPS_lastNMEA();
 1570              		.loc 1 456 0
 1571 0012 FFF7FEFF 		bl	GPS_lastNMEA
 1572              	.LVL209:
 457:..\../gps.c   ****       strncpy(str, nmea, 20);
 1573              		.loc 1 457 0
 1574 0016 1422     		movs	r2, #20
 1575 0018 0146     		mov	r1, r0
 1576 001a 01A8     		add	r0, sp, #4
 1577              	.LVL210:
 1578 001c FFF7FEFF 		bl	strncpy
 1579              	.LVL211:
 458:..\../gps.c   ****       str[19] = 0;
 1580              		.loc 1 458 0
 1581 0020 0023     		movs	r3, #0
 1582 0022 8DF81730 		strb	r3, [sp, #23]
 459:..\../gps.c   ****       i++;
 1583              		.loc 1 459 0
 1584 0026 0134     		adds	r4, r4, #1
 1585              	.LVL212:
 1586 0028 E4B2     		uxtb	r4, r4
 1587              	.LVL213:
 460:..\../gps.c   **** 
 461:..\../gps.c   ****       if (strstr(str, wait4me))
 1588              		.loc 1 461 0
 1589 002a 3146     		mov	r1, r6
 1590 002c 01A8     		add	r0, sp, #4
 1591 002e FFF7FEFF 		bl	strstr
ARM GAS  C:\Users\A85590\AppData\Local\Temp\ccILqQZe.s 			page 40


 1592              	.LVL214:
 1593 0032 18B9     		cbnz	r0, .L92
 1594              	.LVL215:
 1595              	.L89:
 1596              	.LBE10:
 452:..\../gps.c   ****   {
 1597              		.loc 1 452 0
 1598 0034 AC42     		cmp	r4, r5
 1599 0036 E9D3     		bcc	.L91
 462:..\../gps.c   ****         return true;
 463:..\../gps.c   ****     }
 464:..\../gps.c   ****   }
 465:..\../gps.c   **** 
 466:..\../gps.c   ****   return false;
 1600              		.loc 1 466 0
 1601 0038 0020     		movs	r0, #0
 1602 003a 00E0     		b	.L90
 1603              	.L92:
 1604              	.LBB11:
 462:..\../gps.c   ****         return true;
 1605              		.loc 1 462 0
 1606 003c 0120     		movs	r0, #1
 1607              	.L90:
 1608              	.LBE11:
 467:..\../gps.c   **** }
 1609              		.loc 1 467 0
 1610 003e 06B0     		add	sp, sp, #24
 1611              		.cfi_def_cfa_offset 16
 1612              		@ sp needed
 1613 0040 70BD     		pop	{r4, r5, r6, pc}
 1614              		.cfi_endproc
 1615              	.LFE74:
 1616              		.size	GPS_waitForSentence, .-GPS_waitForSentence
 1617 0042 00BF     		.section	.text.GPS_LOCUS_StartLogger,"ax",%progbits
 1618              		.align	2
 1619              		.global	GPS_LOCUS_StartLogger
 1620              		.thumb
 1621              		.thumb_func
 1622              		.type	GPS_LOCUS_StartLogger, %function
 1623              	GPS_LOCUS_StartLogger:
 1624              	.LFB75:
 468:..\../gps.c   **** 
 469:..\../gps.c   **** uint8_t GPS_LOCUS_StartLogger(void)
 470:..\../gps.c   **** {
 1625              		.loc 1 470 0
 1626              		.cfi_startproc
 1627              		@ args = 0, pretend = 0, frame = 0
 1628              		@ frame_needed = 0, uses_anonymous_args = 0
 1629 0000 08B5     		push	{r3, lr}
 1630              		.cfi_def_cfa_offset 8
 1631              		.cfi_offset 3, -8
 1632              		.cfi_offset 14, -4
 471:..\../gps.c   ****   GPS_sendCommand(PMTK_LOCUS_STARTLOG);
 1633              		.loc 1 471 0
 1634 0002 0648     		ldr	r0, .L96
 1635 0004 FFF7FEFF 		bl	GPS_sendCommand
 1636              	.LVL216:
ARM GAS  C:\Users\A85590\AppData\Local\Temp\ccILqQZe.s 			page 41


 472:..\../gps.c   ****   recvdflag = false;
 1637              		.loc 1 472 0
 1638 0008 0022     		movs	r2, #0
 1639 000a 054B     		ldr	r3, .L96+4
 1640 000c 83F80021 		strb	r2, [r3, #256]
 473:..\../gps.c   ****   return GPS_waitForSentence(PMTK_LOCUS_STARTSTOPACK, MAXWAITSENTENCE);
 1641              		.loc 1 473 0
 1642 0010 0521     		movs	r1, #5
 1643 0012 0448     		ldr	r0, .L96+8
 1644 0014 FFF7FEFF 		bl	GPS_waitForSentence
 1645              	.LVL217:
 474:..\../gps.c   **** }
 1646              		.loc 1 474 0
 1647 0018 08BD     		pop	{r3, pc}
 1648              	.L97:
 1649 001a 00BF     		.align	2
 1650              	.L96:
 1651 001c 10000000 		.word	.LC2
 1652 0020 00000000 		.word	.LANCHOR1
 1653 0024 20000000 		.word	.LC3
 1654              		.cfi_endproc
 1655              	.LFE75:
 1656              		.size	GPS_LOCUS_StartLogger, .-GPS_LOCUS_StartLogger
 1657              		.section	.text.GPS_LOCUS_StopLogger,"ax",%progbits
 1658              		.align	2
 1659              		.global	GPS_LOCUS_StopLogger
 1660              		.thumb
 1661              		.thumb_func
 1662              		.type	GPS_LOCUS_StopLogger, %function
 1663              	GPS_LOCUS_StopLogger:
 1664              	.LFB76:
 475:..\../gps.c   **** 
 476:..\../gps.c   **** uint8_t GPS_LOCUS_StopLogger(void)
 477:..\../gps.c   **** {
 1665              		.loc 1 477 0
 1666              		.cfi_startproc
 1667              		@ args = 0, pretend = 0, frame = 0
 1668              		@ frame_needed = 0, uses_anonymous_args = 0
 1669 0000 08B5     		push	{r3, lr}
 1670              		.cfi_def_cfa_offset 8
 1671              		.cfi_offset 3, -8
 1672              		.cfi_offset 14, -4
 478:..\../gps.c   ****   GPS_sendCommand(PMTK_LOCUS_STOPLOG);
 1673              		.loc 1 478 0
 1674 0002 0648     		ldr	r0, .L100
 1675 0004 FFF7FEFF 		bl	GPS_sendCommand
 1676              	.LVL218:
 479:..\../gps.c   ****   recvdflag = false;
 1677              		.loc 1 479 0
 1678 0008 0022     		movs	r2, #0
 1679 000a 054B     		ldr	r3, .L100+4
 1680 000c 83F80021 		strb	r2, [r3, #256]
 480:..\../gps.c   ****   return GPS_waitForSentence(PMTK_LOCUS_STARTSTOPACK, MAXWAITSENTENCE);
 1681              		.loc 1 480 0
 1682 0010 0521     		movs	r1, #5
 1683 0012 0448     		ldr	r0, .L100+8
 1684 0014 FFF7FEFF 		bl	GPS_waitForSentence
ARM GAS  C:\Users\A85590\AppData\Local\Temp\ccILqQZe.s 			page 42


 1685              	.LVL219:
 481:..\../gps.c   **** }
 1686              		.loc 1 481 0
 1687 0018 08BD     		pop	{r3, pc}
 1688              	.L101:
 1689 001a 00BF     		.align	2
 1690              	.L100:
 1691 001c 34000000 		.word	.LC4
 1692 0020 00000000 		.word	.LANCHOR1
 1693 0024 20000000 		.word	.LC3
 1694              		.cfi_endproc
 1695              	.LFE76:
 1696              		.size	GPS_LOCUS_StopLogger, .-GPS_LOCUS_StopLogger
 1697              		.section	.text.GPS_LOCUS_ReadStatus,"ax",%progbits
 1698              		.align	2
 1699              		.global	GPS_LOCUS_ReadStatus
 1700              		.thumb
 1701              		.thumb_func
 1702              		.type	GPS_LOCUS_ReadStatus, %function
 1703              	GPS_LOCUS_ReadStatus:
 1704              	.LFB77:
 482:..\../gps.c   **** 
 483:..\../gps.c   **** uint8_t GPS_LOCUS_ReadStatus(void)
 484:..\../gps.c   **** {
 1705              		.loc 1 484 0
 1706              		.cfi_startproc
 1707              		@ args = 0, pretend = 0, frame = 24
 1708              		@ frame_needed = 0, uses_anonymous_args = 0
 1709 0000 70B5     		push	{r4, r5, r6, lr}
 1710              		.cfi_def_cfa_offset 16
 1711              		.cfi_offset 4, -16
 1712              		.cfi_offset 5, -12
 1713              		.cfi_offset 6, -8
 1714              		.cfi_offset 14, -4
 1715 0002 86B0     		sub	sp, sp, #24
 1716              		.cfi_def_cfa_offset 40
 485:..\../gps.c   ****   GPS_sendCommand(PMTK_LOCUS_QUERY_STATUS);
 1717              		.loc 1 485 0
 1718 0004 2C48     		ldr	r0, .L115
 1719 0006 FFF7FEFF 		bl	GPS_sendCommand
 1720              	.LVL220:
 486:..\../gps.c   **** 
 487:..\../gps.c   ****   if (!GPS_waitForSentence("$PMTKLOG", MAXWAITSENTENCE))
 1721              		.loc 1 487 0
 1722 000a 0521     		movs	r1, #5
 1723 000c 2B48     		ldr	r0, .L115+4
 1724 000e FFF7FEFF 		bl	GPS_waitForSentence
 1725              	.LVL221:
 1726 0012 0346     		mov	r3, r0
 1727 0014 0028     		cmp	r0, #0
 1728 0016 4BD0     		beq	.L103
 488:..\../gps.c   ****     return false;
 489:..\../gps.c   **** 
 490:..\../gps.c   ****   char *response = GPS_lastNMEA();
 1729              		.loc 1 490 0
 1730 0018 FFF7FEFF 		bl	GPS_lastNMEA
 1731              	.LVL222:
ARM GAS  C:\Users\A85590\AppData\Local\Temp\ccILqQZe.s 			page 43


 491:..\../gps.c   ****   uint16_t parsed[10];
 492:..\../gps.c   ****   uint8_t i;
 493:..\../gps.c   **** 
 494:..\../gps.c   ****   for (i = 0; i < 10; i++)
 1732              		.loc 1 494 0
 1733 001c 0023     		movs	r3, #0
 1734 001e 08E0     		b	.L104
 1735              	.LVL223:
 1736              	.L105:
 495:..\../gps.c   ****     parsed[i] = -1;
 1737              		.loc 1 495 0 discriminator 3
 1738 0020 06AA     		add	r2, sp, #24
 1739 0022 02EB4302 		add	r2, r2, r3, lsl #1
 1740 0026 4FF6FF71 		movw	r1, #65535
 1741 002a 22F8141C 		strh	r1, [r2, #-20]	@ movhi
 494:..\../gps.c   ****     parsed[i] = -1;
 1742              		.loc 1 494 0 discriminator 3
 1743 002e 0133     		adds	r3, r3, #1
 1744              	.LVL224:
 1745 0030 DBB2     		uxtb	r3, r3
 1746              	.LVL225:
 1747              	.L104:
 494:..\../gps.c   ****     parsed[i] = -1;
 1748              		.loc 1 494 0 is_stmt 0 discriminator 1
 1749 0032 092B     		cmp	r3, #9
 1750 0034 F4D9     		bls	.L105
 496:..\../gps.c   **** 
 497:..\../gps.c   ****   response = strchr(response, ',');
 1751              		.loc 1 497 0 is_stmt 1
 1752 0036 2C21     		movs	r1, #44
 1753 0038 FFF7FEFF 		bl	strchr
 1754              	.LVL226:
 498:..\../gps.c   ****   for (i = 0; i < 10; i++)
 1755              		.loc 1 498 0
 1756 003c 0026     		movs	r6, #0
 1757 003e 34E0     		b	.L106
 1758              	.LVL227:
 1759              	.L113:
 499:..\../gps.c   ****   {
 500:..\../gps.c   ****     if (!response || (response[0] == 0) || (response[0] == '*'))
 1760              		.loc 1 500 0
 1761 0040 0028     		cmp	r0, #0
 1762 0042 34D0     		beq	.L107
 1763              		.loc 1 500 0 is_stmt 0 discriminator 1
 1764 0044 0378     		ldrb	r3, [r0]	@ zero_extendqisi2
 1765 0046 93B3     		cbz	r3, .L107
 1766              		.loc 1 500 0 discriminator 2
 1767 0048 2A2B     		cmp	r3, #42
 1768 004a 30D0     		beq	.L107
 501:..\../gps.c   ****       break;
 502:..\../gps.c   ****     response++;
 1769              		.loc 1 502 0 is_stmt 1
 1770 004c 0130     		adds	r0, r0, #1
 1771              	.LVL228:
 503:..\../gps.c   ****     parsed[i] = 0;
 1772              		.loc 1 503 0
 1773 004e 3546     		mov	r5, r6
ARM GAS  C:\Users\A85590\AppData\Local\Temp\ccILqQZe.s 			page 44


 1774 0050 0022     		movs	r2, #0
 1775 0052 06AB     		add	r3, sp, #24
 1776 0054 03EB4603 		add	r3, r3, r6, lsl #1
 1777 0058 23F8142C 		strh	r2, [r3, #-20]	@ movhi
 504:..\../gps.c   ****     while ((response[0] != ',') &&
 1778              		.loc 1 504 0
 1779 005c 1CE0     		b	.L108
 1780              	.L112:
 1781              	.LBB12:
 505:..\../gps.c   ****            (response[0] != '*') && (response[0] != 0))
 506:..\../gps.c   ****     {
 507:..\../gps.c   ****       parsed[i] *= 10;
 1782              		.loc 1 507 0
 1783 005e 06AA     		add	r2, sp, #24
 1784 0060 02EB4504 		add	r4, r2, r5, lsl #1
 1785 0064 34F8142C 		ldrh	r2, [r4, #-20]
 1786 0068 02EB8202 		add	r2, r2, r2, lsl #2
 1787 006c 5100     		lsls	r1, r2, #1
 1788 006e 89B2     		uxth	r1, r1
 1789 0070 24F8141C 		strh	r1, [r4, #-20]	@ movhi
 1790              	.LVL229:
 508:..\../gps.c   ****       char c = response[0];
 509:..\../gps.c   ****       if (isdigit((int)c))
 1791              		.loc 1 509 0
 1792 0074 124A     		ldr	r2, .L115+8
 1793 0076 1268     		ldr	r2, [r2]
 1794 0078 1A44     		add	r2, r2, r3
 1795 007a 5278     		ldrb	r2, [r2, #1]	@ zero_extendqisi2
 1796 007c 12F0040F 		tst	r2, #4
 1797 0080 04D0     		beq	.L109
 510:..\../gps.c   ****         parsed[i] += c - '0';
 1798              		.loc 1 510 0
 1799 0082 0B44     		add	r3, r3, r1
 1800              	.LVL230:
 1801 0084 303B     		subs	r3, r3, #48
 1802 0086 24F8143C 		strh	r3, [r4, #-20]	@ movhi
 1803 008a 04E0     		b	.L110
 1804              	.LVL231:
 1805              	.L109:
 511:..\../gps.c   ****       else
 512:..\../gps.c   ****         parsed[i] = c;
 1806              		.loc 1 512 0
 1807 008c 06AA     		add	r2, sp, #24
 1808 008e 02EB4502 		add	r2, r2, r5, lsl #1
 1809 0092 22F8143C 		strh	r3, [r2, #-20]	@ movhi
 1810              	.LVL232:
 1811              	.L110:
 513:..\../gps.c   ****       response++;
 1812              		.loc 1 513 0
 1813 0096 0130     		adds	r0, r0, #1
 1814              	.LVL233:
 1815              	.L108:
 1816              	.LBE12:
 504:..\../gps.c   ****            (response[0] != '*') && (response[0] != 0))
 1817              		.loc 1 504 0
 1818 0098 0378     		ldrb	r3, [r0]	@ zero_extendqisi2
 1819 009a 2C2B     		cmp	r3, #44
ARM GAS  C:\Users\A85590\AppData\Local\Temp\ccILqQZe.s 			page 45


 1820 009c 03D0     		beq	.L111
 504:..\../gps.c   ****            (response[0] != '*') && (response[0] != 0))
 1821              		.loc 1 504 0 is_stmt 0 discriminator 1
 1822 009e 2A2B     		cmp	r3, #42
 1823 00a0 01D0     		beq	.L111
 505:..\../gps.c   ****     {
 1824              		.loc 1 505 0 is_stmt 1
 1825 00a2 002B     		cmp	r3, #0
 1826 00a4 DBD1     		bne	.L112
 1827              	.L111:
 498:..\../gps.c   ****   {
 1828              		.loc 1 498 0 discriminator 2
 1829 00a6 0136     		adds	r6, r6, #1
 1830              	.LVL234:
 1831 00a8 F6B2     		uxtb	r6, r6
 1832              	.LVL235:
 1833              	.L106:
 498:..\../gps.c   ****   {
 1834              		.loc 1 498 0 is_stmt 0 discriminator 1
 1835 00aa 092E     		cmp	r6, #9
 1836 00ac C8D9     		bls	.L113
 1837              	.L107:
 514:..\../gps.c   ****     }
 515:..\../gps.c   ****   }
 516:..\../gps.c   ****   LOCUS_serial = parsed[0];
 517:..\../gps.c   ****   LOCUS_type = parsed[1];
 518:..\../gps.c   ****   if (isalpha(parsed[2]))
 519:..\../gps.c   ****   {
 520:..\../gps.c   ****     parsed[2] = parsed[2] - 'a' + 10;
 521:..\../gps.c   ****   }
 522:..\../gps.c   ****   LOCUS_mode = parsed[2];
 523:..\../gps.c   ****   LOCUS_config = parsed[3];
 524:..\../gps.c   ****   LOCUS_interval = parsed[4];
 525:..\../gps.c   ****   LOCUS_distance = parsed[5];
 526:..\../gps.c   ****   LOCUS_speed = parsed[6];
 527:..\../gps.c   ****   LOCUS_status = !parsed[7];
 528:..\../gps.c   ****   LOCUS_records = parsed[8];
 529:..\../gps.c   ****   LOCUS_percent = parsed[9];
 530:..\../gps.c   **** 
 531:..\../gps.c   ****   return true;
 1838              		.loc 1 531 0 is_stmt 1
 1839 00ae 0123     		movs	r3, #1
 1840              	.LVL236:
 1841              	.L103:
 532:..\../gps.c   **** }
 1842              		.loc 1 532 0
 1843 00b0 1846     		mov	r0, r3
 1844 00b2 06B0     		add	sp, sp, #24
 1845              		.cfi_def_cfa_offset 16
 1846              		@ sp needed
 1847 00b4 70BD     		pop	{r4, r5, r6, pc}
 1848              	.L116:
 1849 00b6 00BF     		.align	2
 1850              	.L115:
 1851 00b8 44000000 		.word	.LC5
 1852 00bc 50000000 		.word	.LC6
 1853 00c0 00000000 		.word	__ctype_ptr__
ARM GAS  C:\Users\A85590\AppData\Local\Temp\ccILqQZe.s 			page 46


 1854              		.cfi_endproc
 1855              	.LFE77:
 1856              		.size	GPS_LOCUS_ReadStatus, .-GPS_LOCUS_ReadStatus
 1857              		.section	.text.GPS_standby,"ax",%progbits
 1858              		.align	2
 1859              		.global	GPS_standby
 1860              		.thumb
 1861              		.thumb_func
 1862              		.type	GPS_standby, %function
 1863              	GPS_standby:
 1864              	.LFB78:
 533:..\../gps.c   **** 
 534:..\../gps.c   **** // Standby Mode Switches
 535:..\../gps.c   **** uint8_t GPS_standby(void)
 536:..\../gps.c   **** {
 1865              		.loc 1 536 0
 1866              		.cfi_startproc
 1867              		@ args = 0, pretend = 0, frame = 0
 1868              		@ frame_needed = 0, uses_anonymous_args = 0
 537:..\../gps.c   ****   if (inStandbyMode)
 1869              		.loc 1 537 0
 1870 0000 084B     		ldr	r3, .L122
 1871 0002 93F82C31 		ldrb	r3, [r3, #300]	@ zero_extendqisi2
 1872 0006 13F0FF0F 		tst	r3, #255
 1873 000a 09D1     		bne	.L119
 536:..\../gps.c   ****   if (inStandbyMode)
 1874              		.loc 1 536 0
 1875 000c 10B5     		push	{r4, lr}
 1876              		.cfi_def_cfa_offset 8
 1877              		.cfi_offset 4, -8
 1878              		.cfi_offset 14, -4
 538:..\../gps.c   ****   {
 539:..\../gps.c   ****     return false; // Returns false if already in standby mode, so that you do not wake it up by sen
 540:..\../gps.c   ****   }
 541:..\../gps.c   ****   else
 542:..\../gps.c   ****   {
 543:..\../gps.c   ****     inStandbyMode = true;
 1879              		.loc 1 543 0
 1880 000e 0124     		movs	r4, #1
 1881 0010 044B     		ldr	r3, .L122
 1882 0012 83F82C41 		strb	r4, [r3, #300]
 544:..\../gps.c   ****     GPS_sendCommand(PMTK_STANDBY);
 1883              		.loc 1 544 0
 1884 0016 0448     		ldr	r0, .L122+4
 1885 0018 FFF7FEFF 		bl	GPS_sendCommand
 1886              	.LVL237:
 545:..\../gps.c   ****     //return waitForSentence(PMTK_STANDBY_SUCCESS);  // don't seem to be fast enough to catch the m
 546:..\../gps.c   ****     return true;
 1887              		.loc 1 546 0
 1888 001c 2046     		mov	r0, r4
 1889 001e 10BD     		pop	{r4, pc}
 1890              	.L119:
 1891              		.cfi_def_cfa_offset 0
 1892              		.cfi_restore 4
 1893              		.cfi_restore 14
 539:..\../gps.c   ****   }
 1894              		.loc 1 539 0
ARM GAS  C:\Users\A85590\AppData\Local\Temp\ccILqQZe.s 			page 47


 1895 0020 0020     		movs	r0, #0
 1896 0022 7047     		bx	lr
 1897              	.L123:
 1898              		.align	2
 1899              	.L122:
 1900 0024 00000000 		.word	.LANCHOR1
 1901 0028 5C000000 		.word	.LC7
 1902              		.cfi_endproc
 1903              	.LFE78:
 1904              		.size	GPS_standby, .-GPS_standby
 1905              		.section	.text.GPS_wakeup,"ax",%progbits
 1906              		.align	2
 1907              		.global	GPS_wakeup
 1908              		.thumb
 1909              		.thumb_func
 1910              		.type	GPS_wakeup, %function
 1911              	GPS_wakeup:
 1912              	.LFB79:
 547:..\../gps.c   ****   }
 548:..\../gps.c   **** }
 549:..\../gps.c   **** 
 550:..\../gps.c   **** uint8_t GPS_wakeup(void)
 551:..\../gps.c   **** {
 1913              		.loc 1 551 0
 1914              		.cfi_startproc
 1915              		@ args = 0, pretend = 0, frame = 0
 1916              		@ frame_needed = 0, uses_anonymous_args = 0
 1917 0000 08B5     		push	{r3, lr}
 1918              		.cfi_def_cfa_offset 8
 1919              		.cfi_offset 3, -8
 1920              		.cfi_offset 14, -4
 552:..\../gps.c   ****   if (inStandbyMode)
 1921              		.loc 1 552 0
 1922 0002 094B     		ldr	r3, .L127
 1923 0004 93F82C31 		ldrb	r3, [r3, #300]	@ zero_extendqisi2
 1924 0008 03F0FF00 		and	r0, r3, #255
 1925 000c 53B1     		cbz	r3, .L125
 553:..\../gps.c   ****   {
 554:..\../gps.c   ****     inStandbyMode = false;
 1926              		.loc 1 554 0
 1927 000e 0022     		movs	r2, #0
 1928 0010 054B     		ldr	r3, .L127
 1929 0012 83F82C21 		strb	r2, [r3, #300]
 555:..\../gps.c   ****     GPS_sendCommand(""); // send byte to wake it up
 1930              		.loc 1 555 0
 1931 0016 0548     		ldr	r0, .L127+4
 1932 0018 FFF7FEFF 		bl	GPS_sendCommand
 1933              	.LVL238:
 556:..\../gps.c   ****     return GPS_waitForSentence(PMTK_AWAKE, MAXWAITSENTENCE);
 1934              		.loc 1 556 0
 1935 001c 0521     		movs	r1, #5
 1936 001e 0448     		ldr	r0, .L127+8
 1937 0020 FFF7FEFF 		bl	GPS_waitForSentence
 1938              	.LVL239:
 1939              	.L125:
 557:..\../gps.c   ****   }
 558:..\../gps.c   ****   else
ARM GAS  C:\Users\A85590\AppData\Local\Temp\ccILqQZe.s 			page 48


 559:..\../gps.c   ****   {
 560:..\../gps.c   ****     return false; // Returns false if not in standby mode, nothing to wakeup
 561:..\../gps.c   ****   }
 562:..\../gps.c   **** }
 1940              		.loc 1 562 0
 1941 0024 08BD     		pop	{r3, pc}
 1942              	.L128:
 1943 0026 00BF     		.align	2
 1944              	.L127:
 1945 0028 00000000 		.word	.LANCHOR1
 1946 002c 6C000000 		.word	.LC8
 1947 0030 70000000 		.word	.LC9
 1948              		.cfi_endproc
 1949              	.LFE79:
 1950              		.size	GPS_wakeup, .-GPS_wakeup
 1951              		.section	.text.GPS_start,"ax",%progbits
 1952              		.align	2
 1953              		.global	GPS_start
 1954              		.thumb
 1955              		.thumb_func
 1956              		.type	GPS_start, %function
 1957              	GPS_start:
 1958              	.LFB80:
 563:..\../gps.c   **** 
 564:..\../gps.c   **** uint8_t GPS_start()
 565:..\../gps.c   **** {
 1959              		.loc 1 565 0
 1960              		.cfi_startproc
 1961              		@ args = 0, pretend = 0, frame = 0
 1962              		@ frame_needed = 0, uses_anonymous_args = 0
 1963 0000 08B5     		push	{r3, lr}
 1964              		.cfi_def_cfa_offset 8
 1965              		.cfi_offset 3, -8
 1966              		.cfi_offset 14, -4
 566:..\../gps.c   ****   // uncomment this line to turn on RMC (recommended minimum) and GGA (fix data) including altitude
 567:..\../gps.c   ****   GPS_sendCommand(PMTK_SET_NMEA_OUTPUT_RMCGGA);
 1967              		.loc 1 567 0
 1968 0002 0648     		ldr	r0, .L131
 1969 0004 FFF7FEFF 		bl	GPS_sendCommand
 1970              	.LVL240:
 568:..\../gps.c   ****   // uncomment this line to turn on only the "minimum recommended" data
 569:..\../gps.c   ****   //GPS.sendCommand(PMTK_SET_NMEA_OUTPUT_RMCONLY);
 570:..\../gps.c   ****   // For parsing data, we don't suggest using anything but either RMC only or RMC+GGA since
 571:..\../gps.c   ****   // the parser doesn't care about other sentences at this time
 572:..\../gps.c   ****   // Set the update rate
 573:..\../gps.c   ****   GPS_sendCommand(PMTK_SET_NMEA_UPDATE_1HZ); // 5 Hz update rate
 1971              		.loc 1 573 0
 1972 0008 0548     		ldr	r0, .L131+4
 1973 000a FFF7FEFF 		bl	GPS_sendCommand
 1974              	.LVL241:
 574:..\../gps.c   ****   // For the parsing code to work nicely and have time to sort thru the data, and
 575:..\../gps.c   ****   // print it out we don't suggest using anything higher than 1 Hz
 576:..\../gps.c   **** 
 577:..\../gps.c   ****   // Request updates on antenna status, comment out to keep quiet
 578:..\../gps.c   ****   //GPS_sendCommand(PGCMD_ANTENNA);
 579:..\../gps.c   **** 
 580:..\../gps.c   ****   CyDelay(1000);
ARM GAS  C:\Users\A85590\AppData\Local\Temp\ccILqQZe.s 			page 49


 1975              		.loc 1 580 0
 1976 000e 4FF47A70 		mov	r0, #1000
 1977 0012 FFF7FEFF 		bl	CyDelay
 1978              	.LVL242:
 581:..\../gps.c   **** 
 582:..\../gps.c   ****   // Ask for firmware version
 583:..\../gps.c   ****   //GPSSerial_println(PMTK_Q_RELEASE);
 584:..\../gps.c   ****   return 1;
 585:..\../gps.c   **** }
 1979              		.loc 1 585 0
 1980 0016 0120     		movs	r0, #1
 1981 0018 08BD     		pop	{r3, pc}
 1982              	.L132:
 1983 001a 00BF     		.align	2
 1984              	.L131:
 1985 001c 80000000 		.word	.LC10
 1986 0020 B4000000 		.word	.LC11
 1987              		.cfi_endproc
 1988              	.LFE80:
 1989              		.size	GPS_start, .-GPS_start
 1990              		.section	.text.GPS_update,"ax",%progbits
 1991              		.align	2
 1992              		.global	GPS_update
 1993              		.thumb
 1994              		.thumb_func
 1995              		.type	GPS_update, %function
 1996              	GPS_update:
 1997              	.LFB81:
 586:..\../gps.c   **** 
 587:..\../gps.c   **** 
 588:..\../gps.c   **** 
 589:..\../gps.c   **** uint8_t GPS_update()
 590:..\../gps.c   **** {
 1998              		.loc 1 590 0
 1999              		.cfi_startproc
 2000              		@ args = 0, pretend = 0, frame = 0
 2001              		@ frame_needed = 0, uses_anonymous_args = 0
 2002 0000 08B5     		push	{r3, lr}
 2003              		.cfi_def_cfa_offset 8
 2004              		.cfi_offset 3, -8
 2005              		.cfi_offset 14, -4
 591:..\../gps.c   ****   //This function will be used to update the GPS data
 592:..\../gps.c   ****   // read data from the GPS in the 'main loop'
 593:..\../gps.c   ****   char c = GPS_read();
 2006              		.loc 1 593 0
 2007 0002 FFF7FEFF 		bl	GPS_read
 2008              	.LVL243:
 594:..\../gps.c   ****   //char c = gpsSerial_GetByte();
 595:..\../gps.c   ****   //GPS_read();
 596:..\../gps.c   ****   // if you want to debug, this is a good time to do it!
 597:..\../gps.c   ****   /**/
 598:..\../gps.c   ****   if (GPSECHO)
 2009              		.loc 1 598 0
 2010 0006 2B4B     		ldr	r3, .L139
 2011 0008 1B78     		ldrb	r3, [r3]	@ zero_extendqisi2
 2012 000a 13B1     		cbz	r3, .L134
 599:..\../gps.c   ****     {if(c)serial_printChar(c);}
ARM GAS  C:\Users\A85590\AppData\Local\Temp\ccILqQZe.s 			page 50


 2013              		.loc 1 599 0
 2014 000c 08B1     		cbz	r0, .L134
 2015              		.loc 1 599 0 is_stmt 0 discriminator 1
 2016 000e FFF7FEFF 		bl	serial_printChar
 2017              	.LVL244:
 2018              	.L134:
 600:..\../gps.c   ****   /**/
 601:..\../gps.c   **** 
 602:..\../gps.c   ****   // if a sentence is received, we can check the checksum, parse it...
 603:..\../gps.c   ****   if (GPS_newNMEAreceived())
 2019              		.loc 1 603 0 is_stmt 1
 2020 0012 FFF7FEFF 		bl	GPS_newNMEAreceived
 2021              	.LVL245:
 2022 0016 0028     		cmp	r0, #0
 2023 0018 47D0     		beq	.L136
 604:..\../gps.c   ****   {
 605:..\../gps.c   ****     // a tricky thing here is if we print the NMEA sentence, or data
 606:..\../gps.c   ****     // we end up not listening and catching other sentences!
 607:..\../gps.c   ****     // so be very wary if using OUTPUT_ALLDATA and trytng to print out data
 608:..\../gps.c   ****     //serial_println(GPS_lastNMEA()); // this also sets the newNMEAreceived() flag to false
 609:..\../gps.c   **** 
 610:..\../gps.c   ****     if (!GPS_parse(GPS_lastNMEA())) // this also sets the newNMEAreceived() flag to false
 2024              		.loc 1 610 0
 2025 001a FFF7FEFF 		bl	GPS_lastNMEA
 2026              	.LVL246:
 2027 001e FFF7FEFF 		bl	GPS_parse
 2028              	.LVL247:
 2029 0022 0346     		mov	r3, r0
 2030 0024 0028     		cmp	r0, #0
 2031 0026 43D0     		beq	.L135
 611:..\../gps.c   ****     {
 612:..\../gps.c   ****       return 0; // we can fail to parse a sentence in A case we should just wait for another
 613:..\../gps.c   ****     }
 614:..\../gps.c   ****     //if parsed successfully,
 615:..\../gps.c   ****     //save and print all of the important information for us to see
 616:..\../gps.c   **** 
 617:..\../gps.c   ****     GPS.millisTimeStamp = millis(); //get a timestamp
 2032              		.loc 1 617 0
 2033 0028 FFF7FEFF 		bl	millis
 2034              	.LVL248:
 2035 002c 224B     		ldr	r3, .L139+4
 2036 002e 1864     		str	r0, [r3, #64]
 618:..\../gps.c   **** 
 619:..\../gps.c   ****     GPS.hour = hour;
 2037              		.loc 1 619 0
 2038 0030 224A     		ldr	r2, .L139+8
 2039 0032 92F80811 		ldrb	r1, [r2, #264]	@ zero_extendqisi2
 2040 0036 1970     		strb	r1, [r3]
 620:..\../gps.c   ****     GPS.minute = minute;
 2041              		.loc 1 620 0
 2042 0038 92F80711 		ldrb	r1, [r2, #263]	@ zero_extendqisi2
 2043 003c 5970     		strb	r1, [r3, #1]
 621:..\../gps.c   ****     GPS.seconds = seconds;
 2044              		.loc 1 621 0
 2045 003e 92F80611 		ldrb	r1, [r2, #262]	@ zero_extendqisi2
 2046 0042 9970     		strb	r1, [r3, #2]
 622:..\../gps.c   ****     GPS.milliseconds = milliseconds;
ARM GAS  C:\Users\A85590\AppData\Local\Temp\ccILqQZe.s 			page 51


 2047              		.loc 1 622 0
 2048 0044 B2F80C11 		ldrh	r1, [r2, #268]
 2049 0048 D980     		strh	r1, [r3, #6]	@ movhi
 623:..\../gps.c   **** 
 624:..\../gps.c   ****     GPS.day = day;
 2050              		.loc 1 624 0
 2051 004a 92F80311 		ldrb	r1, [r2, #259]	@ zero_extendqisi2
 2052 004e 5971     		strb	r1, [r3, #5]
 625:..\../gps.c   ****     GPS.month = month;
 2053              		.loc 1 625 0
 2054 0050 92F80411 		ldrb	r1, [r2, #260]	@ zero_extendqisi2
 2055 0054 1971     		strb	r1, [r3, #4]
 626:..\../gps.c   ****     GPS.year = year;
 2056              		.loc 1 626 0
 2057 0056 92F80511 		ldrb	r1, [r2, #261]	@ zero_extendqisi2
 2058 005a D970     		strb	r1, [r3, #3]
 627:..\../gps.c   **** 
 628:..\../gps.c   ****     GPS.fix = fix;
 2059              		.loc 1 628 0
 2060 005c 92F80B11 		ldrb	r1, [r2, #267]	@ zero_extendqisi2
 2061 0060 83F83B10 		strb	r1, [r3, #59]
 629:..\../gps.c   ****     GPS.fixquality = fixquality;
 2062              		.loc 1 629 0
 2063 0064 92F80221 		ldrb	r2, [r2, #258]	@ zero_extendqisi2
 2064 0068 83F83C20 		strb	r2, [r3, #60]
 630:..\../gps.c   **** 
 631:..\../gps.c   ****     if (GPS.fix)
 2065              		.loc 1 631 0
 2066 006c F9B1     		cbz	r1, .L137
 632:..\../gps.c   ****     {
 633:..\../gps.c   **** 
 634:..\../gps.c   ****       GPS.latitude = latitude;
 2067              		.loc 1 634 0
 2068 006e 134A     		ldr	r2, .L139+8
 2069 0070 D2F82011 		ldr	r1, [r2, #288]	@ float
 2070 0074 9960     		str	r1, [r3, #8]	@ float
 635:..\../gps.c   ****       GPS.lat = lat;
 2071              		.loc 1 635 0
 2072 0076 92F80A11 		ldrb	r1, [r2, #266]	@ zero_extendqisi2
 2073 007a 83F83810 		strb	r1, [r3, #56]
 636:..\../gps.c   ****       GPS.longitude = longitude;
 2074              		.loc 1 636 0
 2075 007e D2F81C11 		ldr	r1, [r2, #284]	@ float
 2076 0082 D960     		str	r1, [r3, #12]	@ float
 637:..\../gps.c   ****       GPS.lon = lon;
 2077              		.loc 1 637 0
 2078 0084 92F80911 		ldrb	r1, [r2, #265]	@ zero_extendqisi2
 2079 0088 83F83910 		strb	r1, [r3, #57]
 638:..\../gps.c   **** 
 639:..\../gps.c   ****       GPS.speed = speed;
 2080              		.loc 1 639 0
 2081 008c D2F81411 		ldr	r1, [r2, #276]	@ float
 2082 0090 9962     		str	r1, [r3, #40]	@ float
 640:..\../gps.c   ****       GPS.angle = angle;
 2083              		.loc 1 640 0
 2084 0092 D2F81011 		ldr	r1, [r2, #272]	@ float
 2085 0096 D962     		str	r1, [r3, #44]	@ float
ARM GAS  C:\Users\A85590\AppData\Local\Temp\ccILqQZe.s 			page 52


 641:..\../gps.c   ****       GPS.altitude = altitude;
 2086              		.loc 1 641 0
 2087 0098 D2F81811 		ldr	r1, [r2, #280]	@ float
 2088 009c 5962     		str	r1, [r3, #36]	@ float
 642:..\../gps.c   ****       GPS.satellites = satellites;
 2089              		.loc 1 642 0
 2090 009e 92F80121 		ldrb	r2, [r2, #257]	@ zero_extendqisi2
 2091 00a2 83F83D20 		strb	r2, [r3, #61]
 643:..\../gps.c   ****     }
 644:..\../gps.c   ****   }
 645:..\../gps.c   **** 
 646:..\../gps.c   **** #if GPS_DEBUG
 647:..\../gps.c   ****   last_time_printed = millis(); //reset the timer
 648:..\../gps.c   ****   serial_print("\nTime: ");
 649:..\../gps.c   ****   serial_printInt(GPS.hour);
 650:..\../gps.c   ****   serial_print(":");
 651:..\../gps.c   ****   serial_printInt(GPS.minute);
 652:..\../gps.c   ****   serial_print(":");
 653:..\../gps.c   ****   serial_printInt(GPS.seconds);
 654:..\../gps.c   ****   serial_print(".");
 655:..\../gps.c   ****   serial_printIntln(GPS.milliseconds);
 656:..\../gps.c   **** 
 657:..\../gps.c   ****   serial_print("Date: ");
 658:..\../gps.c   ****   serial_printInt(GPS.day);
 659:..\../gps.c   ****   serial_printChar('/');
 660:..\../gps.c   ****   serial_printInt(GPS.month);
 661:..\../gps.c   ****   serial_print("/20");
 662:..\../gps.c   ****   serial_printIntln(GPS.year);
 663:..\../gps.c   **** 
 664:..\../gps.c   ****   serial_print("Fix: ");
 665:..\../gps.c   ****   serial_printInt(GPS.fix);
 666:..\../gps.c   ****   serial_print(" quality: ");
 667:..\../gps.c   ****   serial_printIntln(GPS.fixquality);
 668:..\../gps.c   ****   if (GPS.fix)
 669:..\../gps.c   ****   {
 670:..\../gps.c   ****     serial_print("Location : ");
 671:..\../gps.c   ****     serial_printFloat(GPS.latitude);
 672:..\../gps.c   ****     serial_printChar(GPS.lat);
 673:..\../gps.c   ****     serial_print(", ");
 674:..\../gps.c   ****     serial_printFloat(GPS.longitude);
 675:..\../gps.c   ****     serial_printCharln(GPS.lon);
 676:..\../gps.c   **** 
 677:..\../gps.c   ****     serial_print("Location (in degrees, works with Google maps): ");
 678:..\../gps.c   ****     serial_printFloat(GPS.latitudeDegrees);
 679:..\../gps.c   ****     serial_print(", ");
 680:..\../gps.c   ****     serial_printFloatln(GPS.longitudeDegrees);
 681:..\../gps.c   **** 
 682:..\../gps.c   ****     serial_print("Speed (Knots): ");
 683:..\../gps.c   ****     serial_printFloatln(GPS.speed);
 684:..\../gps.c   ****     serial_print("Angle: ");
 685:..\../gps.c   ****     serial_printFloatln(GPS.angle);
 686:..\../gps.c   ****     serial_print("Altitude: ");
 687:..\../gps.c   ****     serial_printFloatln(GPS.altitude);
 688:..\../gps.c   ****     serial_print("Satellites: ");
 689:..\../gps.c   ****     serial_printIntln((int)GPS.satellites);
 690:..\../gps.c   ****   }
 691:..\../gps.c   **** #endif
ARM GAS  C:\Users\A85590\AppData\Local\Temp\ccILqQZe.s 			page 53


 692:..\../gps.c   ****   return 1;
 2092              		.loc 1 692 0
 2093 00a6 0123     		movs	r3, #1
 2094 00a8 02E0     		b	.L135
 2095              	.L136:
 2096 00aa 0123     		movs	r3, #1
 2097 00ac 00E0     		b	.L135
 2098              	.L137:
 2099 00ae 0123     		movs	r3, #1
 2100              	.L135:
 693:..\../gps.c   **** }
 2101              		.loc 1 693 0
 2102 00b0 1846     		mov	r0, r3
 2103 00b2 08BD     		pop	{r3, pc}
 2104              	.L140:
 2105              		.align	2
 2106              	.L139:
 2107 00b4 00000000 		.word	.LANCHOR0
 2108 00b8 00000000 		.word	GPS
 2109 00bc 00000000 		.word	.LANCHOR1
 2110              		.cfi_endproc
 2111              	.LFE81:
 2112              		.size	GPS_update, .-GPS_update
 2113              		.global	last_time_printed
 2114              		.global	GPSECHO
 2115              		.data
 2116              		.set	.LANCHOR0,. + 0
 2117              		.type	GPSECHO, %object
 2118              		.size	GPSECHO, 1
 2119              	GPSECHO:
 2120 0000 01       		.byte	1
 2121              		.section	.rodata.str1.4,"aMS",%progbits,1
 2122              		.align	2
 2123              	.LC0:
 2124 0000 24475047 		.ascii	"$GPGGA\000"
 2124      474100
 2125 0007 00       		.space	1
 2126              	.LC1:
 2127 0008 24475052 		.ascii	"$GPRMC\000"
 2127      4D4300
 2128 000f 00       		.space	1
 2129              	.LC2:
 2130 0010 24504D54 		.ascii	"$PMTK185,0*22\000"
 2130      4B313835 
 2130      2C302A32 
 2130      3200
 2131 001e 0000     		.space	2
 2132              	.LC3:
 2133 0020 24504D54 		.ascii	"$PMTK001,185,3*3C\000"
 2133      4B303031 
 2133      2C313835 
 2133      2C332A33 
 2133      4300
 2134 0032 0000     		.space	2
 2135              	.LC4:
 2136 0034 24504D54 		.ascii	"$PMTK185,1*23\000"
 2136      4B313835 
ARM GAS  C:\Users\A85590\AppData\Local\Temp\ccILqQZe.s 			page 54


 2136      2C312A32 
 2136      3300
 2137 0042 0000     		.space	2
 2138              	.LC5:
 2139 0044 24504D54 		.ascii	"$PMTK183*38\000"
 2139      4B313833 
 2139      2A333800 
 2140              	.LC6:
 2141 0050 24504D54 		.ascii	"$PMTKLOG\000"
 2141      4B4C4F47 
 2141      00
 2142 0059 000000   		.space	3
 2143              	.LC7:
 2144 005c 24504D54 		.ascii	"$PMTK161,0*28\000"
 2144      4B313631 
 2144      2C302A32 
 2144      3800
 2145 006a 0000     		.space	2
 2146              	.LC8:
 2147 006c 00       		.ascii	"\000"
 2148 006d 000000   		.space	3
 2149              	.LC9:
 2150 0070 24504D54 		.ascii	"$PMTK010,002*2D\000"
 2150      4B303130 
 2150      2C303032 
 2150      2A324400 
 2151              	.LC10:
 2152 0080 24504D54 		.ascii	"$PMTK314,0,1,0,1,0,0,0,0,0,0,0,0,0,0,0,0,0,0,0*28\000"
 2152      4B333134 
 2152      2C302C31 
 2152      2C302C31 
 2152      2C302C30 
 2153 00b2 0000     		.space	2
 2154              	.LC11:
 2155 00b4 24504D54 		.ascii	"$PMTK220,1000*1F\000"
 2155      4B323230 
 2155      2C313030 
 2155      302A3146 
 2155      00
 2156              		.bss
 2157              		.align	2
 2158              		.set	.LANCHOR1,. + 0
 2159              		.type	paused, %object
 2160              		.size	paused, 1
 2161              	paused:
 2162 0000 00       		.space	1
 2163 0001 000000   		.space	3
 2164              		.type	currentline, %object
 2165              		.size	currentline, 4
 2166              	currentline:
 2167 0004 00000000 		.space	4
 2168              		.type	lineidx, %object
 2169              		.size	lineidx, 1
 2170              	lineidx:
 2171 0008 00       		.space	1
 2172 0009 000000   		.space	3
 2173              		.type	line1, %object
ARM GAS  C:\Users\A85590\AppData\Local\Temp\ccILqQZe.s 			page 55


 2174              		.size	line1, 120
 2175              	line1:
 2176 000c 00000000 		.space	120
 2176      00000000 
 2176      00000000 
 2176      00000000 
 2176      00000000 
 2177              		.type	line2, %object
 2178              		.size	line2, 120
 2179              	line2:
 2180 0084 00000000 		.space	120
 2180      00000000 
 2180      00000000 
 2180      00000000 
 2180      00000000 
 2181              		.type	lastline, %object
 2182              		.size	lastline, 4
 2183              	lastline:
 2184 00fc 00000000 		.space	4
 2185              		.type	recvdflag, %object
 2186              		.size	recvdflag, 1
 2187              	recvdflag:
 2188 0100 00       		.space	1
 2189              		.type	satellites, %object
 2190              		.size	satellites, 1
 2191              	satellites:
 2192 0101 00       		.space	1
 2193              		.type	fixquality, %object
 2194              		.size	fixquality, 1
 2195              	fixquality:
 2196 0102 00       		.space	1
 2197              		.type	day, %object
 2198              		.size	day, 1
 2199              	day:
 2200 0103 00       		.space	1
 2201              		.type	month, %object
 2202              		.size	month, 1
 2203              	month:
 2204 0104 00       		.space	1
 2205              		.type	year, %object
 2206              		.size	year, 1
 2207              	year:
 2208 0105 00       		.space	1
 2209              		.type	seconds, %object
 2210              		.size	seconds, 1
 2211              	seconds:
 2212 0106 00       		.space	1
 2213              		.type	minute, %object
 2214              		.size	minute, 1
 2215              	minute:
 2216 0107 00       		.space	1
 2217              		.type	hour, %object
 2218              		.size	hour, 1
 2219              	hour:
 2220 0108 00       		.space	1
 2221              		.type	lon, %object
 2222              		.size	lon, 1
ARM GAS  C:\Users\A85590\AppData\Local\Temp\ccILqQZe.s 			page 56


 2223              	lon:
 2224 0109 00       		.space	1
 2225              		.type	lat, %object
 2226              		.size	lat, 1
 2227              	lat:
 2228 010a 00       		.space	1
 2229              		.type	fix, %object
 2230              		.size	fix, 1
 2231              	fix:
 2232 010b 00       		.space	1
 2233              		.type	milliseconds, %object
 2234              		.size	milliseconds, 2
 2235              	milliseconds:
 2236 010c 0000     		.space	2
 2237 010e 0000     		.space	2
 2238              		.type	angle, %object
 2239              		.size	angle, 4
 2240              	angle:
 2241 0110 00000000 		.space	4
 2242              		.type	speed, %object
 2243              		.size	speed, 4
 2244              	speed:
 2245 0114 00000000 		.space	4
 2246              		.type	altitude, %object
 2247              		.size	altitude, 4
 2248              	altitude:
 2249 0118 00000000 		.space	4
 2250              		.type	longitude, %object
 2251              		.size	longitude, 4
 2252              	longitude:
 2253 011c 00000000 		.space	4
 2254              		.type	latitude, %object
 2255              		.size	latitude, 4
 2256              	latitude:
 2257 0120 00000000 		.space	4
 2258              		.type	latitudeDegrees, %object
 2259              		.size	latitudeDegrees, 4
 2260              	latitudeDegrees:
 2261 0124 00000000 		.space	4
 2262              		.type	longitudeDegrees, %object
 2263              		.size	longitudeDegrees, 4
 2264              	longitudeDegrees:
 2265 0128 00000000 		.space	4
 2266              		.type	inStandbyMode, %object
 2267              		.size	inStandbyMode, 1
 2268              	inStandbyMode:
 2269 012c 00       		.space	1
 2270 012d 000000   		.space	3
 2271              		.type	last_time_printed, %object
 2272              		.size	last_time_printed, 4
 2273              	last_time_printed:
 2274 0130 00000000 		.space	4
 2275              		.text
 2276              	.Letext0:
 2277              		.file 2 "c:\\program files (x86)\\cypress\\psoc creator\\4.1\\psoc creator\\import\\gnu\\arm\\5.4.
 2278              		.file 3 "c:\\program files (x86)\\cypress\\psoc creator\\4.1\\psoc creator\\import\\gnu\\arm\\5.4.
 2279              		.file 4 "..\\..\\gps.h"
ARM GAS  C:\Users\A85590\AppData\Local\Temp\ccILqQZe.s 			page 57


 2280              		.file 5 "c:\\program files (x86)\\cypress\\psoc creator\\4.1\\psoc creator\\import\\gnu\\arm\\5.4.
 2281              		.file 6 "Generated_Source\\PSoC5/core_cm3.h"
 2282              		.file 7 "Generated_Source\\PSoC5/gpsSerial.h"
 2283              		.file 8 "Generated_Source\\PSoC5/CyLib.h"
 2284              		.file 9 "c:\\program files (x86)\\cypress\\psoc creator\\4.1\\psoc creator\\import\\gnu\\arm\\5.4.
 2285              		.file 10 "c:\\program files (x86)\\cypress\\psoc creator\\4.1\\psoc creator\\import\\gnu\\arm\\5.4
 2286              		.file 11 "c:\\program files (x86)\\cypress\\psoc creator\\4.1\\psoc creator\\import\\gnu\\arm\\5.4
 2287              		.file 12 "..\\..\\debSerial.h"
 2288              		.file 13 "..\\..\\millis.h"
 2289              		.file 14 "..\\..\\SensorVal.h"