ARM GAS  C:\Users\A85590\AppData\Local\Temp\ccILqQZe.s 			page 1


   1              		.syntax unified
   2              		.cpu cortex-m3
   3              		.fpu softvfp
   4              		.eabi_attribute 20, 1
   5              		.eabi_attribute 21, 1
   6              		.eabi_attribute 23, 3
   7              		.eabi_attribute 24, 1
   8              		.eabi_attribute 25, 1
   9              		.eabi_attribute 26, 1
  10              		.eabi_attribute 30, 1
  11              		.eabi_attribute 34, 1
  12              		.eabi_attribute 18, 4
  13              		.thumb
  14              		.syntax unified
  15              		.file	"gps.c"
  16              		.text
  17              	.Ltext0:
  18              		.cfi_sections	.debug_frame
  19              		.section	.text.setGPSEcho,"ax",%progbits
  20              		.align	2
  21              		.global	setGPSEcho
  22              		.thumb
  23              		.thumb_func
  24              		.type	setGPSEcho, %function
  25              	setGPSEcho:
  26              	.LFB64:
  27              		.file 1 "..\\..\\gps.c"
   1:..\../gps.c   **** /***********************************
   2:..\../gps.c   **** This is our GPS library
   3:..\../gps.c   **** 
   4:..\../gps.c   **** Adafruit invests time and resources providing this open source code,
   5:..\../gps.c   **** please support Adafruit and open-source hardware by purchasing
   6:..\../gps.c   **** products from Adafruit!
   7:..\../gps.c   **** 
   8:..\../gps.c   **** Written by Limor Fried/Ladyada for Adafruit Industries.
   9:..\../gps.c   **** BSD license, check license.txt for more information
  10:..\../gps.c   **** All text above must be included in any redistribution
  11:..\../gps.c   **** ****************************************/
  12:..\../gps.c   **** 
  13:..\../gps.c   **** #include "gps.h"
  14:..\../gps.c   **** 
  15:..\../gps.c   **** #include "project.h"
  16:..\../gps.c   **** #include "stdlib.h"
  17:..\../gps.c   **** #include "stdint.h"
  18:..\../gps.c   **** #include "stdio.h"
  19:..\../gps.c   **** #include <ctype.h>
  20:..\../gps.c   **** #include "math.h"
  21:..\../gps.c   **** 
  22:..\../gps.c   **** #include "debSerial.h"
  23:..\../gps.c   **** #include "SensorVal.h"
  24:..\../gps.c   **** #include "millis.h"
  25:..\../gps.c   **** 
  26:..\../gps.c   **** uint8_t GPSECHO = 1;
  27:..\../gps.c   **** 
  28:..\../gps.c   **** #ifndef true
  29:..\../gps.c   **** #define true 1
  30:..\../gps.c   **** #endif
ARM GAS  C:\Users\A85590\AppData\Local\Temp\ccILqQZe.s 			page 2


  31:..\../gps.c   **** 
  32:..\../gps.c   **** #ifndef false
  33:..\../gps.c   **** #define false 0
  34:..\../gps.c   **** #endif
  35:..\../gps.c   **** 
  36:..\../gps.c   **** uint32_t last_time_printed = 0;
  37:..\../gps.c   **** 
  38:..\../gps.c   **** //how long are max NMEA lines to parse?
  39:..\../gps.c   **** 
  40:..\../gps.c   **** #define MAXLINELENGTH (120)
  41:..\../gps.c   **** 
  42:..\../gps.c   **** static uint8_t hour, minute, seconds, year, month, day;
  43:..\../gps.c   **** static uint16_t milliseconds;
  44:..\../gps.c   **** 
  45:..\../gps.c   **** // Floating point latitude and longitude value in degrees.
  46:..\../gps.c   **** static float latitude, longitude;
  47:..\../gps.c   **** 
  48:..\../gps.c   **** // Fixed point latitude and longitude value with degrees stored in units of 1/100000 degrees,
  49:..\../gps.c   **** // and minutes stored in units of 1/100000 degrees.  See pull #13 for more details:
  50:..\../gps.c   **** //   https://github.com/adafruit/Adafruit-GPS-Library/pull/13
  51:..\../gps.c   **** static int32_t latitude_fixed, longitude_fixed;
  52:..\../gps.c   **** static float latitudeDegrees, longitudeDegrees;
  53:..\../gps.c   **** static float geoidheight, altitude;
  54:..\../gps.c   **** static float speed, angle, magvariation, HDOP;
  55:..\../gps.c   **** static char lat, lon /*, mag*/;
  56:..\../gps.c   **** static uint8_t fix;
  57:..\../gps.c   **** static uint8_t fixquality, satellites;
  58:..\../gps.c   **** 
  59:..\../gps.c   **** static uint8_t paused;
  60:..\../gps.c   **** 
  61:..\../gps.c   **** static uint16_t LOCUS_serial, LOCUS_records;
  62:..\../gps.c   **** static uint8_t LOCUS_type, LOCUS_mode, LOCUS_config, LOCUS_interval, LOCUS_distance, LOCUS_speed, L
  63:..\../gps.c   **** 
  64:..\../gps.c   **** // we double buffer: read one line in and leave one for the main program
  65:..\../gps.c   **** static volatile char line1[MAXLINELENGTH];
  66:..\../gps.c   **** static volatile char line2[MAXLINELENGTH];
  67:..\../gps.c   **** // our index into filling the current line
  68:..\../gps.c   **** static volatile uint8_t lineidx = 0;
  69:..\../gps.c   **** // pointers to the double buffers
  70:..\../gps.c   **** static volatile char *currentline;
  71:..\../gps.c   **** static volatile char *lastline;
  72:..\../gps.c   **** static volatile uint8_t recvdflag; //should uint8_t remain uint8_t?
  73:..\../gps.c   **** static volatile uint8_t inStandbyMode;
  74:..\../gps.c   **** 
  75:..\../gps.c   **** void setGPSEcho(uint8_t val){
  28              		.loc 1 75 0
  29              		.cfi_startproc
  30              		@ args = 0, pretend = 0, frame = 0
  31              		@ frame_needed = 0, uses_anonymous_args = 0
  32              		@ link register save eliminated.
  33              	.LVL0:
  76:..\../gps.c   ****     GPSECHO = val;
  34              		.loc 1 76 0
  35 0000 014B     		ldr	r3, .L2
  36 0002 1870     		strb	r0, [r3]
  37 0004 7047     		bx	lr
  38              	.L3:
ARM GAS  C:\Users\A85590\AppData\Local\Temp\ccILqQZe.s 			page 3


  39 0006 00BF     		.align	2
  40              	.L2:
  41 0008 00000000 		.word	.LANCHOR0
  42              		.cfi_endproc
  43              	.LFE64:
  44              		.size	setGPSEcho, .-setGPSEcho
  45              		.section	.text.GPS_read,"ax",%progbits
  46              		.align	2
  47              		.global	GPS_read
  48              		.thumb
  49              		.thumb_func
  50              		.type	GPS_read, %function
  51              	GPS_read:
  52              	.LFB66:
  77:..\../gps.c   **** }
  78:..\../gps.c   **** 
  79:..\../gps.c   **** //static uint8_t GPS_parseResponse(char *response);
  80:..\../gps.c   **** 
  81:..\../gps.c   **** // CHANGE MADE HERE
  82:..\../gps.c   **** uint8_t GPS_parse(char *nmea)
  83:..\../gps.c   **** {
  84:..\../gps.c   ****   // do checksum check
  85:..\../gps.c   **** 
  86:..\../gps.c   ****   // first look if we even have one
  87:..\../gps.c   ****   if (nmea[strlen(nmea) - 4] == '*')
  88:..\../gps.c   ****   {
  89:..\../gps.c   ****     uint16_t sum = GPS_parseHex(nmea[strlen(nmea) - 3]) * 16;
  90:..\../gps.c   ****     sum += GPS_parseHex(nmea[strlen(nmea) - 2]);
  91:..\../gps.c   **** 
  92:..\../gps.c   ****     // check checksum
  93:..\../gps.c   ****     uint8_t i = 0;
  94:..\../gps.c   ****     for (i = 2; i < (strlen(nmea) - 4); i++)
  95:..\../gps.c   ****     {
  96:..\../gps.c   ****       sum ^= nmea[i];
  97:..\../gps.c   ****     }
  98:..\../gps.c   ****     if (sum != 0)
  99:..\../gps.c   ****     {
 100:..\../gps.c   ****       // bad checksum :(
 101:..\../gps.c   ****       return false;
 102:..\../gps.c   ****     }
 103:..\../gps.c   ****   }
 104:..\../gps.c   ****   int32_t degree;
 105:..\../gps.c   ****   long minutes;
 106:..\../gps.c   ****   char degreebuff[10];
 107:..\../gps.c   ****   // look for a few common sentences
 108:..\../gps.c   ****   if (strstr(nmea, "$GPGGA"))
 109:..\../gps.c   ****   {
 110:..\../gps.c   ****     // found GGA
 111:..\../gps.c   ****     char *p = nmea;
 112:..\../gps.c   ****     // get time
 113:..\../gps.c   ****     p = strchr(p, ',') + 1;
 114:..\../gps.c   ****     float timef = atof(p);
 115:..\../gps.c   ****     uint32_t time = timef;
 116:..\../gps.c   ****     hour = time / 10000;
 117:..\../gps.c   ****     minute = (time % 10000) / 100;
 118:..\../gps.c   ****     seconds = (time % 100);
 119:..\../gps.c   **** 
ARM GAS  C:\Users\A85590\AppData\Local\Temp\ccILqQZe.s 			page 4


 120:..\../gps.c   ****     milliseconds = fmod(timef, 1.0) * 1000;
 121:..\../gps.c   **** 
 122:..\../gps.c   ****     // parse out latitude
 123:..\../gps.c   ****     p = strchr(p, ',') + 1;
 124:..\../gps.c   ****     if (',' != *p)
 125:..\../gps.c   ****     {
 126:..\../gps.c   ****       strncpy(degreebuff, p, 2);
 127:..\../gps.c   ****       p += 2;
 128:..\../gps.c   ****       degreebuff[2] = '\0';
 129:..\../gps.c   ****       degree = atol(degreebuff) * 10000000;
 130:..\../gps.c   ****       strncpy(degreebuff, p, 2); // minutes
 131:..\../gps.c   ****       p += 3;                    // skip decimal point
 132:..\../gps.c   ****       strncpy(degreebuff + 2, p, 4);
 133:..\../gps.c   ****       degreebuff[6] = '\0';
 134:..\../gps.c   ****       minutes = 50 * atol(degreebuff) / 3;
 135:..\../gps.c   ****       latitude_fixed = degree + minutes;
 136:..\../gps.c   ****       latitude = degree / 100000 + minutes * 0.000006F;
 137:..\../gps.c   ****       latitudeDegrees = (latitude - 100 * (int)(latitude / 100)) / 60.0;
 138:..\../gps.c   ****       latitudeDegrees += (int)(latitude / 100);
 139:..\../gps.c   ****     }
 140:..\../gps.c   **** 
 141:..\../gps.c   ****     p = strchr(p, ',') + 1;
 142:..\../gps.c   ****     if (',' != *p)
 143:..\../gps.c   ****     {
 144:..\../gps.c   ****       if (p[0] == 'S')
 145:..\../gps.c   ****         latitudeDegrees *= -1.0;
 146:..\../gps.c   ****       if (p[0] == 'N')
 147:..\../gps.c   ****         lat = 'N';
 148:..\../gps.c   ****       else if (p[0] == 'S')
 149:..\../gps.c   ****         lat = 'S';
 150:..\../gps.c   ****       else if (p[0] == ',')
 151:..\../gps.c   ****         lat = 0;
 152:..\../gps.c   ****       else
 153:..\../gps.c   ****       {
 154:..\../gps.c   ****         return false;
 155:..\../gps.c   ****       } // adjusted formatting of return
 156:..\../gps.c   ****     }
 157:..\../gps.c   **** 
 158:..\../gps.c   ****     // parse out longitude
 159:..\../gps.c   ****     p = strchr(p, ',') + 1;
 160:..\../gps.c   ****     if (',' != *p)
 161:..\../gps.c   ****     {
 162:..\../gps.c   ****       strncpy(degreebuff, p, 3);
 163:..\../gps.c   ****       p += 3;
 164:..\../gps.c   ****       degreebuff[3] = '\0';
 165:..\../gps.c   ****       degree = atol(degreebuff) * 10000000;
 166:..\../gps.c   ****       strncpy(degreebuff, p, 2); // minutes
 167:..\../gps.c   ****       p += 3;                    // skip decimal point
 168:..\../gps.c   ****       strncpy(degreebuff + 2, p, 4);
 169:..\../gps.c   ****       degreebuff[6] = '\0';
 170:..\../gps.c   ****       minutes = 50 * atol(degreebuff) / 3;
 171:..\../gps.c   ****       longitude_fixed = degree + minutes;
 172:..\../gps.c   ****       longitude = degree / 100000 + minutes * 0.000006F;
 173:..\../gps.c   ****       longitudeDegrees = (longitude - 100 * (int)(longitude / 100)) / 60.0;
 174:..\../gps.c   ****       longitudeDegrees += (int)(longitude / 100);
 175:..\../gps.c   ****     }
 176:..\../gps.c   **** 
ARM GAS  C:\Users\A85590\AppData\Local\Temp\ccILqQZe.s 			page 5


 177:..\../gps.c   ****     p = strchr(p, ',') + 1;
 178:..\../gps.c   ****     if (',' != *p)
 179:..\../gps.c   ****     {
 180:..\../gps.c   ****       if (p[0] == 'W')
 181:..\../gps.c   ****         longitudeDegrees *= -1.0;
 182:..\../gps.c   ****       if (p[0] == 'W')
 183:..\../gps.c   ****         lon = 'W';
 184:..\../gps.c   ****       else if (p[0] == 'E')
 185:..\../gps.c   ****         lon = 'E';
 186:..\../gps.c   ****       else if (p[0] == ',')
 187:..\../gps.c   ****         lon = 0;
 188:..\../gps.c   ****       else
 189:..\../gps.c   ****         return false;
 190:..\../gps.c   ****     }
 191:..\../gps.c   **** 
 192:..\../gps.c   ****     p = strchr(p, ',') + 1;
 193:..\../gps.c   ****     if (',' != *p)
 194:..\../gps.c   ****     {
 195:..\../gps.c   ****       fixquality = atoi(p);
 196:..\../gps.c   ****     }
 197:..\../gps.c   **** 
 198:..\../gps.c   ****     p = strchr(p, ',') + 1;
 199:..\../gps.c   ****     if (',' != *p)
 200:..\../gps.c   ****     {
 201:..\../gps.c   ****       satellites = atoi(p);
 202:..\../gps.c   ****     }
 203:..\../gps.c   **** 
 204:..\../gps.c   ****     p = strchr(p, ',') + 1;
 205:..\../gps.c   ****     if (',' != *p)
 206:..\../gps.c   ****     {
 207:..\../gps.c   ****       HDOP = atof(p);
 208:..\../gps.c   ****     }
 209:..\../gps.c   **** 
 210:..\../gps.c   ****     p = strchr(p, ',') + 1;
 211:..\../gps.c   ****     if (',' != *p)
 212:..\../gps.c   ****     {
 213:..\../gps.c   ****       altitude = atof(p);
 214:..\../gps.c   ****     }
 215:..\../gps.c   **** 
 216:..\../gps.c   ****     p = strchr(p, ',') + 1;
 217:..\../gps.c   ****     p = strchr(p, ',') + 1;
 218:..\../gps.c   ****     if (',' != *p)
 219:..\../gps.c   ****     {
 220:..\../gps.c   ****       geoidheight = atof(p);
 221:..\../gps.c   ****     }
 222:..\../gps.c   ****     return true;
 223:..\../gps.c   ****   }
 224:..\../gps.c   ****   if (strstr(nmea, "$GPRMC"))
 225:..\../gps.c   ****   {
 226:..\../gps.c   ****     // found RMC
 227:..\../gps.c   ****     char *p = nmea;
 228:..\../gps.c   **** 
 229:..\../gps.c   ****     // get time
 230:..\../gps.c   ****     p = strchr(p, ',') + 1;
 231:..\../gps.c   ****     float timef = atof(p);
 232:..\../gps.c   ****     uint32_t time = timef;
 233:..\../gps.c   ****     hour = time / 10000;
ARM GAS  C:\Users\A85590\AppData\Local\Temp\ccILqQZe.s 			page 6


 234:..\../gps.c   ****     minute = (time % 10000) / 100;
 235:..\../gps.c   ****     seconds = (time % 100);
 236:..\../gps.c   **** 
 237:..\../gps.c   ****     milliseconds = fmod(timef, 1.0) * 1000;
 238:..\../gps.c   **** 
 239:..\../gps.c   ****     p = strchr(p, ',') + 1;
 240:..\../gps.c   ****     // Serial.println(p);
 241:..\../gps.c   ****     if (p[0] == 'A')
 242:..\../gps.c   ****       fix = true;
 243:..\../gps.c   ****     else if (p[0] == 'V')
 244:..\../gps.c   ****       fix = false;
 245:..\../gps.c   ****     else
 246:..\../gps.c   ****       return false;
 247:..\../gps.c   **** 
 248:..\../gps.c   ****     // parse out latitude
 249:..\../gps.c   ****     p = strchr(p, ',') + 1;
 250:..\../gps.c   ****     if (',' != *p)
 251:..\../gps.c   ****     {
 252:..\../gps.c   ****       strncpy(degreebuff, p, 2);
 253:..\../gps.c   ****       p += 2;
 254:..\../gps.c   ****       degreebuff[2] = '\0';
 255:..\../gps.c   ****       long degree = atol(degreebuff) * 10000000;
 256:..\../gps.c   ****       strncpy(degreebuff, p, 2); // minutes
 257:..\../gps.c   ****       p += 3;                    // skip decimal point
 258:..\../gps.c   ****       strncpy(degreebuff + 2, p, 4);
 259:..\../gps.c   ****       degreebuff[6] = '\0';
 260:..\../gps.c   ****       long minutes = 50 * atol(degreebuff) / 3;
 261:..\../gps.c   ****       latitude_fixed = degree + minutes;
 262:..\../gps.c   ****       latitude = degree / 100000 + minutes * 0.000006F;
 263:..\../gps.c   ****       latitudeDegrees = (latitude - 100 * (int)(latitude / 100)) / 60.0;
 264:..\../gps.c   ****       latitudeDegrees += (int)(latitude / 100);
 265:..\../gps.c   ****     }
 266:..\../gps.c   **** 
 267:..\../gps.c   ****     p = strchr(p, ',') + 1;
 268:..\../gps.c   ****     if (',' != *p)
 269:..\../gps.c   ****     {
 270:..\../gps.c   ****       if (p[0] == 'S')
 271:..\../gps.c   ****         latitudeDegrees *= -1.0;
 272:..\../gps.c   ****       if (p[0] == 'N')
 273:..\../gps.c   ****         lat = 'N';
 274:..\../gps.c   ****       else if (p[0] == 'S')
 275:..\../gps.c   ****         lat = 'S';
 276:..\../gps.c   ****       else if (p[0] == ',')
 277:..\../gps.c   ****         lat = 0;
 278:..\../gps.c   ****       else
 279:..\../gps.c   ****       {
 280:..\../gps.c   ****         return false;
 281:..\../gps.c   ****       } // adjust formatting of return
 282:..\../gps.c   ****     }
 283:..\../gps.c   **** 
 284:..\../gps.c   ****     // parse out longitude
 285:..\../gps.c   ****     p = strchr(p, ',') + 1;
 286:..\../gps.c   ****     if (',' != *p)
 287:..\../gps.c   ****     {
 288:..\../gps.c   ****       strncpy(degreebuff, p, 3);
 289:..\../gps.c   ****       p += 3;
 290:..\../gps.c   ****       degreebuff[3] = '\0';
ARM GAS  C:\Users\A85590\AppData\Local\Temp\ccILqQZe.s 			page 7


 291:..\../gps.c   ****       degree = atol(degreebuff) * 10000000;
 292:..\../gps.c   ****       strncpy(degreebuff, p, 2); // minutes
 293:..\../gps.c   ****       p += 3;                    // skip decimal point
 294:..\../gps.c   ****       strncpy(degreebuff + 2, p, 4);
 295:..\../gps.c   ****       degreebuff[6] = '\0';
 296:..\../gps.c   ****       minutes = 50 * atol(degreebuff) / 3;
 297:..\../gps.c   ****       longitude_fixed = degree + minutes;
 298:..\../gps.c   ****       longitude = degree / 100000 + minutes * 0.000006F;
 299:..\../gps.c   ****       longitudeDegrees = (longitude - 100 * (int)(longitude / 100)) / 60.0;
 300:..\../gps.c   ****       longitudeDegrees += (int)(longitude / 100);
 301:..\../gps.c   ****     }
 302:..\../gps.c   **** 
 303:..\../gps.c   ****     p = strchr(p, ',') + 1;
 304:..\../gps.c   ****     if (',' != *p)
 305:..\../gps.c   ****     {
 306:..\../gps.c   ****       if (p[0] == 'W')
 307:..\../gps.c   ****         longitudeDegrees *= -1.0;
 308:..\../gps.c   ****       if (p[0] == 'W')
 309:..\../gps.c   ****         lon = 'W';
 310:..\../gps.c   ****       else if (p[0] == 'E')
 311:..\../gps.c   ****         lon = 'E';
 312:..\../gps.c   ****       else if (p[0] == ',')
 313:..\../gps.c   ****         lon = 0;
 314:..\../gps.c   ****       else
 315:..\../gps.c   ****       {
 316:..\../gps.c   ****         return false;
 317:..\../gps.c   ****       } // Formatting adjustment
 318:..\../gps.c   ****     }
 319:..\../gps.c   ****     // speed
 320:..\../gps.c   ****     p = strchr(p, ',') + 1;
 321:..\../gps.c   ****     if (',' != *p)
 322:..\../gps.c   ****     {
 323:..\../gps.c   ****       speed = atof(p);
 324:..\../gps.c   ****     }
 325:..\../gps.c   **** 
 326:..\../gps.c   ****     // angle
 327:..\../gps.c   ****     p = strchr(p, ',') + 1;
 328:..\../gps.c   ****     if (',' != *p)
 329:..\../gps.c   ****     {
 330:..\../gps.c   ****       angle = atof(p);
 331:..\../gps.c   ****     }
 332:..\../gps.c   **** 
 333:..\../gps.c   ****     p = strchr(p, ',') + 1;
 334:..\../gps.c   ****     if (',' != *p)
 335:..\../gps.c   ****     {
 336:..\../gps.c   ****       uint32_t fulldate = atof(p);
 337:..\../gps.c   ****       day = fulldate / 10000;
 338:..\../gps.c   ****       month = (fulldate % 10000) / 100;
 339:..\../gps.c   ****       year = (fulldate % 100);
 340:..\../gps.c   ****     }
 341:..\../gps.c   ****     // we dont parse the remaining, yet!
 342:..\../gps.c   ****     return true;
 343:..\../gps.c   ****   }
 344:..\../gps.c   **** 
 345:..\../gps.c   ****   return false;
 346:..\../gps.c   **** }
 347:..\../gps.c   **** 
ARM GAS  C:\Users\A85590\AppData\Local\Temp\ccILqQZe.s 			page 8


 348:..\../gps.c   **** char GPS_read(void)
 349:..\../gps.c   **** {
  53              		.loc 1 349 0
  54              		.cfi_startproc
  55              		@ args = 0, pretend = 0, frame = 0
  56              		@ frame_needed = 0, uses_anonymous_args = 0
  57              	.LVL1:
 350:..\../gps.c   ****   char c = 0;
 351:..\../gps.c   **** 
 352:..\../gps.c   ****   if (paused)
  58              		.loc 1 352 0
  59 0000 204B     		ldr	r3, .L13
  60 0002 1B78     		ldrb	r3, [r3]	@ zero_extendqisi2
  61 0004 002B     		cmp	r3, #0
  62 0006 38D1     		bne	.L9
 349:..\../gps.c   ****   char c = 0;
  63              		.loc 1 349 0
  64 0008 10B5     		push	{r4, lr}
  65              		.cfi_def_cfa_offset 8
  66              		.cfi_offset 4, -8
  67              		.cfi_offset 14, -4
 353:..\../gps.c   ****     return c;
 354:..\../gps.c   **** 
 355:..\../gps.c   ****   if (!gpsSerial_GetRxBufferSize())
  68              		.loc 1 355 0
  69 000a FFF7FEFF 		bl	gpsSerial_GetRxBufferSize
  70              	.LVL2:
  71 000e 0028     		cmp	r0, #0
  72 0010 35D0     		beq	.L10
 356:..\../gps.c   ****   {
 357:..\../gps.c   ****     return c;
 358:..\../gps.c   ****   }
 359:..\../gps.c   **** 
 360:..\../gps.c   ****   c = gpsSerial_GetChar();
  73              		.loc 1 360 0
  74 0012 FFF7FEFF 		bl	gpsSerial_GetChar
  75              	.LVL3:
 361:..\../gps.c   **** 
 362:..\../gps.c   ****   if (c == '\n')
  76              		.loc 1 362 0
  77 0016 0A28     		cmp	r0, #10
  78 0018 1FD1     		bne	.L6
 363:..\../gps.c   ****   {
 364:..\../gps.c   ****     currentline[lineidx] = 0;
  79              		.loc 1 364 0
  80 001a 1A4B     		ldr	r3, .L13
  81 001c 5968     		ldr	r1, [r3, #4]
  82 001e 1A7A     		ldrb	r2, [r3, #8]	@ zero_extendqisi2
  83 0020 D2B2     		uxtb	r2, r2
  84 0022 0024     		movs	r4, #0
  85 0024 8C54     		strb	r4, [r1, r2]
 365:..\../gps.c   **** 
 366:..\../gps.c   ****     if (currentline == line1)
  86              		.loc 1 366 0
  87 0026 0C33     		adds	r3, r3, #12
  88 0028 9942     		cmp	r1, r3
  89 002a 08D1     		bne	.L7
ARM GAS  C:\Users\A85590\AppData\Local\Temp\ccILqQZe.s 			page 9


 367:..\../gps.c   ****     {
 368:..\../gps.c   ****       currentline = line2;
  90              		.loc 1 368 0
  91 002c 0C3B     		subs	r3, r3, #12
  92 002e 03F18402 		add	r2, r3, #132
  93 0032 5A60     		str	r2, [r3, #4]
 369:..\../gps.c   ****       lastline = line1;
  94              		.loc 1 369 0
  95 0034 03F10C02 		add	r2, r3, #12
  96 0038 C3F8FC20 		str	r2, [r3, #252]
  97 003c 07E0     		b	.L8
  98              	.L7:
 370:..\../gps.c   ****     }
 371:..\../gps.c   ****     else
 372:..\../gps.c   ****     {
 373:..\../gps.c   ****       currentline = line1;
  99              		.loc 1 373 0
 100 003e 114B     		ldr	r3, .L13
 101 0040 03F10C02 		add	r2, r3, #12
 102 0044 5A60     		str	r2, [r3, #4]
 374:..\../gps.c   ****       lastline = line2;
 103              		.loc 1 374 0
 104 0046 03F18402 		add	r2, r3, #132
 105 004a C3F8FC20 		str	r2, [r3, #252]
 106              	.L8:
 375:..\../gps.c   ****     }
 376:..\../gps.c   **** 
 377:..\../gps.c   ****     lineidx = 0;
 107              		.loc 1 377 0
 108 004e 0D4B     		ldr	r3, .L13
 109 0050 0022     		movs	r2, #0
 110 0052 1A72     		strb	r2, [r3, #8]
 378:..\../gps.c   ****     recvdflag = true;
 111              		.loc 1 378 0
 112 0054 0122     		movs	r2, #1
 113 0056 83F80021 		strb	r2, [r3, #256]
 114              	.L6:
 379:..\../gps.c   ****   }
 380:..\../gps.c   **** 
 381:..\../gps.c   ****   currentline[lineidx++] = c;
 115              		.loc 1 381 0
 116 005a 0A4B     		ldr	r3, .L13
 117 005c 5C68     		ldr	r4, [r3, #4]
 118 005e 1A7A     		ldrb	r2, [r3, #8]	@ zero_extendqisi2
 119 0060 D2B2     		uxtb	r2, r2
 120 0062 511C     		adds	r1, r2, #1
 121 0064 C9B2     		uxtb	r1, r1
 122 0066 1972     		strb	r1, [r3, #8]
 123 0068 A054     		strb	r0, [r4, r2]
 382:..\../gps.c   ****   if (lineidx >= MAXLINELENGTH)
 124              		.loc 1 382 0
 125 006a 1B7A     		ldrb	r3, [r3, #8]	@ zero_extendqisi2
 126 006c DBB2     		uxtb	r3, r3
 127 006e 772B     		cmp	r3, #119
 128 0070 06D9     		bls	.L5
 383:..\../gps.c   ****     lineidx = MAXLINELENGTH - 1;
 129              		.loc 1 383 0
ARM GAS  C:\Users\A85590\AppData\Local\Temp\ccILqQZe.s 			page 10


 130 0072 7722     		movs	r2, #119
 131 0074 034B     		ldr	r3, .L13
 132 0076 1A72     		strb	r2, [r3, #8]
 133 0078 10BD     		pop	{r4, pc}
 134              	.LVL4:
 135              	.L9:
 136              		.cfi_def_cfa_offset 0
 137              		.cfi_restore 4
 138              		.cfi_restore 14
 353:..\../gps.c   **** 
 139              		.loc 1 353 0
 140 007a 0020     		movs	r0, #0
 384:..\../gps.c   **** 
 385:..\../gps.c   ****   return c;
 386:..\../gps.c   **** }
 141              		.loc 1 386 0
 142 007c 7047     		bx	lr
 143              	.L10:
 144              		.cfi_def_cfa_offset 8
 145              		.cfi_offset 4, -8
 146              		.cfi_offset 14, -4
 357:..\../gps.c   ****   }
 147              		.loc 1 357 0
 148 007e 0020     		movs	r0, #0
 149              	.LVL5:
 150              	.L5:
 151              		.loc 1 386 0
 152 0080 10BD     		pop	{r4, pc}
 153              	.L14:
 154 0082 00BF     		.align	2
 155              	.L13:
 156 0084 00000000 		.word	.LANCHOR1
 157              		.cfi_endproc
 158              	.LFE66:
 159              		.size	GPS_read, .-GPS_read
 160              		.section	.text.GPS_common_init,"ax",%progbits
 161              		.align	2
 162              		.global	GPS_common_init
 163              		.thumb
 164              		.thumb_func
 165              		.type	GPS_common_init, %function
 166              	GPS_common_init:
 167              	.LFB67:
 387:..\../gps.c   **** 
 388:..\../gps.c   **** // Initialization code used by all constructor types
 389:..\../gps.c   **** void GPS_common_init(void)
 390:..\../gps.c   **** {
 168              		.loc 1 390 0
 169              		.cfi_startproc
 170              		@ args = 0, pretend = 0, frame = 0
 171              		@ frame_needed = 0, uses_anonymous_args = 0
 172              		@ link register save eliminated.
 391:..\../gps.c   **** 
 392:..\../gps.c   ****   recvdflag = false;
 173              		.loc 1 392 0
 174 0000 184B     		ldr	r3, .L16
 175 0002 0022     		movs	r2, #0
ARM GAS  C:\Users\A85590\AppData\Local\Temp\ccILqQZe.s 			page 11


 176 0004 83F80021 		strb	r2, [r3, #256]
 393:..\../gps.c   ****   paused = false;
 177              		.loc 1 393 0
 178 0008 1A70     		strb	r2, [r3]
 394:..\../gps.c   ****   lineidx = 0;
 179              		.loc 1 394 0
 180 000a 1A72     		strb	r2, [r3, #8]
 395:..\../gps.c   ****   currentline = line1;
 181              		.loc 1 395 0
 182 000c 03F10C01 		add	r1, r3, #12
 183 0010 5960     		str	r1, [r3, #4]
 396:..\../gps.c   ****   lastline = line2;
 184              		.loc 1 396 0
 185 0012 03F18401 		add	r1, r3, #132
 186 0016 C3F8FC10 		str	r1, [r3, #252]
 397:..\../gps.c   **** 
 398:..\../gps.c   ****   hour = minute = seconds = year = month = day = fixquality = satellites = 0;                // uin
 187              		.loc 1 398 0
 188 001a 83F80121 		strb	r2, [r3, #257]
 189 001e 83F80221 		strb	r2, [r3, #258]
 190 0022 83F80321 		strb	r2, [r3, #259]
 191 0026 83F80421 		strb	r2, [r3, #260]
 192 002a 83F80521 		strb	r2, [r3, #261]
 193 002e 83F80621 		strb	r2, [r3, #262]
 194 0032 83F80721 		strb	r2, [r3, #263]
 195 0036 83F80821 		strb	r2, [r3, #264]
 399:..\../gps.c   ****   lat = lon /*= mag*/ = 0;                                                                   // cha
 196              		.loc 1 399 0
 197 003a 83F80921 		strb	r2, [r3, #265]
 198 003e 83F80A21 		strb	r2, [r3, #266]
 400:..\../gps.c   ****   fix = false;                                                                               // uin
 199              		.loc 1 400 0
 200 0042 83F80B21 		strb	r2, [r3, #267]
 401:..\../gps.c   ****   milliseconds = 0;                                                                          // uin
 201              		.loc 1 401 0
 202 0046 A3F80C21 		strh	r2, [r3, #268]	@ movhi
 402:..\../gps.c   ****   latitude = longitude = geoidheight = altitude = speed = angle = magvariation = HDOP = 0.0; // flo
 203              		.loc 1 402 0
 204 004a 0022     		movs	r2, #0
 205 004c C3F81021 		str	r2, [r3, #272]	@ float
 206 0050 C3F81421 		str	r2, [r3, #276]	@ float
 207 0054 C3F81821 		str	r2, [r3, #280]	@ float
 208 0058 C3F81C21 		str	r2, [r3, #284]	@ float
 209 005c C3F82021 		str	r2, [r3, #288]	@ float
 210 0060 7047     		bx	lr
 211              	.L17:
 212 0062 00BF     		.align	2
 213              	.L16:
 214 0064 00000000 		.word	.LANCHOR1
 215              		.cfi_endproc
 216              	.LFE67:
 217              		.size	GPS_common_init, .-GPS_common_init
 218              		.section	.text.GPS_begin,"ax",%progbits
 219              		.align	2
 220              		.global	GPS_begin
 221              		.thumb
 222              		.thumb_func
ARM GAS  C:\Users\A85590\AppData\Local\Temp\ccILqQZe.s 			page 12


 223              		.type	GPS_begin, %function
 224              	GPS_begin:
 225              	.LFB68:
 403:..\../gps.c   **** }
 404:..\../gps.c   **** 
 405:..\../gps.c   **** void GPS_begin()
 406:..\../gps.c   **** {
 226              		.loc 1 406 0
 227              		.cfi_startproc
 228              		@ args = 0, pretend = 0, frame = 0
 229              		@ frame_needed = 0, uses_anonymous_args = 0
 230 0000 08B5     		push	{r3, lr}
 231              		.cfi_def_cfa_offset 8
 232              		.cfi_offset 3, -8
 233              		.cfi_offset 14, -4
 407:..\../gps.c   ****   GPS_common_init();
 234              		.loc 1 407 0
 235 0002 FFF7FEFF 		bl	GPS_common_init
 236              	.LVL6:
 408:..\../gps.c   ****   CyDelay(10);
 237              		.loc 1 408 0
 238 0006 0A20     		movs	r0, #10
 239 0008 FFF7FEFF 		bl	CyDelay
 240              	.LVL7:
 241 000c 08BD     		pop	{r3, pc}
 242              		.cfi_endproc
 243              	.LFE68:
 244              		.size	GPS_begin, .-GPS_begin
 245 000e 00BF     		.section	.text.GPS_sendCommand,"ax",%progbits
 246              		.align	2
 247              		.global	GPS_sendCommand
 248              		.thumb
 249              		.thumb_func
 250              		.type	GPS_sendCommand, %function
 251              	GPS_sendCommand:
 252              	.LFB69:
 409:..\../gps.c   **** }
 410:..\../gps.c   **** 
 411:..\../gps.c   **** void GPS_sendCommand(const char *str)
 412:..\../gps.c   **** {
 253              		.loc 1 412 0
 254              		.cfi_startproc
 255              		@ args = 0, pretend = 0, frame = 0
 256              		@ frame_needed = 0, uses_anonymous_args = 0
 257              	.LVL8:
 258 0000 08B5     		push	{r3, lr}
 259              		.cfi_def_cfa_offset 8
 260              		.cfi_offset 3, -8
 261              		.cfi_offset 14, -4
 413:..\../gps.c   ****   gpsSerial_PutString(str);
 262              		.loc 1 413 0
 263 0002 FFF7FEFF 		bl	gpsSerial_PutString
 264              	.LVL9:
 265 0006 08BD     		pop	{r3, pc}
 266              		.cfi_endproc
 267              	.LFE69:
 268              		.size	GPS_sendCommand, .-GPS_sendCommand
ARM GAS  C:\Users\A85590\AppData\Local\Temp\ccILqQZe.s 			page 13


 269              		.section	.text.GPS_newNMEAreceived,"ax",%progbits
 270              		.align	2
 271              		.global	GPS_newNMEAreceived
 272              		.thumb
 273              		.thumb_func
 274              		.type	GPS_newNMEAreceived, %function
 275              	GPS_newNMEAreceived:
 276              	.LFB70:
 414:..\../gps.c   **** }
 415:..\../gps.c   **** 
 416:..\../gps.c   **** uint8_t GPS_newNMEAreceived(void)
 417:..\../gps.c   **** {
 277              		.loc 1 417 0
 278              		.cfi_startproc
 279              		@ args = 0, pretend = 0, frame = 0
 280              		@ frame_needed = 0, uses_anonymous_args = 0
 281              		@ link register save eliminated.
 418:..\../gps.c   ****   return recvdflag;
 282              		.loc 1 418 0
 283 0000 014B     		ldr	r3, .L23
 284 0002 93F80001 		ldrb	r0, [r3, #256]	@ zero_extendqisi2
 419:..\../gps.c   **** }
 285              		.loc 1 419 0
 286 0006 7047     		bx	lr
 287              	.L24:
 288              		.align	2
 289              	.L23:
 290 0008 00000000 		.word	.LANCHOR1
 291              		.cfi_endproc
 292              	.LFE70:
 293              		.size	GPS_newNMEAreceived, .-GPS_newNMEAreceived
 294              		.section	.text.GPS_pause,"ax",%progbits
 295              		.align	2
 296              		.global	GPS_pause
 297              		.thumb
 298              		.thumb_func
 299              		.type	GPS_pause, %function
 300              	GPS_pause:
 301              	.LFB71:
 420:..\../gps.c   **** 
 421:..\../gps.c   **** void GPS_pause(uint8_t p)
 422:..\../gps.c   **** {
 302              		.loc 1 422 0
 303              		.cfi_startproc
 304              		@ args = 0, pretend = 0, frame = 0
 305              		@ frame_needed = 0, uses_anonymous_args = 0
 306              		@ link register save eliminated.
 307              	.LVL10:
 423:..\../gps.c   ****   paused = p;
 308              		.loc 1 423 0
 309 0000 014B     		ldr	r3, .L26
 310 0002 1870     		strb	r0, [r3]
 311 0004 7047     		bx	lr
 312              	.L27:
 313 0006 00BF     		.align	2
 314              	.L26:
 315 0008 00000000 		.word	.LANCHOR1
ARM GAS  C:\Users\A85590\AppData\Local\Temp\ccILqQZe.s 			page 14


 316              		.cfi_endproc
 317              	.LFE71:
 318              		.size	GPS_pause, .-GPS_pause
 319              		.section	.text.GPS_lastNMEA,"ax",%progbits
 320              		.align	2
 321              		.global	GPS_lastNMEA
 322              		.thumb
 323              		.thumb_func
 324              		.type	GPS_lastNMEA, %function
 325              	GPS_lastNMEA:
 326              	.LFB72:
 424:..\../gps.c   **** }
 425:..\../gps.c   **** 
 426:..\../gps.c   **** char *GPS_lastNMEA(void)
 427:..\../gps.c   **** {
 327              		.loc 1 427 0
 328              		.cfi_startproc
 329              		@ args = 0, pretend = 0, frame = 0
 330              		@ frame_needed = 0, uses_anonymous_args = 0
 331              		@ link register save eliminated.
 428:..\../gps.c   ****   recvdflag = false;
 332              		.loc 1 428 0
 333 0000 034B     		ldr	r3, .L29
 334 0002 0022     		movs	r2, #0
 335 0004 83F80021 		strb	r2, [r3, #256]
 429:..\../gps.c   ****   return (char *)lastline;
 430:..\../gps.c   **** }
 336              		.loc 1 430 0
 337 0008 D3F8FC00 		ldr	r0, [r3, #252]
 338 000c 7047     		bx	lr
 339              	.L30:
 340 000e 00BF     		.align	2
 341              	.L29:
 342 0010 00000000 		.word	.LANCHOR1
 343              		.cfi_endproc
 344              	.LFE72:
 345              		.size	GPS_lastNMEA, .-GPS_lastNMEA
 346              		.section	.text.GPS_parseHex,"ax",%progbits
 347              		.align	2
 348              		.global	GPS_parseHex
 349              		.thumb
 350              		.thumb_func
 351              		.type	GPS_parseHex, %function
 352              	GPS_parseHex:
 353              	.LFB73:
 431:..\../gps.c   **** 
 432:..\../gps.c   **** // read a Hex value and return the decimal equivalent
 433:..\../gps.c   **** uint8_t GPS_parseHex(char c)
 434:..\../gps.c   **** {
 354              		.loc 1 434 0
 355              		.cfi_startproc
 356              		@ args = 0, pretend = 0, frame = 0
 357              		@ frame_needed = 0, uses_anonymous_args = 0
 358              		@ link register save eliminated.
 359              	.LVL11:
 435:..\../gps.c   ****   if (c < '0')
 360              		.loc 1 435 0
ARM GAS  C:\Users\A85590\AppData\Local\Temp\ccILqQZe.s 			page 15


 361 0000 2F28     		cmp	r0, #47
 362 0002 0BD9     		bls	.L34
 436:..\../gps.c   ****     return 0;
 437:..\../gps.c   ****   if (c <= '9')
 363              		.loc 1 437 0
 364 0004 3928     		cmp	r0, #57
 365 0006 02D8     		bhi	.L33
 438:..\../gps.c   ****     return c - '0';
 366              		.loc 1 438 0
 367 0008 3038     		subs	r0, r0, #48
 368              	.LVL12:
 369 000a C0B2     		uxtb	r0, r0
 370 000c 7047     		bx	lr
 371              	.LVL13:
 372              	.L33:
 439:..\../gps.c   ****   if (c < 'A')
 373              		.loc 1 439 0
 374 000e 4028     		cmp	r0, #64
 375 0010 06D9     		bls	.L35
 440:..\../gps.c   ****     return 0;
 441:..\../gps.c   ****   if (c <= 'F')
 376              		.loc 1 441 0
 377 0012 4628     		cmp	r0, #70
 378 0014 06D8     		bhi	.L36
 442:..\../gps.c   ****     return (c - 'A') + 10;
 379              		.loc 1 442 0
 380 0016 3738     		subs	r0, r0, #55
 381              	.LVL14:
 382 0018 C0B2     		uxtb	r0, r0
 383 001a 7047     		bx	lr
 384              	.LVL15:
 385              	.L34:
 436:..\../gps.c   ****   if (c <= '9')
 386              		.loc 1 436 0
 387 001c 0020     		movs	r0, #0
 388              	.LVL16:
 389 001e 7047     		bx	lr
 390              	.LVL17:
 391              	.L35:
 440:..\../gps.c   ****     return 0;
 392              		.loc 1 440 0
 393 0020 0020     		movs	r0, #0
 394              	.LVL18:
 395 0022 7047     		bx	lr
 396              	.LVL19:
 397              	.L36:
 443:..\../gps.c   ****   // if (c > 'F')
 444:..\../gps.c   ****   return 0;
 398              		.loc 1 444 0
 399 0024 0020     		movs	r0, #0
 400              	.LVL20:
 445:..\../gps.c   **** }
 401              		.loc 1 445 0
 402 0026 7047     		bx	lr
 403              		.cfi_endproc
 404              	.LFE73:
 405              		.size	GPS_parseHex, .-GPS_parseHex
ARM GAS  C:\Users\A85590\AppData\Local\Temp\ccILqQZe.s 			page 16


 406              		.global	__aeabi_d2f
 407              		.global	__aeabi_f2uiz
 408              		.global	__aeabi_f2d
 409              		.global	__aeabi_dmul
 410              		.global	__aeabi_d2uiz
 411              		.global	__aeabi_i2f
 412              		.global	__aeabi_fmul
 413              		.global	__aeabi_fadd
 414              		.global	__aeabi_fdiv
 415              		.global	__aeabi_f2iz
 416              		.global	__aeabi_fsub
 417              		.section	.text.GPS_parse,"ax",%progbits
 418              		.align	2
 419              		.global	GPS_parse
 420              		.thumb
 421              		.thumb_func
 422              		.type	GPS_parse, %function
 423              	GPS_parse:
 424              	.LFB65:
  83:..\../gps.c   ****   // do checksum check
 425              		.loc 1 83 0
 426              		.cfi_startproc
 427              		@ args = 0, pretend = 0, frame = 16
 428              		@ frame_needed = 0, uses_anonymous_args = 0
 429              	.LVL21:
 430 0000 2DE9F041 		push	{r4, r5, r6, r7, r8, lr}
 431              		.cfi_def_cfa_offset 24
 432              		.cfi_offset 4, -24
 433              		.cfi_offset 5, -20
 434              		.cfi_offset 6, -16
 435              		.cfi_offset 7, -12
 436              		.cfi_offset 8, -8
 437              		.cfi_offset 14, -4
 438 0004 84B0     		sub	sp, sp, #16
 439              		.cfi_def_cfa_offset 40
 440 0006 0546     		mov	r5, r0
  87:..\../gps.c   ****   {
 441              		.loc 1 87 0
 442 0008 FFF7FEFF 		bl	strlen
 443              	.LVL22:
 444 000c 061F     		subs	r6, r0, #4
 445 000e AB5D     		ldrb	r3, [r5, r6]	@ zero_extendqisi2
 446 0010 2A2B     		cmp	r3, #42
 447 0012 17D1     		bne	.L38
 448 0014 0746     		mov	r7, r0
 449              	.LBB2:
  89:..\../gps.c   ****     sum += GPS_parseHex(nmea[strlen(nmea) - 2]);
 450              		.loc 1 89 0
 451 0016 C31E     		subs	r3, r0, #3
 452 0018 E85C     		ldrb	r0, [r5, r3]	@ zero_extendqisi2
 453 001a FFF7FEFF 		bl	GPS_parseHex
 454              	.LVL23:
 455 001e 0001     		lsls	r0, r0, #4
 456 0020 84B2     		uxth	r4, r0
 457              	.LVL24:
  90:..\../gps.c   **** 
 458              		.loc 1 90 0
ARM GAS  C:\Users\A85590\AppData\Local\Temp\ccILqQZe.s 			page 17


 459 0022 023F     		subs	r7, r7, #2
 460 0024 E85D     		ldrb	r0, [r5, r7]	@ zero_extendqisi2
 461 0026 FFF7FEFF 		bl	GPS_parseHex
 462              	.LVL25:
 463 002a 2044     		add	r0, r0, r4
 464 002c 80B2     		uxth	r0, r0
 465              	.LVL26:
  94:..\../gps.c   ****     {
 466              		.loc 1 94 0
 467 002e 0223     		movs	r3, #2
 468 0030 03E0     		b	.L39
 469              	.LVL27:
 470              	.L40:
  96:..\../gps.c   ****     }
 471              		.loc 1 96 0 discriminator 3
 472 0032 EA5C     		ldrb	r2, [r5, r3]	@ zero_extendqisi2
 473 0034 5040     		eors	r0, r0, r2
 474              	.LVL28:
  94:..\../gps.c   ****     {
 475              		.loc 1 94 0 discriminator 3
 476 0036 0133     		adds	r3, r3, #1
 477              	.LVL29:
 478 0038 DBB2     		uxtb	r3, r3
 479              	.LVL30:
 480              	.L39:
  94:..\../gps.c   ****     {
 481              		.loc 1 94 0 is_stmt 0 discriminator 1
 482 003a 9E42     		cmp	r6, r3
 483 003c F9D8     		bhi	.L40
  98:..\../gps.c   ****     {
 484              		.loc 1 98 0 is_stmt 1
 485 003e 0028     		cmp	r0, #0
 486 0040 40F06E83 		bne	.L71
 487              	.LVL31:
 488              	.L38:
 489              	.LBE2:
 108:..\../gps.c   ****   {
 490              		.loc 1 108 0
 491 0044 CA49     		ldr	r1, .L81
 492 0046 2846     		mov	r0, r5
 493 0048 FFF7FEFF 		bl	strstr
 494              	.LVL32:
 495 004c 0028     		cmp	r0, #0
 496 004e 00F0A781 		beq	.L42
 497              	.LVL33:
 498              	.LBB3:
 113:..\../gps.c   ****     float timef = atof(p);
 499              		.loc 1 113 0
 500 0052 2C21     		movs	r1, #44
 501 0054 2846     		mov	r0, r5
 502 0056 FFF7FEFF 		bl	strchr
 503              	.LVL34:
 504 005a 441C     		adds	r4, r0, #1
 505              	.LVL35:
 114:..\../gps.c   ****     uint32_t time = timef;
 506              		.loc 1 114 0
 507 005c 2046     		mov	r0, r4
ARM GAS  C:\Users\A85590\AppData\Local\Temp\ccILqQZe.s 			page 18


 508 005e FFF7FEFF 		bl	atof
 509              	.LVL36:
 510 0062 FFF7FEFF 		bl	__aeabi_d2f
 511              	.LVL37:
 512 0066 0546     		mov	r5, r0
 513              	.LVL38:
 115:..\../gps.c   ****     hour = time / 10000;
 514              		.loc 1 115 0
 515 0068 FFF7FEFF 		bl	__aeabi_f2uiz
 516              	.LVL39:
 116:..\../gps.c   ****     minute = (time % 10000) / 100;
 517              		.loc 1 116 0
 518 006c C14B     		ldr	r3, .L81+4
 519 006e A3FB0023 		umull	r2, r3, r3, r0
 520 0072 5B0B     		lsrs	r3, r3, #13
 521 0074 C04E     		ldr	r6, .L81+8
 522 0076 86F80831 		strb	r3, [r6, #264]
 117:..\../gps.c   ****     seconds = (time % 100);
 523              		.loc 1 117 0
 524 007a 42F21072 		movw	r2, #10000
 525 007e 02FB1303 		mls	r3, r2, r3, r0
 526 0082 BE4A     		ldr	r2, .L81+12
 527 0084 A2FB0313 		umull	r1, r3, r2, r3
 528 0088 5B09     		lsrs	r3, r3, #5
 529 008a 86F80731 		strb	r3, [r6, #263]
 118:..\../gps.c   **** 
 530              		.loc 1 118 0
 531 008e A2FB0023 		umull	r2, r3, r2, r0
 532 0092 5B09     		lsrs	r3, r3, #5
 533 0094 6422     		movs	r2, #100
 534 0096 02FB1303 		mls	r3, r2, r3, r0
 535 009a 86F80631 		strb	r3, [r6, #262]
 120:..\../gps.c   **** 
 536              		.loc 1 120 0
 537 009e 2846     		mov	r0, r5
 538              	.LVL40:
 539 00a0 FFF7FEFF 		bl	__aeabi_f2d
 540              	.LVL41:
 541 00a4 0022     		movs	r2, #0
 542 00a6 B64B     		ldr	r3, .L81+16
 543 00a8 FFF7FEFF 		bl	fmod
 544              	.LVL42:
 545 00ac 0022     		movs	r2, #0
 546 00ae B54B     		ldr	r3, .L81+20
 547 00b0 FFF7FEFF 		bl	__aeabi_dmul
 548              	.LVL43:
 549 00b4 FFF7FEFF 		bl	__aeabi_d2uiz
 550              	.LVL44:
 551 00b8 A6F80C01 		strh	r0, [r6, #268]	@ movhi
 123:..\../gps.c   ****     if (',' != *p)
 552              		.loc 1 123 0
 553 00bc 2C21     		movs	r1, #44
 554 00be 2046     		mov	r0, r4
 555 00c0 FFF7FEFF 		bl	strchr
 556              	.LVL45:
 557 00c4 0546     		mov	r5, r0
 558              	.LVL46:
ARM GAS  C:\Users\A85590\AppData\Local\Temp\ccILqQZe.s 			page 19


 559 00c6 461C     		adds	r6, r0, #1
 560              	.LVL47:
 124:..\../gps.c   ****     {
 561              		.loc 1 124 0
 562 00c8 4378     		ldrb	r3, [r0, #1]	@ zero_extendqisi2
 563 00ca 2C2B     		cmp	r3, #44
 564 00cc 59D0     		beq	.L43
 126:..\../gps.c   ****       p += 2;
 565              		.loc 1 126 0
 566 00ce 0222     		movs	r2, #2
 567 00d0 3146     		mov	r1, r6
 568 00d2 01A8     		add	r0, sp, #4
 569 00d4 FFF7FEFF 		bl	strncpy
 570              	.LVL48:
 127:..\../gps.c   ****       degreebuff[2] = '\0';
 571              		.loc 1 127 0
 572 00d8 EE1C     		adds	r6, r5, #3
 573              	.LVL49:
 128:..\../gps.c   ****       degree = atol(degreebuff) * 10000000;
 574              		.loc 1 128 0
 575 00da 4FF00008 		mov	r8, #0
 576 00de 04AF     		add	r7, sp, #16
 577 00e0 07F80A8D 		strb	r8, [r7, #-10]!
 129:..\../gps.c   ****       strncpy(degreebuff, p, 2); // minutes
 578              		.loc 1 129 0
 579 00e4 01A8     		add	r0, sp, #4
 580 00e6 FFF7FEFF 		bl	atol
 581              	.LVL50:
 582 00ea A74C     		ldr	r4, .L81+24
 583 00ec 04FB00F4 		mul	r4, r4, r0
 584              	.LVL51:
 130:..\../gps.c   ****       p += 3;                    // skip decimal point
 585              		.loc 1 130 0
 586 00f0 0222     		movs	r2, #2
 587 00f2 3146     		mov	r1, r6
 588 00f4 01A8     		add	r0, sp, #4
 589 00f6 FFF7FEFF 		bl	strncpy
 590              	.LVL52:
 131:..\../gps.c   ****       strncpy(degreebuff + 2, p, 4);
 591              		.loc 1 131 0
 592 00fa AE1D     		adds	r6, r5, #6
 593              	.LVL53:
 132:..\../gps.c   ****       degreebuff[6] = '\0';
 594              		.loc 1 132 0
 595 00fc 0422     		movs	r2, #4
 596 00fe 3146     		mov	r1, r6
 597 0100 3846     		mov	r0, r7
 598 0102 FFF7FEFF 		bl	strncpy
 599              	.LVL54:
 133:..\../gps.c   ****       minutes = 50 * atol(degreebuff) / 3;
 600              		.loc 1 133 0
 601 0106 8DF80A80 		strb	r8, [sp, #10]
 134:..\../gps.c   ****       latitude_fixed = degree + minutes;
 602              		.loc 1 134 0
 603 010a 01A8     		add	r0, sp, #4
 604 010c FFF7FEFF 		bl	atol
 605              	.LVL55:
ARM GAS  C:\Users\A85590\AppData\Local\Temp\ccILqQZe.s 			page 20


 606 0110 3223     		movs	r3, #50
 607 0112 03FB00F0 		mul	r0, r3, r0
 608 0116 9D4B     		ldr	r3, .L81+28
 609 0118 83FB0023 		smull	r2, r3, r3, r0
 610              	.LVL56:
 136:..\../gps.c   ****       latitudeDegrees = (latitude - 100 * (int)(latitude / 100)) / 60.0;
 611              		.loc 1 136 0
 612 011c 9C4A     		ldr	r2, .L81+32
 613 011e 82FB0412 		smull	r1, r2, r2, r4
 614 0122 E417     		asrs	r4, r4, #31
 615              	.LVL57:
 616 0124 C4EB6234 		rsb	r4, r4, r2, asr #13
 617 0128 A3EBE070 		sub	r0, r3, r0, asr #31
 618              	.LVL58:
 619 012c FFF7FEFF 		bl	__aeabi_i2f
 620              	.LVL59:
 621 0130 9849     		ldr	r1, .L81+36
 622 0132 FFF7FEFF 		bl	__aeabi_fmul
 623              	.LVL60:
 624 0136 0546     		mov	r5, r0
 625 0138 2046     		mov	r0, r4
 626 013a FFF7FEFF 		bl	__aeabi_i2f
 627              	.LVL61:
 628 013e 2946     		mov	r1, r5
 629 0140 FFF7FEFF 		bl	__aeabi_fadd
 630              	.LVL62:
 631 0144 0746     		mov	r7, r0
 632 0146 8C4C     		ldr	r4, .L81+8
 633 0148 C4F82001 		str	r0, [r4, #288]	@ float
 137:..\../gps.c   ****       latitudeDegrees += (int)(latitude / 100);
 634              		.loc 1 137 0
 635 014c 9249     		ldr	r1, .L81+40
 636 014e FFF7FEFF 		bl	__aeabi_fdiv
 637              	.LVL63:
 638 0152 FFF7FEFF 		bl	__aeabi_f2iz
 639              	.LVL64:
 640 0156 0546     		mov	r5, r0
 641 0158 6420     		movs	r0, #100
 642 015a 00FB05F0 		mul	r0, r0, r5
 643 015e FFF7FEFF 		bl	__aeabi_i2f
 644              	.LVL65:
 645 0162 0146     		mov	r1, r0
 646 0164 3846     		mov	r0, r7
 647 0166 FFF7FEFF 		bl	__aeabi_fsub
 648              	.LVL66:
 649 016a 8C49     		ldr	r1, .L81+44
 650 016c FFF7FEFF 		bl	__aeabi_fdiv
 651              	.LVL67:
 652 0170 0746     		mov	r7, r0
 138:..\../gps.c   ****     }
 653              		.loc 1 138 0
 654 0172 2846     		mov	r0, r5
 655 0174 FFF7FEFF 		bl	__aeabi_i2f
 656              	.LVL68:
 657 0178 3946     		mov	r1, r7
 658 017a FFF7FEFF 		bl	__aeabi_fadd
 659              	.LVL69:
ARM GAS  C:\Users\A85590\AppData\Local\Temp\ccILqQZe.s 			page 21


 660 017e C4F82401 		str	r0, [r4, #292]	@ float
 661              	.L43:
 141:..\../gps.c   ****     if (',' != *p)
 662              		.loc 1 141 0
 663 0182 2C21     		movs	r1, #44
 664 0184 3046     		mov	r0, r6
 665 0186 FFF7FEFF 		bl	strchr
 666              	.LVL70:
 667 018a 421C     		adds	r2, r0, #1
 668              	.LVL71:
 142:..\../gps.c   ****     {
 669              		.loc 1 142 0
 670 018c 4378     		ldrb	r3, [r0, #1]	@ zero_extendqisi2
 671 018e 2C2B     		cmp	r3, #44
 672 0190 1DD0     		beq	.L44
 144:..\../gps.c   ****         latitudeDegrees *= -1.0;
 673              		.loc 1 144 0
 674 0192 532B     		cmp	r3, #83
 675 0194 06D1     		bne	.L45
 145:..\../gps.c   ****       if (p[0] == 'N')
 676              		.loc 1 145 0
 677 0196 7848     		ldr	r0, .L81+8
 678 0198 D0F82411 		ldr	r1, [r0, #292]
 679 019c 01F10041 		add	r1, r1, #-2147483648
 680 01a0 C0F82411 		str	r1, [r0, #292]	@ float
 681              	.L45:
 146:..\../gps.c   ****         lat = 'N';
 682              		.loc 1 146 0
 683 01a4 4E2B     		cmp	r3, #78
 684 01a6 04D1     		bne	.L46
 147:..\../gps.c   ****       else if (p[0] == 'S')
 685              		.loc 1 147 0
 686 01a8 4E21     		movs	r1, #78
 687 01aa 734B     		ldr	r3, .L81+8
 688 01ac 83F80A11 		strb	r1, [r3, #266]
 689 01b0 0DE0     		b	.L44
 690              	.L46:
 148:..\../gps.c   ****         lat = 'S';
 691              		.loc 1 148 0
 692 01b2 532B     		cmp	r3, #83
 693 01b4 04D1     		bne	.L47
 149:..\../gps.c   ****       else if (p[0] == ',')
 694              		.loc 1 149 0
 695 01b6 5321     		movs	r1, #83
 696 01b8 6F4B     		ldr	r3, .L81+8
 697 01ba 83F80A11 		strb	r1, [r3, #266]
 698 01be 06E0     		b	.L44
 699              	.L47:
 150:..\../gps.c   ****         lat = 0;
 700              		.loc 1 150 0
 701 01c0 2C2B     		cmp	r3, #44
 702 01c2 40F0AF82 		bne	.L72
 151:..\../gps.c   ****       else
 703              		.loc 1 151 0
 704 01c6 0021     		movs	r1, #0
 705 01c8 6B4B     		ldr	r3, .L81+8
 706 01ca 83F80A11 		strb	r1, [r3, #266]
ARM GAS  C:\Users\A85590\AppData\Local\Temp\ccILqQZe.s 			page 22


 707              	.L44:
 159:..\../gps.c   ****     if (',' != *p)
 708              		.loc 1 159 0
 709 01ce 2C21     		movs	r1, #44
 710 01d0 1046     		mov	r0, r2
 711 01d2 FFF7FEFF 		bl	strchr
 712              	.LVL72:
 713 01d6 0546     		mov	r5, r0
 714 01d8 461C     		adds	r6, r0, #1
 715              	.LVL73:
 160:..\../gps.c   ****     {
 716              		.loc 1 160 0
 717 01da 4378     		ldrb	r3, [r0, #1]	@ zero_extendqisi2
 718 01dc 2C2B     		cmp	r3, #44
 719 01de 58D0     		beq	.L48
 162:..\../gps.c   ****       p += 3;
 720              		.loc 1 162 0
 721 01e0 0322     		movs	r2, #3
 722 01e2 3146     		mov	r1, r6
 723 01e4 01A8     		add	r0, sp, #4
 724 01e6 FFF7FEFF 		bl	strncpy
 725              	.LVL74:
 163:..\../gps.c   ****       degreebuff[3] = '\0';
 726              		.loc 1 163 0
 727 01ea 2E1D     		adds	r6, r5, #4
 728              	.LVL75:
 164:..\../gps.c   ****       degree = atol(degreebuff) * 10000000;
 729              		.loc 1 164 0
 730 01ec 0027     		movs	r7, #0
 731 01ee 8DF80770 		strb	r7, [sp, #7]
 165:..\../gps.c   ****       strncpy(degreebuff, p, 2); // minutes
 732              		.loc 1 165 0
 733 01f2 01A8     		add	r0, sp, #4
 734 01f4 FFF7FEFF 		bl	atol
 735              	.LVL76:
 736 01f8 634C     		ldr	r4, .L81+24
 737 01fa 04FB00F4 		mul	r4, r4, r0
 738              	.LVL77:
 166:..\../gps.c   ****       p += 3;                    // skip decimal point
 739              		.loc 1 166 0
 740 01fe 0222     		movs	r2, #2
 741 0200 3146     		mov	r1, r6
 742 0202 01A8     		add	r0, sp, #4
 743 0204 FFF7FEFF 		bl	strncpy
 744              	.LVL78:
 167:..\../gps.c   ****       strncpy(degreebuff + 2, p, 4);
 745              		.loc 1 167 0
 746 0208 EE1D     		adds	r6, r5, #7
 747              	.LVL79:
 168:..\../gps.c   ****       degreebuff[6] = '\0';
 748              		.loc 1 168 0
 749 020a 0422     		movs	r2, #4
 750 020c 3146     		mov	r1, r6
 751 020e 0DF10600 		add	r0, sp, #6
 752 0212 FFF7FEFF 		bl	strncpy
 753              	.LVL80:
 169:..\../gps.c   ****       minutes = 50 * atol(degreebuff) / 3;
ARM GAS  C:\Users\A85590\AppData\Local\Temp\ccILqQZe.s 			page 23


 754              		.loc 1 169 0
 755 0216 8DF80A70 		strb	r7, [sp, #10]
 170:..\../gps.c   ****       longitude_fixed = degree + minutes;
 756              		.loc 1 170 0
 757 021a 01A8     		add	r0, sp, #4
 758 021c FFF7FEFF 		bl	atol
 759              	.LVL81:
 760 0220 3223     		movs	r3, #50
 761 0222 03FB00F0 		mul	r0, r3, r0
 762 0226 594B     		ldr	r3, .L81+28
 763 0228 83FB0023 		smull	r2, r3, r3, r0
 764              	.LVL82:
 172:..\../gps.c   ****       longitudeDegrees = (longitude - 100 * (int)(longitude / 100)) / 60.0;
 765              		.loc 1 172 0
 766 022c 584A     		ldr	r2, .L81+32
 767 022e 82FB0412 		smull	r1, r2, r2, r4
 768 0232 E417     		asrs	r4, r4, #31
 769              	.LVL83:
 770 0234 C4EB6234 		rsb	r4, r4, r2, asr #13
 771 0238 A3EBE070 		sub	r0, r3, r0, asr #31
 772              	.LVL84:
 773 023c FFF7FEFF 		bl	__aeabi_i2f
 774              	.LVL85:
 775 0240 5449     		ldr	r1, .L81+36
 776 0242 FFF7FEFF 		bl	__aeabi_fmul
 777              	.LVL86:
 778 0246 0546     		mov	r5, r0
 779 0248 2046     		mov	r0, r4
 780 024a FFF7FEFF 		bl	__aeabi_i2f
 781              	.LVL87:
 782 024e 2946     		mov	r1, r5
 783 0250 FFF7FEFF 		bl	__aeabi_fadd
 784              	.LVL88:
 785 0254 0746     		mov	r7, r0
 786 0256 484C     		ldr	r4, .L81+8
 787 0258 C4F81C01 		str	r0, [r4, #284]	@ float
 173:..\../gps.c   ****       longitudeDegrees += (int)(longitude / 100);
 788              		.loc 1 173 0
 789 025c 4E49     		ldr	r1, .L81+40
 790 025e FFF7FEFF 		bl	__aeabi_fdiv
 791              	.LVL89:
 792 0262 FFF7FEFF 		bl	__aeabi_f2iz
 793              	.LVL90:
 794 0266 0546     		mov	r5, r0
 795 0268 6420     		movs	r0, #100
 796 026a 00FB05F0 		mul	r0, r0, r5
 797 026e FFF7FEFF 		bl	__aeabi_i2f
 798              	.LVL91:
 799 0272 0146     		mov	r1, r0
 800 0274 3846     		mov	r0, r7
 801 0276 FFF7FEFF 		bl	__aeabi_fsub
 802              	.LVL92:
 803 027a 4849     		ldr	r1, .L81+44
 804 027c FFF7FEFF 		bl	__aeabi_fdiv
 805              	.LVL93:
 806 0280 0746     		mov	r7, r0
 174:..\../gps.c   ****     }
ARM GAS  C:\Users\A85590\AppData\Local\Temp\ccILqQZe.s 			page 24


 807              		.loc 1 174 0
 808 0282 2846     		mov	r0, r5
 809 0284 FFF7FEFF 		bl	__aeabi_i2f
 810              	.LVL94:
 811 0288 3946     		mov	r1, r7
 812 028a FFF7FEFF 		bl	__aeabi_fadd
 813              	.LVL95:
 814 028e C4F82801 		str	r0, [r4, #296]	@ float
 815              	.L48:
 177:..\../gps.c   ****     if (',' != *p)
 816              		.loc 1 177 0
 817 0292 2C21     		movs	r1, #44
 818 0294 3046     		mov	r0, r6
 819 0296 FFF7FEFF 		bl	strchr
 820              	.LVL96:
 821 029a 421C     		adds	r2, r0, #1
 822              	.LVL97:
 178:..\../gps.c   ****     {
 823              		.loc 1 178 0
 824 029c 4378     		ldrb	r3, [r0, #1]	@ zero_extendqisi2
 825 029e 2C2B     		cmp	r3, #44
 826 02a0 1DD0     		beq	.L49
 180:..\../gps.c   ****         longitudeDegrees *= -1.0;
 827              		.loc 1 180 0
 828 02a2 572B     		cmp	r3, #87
 829 02a4 06D1     		bne	.L50
 181:..\../gps.c   ****       if (p[0] == 'W')
 830              		.loc 1 181 0
 831 02a6 3448     		ldr	r0, .L81+8
 832 02a8 D0F82811 		ldr	r1, [r0, #296]
 833 02ac 01F10041 		add	r1, r1, #-2147483648
 834 02b0 C0F82811 		str	r1, [r0, #296]	@ float
 835              	.L50:
 182:..\../gps.c   ****         lon = 'W';
 836              		.loc 1 182 0
 837 02b4 572B     		cmp	r3, #87
 838 02b6 04D1     		bne	.L51
 183:..\../gps.c   ****       else if (p[0] == 'E')
 839              		.loc 1 183 0
 840 02b8 5721     		movs	r1, #87
 841 02ba 2F4B     		ldr	r3, .L81+8
 842 02bc 83F80911 		strb	r1, [r3, #265]
 843 02c0 0DE0     		b	.L49
 844              	.L51:
 184:..\../gps.c   ****         lon = 'E';
 845              		.loc 1 184 0
 846 02c2 452B     		cmp	r3, #69
 847 02c4 04D1     		bne	.L52
 185:..\../gps.c   ****       else if (p[0] == ',')
 848              		.loc 1 185 0
 849 02c6 4521     		movs	r1, #69
 850 02c8 2B4B     		ldr	r3, .L81+8
 851 02ca 83F80911 		strb	r1, [r3, #265]
 852 02ce 06E0     		b	.L49
 853              	.L52:
 186:..\../gps.c   ****         lon = 0;
 854              		.loc 1 186 0
ARM GAS  C:\Users\A85590\AppData\Local\Temp\ccILqQZe.s 			page 25


 855 02d0 2C2B     		cmp	r3, #44
 856 02d2 40F02982 		bne	.L73
 187:..\../gps.c   ****       else
 857              		.loc 1 187 0
 858 02d6 0021     		movs	r1, #0
 859 02d8 274B     		ldr	r3, .L81+8
 860 02da 83F80911 		strb	r1, [r3, #265]
 861              	.L49:
 192:..\../gps.c   ****     if (',' != *p)
 862              		.loc 1 192 0
 863 02de 2C21     		movs	r1, #44
 864 02e0 1046     		mov	r0, r2
 865 02e2 FFF7FEFF 		bl	strchr
 866              	.LVL98:
 867 02e6 441C     		adds	r4, r0, #1
 868              	.LVL99:
 193:..\../gps.c   ****     {
 869              		.loc 1 193 0
 870 02e8 4378     		ldrb	r3, [r0, #1]	@ zero_extendqisi2
 871 02ea 2C2B     		cmp	r3, #44
 872 02ec 05D0     		beq	.L53
 195:..\../gps.c   ****     }
 873              		.loc 1 195 0
 874 02ee 2046     		mov	r0, r4
 875 02f0 FFF7FEFF 		bl	atoi
 876              	.LVL100:
 877 02f4 204B     		ldr	r3, .L81+8
 878 02f6 83F80201 		strb	r0, [r3, #258]
 879              	.L53:
 198:..\../gps.c   ****     if (',' != *p)
 880              		.loc 1 198 0
 881 02fa 2C21     		movs	r1, #44
 882 02fc 2046     		mov	r0, r4
 883 02fe FFF7FEFF 		bl	strchr
 884              	.LVL101:
 885 0302 441C     		adds	r4, r0, #1
 886              	.LVL102:
 199:..\../gps.c   ****     {
 887              		.loc 1 199 0
 888 0304 4378     		ldrb	r3, [r0, #1]	@ zero_extendqisi2
 889 0306 2C2B     		cmp	r3, #44
 890 0308 05D0     		beq	.L54
 201:..\../gps.c   ****     }
 891              		.loc 1 201 0
 892 030a 2046     		mov	r0, r4
 893 030c FFF7FEFF 		bl	atoi
 894              	.LVL103:
 895 0310 194B     		ldr	r3, .L81+8
 896 0312 83F80101 		strb	r0, [r3, #257]
 897              	.L54:
 204:..\../gps.c   ****     if (',' != *p)
 898              		.loc 1 204 0
 899 0316 2C21     		movs	r1, #44
 900 0318 2046     		mov	r0, r4
 901 031a FFF7FEFF 		bl	strchr
 902              	.LVL104:
 903 031e 441C     		adds	r4, r0, #1
ARM GAS  C:\Users\A85590\AppData\Local\Temp\ccILqQZe.s 			page 26


 904              	.LVL105:
 205:..\../gps.c   ****     {
 905              		.loc 1 205 0
 906 0320 4378     		ldrb	r3, [r0, #1]	@ zero_extendqisi2
 907 0322 2C2B     		cmp	r3, #44
 908 0324 02D0     		beq	.L55
 207:..\../gps.c   ****     }
 909              		.loc 1 207 0
 910 0326 2046     		mov	r0, r4
 911 0328 FFF7FEFF 		bl	atof
 912              	.LVL106:
 913              	.L55:
 210:..\../gps.c   ****     if (',' != *p)
 914              		.loc 1 210 0
 915 032c 2C21     		movs	r1, #44
 916 032e 2046     		mov	r0, r4
 917 0330 FFF7FEFF 		bl	strchr
 918              	.LVL107:
 919 0334 441C     		adds	r4, r0, #1
 920              	.LVL108:
 211:..\../gps.c   ****     {
 921              		.loc 1 211 0
 922 0336 4378     		ldrb	r3, [r0, #1]	@ zero_extendqisi2
 923 0338 2C2B     		cmp	r3, #44
 924 033a 07D0     		beq	.L56
 213:..\../gps.c   ****     }
 925              		.loc 1 213 0
 926 033c 2046     		mov	r0, r4
 927 033e FFF7FEFF 		bl	atof
 928              	.LVL109:
 929 0342 FFF7FEFF 		bl	__aeabi_d2f
 930              	.LVL110:
 931 0346 0C4B     		ldr	r3, .L81+8
 932 0348 C3F81801 		str	r0, [r3, #280]	@ float
 933              	.L56:
 216:..\../gps.c   ****     p = strchr(p, ',') + 1;
 934              		.loc 1 216 0
 935 034c 2C21     		movs	r1, #44
 936 034e 2046     		mov	r0, r4
 937 0350 FFF7FEFF 		bl	strchr
 938              	.LVL111:
 217:..\../gps.c   ****     if (',' != *p)
 939              		.loc 1 217 0
 940 0354 2C21     		movs	r1, #44
 941 0356 0130     		adds	r0, r0, #1
 942              	.LVL112:
 943 0358 FFF7FEFF 		bl	strchr
 944              	.LVL113:
 945 035c 421C     		adds	r2, r0, #1
 946              	.LVL114:
 218:..\../gps.c   ****     {
 947              		.loc 1 218 0
 948 035e 4378     		ldrb	r3, [r0, #1]	@ zero_extendqisi2
 949 0360 2C2B     		cmp	r3, #44
 950 0362 00F0E381 		beq	.L74
 220:..\../gps.c   ****     }
 951              		.loc 1 220 0
ARM GAS  C:\Users\A85590\AppData\Local\Temp\ccILqQZe.s 			page 27


 952 0366 1046     		mov	r0, r2
 953 0368 FFF7FEFF 		bl	atof
 954              	.LVL115:
 222:..\../gps.c   ****   }
 955              		.loc 1 222 0
 956 036c 0120     		movs	r0, #1
 957 036e E8E1     		b	.L41
 958              	.L82:
 959              		.align	2
 960              	.L81:
 961 0370 00000000 		.word	.LC0
 962 0374 5917B7D1 		.word	-776530087
 963 0378 00000000 		.word	.LANCHOR1
 964 037c 1F85EB51 		.word	1374389535
 965 0380 0000F03F 		.word	1072693248
 966 0384 00408F40 		.word	1083129856
 967 0388 80969800 		.word	10000000
 968 038c 56555555 		.word	1431655766
 969 0390 89B5F814 		.word	351843721
 970 0394 9C53C936 		.word	919163804
 971 0398 0000C842 		.word	1120403456
 972 039c 00007042 		.word	1114636288
 973              	.LVL116:
 974              	.L42:
 975              	.LBE3:
 224:..\../gps.c   ****   {
 976              		.loc 1 224 0
 977 03a0 AC49     		ldr	r1, .L83
 978 03a2 2846     		mov	r0, r5
 979 03a4 FFF7FEFF 		bl	strstr
 980              	.LVL117:
 981 03a8 0028     		cmp	r0, #0
 982 03aa 00F0C181 		beq	.L75
 983              	.LVL118:
 984              	.LBB4:
 230:..\../gps.c   ****     float timef = atof(p);
 985              		.loc 1 230 0
 986 03ae 2C21     		movs	r1, #44
 987 03b0 2846     		mov	r0, r5
 988 03b2 FFF7FEFF 		bl	strchr
 989              	.LVL119:
 990 03b6 441C     		adds	r4, r0, #1
 991              	.LVL120:
 231:..\../gps.c   ****     uint32_t time = timef;
 992              		.loc 1 231 0
 993 03b8 2046     		mov	r0, r4
 994 03ba FFF7FEFF 		bl	atof
 995              	.LVL121:
 996 03be FFF7FEFF 		bl	__aeabi_d2f
 997              	.LVL122:
 998 03c2 0546     		mov	r5, r0
 999              	.LVL123:
 232:..\../gps.c   ****     hour = time / 10000;
 1000              		.loc 1 232 0
 1001 03c4 FFF7FEFF 		bl	__aeabi_f2uiz
 1002              	.LVL124:
 233:..\../gps.c   ****     minute = (time % 10000) / 100;
ARM GAS  C:\Users\A85590\AppData\Local\Temp\ccILqQZe.s 			page 28


 1003              		.loc 1 233 0
 1004 03c8 A34B     		ldr	r3, .L83+4
 1005 03ca A3FB0023 		umull	r2, r3, r3, r0
 1006 03ce 5B0B     		lsrs	r3, r3, #13
 1007 03d0 A24E     		ldr	r6, .L83+8
 1008 03d2 86F80831 		strb	r3, [r6, #264]
 234:..\../gps.c   ****     seconds = (time % 100);
 1009              		.loc 1 234 0
 1010 03d6 42F21072 		movw	r2, #10000
 1011 03da 02FB1303 		mls	r3, r2, r3, r0
 1012 03de A04A     		ldr	r2, .L83+12
 1013 03e0 A2FB0313 		umull	r1, r3, r2, r3
 1014 03e4 5B09     		lsrs	r3, r3, #5
 1015 03e6 86F80731 		strb	r3, [r6, #263]
 235:..\../gps.c   **** 
 1016              		.loc 1 235 0
 1017 03ea A2FB0023 		umull	r2, r3, r2, r0
 1018 03ee 5B09     		lsrs	r3, r3, #5
 1019 03f0 6422     		movs	r2, #100
 1020 03f2 02FB1303 		mls	r3, r2, r3, r0
 1021 03f6 86F80631 		strb	r3, [r6, #262]
 237:..\../gps.c   **** 
 1022              		.loc 1 237 0
 1023 03fa 2846     		mov	r0, r5
 1024              	.LVL125:
 1025 03fc FFF7FEFF 		bl	__aeabi_f2d
 1026              	.LVL126:
 1027 0400 0022     		movs	r2, #0
 1028 0402 984B     		ldr	r3, .L83+16
 1029 0404 FFF7FEFF 		bl	fmod
 1030              	.LVL127:
 1031 0408 0022     		movs	r2, #0
 1032 040a 974B     		ldr	r3, .L83+20
 1033 040c FFF7FEFF 		bl	__aeabi_dmul
 1034              	.LVL128:
 1035 0410 FFF7FEFF 		bl	__aeabi_d2uiz
 1036              	.LVL129:
 1037 0414 A6F80C01 		strh	r0, [r6, #268]	@ movhi
 239:..\../gps.c   ****     // Serial.println(p);
 1038              		.loc 1 239 0
 1039 0418 2C21     		movs	r1, #44
 1040 041a 2046     		mov	r0, r4
 1041 041c FFF7FEFF 		bl	strchr
 1042              	.LVL130:
 1043 0420 421C     		adds	r2, r0, #1
 1044              	.LVL131:
 241:..\../gps.c   ****       fix = true;
 1045              		.loc 1 241 0
 1046 0422 4378     		ldrb	r3, [r0, #1]	@ zero_extendqisi2
 1047 0424 412B     		cmp	r3, #65
 1048 0426 03D1     		bne	.L57
 242:..\../gps.c   ****     else if (p[0] == 'V')
 1049              		.loc 1 242 0
 1050 0428 0121     		movs	r1, #1
 1051 042a 86F80B11 		strb	r1, [r6, #267]
 1052 042e 06E0     		b	.L58
 1053              	.L57:
ARM GAS  C:\Users\A85590\AppData\Local\Temp\ccILqQZe.s 			page 29


 243:..\../gps.c   ****       fix = false;
 1054              		.loc 1 243 0
 1055 0430 562B     		cmp	r3, #86
 1056 0432 40F07F81 		bne	.L76
 244:..\../gps.c   ****     else
 1057              		.loc 1 244 0
 1058 0436 0021     		movs	r1, #0
 1059 0438 884B     		ldr	r3, .L83+8
 1060 043a 83F80B11 		strb	r1, [r3, #267]
 1061              	.L58:
 249:..\../gps.c   ****     if (',' != *p)
 1062              		.loc 1 249 0
 1063 043e 2C21     		movs	r1, #44
 1064 0440 1046     		mov	r0, r2
 1065 0442 FFF7FEFF 		bl	strchr
 1066              	.LVL132:
 1067 0446 0546     		mov	r5, r0
 1068              	.LVL133:
 1069 0448 461C     		adds	r6, r0, #1
 1070              	.LVL134:
 250:..\../gps.c   ****     {
 1071              		.loc 1 250 0
 1072 044a 4378     		ldrb	r3, [r0, #1]	@ zero_extendqisi2
 1073 044c 2C2B     		cmp	r3, #44
 1074 044e 59D0     		beq	.L59
 1075              	.LBB5:
 252:..\../gps.c   ****       p += 2;
 1076              		.loc 1 252 0
 1077 0450 0222     		movs	r2, #2
 1078 0452 3146     		mov	r1, r6
 1079 0454 01A8     		add	r0, sp, #4
 1080 0456 FFF7FEFF 		bl	strncpy
 1081              	.LVL135:
 253:..\../gps.c   ****       degreebuff[2] = '\0';
 1082              		.loc 1 253 0
 1083 045a EE1C     		adds	r6, r5, #3
 1084              	.LVL136:
 254:..\../gps.c   ****       long degree = atol(degreebuff) * 10000000;
 1085              		.loc 1 254 0
 1086 045c 4FF00008 		mov	r8, #0
 1087 0460 04AF     		add	r7, sp, #16
 1088 0462 07F80A8D 		strb	r8, [r7, #-10]!
 255:..\../gps.c   ****       strncpy(degreebuff, p, 2); // minutes
 1089              		.loc 1 255 0
 1090 0466 01A8     		add	r0, sp, #4
 1091 0468 FFF7FEFF 		bl	atol
 1092              	.LVL137:
 1093 046c 7F4C     		ldr	r4, .L83+24
 1094 046e 04FB00F4 		mul	r4, r4, r0
 1095              	.LVL138:
 256:..\../gps.c   ****       p += 3;                    // skip decimal point
 1096              		.loc 1 256 0
 1097 0472 0222     		movs	r2, #2
 1098 0474 3146     		mov	r1, r6
 1099 0476 01A8     		add	r0, sp, #4
 1100 0478 FFF7FEFF 		bl	strncpy
 1101              	.LVL139:
ARM GAS  C:\Users\A85590\AppData\Local\Temp\ccILqQZe.s 			page 30


 257:..\../gps.c   ****       strncpy(degreebuff + 2, p, 4);
 1102              		.loc 1 257 0
 1103 047c AE1D     		adds	r6, r5, #6
 1104              	.LVL140:
 258:..\../gps.c   ****       degreebuff[6] = '\0';
 1105              		.loc 1 258 0
 1106 047e 0422     		movs	r2, #4
 1107 0480 3146     		mov	r1, r6
 1108 0482 3846     		mov	r0, r7
 1109 0484 FFF7FEFF 		bl	strncpy
 1110              	.LVL141:
 259:..\../gps.c   ****       long minutes = 50 * atol(degreebuff) / 3;
 1111              		.loc 1 259 0
 1112 0488 8DF80A80 		strb	r8, [sp, #10]
 260:..\../gps.c   ****       latitude_fixed = degree + minutes;
 1113              		.loc 1 260 0
 1114 048c 01A8     		add	r0, sp, #4
 1115 048e FFF7FEFF 		bl	atol
 1116              	.LVL142:
 1117 0492 3223     		movs	r3, #50
 1118 0494 03FB00F0 		mul	r0, r3, r0
 1119 0498 754B     		ldr	r3, .L83+28
 1120 049a 83FB0023 		smull	r2, r3, r3, r0
 1121              	.LVL143:
 262:..\../gps.c   ****       latitudeDegrees = (latitude - 100 * (int)(latitude / 100)) / 60.0;
 1122              		.loc 1 262 0
 1123 049e 754A     		ldr	r2, .L83+32
 1124 04a0 82FB0412 		smull	r1, r2, r2, r4
 1125 04a4 E417     		asrs	r4, r4, #31
 1126              	.LVL144:
 1127 04a6 C4EB6234 		rsb	r4, r4, r2, asr #13
 1128 04aa A3EBE070 		sub	r0, r3, r0, asr #31
 1129              	.LVL145:
 1130 04ae FFF7FEFF 		bl	__aeabi_i2f
 1131              	.LVL146:
 1132 04b2 7149     		ldr	r1, .L83+36
 1133 04b4 FFF7FEFF 		bl	__aeabi_fmul
 1134              	.LVL147:
 1135 04b8 0546     		mov	r5, r0
 1136 04ba 2046     		mov	r0, r4
 1137 04bc FFF7FEFF 		bl	__aeabi_i2f
 1138              	.LVL148:
 1139 04c0 2946     		mov	r1, r5
 1140 04c2 FFF7FEFF 		bl	__aeabi_fadd
 1141              	.LVL149:
 1142 04c6 0746     		mov	r7, r0
 1143 04c8 644C     		ldr	r4, .L83+8
 1144 04ca C4F82001 		str	r0, [r4, #288]	@ float
 263:..\../gps.c   ****       latitudeDegrees += (int)(latitude / 100);
 1145              		.loc 1 263 0
 1146 04ce 6B49     		ldr	r1, .L83+40
 1147 04d0 FFF7FEFF 		bl	__aeabi_fdiv
 1148              	.LVL150:
 1149 04d4 FFF7FEFF 		bl	__aeabi_f2iz
 1150              	.LVL151:
 1151 04d8 0546     		mov	r5, r0
 1152 04da 6420     		movs	r0, #100
ARM GAS  C:\Users\A85590\AppData\Local\Temp\ccILqQZe.s 			page 31


 1153 04dc 00FB05F0 		mul	r0, r0, r5
 1154 04e0 FFF7FEFF 		bl	__aeabi_i2f
 1155              	.LVL152:
 1156 04e4 0146     		mov	r1, r0
 1157 04e6 3846     		mov	r0, r7
 1158 04e8 FFF7FEFF 		bl	__aeabi_fsub
 1159              	.LVL153:
 1160 04ec 6449     		ldr	r1, .L83+44
 1161 04ee FFF7FEFF 		bl	__aeabi_fdiv
 1162              	.LVL154:
 1163 04f2 0746     		mov	r7, r0
 264:..\../gps.c   ****     }
 1164              		.loc 1 264 0
 1165 04f4 2846     		mov	r0, r5
 1166 04f6 FFF7FEFF 		bl	__aeabi_i2f
 1167              	.LVL155:
 1168 04fa 3946     		mov	r1, r7
 1169 04fc FFF7FEFF 		bl	__aeabi_fadd
 1170              	.LVL156:
 1171 0500 C4F82401 		str	r0, [r4, #292]	@ float
 1172              	.L59:
 1173              	.LBE5:
 267:..\../gps.c   ****     if (',' != *p)
 1174              		.loc 1 267 0
 1175 0504 2C21     		movs	r1, #44
 1176 0506 3046     		mov	r0, r6
 1177 0508 FFF7FEFF 		bl	strchr
 1178              	.LVL157:
 1179 050c 421C     		adds	r2, r0, #1
 1180              	.LVL158:
 268:..\../gps.c   ****     {
 1181              		.loc 1 268 0
 1182 050e 4378     		ldrb	r3, [r0, #1]	@ zero_extendqisi2
 1183 0510 2C2B     		cmp	r3, #44
 1184 0512 1DD0     		beq	.L60
 270:..\../gps.c   ****         latitudeDegrees *= -1.0;
 1185              		.loc 1 270 0
 1186 0514 532B     		cmp	r3, #83
 1187 0516 06D1     		bne	.L61
 271:..\../gps.c   ****       if (p[0] == 'N')
 1188              		.loc 1 271 0
 1189 0518 5048     		ldr	r0, .L83+8
 1190 051a D0F82411 		ldr	r1, [r0, #292]
 1191 051e 01F10041 		add	r1, r1, #-2147483648
 1192 0522 C0F82411 		str	r1, [r0, #292]	@ float
 1193              	.L61:
 272:..\../gps.c   ****         lat = 'N';
 1194              		.loc 1 272 0
 1195 0526 4E2B     		cmp	r3, #78
 1196 0528 04D1     		bne	.L62
 273:..\../gps.c   ****       else if (p[0] == 'S')
 1197              		.loc 1 273 0
 1198 052a 4E21     		movs	r1, #78
 1199 052c 4B4B     		ldr	r3, .L83+8
 1200 052e 83F80A11 		strb	r1, [r3, #266]
 1201 0532 0DE0     		b	.L60
 1202              	.L62:
ARM GAS  C:\Users\A85590\AppData\Local\Temp\ccILqQZe.s 			page 32


 274:..\../gps.c   ****         lat = 'S';
 1203              		.loc 1 274 0
 1204 0534 532B     		cmp	r3, #83
 1205 0536 04D1     		bne	.L63
 275:..\../gps.c   ****       else if (p[0] == ',')
 1206              		.loc 1 275 0
 1207 0538 5321     		movs	r1, #83
 1208 053a 484B     		ldr	r3, .L83+8
 1209 053c 83F80A11 		strb	r1, [r3, #266]
 1210 0540 06E0     		b	.L60
 1211              	.L63:
 276:..\../gps.c   ****         lat = 0;
 1212              		.loc 1 276 0
 1213 0542 2C2B     		cmp	r3, #44
 1214 0544 40F0F880 		bne	.L77
 277:..\../gps.c   ****       else
 1215              		.loc 1 277 0
 1216 0548 0021     		movs	r1, #0
 1217 054a 444B     		ldr	r3, .L83+8
 1218 054c 83F80A11 		strb	r1, [r3, #266]
 1219              	.L60:
 285:..\../gps.c   ****     if (',' != *p)
 1220              		.loc 1 285 0
 1221 0550 2C21     		movs	r1, #44
 1222 0552 1046     		mov	r0, r2
 1223 0554 FFF7FEFF 		bl	strchr
 1224              	.LVL159:
 1225 0558 0546     		mov	r5, r0
 1226 055a 461C     		adds	r6, r0, #1
 1227              	.LVL160:
 286:..\../gps.c   ****     {
 1228              		.loc 1 286 0
 1229 055c 4378     		ldrb	r3, [r0, #1]	@ zero_extendqisi2
 1230 055e 2C2B     		cmp	r3, #44
 1231 0560 58D0     		beq	.L64
 288:..\../gps.c   ****       p += 3;
 1232              		.loc 1 288 0
 1233 0562 0322     		movs	r2, #3
 1234 0564 3146     		mov	r1, r6
 1235 0566 01A8     		add	r0, sp, #4
 1236 0568 FFF7FEFF 		bl	strncpy
 1237              	.LVL161:
 289:..\../gps.c   ****       degreebuff[3] = '\0';
 1238              		.loc 1 289 0
 1239 056c 2E1D     		adds	r6, r5, #4
 1240              	.LVL162:
 290:..\../gps.c   ****       degree = atol(degreebuff) * 10000000;
 1241              		.loc 1 290 0
 1242 056e 0027     		movs	r7, #0
 1243 0570 8DF80770 		strb	r7, [sp, #7]
 291:..\../gps.c   ****       strncpy(degreebuff, p, 2); // minutes
 1244              		.loc 1 291 0
 1245 0574 01A8     		add	r0, sp, #4
 1246 0576 FFF7FEFF 		bl	atol
 1247              	.LVL163:
 1248 057a 3C4C     		ldr	r4, .L83+24
 1249 057c 04FB00F4 		mul	r4, r4, r0
ARM GAS  C:\Users\A85590\AppData\Local\Temp\ccILqQZe.s 			page 33


 1250              	.LVL164:
 292:..\../gps.c   ****       p += 3;                    // skip decimal point
 1251              		.loc 1 292 0
 1252 0580 0222     		movs	r2, #2
 1253 0582 3146     		mov	r1, r6
 1254 0584 01A8     		add	r0, sp, #4
 1255 0586 FFF7FEFF 		bl	strncpy
 1256              	.LVL165:
 293:..\../gps.c   ****       strncpy(degreebuff + 2, p, 4);
 1257              		.loc 1 293 0
 1258 058a EE1D     		adds	r6, r5, #7
 1259              	.LVL166:
 294:..\../gps.c   ****       degreebuff[6] = '\0';
 1260              		.loc 1 294 0
 1261 058c 0422     		movs	r2, #4
 1262 058e 3146     		mov	r1, r6
 1263 0590 0DF10600 		add	r0, sp, #6
 1264 0594 FFF7FEFF 		bl	strncpy
 1265              	.LVL167:
 295:..\../gps.c   ****       minutes = 50 * atol(degreebuff) / 3;
 1266              		.loc 1 295 0
 1267 0598 8DF80A70 		strb	r7, [sp, #10]
 296:..\../gps.c   ****       longitude_fixed = degree + minutes;
 1268              		.loc 1 296 0
 1269 059c 01A8     		add	r0, sp, #4
 1270 059e FFF7FEFF 		bl	atol
 1271              	.LVL168:
 1272 05a2 3223     		movs	r3, #50
 1273 05a4 03FB00F0 		mul	r0, r3, r0
 1274 05a8 314B     		ldr	r3, .L83+28
 1275 05aa 83FB0023 		smull	r2, r3, r3, r0
 1276              	.LVL169:
 298:..\../gps.c   ****       longitudeDegrees = (longitude - 100 * (int)(longitude / 100)) / 60.0;
 1277              		.loc 1 298 0
 1278 05ae 314A     		ldr	r2, .L83+32
 1279 05b0 82FB0412 		smull	r1, r2, r2, r4
 1280 05b4 E417     		asrs	r4, r4, #31
 1281              	.LVL170:
 1282 05b6 C4EB6234 		rsb	r4, r4, r2, asr #13
 1283 05ba A3EBE070 		sub	r0, r3, r0, asr #31
 1284              	.LVL171:
 1285 05be FFF7FEFF 		bl	__aeabi_i2f
 1286              	.LVL172:
 1287 05c2 2D49     		ldr	r1, .L83+36
 1288 05c4 FFF7FEFF 		bl	__aeabi_fmul
 1289              	.LVL173:
 1290 05c8 0546     		mov	r5, r0
 1291 05ca 2046     		mov	r0, r4
 1292 05cc FFF7FEFF 		bl	__aeabi_i2f
 1293              	.LVL174:
 1294 05d0 2946     		mov	r1, r5
 1295 05d2 FFF7FEFF 		bl	__aeabi_fadd
 1296              	.LVL175:
 1297 05d6 0746     		mov	r7, r0
 1298 05d8 204C     		ldr	r4, .L83+8
 1299 05da C4F81C01 		str	r0, [r4, #284]	@ float
 299:..\../gps.c   ****       longitudeDegrees += (int)(longitude / 100);
ARM GAS  C:\Users\A85590\AppData\Local\Temp\ccILqQZe.s 			page 34


 1300              		.loc 1 299 0
 1301 05de 2749     		ldr	r1, .L83+40
 1302 05e0 FFF7FEFF 		bl	__aeabi_fdiv
 1303              	.LVL176:
 1304 05e4 FFF7FEFF 		bl	__aeabi_f2iz
 1305              	.LVL177:
 1306 05e8 0546     		mov	r5, r0
 1307 05ea 6420     		movs	r0, #100
 1308 05ec 00FB05F0 		mul	r0, r0, r5
 1309 05f0 FFF7FEFF 		bl	__aeabi_i2f
 1310              	.LVL178:
 1311 05f4 0146     		mov	r1, r0
 1312 05f6 3846     		mov	r0, r7
 1313 05f8 FFF7FEFF 		bl	__aeabi_fsub
 1314              	.LVL179:
 1315 05fc 2049     		ldr	r1, .L83+44
 1316 05fe FFF7FEFF 		bl	__aeabi_fdiv
 1317              	.LVL180:
 1318 0602 0746     		mov	r7, r0
 300:..\../gps.c   ****     }
 1319              		.loc 1 300 0
 1320 0604 2846     		mov	r0, r5
 1321 0606 FFF7FEFF 		bl	__aeabi_i2f
 1322              	.LVL181:
 1323 060a 3946     		mov	r1, r7
 1324 060c FFF7FEFF 		bl	__aeabi_fadd
 1325              	.LVL182:
 1326 0610 C4F82801 		str	r0, [r4, #296]	@ float
 1327              	.L64:
 303:..\../gps.c   ****     if (',' != *p)
 1328              		.loc 1 303 0
 1329 0614 2C21     		movs	r1, #44
 1330 0616 3046     		mov	r0, r6
 1331 0618 FFF7FEFF 		bl	strchr
 1332              	.LVL183:
 1333 061c 421C     		adds	r2, r0, #1
 1334              	.LVL184:
 304:..\../gps.c   ****     {
 1335              		.loc 1 304 0
 1336 061e 4378     		ldrb	r3, [r0, #1]	@ zero_extendqisi2
 1337 0620 2C2B     		cmp	r3, #44
 1338 0622 35D0     		beq	.L65
 306:..\../gps.c   ****         longitudeDegrees *= -1.0;
 1339              		.loc 1 306 0
 1340 0624 572B     		cmp	r3, #87
 1341 0626 06D1     		bne	.L66
 307:..\../gps.c   ****       if (p[0] == 'W')
 1342              		.loc 1 307 0
 1343 0628 0C48     		ldr	r0, .L83+8
 1344 062a D0F82811 		ldr	r1, [r0, #296]
 1345 062e 01F10041 		add	r1, r1, #-2147483648
 1346 0632 C0F82811 		str	r1, [r0, #296]	@ float
 1347              	.L66:
 308:..\../gps.c   ****         lon = 'W';
 1348              		.loc 1 308 0
 1349 0636 572B     		cmp	r3, #87
 1350 0638 04D1     		bne	.L67
ARM GAS  C:\Users\A85590\AppData\Local\Temp\ccILqQZe.s 			page 35


 309:..\../gps.c   ****       else if (p[0] == 'E')
 1351              		.loc 1 309 0
 1352 063a 5721     		movs	r1, #87
 1353 063c 074B     		ldr	r3, .L83+8
 1354 063e 83F80911 		strb	r1, [r3, #265]
 1355 0642 25E0     		b	.L65
 1356              	.L67:
 310:..\../gps.c   ****         lon = 'E';
 1357              		.loc 1 310 0
 1358 0644 452B     		cmp	r3, #69
 1359 0646 1DD1     		bne	.L68
 311:..\../gps.c   ****       else if (p[0] == ',')
 1360              		.loc 1 311 0
 1361 0648 4521     		movs	r1, #69
 1362 064a 044B     		ldr	r3, .L83+8
 1363 064c 83F80911 		strb	r1, [r3, #265]
 1364 0650 1EE0     		b	.L65
 1365              	.L84:
 1366 0652 00BF     		.align	2
 1367              	.L83:
 1368 0654 08000000 		.word	.LC1
 1369 0658 5917B7D1 		.word	-776530087
 1370 065c 00000000 		.word	.LANCHOR1
 1371 0660 1F85EB51 		.word	1374389535
 1372 0664 0000F03F 		.word	1072693248
 1373 0668 00408F40 		.word	1083129856
 1374 066c 80969800 		.word	10000000
 1375 0670 56555555 		.word	1431655766
 1376 0674 89B5F814 		.word	351843721
 1377 0678 9C53C936 		.word	919163804
 1378 067c 0000C842 		.word	1120403456
 1379 0680 00007042 		.word	1114636288
 1380              	.L68:
 312:..\../gps.c   ****         lon = 0;
 1381              		.loc 1 312 0
 1382 0684 2C2B     		cmp	r3, #44
 1383 0686 59D1     		bne	.L78
 313:..\../gps.c   ****       else
 1384              		.loc 1 313 0
 1385 0688 0021     		movs	r1, #0
 1386 068a 2F4B     		ldr	r3, .L85
 1387 068c 83F80911 		strb	r1, [r3, #265]
 1388              	.L65:
 320:..\../gps.c   ****     if (',' != *p)
 1389              		.loc 1 320 0
 1390 0690 2C21     		movs	r1, #44
 1391 0692 1046     		mov	r0, r2
 1392 0694 FFF7FEFF 		bl	strchr
 1393              	.LVL185:
 1394 0698 441C     		adds	r4, r0, #1
 1395              	.LVL186:
 321:..\../gps.c   ****     {
 1396              		.loc 1 321 0
 1397 069a 4378     		ldrb	r3, [r0, #1]	@ zero_extendqisi2
 1398 069c 2C2B     		cmp	r3, #44
 1399 069e 07D0     		beq	.L69
 323:..\../gps.c   ****     }
ARM GAS  C:\Users\A85590\AppData\Local\Temp\ccILqQZe.s 			page 36


 1400              		.loc 1 323 0
 1401 06a0 2046     		mov	r0, r4
 1402 06a2 FFF7FEFF 		bl	atof
 1403              	.LVL187:
 1404 06a6 FFF7FEFF 		bl	__aeabi_d2f
 1405              	.LVL188:
 1406 06aa 274B     		ldr	r3, .L85
 1407 06ac C3F81401 		str	r0, [r3, #276]	@ float
 1408              	.L69:
 327:..\../gps.c   ****     if (',' != *p)
 1409              		.loc 1 327 0
 1410 06b0 2C21     		movs	r1, #44
 1411 06b2 2046     		mov	r0, r4
 1412 06b4 FFF7FEFF 		bl	strchr
 1413              	.LVL189:
 1414 06b8 441C     		adds	r4, r0, #1
 1415              	.LVL190:
 328:..\../gps.c   ****     {
 1416              		.loc 1 328 0
 1417 06ba 4378     		ldrb	r3, [r0, #1]	@ zero_extendqisi2
 1418 06bc 2C2B     		cmp	r3, #44
 1419 06be 07D0     		beq	.L70
 330:..\../gps.c   ****     }
 1420              		.loc 1 330 0
 1421 06c0 2046     		mov	r0, r4
 1422 06c2 FFF7FEFF 		bl	atof
 1423              	.LVL191:
 1424 06c6 FFF7FEFF 		bl	__aeabi_d2f
 1425              	.LVL192:
 1426 06ca 1F4B     		ldr	r3, .L85
 1427 06cc C3F81001 		str	r0, [r3, #272]	@ float
 1428              	.L70:
 333:..\../gps.c   ****     if (',' != *p)
 1429              		.loc 1 333 0
 1430 06d0 2C21     		movs	r1, #44
 1431 06d2 2046     		mov	r0, r4
 1432 06d4 FFF7FEFF 		bl	strchr
 1433              	.LVL193:
 1434 06d8 421C     		adds	r2, r0, #1
 1435              	.LVL194:
 334:..\../gps.c   ****     {
 1436              		.loc 1 334 0
 1437 06da 4378     		ldrb	r3, [r0, #1]	@ zero_extendqisi2
 1438 06dc 2C2B     		cmp	r3, #44
 1439 06de 2FD0     		beq	.L79
 1440              	.LBB6:
 336:..\../gps.c   ****       day = fulldate / 10000;
 1441              		.loc 1 336 0
 1442 06e0 1046     		mov	r0, r2
 1443 06e2 FFF7FEFF 		bl	atof
 1444              	.LVL195:
 1445 06e6 FFF7FEFF 		bl	__aeabi_d2uiz
 1446              	.LVL196:
 337:..\../gps.c   ****       month = (fulldate % 10000) / 100;
 1447              		.loc 1 337 0
 1448 06ea 184B     		ldr	r3, .L85+4
 1449 06ec A3FB0023 		umull	r2, r3, r3, r0
ARM GAS  C:\Users\A85590\AppData\Local\Temp\ccILqQZe.s 			page 37


 1450 06f0 5B0B     		lsrs	r3, r3, #13
 1451 06f2 1549     		ldr	r1, .L85
 1452 06f4 81F80331 		strb	r3, [r1, #259]
 338:..\../gps.c   ****       year = (fulldate % 100);
 1453              		.loc 1 338 0
 1454 06f8 42F21072 		movw	r2, #10000
 1455 06fc 02FB1303 		mls	r3, r2, r3, r0
 1456 0700 134A     		ldr	r2, .L85+8
 1457 0702 A2FB0343 		umull	r4, r3, r2, r3
 1458 0706 5B09     		lsrs	r3, r3, #5
 1459 0708 81F80431 		strb	r3, [r1, #260]
 339:..\../gps.c   ****     }
 1460              		.loc 1 339 0
 1461 070c A2FB0023 		umull	r2, r3, r2, r0
 1462 0710 5B09     		lsrs	r3, r3, #5
 1463 0712 6422     		movs	r2, #100
 1464 0714 02FB1303 		mls	r3, r2, r3, r0
 1465 0718 81F80531 		strb	r3, [r1, #261]
 1466              	.LBE6:
 342:..\../gps.c   ****   }
 1467              		.loc 1 342 0
 1468 071c 0120     		movs	r0, #1
 1469              	.LVL197:
 1470 071e 10E0     		b	.L41
 1471              	.LVL198:
 1472              	.L71:
 1473              	.LBE4:
 1474              	.LBB7:
 101:..\../gps.c   ****     }
 1475              		.loc 1 101 0
 1476 0720 0020     		movs	r0, #0
 1477              	.LVL199:
 1478 0722 0EE0     		b	.L41
 1479              	.LVL200:
 1480              	.L72:
 1481              	.LBE7:
 1482              	.LBB8:
 154:..\../gps.c   ****       } // adjusted formatting of return
 1483              		.loc 1 154 0
 1484 0724 0020     		movs	r0, #0
 1485 0726 0CE0     		b	.L41
 1486              	.L73:
 189:..\../gps.c   ****     }
 1487              		.loc 1 189 0
 1488 0728 0020     		movs	r0, #0
 1489 072a 0AE0     		b	.L41
 1490              	.L74:
 222:..\../gps.c   ****   }
 1491              		.loc 1 222 0
 1492 072c 0120     		movs	r0, #1
 1493 072e 08E0     		b	.L41
 1494              	.LVL201:
 1495              	.L75:
 1496              	.LBE8:
 345:..\../gps.c   **** }
 1497              		.loc 1 345 0
 1498 0730 0020     		movs	r0, #0
ARM GAS  C:\Users\A85590\AppData\Local\Temp\ccILqQZe.s 			page 38


 1499 0732 06E0     		b	.L41
 1500              	.LVL202:
 1501              	.L76:
 1502              	.LBB9:
 246:..\../gps.c   **** 
 1503              		.loc 1 246 0
 1504 0734 0020     		movs	r0, #0
 1505 0736 04E0     		b	.L41
 1506              	.LVL203:
 1507              	.L77:
 280:..\../gps.c   ****       } // adjust formatting of return
 1508              		.loc 1 280 0
 1509 0738 0020     		movs	r0, #0
 1510 073a 02E0     		b	.L41
 1511              	.L78:
 316:..\../gps.c   ****       } // Formatting adjustment
 1512              		.loc 1 316 0
 1513 073c 0020     		movs	r0, #0
 1514 073e 00E0     		b	.L41
 1515              	.L79:
 342:..\../gps.c   ****   }
 1516              		.loc 1 342 0
 1517 0740 0120     		movs	r0, #1
 1518              	.LVL204:
 1519              	.L41:
 1520              	.LBE9:
 346:..\../gps.c   **** 
 1521              		.loc 1 346 0
 1522 0742 04B0     		add	sp, sp, #16
 1523              		.cfi_def_cfa_offset 24
 1524              		@ sp needed
 1525 0744 BDE8F081 		pop	{r4, r5, r6, r7, r8, pc}
 1526              	.L86:
 1527              		.align	2
 1528              	.L85:
 1529 0748 00000000 		.word	.LANCHOR1
 1530 074c 5917B7D1 		.word	-776530087
 1531 0750 1F85EB51 		.word	1374389535
 1532              		.cfi_endproc
 1533              	.LFE65:
 1534              		.size	GPS_parse, .-GPS_parse
 1535              		.section	.text.GPS_waitForSentence,"ax",%progbits
 1536              		.align	2
 1537              		.global	GPS_waitForSentence
 1538              		.thumb
 1539              		.thumb_func
 1540              		.type	GPS_waitForSentence, %function
 1541              	GPS_waitForSentence:
 1542              	.LFB74:
 446:..\../gps.c   **** 
 447:..\../gps.c   **** uint8_t GPS_waitForSentence(const char *wait4me, uint8_t max)
 448:..\../gps.c   **** {
 1543              		.loc 1 448 0
 1544              		.cfi_startproc
 1545              		@ args = 0, pretend = 0, frame = 24
 1546              		@ frame_needed = 0, uses_anonymous_args = 0
 1547              	.LVL205:
ARM GAS  C:\Users\A85590\AppData\Local\Temp\ccILqQZe.s 			page 39


 1548 0000 70B5     		push	{r4, r5, r6, lr}
 1549              		.cfi_def_cfa_offset 16
 1550              		.cfi_offset 4, -16
 1551              		.cfi_offset 5, -12
 1552              		.cfi_offset 6, -8
 1553              		.cfi_offset 14, -4
 1554 0002 86B0     		sub	sp, sp, #24
 1555              		.cfi_def_cfa_offset 40
 1556 0004 0646     		mov	r6, r0
 1557 0006 0D46     		mov	r5, r1
 1558              	.LVL206:
 449:..\../gps.c   ****   char str[20];
 450:..\../gps.c   **** 
 451:..\../gps.c   ****   uint8_t i = 0;
 1559              		.loc 1 451 0
 1560 0008 0024     		movs	r4, #0
 452:..\../gps.c   ****   while (i < max)
 1561              		.loc 1 452 0
 1562 000a 13E0     		b	.L89
 1563              	.LVL207:
 1564              	.L91:
 453:..\../gps.c   ****   {
 454:..\../gps.c   ****     if (GPS_newNMEAreceived())
 1565              		.loc 1 454 0
 1566 000c FFF7FEFF 		bl	GPS_newNMEAreceived
 1567              	.LVL208:
 1568 0010 80B1     		cbz	r0, .L89
 1569              	.LBB10:
 455:..\../gps.c   ****     {
 456:..\../gps.c   ****       char *nmea = GPS_lastNMEA();
 1570              		.loc 1 456 0
 1571 0012 FFF7FEFF 		bl	GPS_lastNMEA
 1572              	.LVL209:
 457:..\../gps.c   ****       strncpy(str, nmea, 20);
 1573              		.loc 1 457 0
 1574 0016 1422     		movs	r2, #20
 1575 0018 0146     		mov	r1, r0
 1576 001a 01A8     		add	r0, sp, #4
 1577              	.LVL210:
 1578 001c FFF7FEFF 		bl	strncpy
 1579              	.LVL211:
 458:..\../gps.c   ****       str[19] = 0;
 1580              		.loc 1 458 0
 1581 0020 0023     		movs	r3, #0
 1582 0022 8DF81730 		strb	r3, [sp, #23]
 459:..\../gps.c   ****       i++;
 1583              		.loc 1 459 0
 1584 0026 0134     		adds	r4, r4, #1
 1585              	.LVL212:
 1586 0028 E4B2     		uxtb	r4, r4
 1587              	.LVL213:
 460:..\../gps.c   **** 
 461:..\../gps.c   ****       if (strstr(str, wait4me))
 1588              		.loc 1 461 0
 1589 002a 3146     		mov	r1, r6
 1590 002c 01A8     		add	r0, sp, #4
 1591 002e FFF7FEFF 		bl	strstr
ARM GAS  C:\Users\A85590\AppData\Local\Temp\ccILqQZe.s 			page 40


 1592              	.LVL214:
 1593 0032 18B9     		cbnz	r0, .L92
 1594              	.LVL215:
 1595              	.L89:
 1596              	.LBE10:
 452:..\../gps.c   ****   {
 1597              		.loc 1 452 0
 1598 0034 AC42     		cmp	r4, r5
 1599 0036 E9D3     		bcc	.L91
 462:..\../gps.c   ****         return true;
 463:..\../gps.c   ****     }
 464:..\../gps.c   ****   }
 465:..\../gps.c   **** 
 466:..\../gps.c   ****   return false;
 1600              		.loc 1 466 0
 1601 0038 0020     		movs	r0, #0
 1602 003a 00E0     		b	.L90
 1603              	.L92:
 1604              	.LBB11:
 462:..\../gps.c   ****         return true;
 1605              		.loc 1 462 0
 1606 003c 0120     		movs	r0, #1
 1607              	.L90:
 1608              	.LBE11:
 467:..\../gps.c   **** }
 1609              		.loc 1 467 0
 1610 003e 06B0     		add	sp, sp, #24
 1611              		.cfi_def_cfa_offset 16
 1612              		@ sp needed
 1613 0040 70BD     		pop	{r4, r5, r6, pc}
 1614              		.cfi_endproc
 1615              	.LFE74:
 1616              		.size	GPS_waitForSentence, .-GPS_waitForSentence
 1617 0042 00BF     		.section	.text.GPS_LOCUS_StartLogger,"ax",%progbits
 1618              		.align	2
 1619              		.global	GPS_LOCUS_StartLogger
 1620              		.thumb
 1621              		.thumb_func
 1622              		.type	GPS_LOCUS_StartLogger, %function
 1623              	GPS_LOCUS_StartLogger:
 1624              	.LFB75:
 468:..\../gps.c   **** 
 469:..\../gps.c   **** uint8_t GPS_LOCUS_StartLogger(void)
 470:..\../gps.c   **** {
 1625              		.loc 1 470 0
 1626              		.cfi_startproc
 1627              		@ args = 0, pretend = 0, frame = 0
 1628              		@ frame_needed = 0, uses_anonymous_args = 0
 1629 0000 08B5     		push	{r3, lr}
 1630              		.cfi_def_cfa_offset 8
 1631              		.cfi_offset 3, -8
 1632              		.cfi_offset 14, -4
 471:..\../gps.c   ****   GPS_sendCommand(PMTK_LOCUS_STARTLOG);
 1633              		.loc 1 471 0
 1634 0002 0648     		ldr	r0, .L96
 1635 0004 FFF7FEFF 		bl	GPS_sendCommand
 1636              	.LVL216:
ARM GAS  C:\Users\A85590\AppData\Local\Temp\ccILqQZe.s 			page 41


 472:..\../gps.c   ****   recvdflag = false;
 1637              		.loc 1 472 0
 1638 0008 0022     		movs	r2, #0
 1639 000a 054B     		ldr	r3, .L96+4
 1640 000c 83F80021 		strb	r2, [r3, #256]
 473:..\../gps.c   ****   return GPS_waitForSentence(PMTK_LOCUS_STARTSTOPACK, MAXWAITSENTENCE);
 1641              		.loc 1 473 0
 1642 0010 0521     		movs	r1, #5
 1643 0012 0448     		ldr	r0, .L96+8
 1644 0014 FFF7FEFF 		bl	GPS_waitForSentence
 1645              	.LVL217:
 474:..\../gps.c   **** }
 1646              		.loc 1 474 0
 1647 0018 08BD     		pop	{r3, pc}
 1648              	.L97:
 1649 001a 00BF     		.align	2
 1650              	.L96:
 1651 001c 10000000 		.word	.LC2
 1652 0020 00000000 		.word	.LANCHOR1
 1653 0024 20000000 		.word	.LC3
 1654              		.cfi_endproc
 1655              	.LFE75:
 1656              		.size	GPS_LOCUS_StartLogger, .-GPS_LOCUS_StartLogger
 1657              		.section	.text.GPS_LOCUS_StopLogger,"ax",%progbits
 1658              		.align	2
 1659              		.global	GPS_LOCUS_StopLogger
 1660              		.thumb
 1661              		.thumb_func
 1662              		.type	GPS_LOCUS_StopLogger, %function
 1663              	GPS_LOCUS_StopLogger:
 1664              	.LFB76:
 475:..\../gps.c   **** 
 476:..\../gps.c   **** uint8_t GPS_LOCUS_StopLogger(void)
 477:..\../gps.c   **** {
 1665              		.loc 1 477 0
 1666              		.cfi_startproc
 1667              		@ args = 0, pretend = 0, frame = 0
 1668              		@ frame_needed = 0, uses_anonymous_args = 0
 1669 0000 08B5     		push	{r3, lr}
 1670              		.cfi_def_cfa_offset 8
 1671              		.cfi_offset 3, -8
 1672              		.cfi_offset 14, -4
 478:..\../gps.c   ****   GPS_sendCommand(PMTK_LOCUS_STOPLOG);
 1673              		.loc 1 478 0
 1674 0002 0648     		ldr	r0, .L100
 1675 0004 FFF7FEFF 		bl	GPS_sendCommand
 1676              	.LVL218:
 479:..\../gps.c   ****   recvdflag = false;
 1677              		.loc 1 479 0
 1678 0008 0022     		movs	r2, #0
 1679 000a 054B     		ldr	r3, .L100+4
 1680 000c 83F80021 		strb	r2, [r3, #256]
 480:..\../gps.c   ****   return GPS_waitForSentence(PMTK_LOCUS_STARTSTOPACK, MAXWAITSENTENCE);
 1681              		.loc 1 480 0
 1682 0010 0521     		movs	r1, #5
 1683 0012 0448     		ldr	r0, .L100+8
 1684 0014 FFF7FEFF 		bl	GPS_waitForSentence
ARM GAS  C:\Users\A85590\AppData\Local\Temp\ccILqQZe.s 			page 42


 1685              	.LVL219:
 481:..\../gps.c   **** }
 1686              		.loc 1 481 0
 1687 0018 08BD     		pop	{r3, pc}
 1688              	.L101:
 1689 001a 00BF     		.align	2
 1690              	.L100:
 1691 001c 34000000 		.word	.LC4
 1692 0020 00000000 		.word	.LANCHOR1
 1693 0024 20000000 		.word	.LC3
 1694              		.cfi_endproc
 1695              	.LFE76:
 1696              		.size	GPS_LOCUS_StopLogger, .-GPS_LOCUS_StopLogger
 1697              		.section	.text.GPS_LOCUS_ReadStatus,"ax",%progbits
 1698              		.align	2
 1699              		.global	GPS_LOCUS_ReadStatus
 1700              		.thumb
 1701              		.thumb_func
 1702              		.type	GPS_LOCUS_ReadStatus, %function
 1703              	GPS_LOCUS_ReadStatus:
 1704              	.LFB77:
 482:..\../gps.c   **** 
 483:..\../gps.c   **** uint8_t GPS_LOCUS_ReadStatus(void)
 484:..\../gps.c   **** {
 1705              		.loc 1 484 0
 1706              		.cfi_startproc
 1707              		@ args = 0, pretend = 0, frame = 24
 1708              		@ frame_needed = 0, uses_anonymous_args = 0
 1709 0000 70B5     		push	{r4, r5, r6, lr}
 1710              		.cfi_def_cfa_offset 16
 1711              		.cfi_offset 4, -16
 1712              		.cfi_offset 5, -12
 1713              		.cfi_offset 6, -8
 1714              		.cfi_offset 14, -4
 1715 0002 86B0     		sub	sp, sp, #24
 1716              		.cfi_def_cfa_offset 40
 485:..\../gps.c   ****   GPS_sendCommand(PMTK_LOCUS_QUERY_STATUS);
 1717              		.loc 1 485 0
 1718 0004 2C48     		ldr	r0, .L115
 1719 0006 FFF7FEFF 		bl	GPS_sendCommand
 1720              	.LVL220:
 486:..\../gps.c   **** 
 487:..\../gps.c   ****   if (!GPS_waitForSentence("$PMTKLOG", MAXWAITSENTENCE))
 1721              		.loc 1 487 0
 1722 000a 0521     		movs	r1, #5
 1723 000c 2B48     		ldr	r0, .L115+4
 1724 000e FFF7FEFF 		bl	GPS_waitForSentence
 1725              	.LVL221:
 1726 0012 0346     		mov	r3, r0
 1727 0014 0028     		cmp	r0, #0
 1728 0016 4BD0     		beq	.L103
 488:..\../gps.c   ****     return false;
 489:..\../gps.c   **** 
 490:..\../gps.c   ****   char *response = GPS_lastNMEA();
 1729              		.loc 1 490 0
 1730 0018 FFF7FEFF 		bl	GPS_lastNMEA
 1731              	.LVL222:
ARM GAS  C:\Users\A85590\AppData\Local\Temp\ccILqQZe.s 			page 43


 491:..\../gps.c   ****   uint16_t parsed[10];
 492:..\../gps.c   ****   uint8_t i;
 493:..\../gps.c   **** 
 494:..\../gps.c   ****   for (i = 0; i < 10; i++)
 1732              		.loc 1 494 0
 1733 001c 0023     		movs	r3, #0
 1734 001e 08E0     		b	.L104
 1735              	.LVL223:
 1736              	.L105:
 495:..\../gps.c   ****     parsed[i] = -1;
 1737              		.loc 1 495 0 discriminator 3
 1738 0020 06AA     		add	r2, sp, #24
 1739 0022 02EB4302 		add	r2, r2, r3, lsl #1
 1740 0026 4FF6FF71 		movw	r1, #65535
 1741 002a 22F8141C 		strh	r1, [r2, #-20]	@ movhi
 494:..\../gps.c   ****     parsed[i] = -1;
 1742              		.loc 1 494 0 discriminator 3
 1743 002e 0133     		adds	r3, r3, #1
 1744              	.LVL224:
 1745 0030 DBB2     		uxtb	r3, r3
 1746              	.LVL225:
 1747              	.L104:
 494:..\../gps.c   ****     parsed[i] = -1;
 1748              		.loc 1 494 0 is_stmt 0 discriminator 1
 1749 0032 092B     		cmp	r3, #9
 1750 0034 F4D9     		bls	.L105
 496:..\../gps.c   **** 
 497:..\../gps.c   ****   response = strchr(response, ',');
 1751              		.loc 1 497 0 is_stmt 1
 1752 0036 2C21     		movs	r1, #44
 1753 0038 FFF7FEFF 		bl	strchr
 1754              	.LVL226:
 498:..\../gps.c   ****   for (i = 0; i < 10; i++)
 1755              		.loc 1 498 0
 1756 003c 0026     		movs	r6, #0
 1757 003e 34E0     		b	.L106
 1758              	.LVL227:
 1759              	.L113:
 499:..\../gps.c   ****   {
 500:..\../gps.c   ****     if (!response || (response[0] == 0) || (response[0] == '*'))
 1760              		.loc 1 500 0
 1761 0040 0028     		cmp	r0, #0
 1762 0042 34D0     		beq	.L107
 1763              		.loc 1 500 0 is_stmt 0 discriminator 1
 1764 0044 0378     		ldrb	r3, [r0]	@ zero_extendqisi2
 1765 0046 93B3     		cbz	r3, .L107
 1766              		.loc 1 500 0 discriminator 2
 1767 0048 2A2B     		cmp	r3, #42
 1768 004a 30D0     		beq	.L107
 501:..\../gps.c   ****       break;
 502:..\../gps.c   ****     response++;
 1769              		.loc 1 502 0 is_stmt 1
 1770 004c 0130     		adds	r0, r0, #1
 1771              	.LVL228:
 503:..\../gps.c   ****     parsed[i] = 0;
 1772              		.loc 1 503 0
 1773 004e 3546     		mov	r5, r6
ARM GAS  C:\Users\A85590\AppData\Local\Temp\ccILqQZe.s 			page 44


 1774 0050 0022     		movs	r2, #0
 1775 0052 06AB     		add	r3, sp, #24
 1776 0054 03EB4603 		add	r3, r3, r6, lsl #1
 1777 0058 23F8142C 		strh	r2, [r3, #-20]	@ movhi
 504:..\../gps.c   ****     while ((response[0] != ',') &&
 1778              		.loc 1 504 0
 1779 005c 1CE0     		b	.L108
 1780              	.L112:
 1781              	.LBB12:
 505:..\../gps.c   ****            (response[0] != '*') && (response[0] != 0))
 506:..\../gps.c   ****     {
 507:..\../gps.c   ****       parsed[i] *= 10;
 1782              		.loc 1 507 0
 1783 005e 06AA     		add	r2, sp, #24
 1784 0060 02EB4504 		add	r4, r2, r5, lsl #1
 1785 0064 34F8142C 		ldrh	r2, [r4, #-20]
 1786 0068 02EB8202 		add	r2, r2, r2, lsl #2
 1787 006c 5100     		lsls	r1, r2, #1
 1788 006e 89B2     		uxth	r1, r1
 1789 0070 24F8141C 		strh	r1, [r4, #-20]	@ movhi
 1790              	.LVL229:
 508:..\../gps.c   ****       char c = response[0];
 509:..\../gps.c   ****       if (isdigit((int)c))
 1791              		.loc 1 509 0
 1792 0074 124A     		ldr	r2, .L115+8
 1793 0076 1268     		ldr	r2, [r2]
 1794 0078 1A44     		add	r2, r2, r3
 1795 007a 5278     		ldrb	r2, [r2, #1]	@ zero_extendqisi2
 1796 007c 12F0040F 		tst	r2, #4
 1797 0080 04D0     		beq	.L109
 510:..\../gps.c   ****         parsed[i] += c - '0';
 1798              		.loc 1 510 0
 1799 0082 0B44     		add	r3, r3, r1
 1800              	.LVL230:
 1801 0084 303B     		subs	r3, r3, #48
 1802 0086 24F8143C 		strh	r3, [r4, #-20]	@ movhi
 1803 008a 04E0     		b	.L110
 1804              	.LVL231:
 1805              	.L109:
 511:..\../gps.c   ****       else
 512:..\../gps.c   ****         parsed[i] = c;
 1806              		.loc 1 512 0
 1807 008c 06AA     		add	r2, sp, #24
 1808 008e 02EB4502 		add	r2, r2, r5, lsl #1
 1809 0092 22F8143C 		strh	r3, [r2, #-20]	@ movhi
 1810              	.LVL232:
 1811              	.L110:
 513:..\../gps.c   ****       response++;
 1812              		.loc 1 513 0
 1813 0096 0130     		adds	r0, r0, #1
 1814              	.LVL233:
 1815              	.L108:
 1816              	.LBE12:
 504:..\../gps.c   ****            (response[0] != '*') && (response[0] != 0))
 1817              		.loc 1 504 0
 1818 0098 0378     		ldrb	r3, [r0]	@ zero_extendqisi2
 1819 009a 2C2B     		cmp	r3, #44
ARM GAS  C:\Users\A85590\AppData\Local\Temp\ccILqQZe.s 			page 45


 1820 009c 03D0     		beq	.L111
 504:..\../gps.c   ****            (response[0] != '*') && (response[0] != 0))
 1821              		.loc 1 504 0 is_stmt 0 discriminator 1
 1822 009e 2A2B     		cmp	r3, #42
 1823 00a0 01D0     		beq	.L111
 505:..\../gps.c   ****     {
 1824              		.loc 1 505 0 is_stmt 1
 1825 00a2 002B     		cmp	r3, #0
 1826 00a4 DBD1     		bne	.L112
 1827              	.L111:
 498:..\../gps.c   ****   {
 1828              		.loc 1 498 0 discriminator 2
 1829 00a6 0136     		adds	r6, r6, #1
 1830              	.LVL234:
 1831 00a8 F6B2     		uxtb	r6, r6
 1832              	.LVL235:
 1833              	.L106:
 498:..\../gps.c   ****   {
 1834              		.loc 1 498 0 is_stmt 0 discriminator 1
 1835 00aa 092E     		cmp	r6, #9
 1836 00ac C8D9     		bls	.L113
 1837              	.L107:
 514:..\../gps.c   ****     }
 515:..\../gps.c   ****   }
 516:..\../gps.c   ****   LOCUS_serial = parsed[0];
 517:..\../gps.c   ****   LOCUS_type = parsed[1];
 518:..\../gps.c   ****   if (isalpha(parsed[2]))
 519:..\../gps.c   ****   {
 520:..\../gps.c   ****     parsed[2] = parsed[2] - 'a' + 10;
 521:..\../gps.c   ****   }
 522:..\../gps.c   ****   LOCUS_mode = parsed[2];
 523:..\../gps.c   ****   LOCUS_config = parsed[3];
 524:..\../gps.c   ****   LOCUS_interval = parsed[4];
 525:..\../gps.c   ****   LOCUS_distance = parsed[5];
 526:..\../gps.c   ****   LOCUS_speed = parsed[6];
 527:..\../gps.c   ****   LOCUS_status = !parsed[7];
 528:..\../gps.c   ****   LOCUS_records = parsed[8];
 529:..\../gps.c   ****   LOCUS_percent = parsed[9];
 530:..\../gps.c   **** 
 531:..\../gps.c   ****   return true;
 1838              		.loc 1 531 0 is_stmt 1
 1839 00ae 0123     		movs	r3, #1
 1840              	.LVL236:
 1841              	.L103:
 532:..\../gps.c   **** }
 1842              		.loc 1 532 0
 1843 00b0 1846     		mov	r0, r3
 1844 00b2 06B0     		add	sp, sp, #24
 1845              		.cfi_def_cfa_offset 16
 1846              		@ sp needed
 1847 00b4 70BD     		pop	{r4, r5, r6, pc}
 1848              	.L116:
 1849 00b6 00BF     		.align	2
 1850              	.L115:
 1851 00b8 44000000 		.word	.LC5
 1852 00bc 50000000 		.word	.LC6
 1853 00c0 00000000 		.word	__ctype_ptr__
ARM GAS  C:\Users\A85590\AppData\Local\Temp\ccILqQZe.s 			page 46


 1854              		.cfi_endproc
 1855              	.LFE77:
 1856              		.size	GPS_LOCUS_ReadStatus, .-GPS_LOCUS_ReadStatus
 1857              		.section	.text.GPS_standby,"ax",%progbits
 1858              		.align	2
 1859              		.global	GPS_standby
 1860              		.thumb
 1861              		.thumb_func
 1862              		.type	GPS_standby, %function
 1863              	GPS_standby:
 1864              	.LFB78:
 533:..\../gps.c   **** 
 534:..\../gps.c   **** // Standby Mode Switches
 535:..\../gps.c   **** uint8_t GPS_standby(void)
 536:..\../gps.c   **** {
 1865              		.loc 1 536 0
 1866              		.cfi_startproc
 1867              		@ args = 0, pretend = 0, frame = 0
 1868              		@ frame_needed = 0, uses_anonymous_args = 0
 537:..\../gps.c   ****   if (inStandbyMode)
 1869              		.loc 1 537 0
 1870 0000 084B     		ldr	r3, .L122
 1871 0002 93F82C31 		ldrb	r3, [r3, #300]	@ zero_extendqisi2
 1872 0006 13F0FF0F 		tst	r3, #255
 1873 000a 09D1     		bne	.L119
 536:..\../gps.c   ****   if (inStandbyMode)
 1874              		.loc 1 536 0
 1875 000c 10B5     		push	{r4, lr}
 1876              		.cfi_def_cfa_offset 8
 1877              		.cfi_offset 4, -8
 1878              		.cfi_offset 14, -4
 538:..\../gps.c   ****   {
 539:..\../gps.c   ****     return false; // Returns false if already in standby mode, so that you do not wake it up by sen
 540:..\../gps.c   ****   }
 541:..\../gps.c   ****   else
 542:..\../gps.c   ****   {
 543:..\../gps.c   ****     inStandbyMode = true;
 1879              		.loc 1 543 0
 1880 000e 0124     		movs	r4, #1
 1881 0010 044B     		ldr	r3, .L122
 1882 0012 83F82C41 		strb	r4, [r3, #300]
 544:..\../gps.c   ****     GPS_sendCommand(PMTK_STANDBY);
 1883              		.loc 1 544 0
 1884 0016 0448     		ldr	r0, .L122+4
 1885 0018 FFF7FEFF 		bl	GPS_sendCommand
 1886              	.LVL237:
 545:..\../gps.c   ****     //return waitForSentence(PMTK_STANDBY_SUCCESS);  // don't seem to be fast enough to catch the m
 546:..\../gps.c   ****     return true;
 1887              		.loc 1 546 0
 1888 001c 2046     		mov	r0, r4
 1889 001e 10BD     		pop	{r4, pc}
 1890              	.L119:
 1891              		.cfi_def_cfa_offset 0
 1892              		.cfi_restore 4
 1893              		.cfi_restore 14
 539:..\../gps.c   ****   }
 1894              		.loc 1 539 0
ARM GAS  C:\Users\A85590\AppData\Local\Temp\ccILqQZe.s 			page 47


 1895 0020 0020     		movs	r0, #0
 1896 0022 7047     		bx	lr
 1897              	.L123:
 1898              		.align	2
 1899              	.L122:
 1900 0024 00000000 		.word	.LANCHOR1
 1901 0028 5C000000 		.word	.LC7
 1902              		.cfi_endproc
 1903              	.LFE78:
 1904              		.size	GPS_standby, .-GPS_standby
 1905              		.section	.text.GPS_wakeup,"ax",%progbits
 1906              		.align	2
 1907              		.global	GPS_wakeup
 1908              		.thumb
 1909              		.thumb_func
 1910              		.type	GPS_wakeup, %function
 1911              	GPS_wakeup:
 1912              	.LFB79:
 547:..\../gps.c   ****   }
 548:..\../gps.c   **** }
 549:..\../gps.c   **** 
 550:..\../gps.c   **** uint8_t GPS_wakeup(void)
 551:..\../gps.c   **** {
 1913              		.loc 1 551 0
 1914              		.cfi_startproc
 1915              		@ args = 0, pretend = 0, frame = 0
 1916              		@ frame_needed = 0, uses_anonymous_args = 0
 1917 0000 08B5     		push	{r3, lr}
 1918              		.cfi_def_cfa_offset 8
 1919              		.cfi_offset 3, -8
 1920              		.cfi_offset 14, -4
 552:..\../gps.c   ****   if (inStandbyMode)
 1921              		.loc 1 552 0
 1922 0002 094B     		ldr	r3, .L127
 1923 0004 93F82C31 		ldrb	r3, [r3, #300]	@ zero_extendqisi2
 1924 0008 03F0FF00 		and	r0, r3, #255
 1925 000c 53B1     		cbz	r3, .L125
 553:..\../gps.c   ****   {
 554:..\../gps.c   ****     inStandbyMode = false;
 1926              		.loc 1 554 0
 1927 000e 0022     		movs	r2, #0
 1928 0010 054B     		ldr	r3, .L127
 1929 0012 83F82C21 		strb	r2, [r3, #300]
 555:..\../gps.c   ****     GPS_sendCommand(""); // send byte to wake it up
 1930              		.loc 1 555 0
 1931 0016 0548     		ldr	r0, .L127+4
 1932 0018 FFF7FEFF 		bl	GPS_sendCommand
 1933              	.LVL238:
 556:..\../gps.c   ****     return GPS_waitForSentence(PMTK_AWAKE, MAXWAITSENTENCE);
 1934              		.loc 1 556 0
 1935 001c 0521     		movs	r1, #5
 1936 001e 0448     		ldr	r0, .L127+8
 1937 0020 FFF7FEFF 		bl	GPS_waitForSentence
 1938              	.LVL239:
 1939              	.L125:
 557:..\../gps.c   ****   }
 558:..\../gps.c   ****   else
ARM GAS  C:\Users\A85590\AppData\Local\Temp\ccILqQZe.s 			page 48


 559:..\../gps.c   ****   {
 560:..\../gps.c   ****     return false; // Returns false if not in standby mode, nothing to wakeup
 561:..\../gps.c   ****   }
 562:..\../gps.c   **** }
 1940              		.loc 1 562 0
 1941 0024 08BD     		pop	{r3, pc}
 1942              	.L128:
 1943 0026 00BF     		.align	2
 1944              	.L127:
 1945 0028 00000000 		.word	.LANCHOR1
 1946 002c 6C000000 		.word	.LC8
 1947 0030 70000000 		.word	.LC9
 1948              		.cfi_endproc
 1949              	.LFE79:
 1950              		.size	GPS_wakeup, .-GPS_wakeup
 1951              		.section	.text.GPS_start,"ax",%progbits
 1952              		.align	2
 1953              		.global	GPS_start
 1954              		.thumb
 1955              		.thumb_func
 1956              		.type	GPS_start, %function
 1957              	GPS_start:
 1958              	.LFB80:
 563:..\../gps.c   **** 
 564:..\../gps.c   **** uint8_t GPS_start()
 565:..\../gps.c   **** {
 1959              		.loc 1 565 0
 1960              		.cfi_startproc
 1961              		@ args = 0, pretend = 0, frame = 0
 1962              		@ frame_needed = 0, uses_anonymous_args = 0
 1963 0000 08B5     		push	{r3, lr}
 1964              		.cfi_def_cfa_offset 8
 1965              		.cfi_offset 3, -8
 1966              		.cfi_offset 14, -4
 566:..\../gps.c   ****   // uncomment this line to turn on RMC (recommended minimum) and GGA (fix data) including altitude
 567:..\../gps.c   ****   GPS_sendCommand(PMTK_SET_NMEA_OUTPUT_RMCGGA);
 1967              		.loc 1 567 0
 1968 0002 0648     		ldr	r0, .L131
 1969 0004 FFF7FEFF 		bl	GPS_sendCommand
 1970              	.LVL240:
 568:..\../gps.c   ****   // uncomment this line to turn on only the "minimum recommended" data
 569:..\../gps.c   ****   //GPS.sendCommand(PMTK_SET_NMEA_OUTPUT_RMCONLY);
 570:..\../gps.c   ****   // For parsing data, we don't suggest using anything but either RMC only or RMC+GGA since
 571:..\../gps.c   ****   // the parser doesn't care about other sentences at this time
 572:..\../gps.c   ****   // Set the update rate
 573:..\../gps.c   ****   GPS_sendCommand(PMTK_SET_NMEA_UPDATE_1HZ); // 5 Hz update rate
 1971              		.loc 1 573 0
 1972 0008 0548     		ldr	r0, .L131+4
 1973 000a FFF7FEFF 		bl	GPS_sendCommand
 1974              	.LVL241:
 574:..\../gps.c   ****   // For the parsing code to work nicely and have time to sort thru the data, and
 575:..\../gps.c   ****   // print it out we don't suggest using anything higher than 1 Hz
 576:..\../gps.c   **** 
 577:..\../gps.c   ****   // Request updates on antenna status, comment out to keep quiet
 578:..\../gps.c   ****   //GPS_sendCommand(PGCMD_ANTENNA);
 579:..\../gps.c   **** 
 580:..\../gps.c   ****   CyDelay(1000);
ARM GAS  C:\Users\A85590\AppData\Local\Temp\ccILqQZe.s 			page 49


 1975              		.loc 1 580 0
 1976 000e 4FF47A70 		mov	r0, #1000
 1977 0012 FFF7FEFF 		bl	CyDelay
 1978              	.LVL242:
 581:..\../gps.c   **** 
 582:..\../gps.c   ****   // Ask for firmware version
 583:..\../gps.c   ****   //GPSSerial_println(PMTK_Q_RELEASE);
 584:..\../gps.c   ****   return 1;
 585:..\../gps.c   **** }
 1979              		.loc 1 585 0
 1980 0016 0120     		movs	r0, #1
 1981 0018 08BD     		pop	{r3, pc}
 1982              	.L132:
 1983 001a 00BF     		.align	2
 1984              	.L131:
 1985 001c 80000000 		.word	.LC10
 1986 0020 B4000000 		.word	.LC11
 1987              		.cfi_endproc
 1988              	.LFE80:
 1989              		.size	GPS_start, .-GPS_start
 1990              		.section	.text.GPS_update,"ax",%progbits
 1991              		.align	2
 1992              		.global	GPS_update
 1993              		.thumb
 1994              		.thumb_func
 1995              		.type	GPS_update, %function
 1996              	GPS_update:
 1997              	.LFB81:
 586:..\../gps.c   **** 
 587:..\../gps.c   **** 
 588:..\../gps.c   **** 
 589:..\../gps.c   **** uint8_t GPS_update()
 590:..\../gps.c   **** {
 1998              		.loc 1 590 0
 1999              		.cfi_startproc
 2000              		@ args = 0, pretend = 0, frame = 0
 2001              		@ frame_needed = 0, uses_anonymous_args = 0
 2002 0000 08B5     		push	{r3, lr}
 2003              		.cfi_def_cfa_offset 8
 2004              		.cfi_offset 3, -8
 2005              		.cfi_offset 14, -4
 591:..\../gps.c   ****   //This function will be used to update the GPS data
 592:..\../gps.c   ****   // read data from the GPS in the 'main loop'
 593:..\../gps.c   ****   char c = GPS_read();
 2006              		.loc 1 593 0
 2007 0002 FFF7FEFF 		bl	GPS_read
 2008              	.LVL243:
 594:..\../gps.c   ****   //char c = gpsSerial_GetByte();
 595:..\../gps.c   ****   //GPS_read();
 596:..\../gps.c   ****   // if you want to debug, this is a good time to do it!
 597:..\../gps.c   ****   /**/
 598:..\../gps.c   ****   if (GPSECHO)
 2009              		.loc 1 598 0
 2010 0006 2B4B     		ldr	r3, .L139
 2011 0008 1B78     		ldrb	r3, [r3]	@ zero_extendqisi2
 2012 000a 13B1     		cbz	r3, .L134
 599:..\../gps.c   ****     {if(c)serial_printChar(c);}
ARM GAS  C:\Users\A85590\AppData\Local\Temp\ccILqQZe.s 			page 50


 2013              		.loc 1 599 0
 2014 000c 08B1     		cbz	r0, .L134
 2015              		.loc 1 599 0 is_stmt 0 discriminator 1
 2016 000e FFF7FEFF 		bl	serial_printChar
 2017              	.LVL244:
 2018              	.L134:
 600:..\../gps.c   ****   /**/
 601:..\../gps.c   **** 
 602:..\../gps.c   ****   // if a sentence is received, we can check the checksum, parse it...
 603:..\../gps.c   ****   if (GPS_newNMEAreceived())
 2019              		.loc 1 603 0 is_stmt 1
 2020 0012 FFF7FEFF 		bl	GPS_newNMEAreceived
 2021              	.LVL245:
 2022 0016 0028     		cmp	r0, #0
 2023 0018 47D0     		beq	.L136
 604:..\../gps.c   ****   {
 605:..\../gps.c   ****     // a tricky thing here is if we print the NMEA sentence, or data
 606:..\../gps.c   ****     // we end up not listening and catching other sentences!
 607:..\../gps.c   ****     // so be very wary if using OUTPUT_ALLDATA and trytng to print out data
 608:..\../gps.c   ****     //serial_println(GPS_lastNMEA()); // this also sets the newNMEAreceived() flag to false
 609:..\../gps.c   **** 
 610:..\../gps.c   ****     if (!GPS_parse(GPS_lastNMEA())) // this also sets the newNMEAreceived() flag to false
 2024              		.loc 1 610 0
 2025 001a FFF7FEFF 		bl	GPS_lastNMEA
 2026              	.LVL246:
 2027 001e FFF7FEFF 		bl	GPS_parse
 2028              	.LVL247:
 2029 0022 0346     		mov	r3, r0
 2030 0024 0028     		cmp	r0, #0
 2031 0026 43D0     		beq	.L135
 611:..\../gps.c   ****     {
 612:..\../gps.c   ****       return 0; // we can fail to parse a sentence in A case we should just wait for another
 613:..\../gps.c   ****     }
 614:..\../gps.c   ****     //if parsed successfully,
 615:..\../gps.c   ****     //save and print all of the important information for us to see
 616:..\../gps.c   **** 
 617:..\../gps.c   ****     GPS.millisTimeStamp = millis(); //get a timestamp
 2032              		.loc 1 617 0
 2033 0028 FFF7FEFF 		bl	millis
 2034              	.LVL248:
 2035 002c 224B     		ldr	r3, .L139+4
 2036 002e 1864     		str	r0, [r3, #64]
 618:..\../gps.c   **** 
 619:..\../gps.c   ****     GPS.hour = hour;
 2037              		.loc 1 619 0
 2038 0030 224A     		ldr	r2, .L139+8
 2039 0032 92F80811 		ldrb	r1, [r2, #264]	@ zero_extendqisi2
 2040 0036 1970     		strb	r1, [r3]
 620:..\../gps.c   ****     GPS.minute = minute;
 2041              		.loc 1 620 0
 2042 0038 92F80711 		ldrb	r1, [r2, #263]	@ zero_extendqisi2
 2043 003c 5970     		strb	r1, [r3, #1]
 621:..\../gps.c   ****     GPS.seconds = seconds;
 2044              		.loc 1 621 0
 2045 003e 92F80611 		ldrb	r1, [r2, #262]	@ zero_extendqisi2
 2046 0042 9970     		strb	r1, [r3, #2]
 622:..\../gps.c   ****     GPS.milliseconds = milliseconds;
ARM GAS  C:\Users\A85590\AppData\Local\Temp\ccILqQZe.s 			page 51


 2047              		.loc 1 622 0
 2048 0044 B2F80C11 		ldrh	r1, [r2, #268]
 2049 0048 D980     		strh	r1, [r3, #6]	@ movhi
 623:..\../gps.c   **** 
 624:..\../gps.c   ****     GPS.day = day;
 2050              		.loc 1 624 0
 2051 004a 92F80311 		ldrb	r1, [r2, #259]	@ zero_extendqisi2
 2052 004e 5971     		strb	r1, [r3, #5]
 625:..\../gps.c   ****     GPS.month = month;
 2053              		.loc 1 625 0
 2054 0050 92F80411 		ldrb	r1, [r2, #260]	@ zero_extendqisi2
 2055 0054 1971     		strb	r1, [r3, #4]
 626:..\../gps.c   ****     GPS.year = year;
 2056              		.loc 1 626 0
 2057 0056 92F80511 		ldrb	r1, [r2, #261]	@ zero_extendqisi2
 2058 005a D970     		strb	r1, [r3, #3]
 627:..\../gps.c   **** 
 628:..\../gps.c   ****     GPS.fix = fix;
 2059              		.loc 1 628 0
 2060 005c 92F80B11 		ldrb	r1, [r2, #267]	@ zero_extendqisi2
 2061 0060 83F83B10 		strb	r1, [r3, #59]
 629:..\../gps.c   ****     GPS.fixquality = fixquality;
 2062              		.loc 1 629 0
 2063 0064 92F80221 		ldrb	r2, [r2, #258]	@ zero_extendqisi2
 2064 0068 83F83C20 		strb	r2, [r3, #60]
 630:..\../gps.c   **** 
 631:..\../gps.c   ****     if (GPS.fix)
 2065              		.loc 1 631 0
 2066 006c F9B1     		cbz	r1, .L137
 632:..\../gps.c   ****     {
 633:..\../gps.c   **** 
 634:..\../gps.c   ****       GPS.latitude = latitude;
 2067              		.loc 1 634 0
 2068 006e 134A     		ldr	r2, .L139+8
 2069 0070 D2F82011 		ldr	r1, [r2, #288]	@ float
 2070 0074 9960     		str	r1, [r3, #8]	@ float
 635:..\../gps.c   ****       GPS.lat = lat;
 2071              		.loc 1 635 0
 2072 0076 92F80A11 		ldrb	r1, [r2, #266]	@ zero_extendqisi2
 2073 007a 83F83810 		strb	r1, [r3, #56]
 636:..\../gps.c   ****       GPS.longitude = longitude;
 2074              		.loc 1 636 0
 2075 007e D2F81C11 		ldr	r1, [r2, #284]	@ float
 2076 0082 D960     		str	r1, [r3, #12]	@ float
 637:..\../gps.c   ****       GPS.lon = lon;
 2077              		.loc 1 637 0
 2078 0084 92F80911 		ldrb	r1, [r2, #265]	@ zero_extendqisi2
 2079 0088 83F83910 		strb	r1, [r3, #57]
 638:..\../gps.c   **** 
 639:..\../gps.c   ****       GPS.speed = speed;
 2080              		.loc 1 639 0
 2081 008c D2F81411 		ldr	r1, [r2, #276]	@ float
 2082 0090 9962     		str	r1, [r3, #40]	@ float
 640:..\../gps.c   ****       GPS.angle = angle;
 2083              		.loc 1 640 0
 2084 0092 D2F81011 		ldr	r1, [r2, #272]	@ float
 2085 0096 D962     		str	r1, [r3, #44]	@ float
ARM GAS  C:\Users\A85590\AppData\Local\Temp\ccILqQZe.s 			page 52


 641:..\../gps.c   ****       GPS.altitude = altitude;
 2086              		.loc 1 641 0
 2087 0098 D2F81811 		ldr	r1, [r2, #280]	@ float
 2088 009c 5962     		str	r1, [r3, #36]	@ float
 642:..\../gps.c   ****       GPS.satellites = satellites;
 2089              		.loc 1 642 0
 2090 009e 92F80121 		ldrb	r2, [r2, #257]	@ zero_extendqisi2
 2091 00a2 83F83D20 		strb	r2, [r3, #61]
 643:..\../gps.c   ****     }
 644:..\../gps.c   ****   }
 645:..\../gps.c   **** 
 646:..\../gps.c   **** #if GPS_DEBUG
 647:..\../gps.c   ****   last_time_printed = millis(); //reset the timer
 648:..\../gps.c   ****   serial_print("\nTime: ");
 649:..\../gps.c   ****   serial_printInt(GPS.hour);
 650:..\../gps.c   ****   serial_print(":");
 651:..\../gps.c   ****   serial_printInt(GPS.minute);
 652:..\../gps.c   ****   serial_print(":");
 653:..\../gps.c   ****   serial_printInt(GPS.seconds);
 654:..\../gps.c   ****   serial_print(".");
 655:..\../gps.c   ****   serial_printIntln(GPS.milliseconds);
 656:..\../gps.c   **** 
 657:..\../gps.c   ****   serial_print("Date: ");
 658:..\../gps.c   ****   serial_printInt(GPS.day);
 659:..\../gps.c   ****   serial_printChar('/');
 660:..\../gps.c   ****   serial_printInt(GPS.month);
 661:..\../gps.c   ****   serial_print("/20");
 662:..\../gps.c   ****   serial_printIntln(GPS.year);
 663:..\../gps.c   **** 
 664:..\../gps.c   ****   serial_print("Fix: ");
 665:..\../gps.c   ****   serial_printInt(GPS.fix);
 666:..\../gps.c   ****   serial_print(" quality: ");
 667:..\../gps.c   ****   serial_printIntln(GPS.fixquality);
 668:..\../gps.c   ****   if (GPS.fix)
 669:..\../gps.c   ****   {
 670:..\../gps.c   ****     serial_print("Location : ");
 671:..\../gps.c   ****     serial_printFloat(GPS.latitude);
 672:..\../gps.c   ****     serial_printChar(GPS.lat);
 673:..\../gps.c   ****     serial_print(", ");
 674:..\../gps.c   ****     serial_printFloat(GPS.longitude);
 675:..\../gps.c   ****     serial_printCharln(GPS.lon);
 676:..\../gps.c   **** 
 677:..\../gps.c   ****     serial_print("Location (in degrees, works with Google maps): ");
 678:..\../gps.c   ****     serial_printFloat(GPS.latitudeDegrees);
 679:..\../gps.c   ****     serial_print(", ");
 680:..\../gps.c   ****     serial_printFloatln(GPS.longitudeDegrees);
 681:..\../gps.c   **** 
 682:..\../gps.c   ****     serial_print("Speed (Knots): ");
 683:..\../gps.c   ****     serial_printFloatln(GPS.speed);
 684:..\../gps.c   ****     serial_print("Angle: ");
 685:..\../gps.c   ****     serial_printFloatln(GPS.angle);
 686:..\../gps.c   ****     serial_print("Altitude: ");
 687:..\../gps.c   ****     serial_printFloatln(GPS.altitude);
 688:..\../gps.c   ****     serial_print("Satellites: ");
 689:..\../gps.c   ****     serial_printIntln((int)GPS.satellites);
 690:..\../gps.c   ****   }
 691:..\../gps.c   **** #endif
ARM GAS  C:\Users\A85590\AppData\Local\Temp\ccILqQZe.s 			page 53


 692:..\../gps.c   ****   return 1;
 2092              		.loc 1 692 0
 2093 00a6 0123     		movs	r3, #1
 2094 00a8 02E0     		b	.L135
 2095              	.L136:
 2096 00aa 0123     		movs	r3, #1
 2097 00ac 00E0     		b	.L135
 2098              	.L137:
 2099 00ae 0123     		movs	r3, #1
 2100              	.L135:
 693:..\../gps.c   **** }
 2101              		.loc 1 693 0
 2102 00b0 1846     		mov	r0, r3
 2103 00b2 08BD     		pop	{r3, pc}
 2104              	.L140:
 2105              		.align	2
 2106              	.L139:
 2107 00b4 00000000 		.word	.LANCHOR0
 2108 00b8 00000000 		.word	GPS
 2109 00bc 00000000 		.word	.LANCHOR1
 2110              		.cfi_endproc
 2111              	.LFE81:
 2112              		.size	GPS_update, .-GPS_update
 2113              		.global	last_time_printed
 2114              		.global	GPSECHO
 2115              		.data
 2116              		.set	.LANCHOR0,. + 0
 2117              		.type	GPSECHO, %object
 2118              		.size	GPSECHO, 1
 2119              	GPSECHO:
 2120 0000 01       		.byte	1
 2121              		.section	.rodata.str1.4,"aMS",%progbits,1
 2122              		.align	2
 2123              	.LC0:
 2124 0000 24475047 		.ascii	"$GPGGA\000"
 2124      474100
 2125 0007 00       		.space	1
 2126              	.LC1:
 2127 0008 24475052 		.ascii	"$GPRMC\000"
 2127      4D4300
 2128 000f 00       		.space	1
 2129              	.LC2:
 2130 0010 24504D54 		.ascii	"$PMTK185,0*22\000"
 2130      4B313835 
 2130      2C302A32 
 2130      3200
 2131 001e 0000     		.space	2
 2132              	.LC3:
 2133 0020 24504D54 		.ascii	"$PMTK001,185,3*3C\000"
 2133      4B303031 
 2133      2C313835 
 2133      2C332A33 
 2133      4300
 2134 0032 0000     		.space	2
 2135              	.LC4:
 2136 0034 24504D54 		.ascii	"$PMTK185,1*23\000"
 2136      4B313835 
ARM GAS  C:\Users\A85590\AppData\Local\Temp\ccILqQZe.s 			page 54


 2136      2C312A32 
 2136      3300
 2137 0042 0000     		.space	2
 2138              	.LC5:
 2139 0044 24504D54 		.ascii	"$PMTK183*38\000"
 2139      4B313833 
 2139      2A333800 
 2140              	.LC6:
 2141 0050 24504D54 		.ascii	"$PMTKLOG\000"
 2141      4B4C4F47 
 2141      00
 2142 0059 000000   		.space	3
 2143              	.LC7:
 2144 005c 24504D54 		.ascii	"$PMTK161,0*28\000"
 2144      4B313631 
 2144      2C302A32 
 2144      3800
 2145 006a 0000     		.space	2
 2146              	.LC8:
 2147 006c 00       		.ascii	"\000"
 2148 006d 000000   		.space	3
 2149              	.LC9:
 2150 0070 24504D54 		.ascii	"$PMTK010,002*2D\000"
 2150      4B303130 
 2150      2C303032 
 2150      2A324400 
 2151              	.LC10:
 2152 0080 24504D54 		.ascii	"$PMTK314,0,1,0,1,0,0,0,0,0,0,0,0,0,0,0,0,0,0,0*28\000"
 2152      4B333134 
 2152      2C302C31 
 2152      2C302C31 
 2152      2C302C30 
 2153 00b2 0000     		.space	2
 2154              	.LC11:
 2155 00b4 24504D54 		.ascii	"$PMTK220,1000*1F\000"
 2155      4B323230 
 2155      2C313030 
 2155      302A3146 
 2155      00
 2156              		.bss
 2157              		.align	2
 2158              		.set	.LANCHOR1,. + 0
 2159              		.type	paused, %object
 2160              		.size	paused, 1
 2161              	paused:
 2162 0000 00       		.space	1
 2163 0001 000000   		.space	3
 2164              		.type	currentline, %object
 2165              		.size	currentline, 4
 2166              	currentline:
 2167 0004 00000000 		.space	4
 2168              		.type	lineidx, %object
 2169              		.size	lineidx, 1
 2170              	lineidx:
 2171 0008 00       		.space	1
 2172 0009 000000   		.space	3
 2173              		.type	line1, %object
ARM GAS  C:\Users\A85590\AppData\Local\Temp\ccILqQZe.s 			page 55


 2174              		.size	line1, 120
 2175              	line1:
 2176 000c 00000000 		.space	120
 2176      00000000 
 2176      00000000 
 2176      00000000 
 2176      00000000 
 2177              		.type	line2, %object
 2178              		.size	line2, 120
 2179              	line2:
 2180 0084 00000000 		.space	120
 2180      00000000 
 2180      00000000 
 2180      00000000 
 2180      00000000 
 2181              		.type	lastline, %object
 2182              		.size	lastline, 4
 2183              	lastline:
 2184 00fc 00000000 		.space	4
 2185              		.type	recvdflag, %object
 2186              		.size	recvdflag, 1
 2187              	recvdflag:
 2188 0100 00       		.space	1
 2189              		.type	satellites, %object
 2190              		.size	satellites, 1
 2191              	satellites:
 2192 0101 00       		.space	1
 2193              		.type	fixquality, %object
 2194              		.size	fixquality, 1
 2195              	fixquality:
 2196 0102 00       		.space	1
 2197              		.type	day, %object
 2198              		.size	day, 1
 2199              	day:
 2200 0103 00       		.space	1
 2201              		.type	month, %object
 2202              		.size	month, 1
 2203              	month:
 2204 0104 00       		.space	1
 2205              		.type	year, %object
 2206              		.size	year, 1
 2207              	year:
 2208 0105 00       		.space	1
 2209              		.type	seconds, %object
 2210              		.size	seconds, 1
 2211              	seconds:
 2212 0106 00       		.space	1
 2213              		.type	minute, %object
 2214              		.size	minute, 1
 2215              	minute:
 2216 0107 00       		.space	1
 2217              		.type	hour, %object
 2218              		.size	hour, 1
 2219              	hour:
 2220 0108 00       		.space	1
 2221              		.type	lon, %object
 2222              		.size	lon, 1
ARM GAS  C:\Users\A85590\AppData\Local\Temp\ccILqQZe.s 			page 56


 2223              	lon:
 2224 0109 00       		.space	1
 2225              		.type	lat, %object
 2226              		.size	lat, 1
 2227              	lat:
 2228 010a 00       		.space	1
 2229              		.type	fix, %object
 2230              		.size	fix, 1
 2231              	fix:
 2232 010b 00       		.space	1
 2233              		.type	milliseconds, %object
 2234              		.size	milliseconds, 2
 2235              	milliseconds:
 2236 010c 0000     		.space	2
 2237 010e 0000     		.space	2
 2238              		.type	angle, %object
 2239              		.size	angle, 4
 2240              	angle:
 2241 0110 00000000 		.space	4
 2242              		.type	speed, %object
 2243              		.size	speed, 4
 2244              	speed:
 2245 0114 00000000 		.space	4
 2246              		.type	altitude, %object
 2247              		.size	altitude, 4
 2248              	altitude:
 2249 0118 00000000 		.space	4
 2250              		.type	longitude, %object
 2251              		.size	longitude, 4
 2252              	longitude:
 2253 011c 00000000 		.space	4
 2254              		.type	latitude, %object
 2255              		.size	latitude, 4
 2256              	latitude:
 2257 0120 00000000 		.space	4
 2258              		.type	latitudeDegrees, %object
 2259              		.size	latitudeDegrees, 4
 2260              	latitudeDegrees:
 2261 0124 00000000 		.space	4
 2262              		.type	longitudeDegrees, %object
 2263              		.size	longitudeDegrees, 4
 2264              	longitudeDegrees:
 2265 0128 00000000 		.space	4
 2266              		.type	inStandbyMode, %object
 2267              		.size	inStandbyMode, 1
 2268              	inStandbyMode:
 2269 012c 00       		.space	1
 2270 012d 000000   		.space	3
 2271              		.type	last_time_printed, %object
 2272              		.size	last_time_printed, 4
 2273              	last_time_printed:
 2274 0130 00000000 		.space	4
 2275              		.text
 2276              	.Letext0:
 2277              		.file 2 "c:\\program files (x86)\\cypress\\psoc creator\\4.1\\psoc creator\\import\\gnu\\arm\\5.4.
 2278              		.file 3 "c:\\program files (x86)\\cypress\\psoc creator\\4.1\\psoc creator\\import\\gnu\\arm\\5.4.
 2279              		.file 4 "..\\..\\gps.h"
ARM GAS  C:\Users\A85590\AppData\Local\Temp\ccILqQZe.s 			page 57


 2280              		.file 5 "c:\\program files (x86)\\cypress\\psoc creator\\4.1\\psoc creator\\import\\gnu\\arm\\5.4.
 2281              		.file 6 "Generated_Source\\PSoC5/core_cm3.h"
 2282              		.file 7 "Generated_Source\\PSoC5/gpsSerial.h"
 2283              		.file 8 "Generated_Source\\PSoC5/CyLib.h"
 2284              		.file 9 "c:\\program files (x86)\\cypress\\psoc creator\\4.1\\psoc creator\\import\\gnu\\arm\\5.4.
 2285              		.file 10 "c:\\program files (x86)\\cypress\\psoc creator\\4.1\\psoc creator\\import\\gnu\\arm\\5.4
 2286              		.file 11 "c:\\program files (x86)\\cypress\\psoc creator\\4.1\\psoc creator\\import\\gnu\\arm\\5.4
 2287              		.file 12 "..\\..\\debSerial.h"
 2288              		.file 13 "..\\..\\millis.h"
 2289              		.file 14 "..\\..\\SensorVal.h"
 2290              		.section	.debug_info,"",%progbits
 2291              	.Ldebug_info0:
 2292 0000 A8100000 		.4byte	0x10a8
 2293 0004 0400     		.2byte	0x4
 2294 0006 00000000 		.4byte	.Ldebug_abbrev0
 2295 000a 04       		.byte	0x4
 2296 000b 01       		.uleb128 0x1
 2297 000c 24040000 		.4byte	.LASF106
 2298 0010 0C       		.byte	0xc
 2299 0011 26050000 		.4byte	.LASF107
 2300 0015 1B030000 		.4byte	.LASF108
 2301 0019 60000000 		.4byte	.Ldebug_ranges0+0x60
 2302 001d 00000000 		.4byte	0
 2303 0021 00000000 		.4byte	.Ldebug_line0
 2304 0025 02       		.uleb128 0x2
 2305 0026 01       		.byte	0x1
 2306 0027 06       		.byte	0x6
 2307 0028 12000000 		.4byte	.LASF0
 2308 002c 03       		.uleb128 0x3
 2309 002d 1E000000 		.4byte	.LASF3
 2310 0031 02       		.byte	0x2
 2311 0032 1D       		.byte	0x1d
 2312 0033 37000000 		.4byte	0x37
 2313 0037 02       		.uleb128 0x2
 2314 0038 01       		.byte	0x1
 2315 0039 08       		.byte	0x8
 2316 003a DD030000 		.4byte	.LASF1
 2317 003e 02       		.uleb128 0x2
 2318 003f 02       		.byte	0x2
 2319 0040 05       		.byte	0x5
 2320 0041 F7030000 		.4byte	.LASF2
 2321 0045 03       		.uleb128 0x3
 2322 0046 F4040000 		.4byte	.LASF4
 2323 004a 02       		.byte	0x2
 2324 004b 2B       		.byte	0x2b
 2325 004c 50000000 		.4byte	0x50
 2326 0050 02       		.uleb128 0x2
 2327 0051 02       		.byte	0x2
 2328 0052 07       		.byte	0x7
 2329 0053 09020000 		.4byte	.LASF5
 2330 0057 03       		.uleb128 0x3
 2331 0058 0A050000 		.4byte	.LASF6
 2332 005c 02       		.byte	0x2
 2333 005d 3F       		.byte	0x3f
 2334 005e 62000000 		.4byte	0x62
 2335 0062 02       		.uleb128 0x2
 2336 0063 04       		.byte	0x4
ARM GAS  C:\Users\A85590\AppData\Local\Temp\ccILqQZe.s 			page 58


 2337 0064 05       		.byte	0x5
 2338 0065 F8000000 		.4byte	.LASF7
 2339 0069 03       		.uleb128 0x3
 2340 006a 9B010000 		.4byte	.LASF8
 2341 006e 02       		.byte	0x2
 2342 006f 41       		.byte	0x41
 2343 0070 74000000 		.4byte	0x74
 2344 0074 02       		.uleb128 0x2
 2345 0075 04       		.byte	0x4
 2346 0076 07       		.byte	0x7
 2347 0077 E2010000 		.4byte	.LASF9
 2348 007b 02       		.uleb128 0x2
 2349 007c 08       		.byte	0x8
 2350 007d 05       		.byte	0x5
 2351 007e 1A010000 		.4byte	.LASF10
 2352 0082 02       		.uleb128 0x2
 2353 0083 08       		.byte	0x8
 2354 0084 07       		.byte	0x7
 2355 0085 7A000000 		.4byte	.LASF11
 2356 0089 04       		.uleb128 0x4
 2357 008a 04       		.byte	0x4
 2358 008b 05       		.byte	0x5
 2359 008c 696E7400 		.ascii	"int\000"
 2360 0090 02       		.uleb128 0x2
 2361 0091 04       		.byte	0x4
 2362 0092 07       		.byte	0x7
 2363 0093 B8010000 		.4byte	.LASF12
 2364 0097 03       		.uleb128 0x3
 2365 0098 5B050000 		.4byte	.LASF13
 2366 009c 03       		.byte	0x3
 2367 009d 18       		.byte	0x18
 2368 009e 2C000000 		.4byte	0x2c
 2369 00a2 03       		.uleb128 0x3
 2370 00a3 28010000 		.4byte	.LASF14
 2371 00a7 03       		.byte	0x3
 2372 00a8 24       		.byte	0x24
 2373 00a9 45000000 		.4byte	0x45
 2374 00ad 03       		.uleb128 0x3
 2375 00ae D5030000 		.4byte	.LASF15
 2376 00b2 03       		.byte	0x3
 2377 00b3 2C       		.byte	0x2c
 2378 00b4 57000000 		.4byte	0x57
 2379 00b8 03       		.uleb128 0x3
 2380 00b9 BA040000 		.4byte	.LASF16
 2381 00bd 03       		.byte	0x3
 2382 00be 30       		.byte	0x30
 2383 00bf 69000000 		.4byte	0x69
 2384 00c3 05       		.uleb128 0x5
 2385 00c4 01020000 		.4byte	.LASF109
 2386 00c8 44       		.byte	0x44
 2387 00c9 04       		.byte	0x4
 2388 00ca 52       		.byte	0x52
 2389 00cb 08020000 		.4byte	0x208
 2390 00cf 06       		.uleb128 0x6
 2391 00d0 16030000 		.4byte	.LASF17
 2392 00d4 04       		.byte	0x4
 2393 00d5 54       		.byte	0x54
ARM GAS  C:\Users\A85590\AppData\Local\Temp\ccILqQZe.s 			page 59


 2394 00d6 97000000 		.4byte	0x97
 2395 00da 00       		.byte	0
 2396 00db 06       		.uleb128 0x6
 2397 00dc 3A050000 		.4byte	.LASF18
 2398 00e0 04       		.byte	0x4
 2399 00e1 55       		.byte	0x55
 2400 00e2 97000000 		.4byte	0x97
 2401 00e6 01       		.byte	0x1
 2402 00e7 06       		.uleb128 0x6
 2403 00e8 7F030000 		.4byte	.LASF19
 2404 00ec 04       		.byte	0x4
 2405 00ed 56       		.byte	0x56
 2406 00ee 97000000 		.4byte	0x97
 2407 00f2 02       		.byte	0x2
 2408 00f3 06       		.uleb128 0x6
 2409 00f4 F3000000 		.4byte	.LASF20
 2410 00f8 04       		.byte	0x4
 2411 00f9 57       		.byte	0x57
 2412 00fa 97000000 		.4byte	0x97
 2413 00fe 03       		.byte	0x3
 2414 00ff 06       		.uleb128 0x6
 2415 0100 B2010000 		.4byte	.LASF21
 2416 0104 04       		.byte	0x4
 2417 0105 58       		.byte	0x58
 2418 0106 97000000 		.4byte	0x97
 2419 010a 04       		.byte	0x4
 2420 010b 07       		.uleb128 0x7
 2421 010c 64617900 		.ascii	"day\000"
 2422 0110 04       		.byte	0x4
 2423 0111 59       		.byte	0x59
 2424 0112 97000000 		.4byte	0x97
 2425 0116 05       		.byte	0x5
 2426 0117 06       		.uleb128 0x6
 2427 0118 87030000 		.4byte	.LASF22
 2428 011c 04       		.byte	0x4
 2429 011d 5A       		.byte	0x5a
 2430 011e A2000000 		.4byte	0xa2
 2431 0122 06       		.byte	0x6
 2432 0123 06       		.uleb128 0x6
 2433 0124 DA020000 		.4byte	.LASF23
 2434 0128 04       		.byte	0x4
 2435 0129 5B       		.byte	0x5b
 2436 012a 08020000 		.4byte	0x208
 2437 012e 08       		.byte	0x8
 2438 012f 06       		.uleb128 0x6
 2439 0130 45000000 		.4byte	.LASF24
 2440 0134 04       		.byte	0x4
 2441 0135 5C       		.byte	0x5c
 2442 0136 08020000 		.4byte	0x208
 2443 013a 0C       		.byte	0xc
 2444 013b 06       		.uleb128 0x6
 2445 013c 60020000 		.4byte	.LASF25
 2446 0140 04       		.byte	0x4
 2447 0141 5D       		.byte	0x5d
 2448 0142 AD000000 		.4byte	0xad
 2449 0146 10       		.byte	0x10
 2450 0147 06       		.uleb128 0x6
ARM GAS  C:\Users\A85590\AppData\Local\Temp\ccILqQZe.s 			page 60


 2451 0148 86020000 		.4byte	.LASF26
 2452 014c 04       		.byte	0x4
 2453 014d 5E       		.byte	0x5e
 2454 014e AD000000 		.4byte	0xad
 2455 0152 14       		.byte	0x14
 2456 0153 06       		.uleb128 0x6
 2457 0154 01010000 		.4byte	.LASF27
 2458 0158 04       		.byte	0x4
 2459 0159 5F       		.byte	0x5f
 2460 015a 08020000 		.4byte	0x208
 2461 015e 18       		.byte	0x18
 2462 015f 06       		.uleb128 0x6
 2463 0160 C5010000 		.4byte	.LASF28
 2464 0164 04       		.byte	0x4
 2465 0165 60       		.byte	0x60
 2466 0166 08020000 		.4byte	0x208
 2467 016a 1C       		.byte	0x1c
 2468 016b 06       		.uleb128 0x6
 2469 016c EB030000 		.4byte	.LASF29
 2470 0170 04       		.byte	0x4
 2471 0171 61       		.byte	0x61
 2472 0172 08020000 		.4byte	0x208
 2473 0176 20       		.byte	0x20
 2474 0177 06       		.uleb128 0x6
 2475 0178 11010000 		.4byte	.LASF30
 2476 017c 04       		.byte	0x4
 2477 017d 62       		.byte	0x62
 2478 017e 08020000 		.4byte	0x208
 2479 0182 24       		.byte	0x24
 2480 0183 06       		.uleb128 0x6
 2481 0184 73050000 		.4byte	.LASF31
 2482 0188 04       		.byte	0x4
 2483 0189 63       		.byte	0x63
 2484 018a 08020000 		.4byte	0x208
 2485 018e 28       		.byte	0x28
 2486 018f 06       		.uleb128 0x6
 2487 0190 98000000 		.4byte	.LASF32
 2488 0194 04       		.byte	0x4
 2489 0195 64       		.byte	0x64
 2490 0196 08020000 		.4byte	0x208
 2491 019a 2C       		.byte	0x2c
 2492 019b 06       		.uleb128 0x6
 2493 019c 19050000 		.4byte	.LASF33
 2494 01a0 04       		.byte	0x4
 2495 01a1 65       		.byte	0x65
 2496 01a2 08020000 		.4byte	0x208
 2497 01a6 30       		.byte	0x30
 2498 01a7 06       		.uleb128 0x6
 2499 01a8 14050000 		.4byte	.LASF34
 2500 01ac 04       		.byte	0x4
 2501 01ad 66       		.byte	0x66
 2502 01ae 08020000 		.4byte	0x208
 2503 01b2 34       		.byte	0x34
 2504 01b3 07       		.uleb128 0x7
 2505 01b4 6C617400 		.ascii	"lat\000"
 2506 01b8 04       		.byte	0x4
 2507 01b9 67       		.byte	0x67
ARM GAS  C:\Users\A85590\AppData\Local\Temp\ccILqQZe.s 			page 61


 2508 01ba 0F020000 		.4byte	0x20f
 2509 01be 38       		.byte	0x38
 2510 01bf 07       		.uleb128 0x7
 2511 01c0 6C6F6E00 		.ascii	"lon\000"
 2512 01c4 04       		.byte	0x4
 2513 01c5 68       		.byte	0x68
 2514 01c6 0F020000 		.4byte	0x20f
 2515 01ca 39       		.byte	0x39
 2516 01cb 07       		.uleb128 0x7
 2517 01cc 6D616700 		.ascii	"mag\000"
 2518 01d0 04       		.byte	0x4
 2519 01d1 69       		.byte	0x69
 2520 01d2 0F020000 		.4byte	0x20f
 2521 01d6 3A       		.byte	0x3a
 2522 01d7 07       		.uleb128 0x7
 2523 01d8 66697800 		.ascii	"fix\000"
 2524 01dc 04       		.byte	0x4
 2525 01dd 6A       		.byte	0x6a
 2526 01de 97000000 		.4byte	0x97
 2527 01e2 3B       		.byte	0x3b
 2528 01e3 06       		.uleb128 0x6
 2529 01e4 65000000 		.4byte	.LASF35
 2530 01e8 04       		.byte	0x4
 2531 01e9 6B       		.byte	0x6b
 2532 01ea 97000000 		.4byte	0x97
 2533 01ee 3C       		.byte	0x3c
 2534 01ef 06       		.uleb128 0x6
 2535 01f0 7B020000 		.4byte	.LASF36
 2536 01f4 04       		.byte	0x4
 2537 01f5 6C       		.byte	0x6c
 2538 01f6 97000000 		.4byte	0x97
 2539 01fa 3D       		.byte	0x3d
 2540 01fb 06       		.uleb128 0x6
 2541 01fc 94030000 		.4byte	.LASF37
 2542 0200 04       		.byte	0x4
 2543 0201 6D       		.byte	0x6d
 2544 0202 B8000000 		.4byte	0xb8
 2545 0206 40       		.byte	0x40
 2546 0207 00       		.byte	0
 2547 0208 02       		.uleb128 0x2
 2548 0209 04       		.byte	0x4
 2549 020a 04       		.byte	0x4
 2550 020b 79030000 		.4byte	.LASF38
 2551 020f 02       		.uleb128 0x2
 2552 0210 01       		.byte	0x1
 2553 0211 08       		.byte	0x8
 2554 0212 EF040000 		.4byte	.LASF39
 2555 0216 03       		.uleb128 0x3
 2556 0217 A0050000 		.4byte	.LASF40
 2557 021b 04       		.byte	0x4
 2558 021c 6E       		.byte	0x6e
 2559 021d C3000000 		.4byte	0xc3
 2560 0221 02       		.uleb128 0x2
 2561 0222 08       		.byte	0x8
 2562 0223 04       		.byte	0x4
 2563 0224 31010000 		.4byte	.LASF41
 2564 0228 02       		.uleb128 0x2
ARM GAS  C:\Users\A85590\AppData\Local\Temp\ccILqQZe.s 			page 62


 2565 0229 08       		.byte	0x8
 2566 022a 04       		.byte	0x4
 2567 022b D6040000 		.4byte	.LASF42
 2568 022f 02       		.uleb128 0x2
 2569 0230 04       		.byte	0x4
 2570 0231 07       		.byte	0x7
 2571 0232 BF020000 		.4byte	.LASF43
 2572 0236 08       		.uleb128 0x8
 2573 0237 04       		.byte	0x4
 2574 0238 0F020000 		.4byte	0x20f
 2575 023c 08       		.uleb128 0x8
 2576 023d 04       		.byte	0x4
 2577 023e 42020000 		.4byte	0x242
 2578 0242 09       		.uleb128 0x9
 2579 0243 0F020000 		.4byte	0x20f
 2580 0247 0A       		.uleb128 0xa
 2581 0248 97000000 		.4byte	0x97
 2582 024c 0B       		.uleb128 0xb
 2583 024d FF040000 		.4byte	.LASF44
 2584 0251 01       		.byte	0x1
 2585 0252 4B       		.byte	0x4b
 2586 0253 00000000 		.4byte	.LFB64
 2587 0257 0C000000 		.4byte	.LFE64-.LFB64
 2588 025b 01       		.uleb128 0x1
 2589 025c 9C       		.byte	0x9c
 2590 025d 6F020000 		.4byte	0x26f
 2591 0261 0C       		.uleb128 0xc
 2592 0262 76616C00 		.ascii	"val\000"
 2593 0266 01       		.byte	0x1
 2594 0267 4B       		.byte	0x4b
 2595 0268 97000000 		.4byte	0x97
 2596 026c 01       		.uleb128 0x1
 2597 026d 50       		.byte	0x50
 2598 026e 00       		.byte	0
 2599 026f 0D       		.uleb128 0xd
 2600 0270 E3020000 		.4byte	.LASF49
 2601 0274 01       		.byte	0x1
 2602 0275 5C01     		.2byte	0x15c
 2603 0277 0F020000 		.4byte	0x20f
 2604 027b 00000000 		.4byte	.LFB66
 2605 027f 88000000 		.4byte	.LFE66-.LFB66
 2606 0283 01       		.uleb128 0x1
 2607 0284 9C       		.byte	0x9c
 2608 0285 AA020000 		.4byte	0x2aa
 2609 0289 0E       		.uleb128 0xe
 2610 028a 6300     		.ascii	"c\000"
 2611 028c 01       		.byte	0x1
 2612 028d 5E01     		.2byte	0x15e
 2613 028f 0F020000 		.4byte	0x20f
 2614 0293 00000000 		.4byte	.LLST0
 2615 0297 0F       		.uleb128 0xf
 2616 0298 0E000000 		.4byte	.LVL2
 2617 029c 11100000 		.4byte	0x1011
 2618 02a0 0F       		.uleb128 0xf
 2619 02a1 16000000 		.4byte	.LVL3
 2620 02a5 1C100000 		.4byte	0x101c
 2621 02a9 00       		.byte	0
ARM GAS  C:\Users\A85590\AppData\Local\Temp\ccILqQZe.s 			page 63


 2622 02aa 10       		.uleb128 0x10
 2623 02ab 63050000 		.4byte	.LASF110
 2624 02af 01       		.byte	0x1
 2625 02b0 8501     		.2byte	0x185
 2626 02b2 00000000 		.4byte	.LFB67
 2627 02b6 68000000 		.4byte	.LFE67-.LFB67
 2628 02ba 01       		.uleb128 0x1
 2629 02bb 9C       		.byte	0x9c
 2630 02bc 11       		.uleb128 0x11
 2631 02bd 70000000 		.4byte	.LASF111
 2632 02c1 01       		.byte	0x1
 2633 02c2 9501     		.2byte	0x195
 2634 02c4 00000000 		.4byte	.LFB68
 2635 02c8 0E000000 		.4byte	.LFE68-.LFB68
 2636 02cc 01       		.uleb128 0x1
 2637 02cd 9C       		.byte	0x9c
 2638 02ce EB020000 		.4byte	0x2eb
 2639 02d2 0F       		.uleb128 0xf
 2640 02d3 06000000 		.4byte	.LVL6
 2641 02d7 AA020000 		.4byte	0x2aa
 2642 02db 12       		.uleb128 0x12
 2643 02dc 0C000000 		.4byte	.LVL7
 2644 02e0 27100000 		.4byte	0x1027
 2645 02e4 13       		.uleb128 0x13
 2646 02e5 01       		.uleb128 0x1
 2647 02e6 50       		.byte	0x50
 2648 02e7 01       		.uleb128 0x1
 2649 02e8 3A       		.byte	0x3a
 2650 02e9 00       		.byte	0
 2651 02ea 00       		.byte	0
 2652 02eb 14       		.uleb128 0x14
 2653 02ec A9030000 		.4byte	.LASF45
 2654 02f0 01       		.byte	0x1
 2655 02f1 9B01     		.2byte	0x19b
 2656 02f3 00000000 		.4byte	.LFB69
 2657 02f7 08000000 		.4byte	.LFE69-.LFB69
 2658 02fb 01       		.uleb128 0x1
 2659 02fc 9C       		.byte	0x9c
 2660 02fd 23030000 		.4byte	0x323
 2661 0301 15       		.uleb128 0x15
 2662 0302 73747200 		.ascii	"str\000"
 2663 0306 01       		.byte	0x1
 2664 0307 9B01     		.2byte	0x19b
 2665 0309 3C020000 		.4byte	0x23c
 2666 030d 2B000000 		.4byte	.LLST1
 2667 0311 12       		.uleb128 0x12
 2668 0312 06000000 		.4byte	.LVL9
 2669 0316 32100000 		.4byte	0x1032
 2670 031a 13       		.uleb128 0x13
 2671 031b 01       		.uleb128 0x1
 2672 031c 50       		.byte	0x50
 2673 031d 03       		.uleb128 0x3
 2674 031e F3       		.byte	0xf3
 2675 031f 01       		.uleb128 0x1
 2676 0320 50       		.byte	0x50
 2677 0321 00       		.byte	0
 2678 0322 00       		.byte	0
ARM GAS  C:\Users\A85590\AppData\Local\Temp\ccILqQZe.s 			page 64


 2679 0323 16       		.uleb128 0x16
 2680 0324 41050000 		.4byte	.LASF47
 2681 0328 01       		.byte	0x1
 2682 0329 A001     		.2byte	0x1a0
 2683 032b 97000000 		.4byte	0x97
 2684 032f 00000000 		.4byte	.LFB70
 2685 0333 0C000000 		.4byte	.LFE70-.LFB70
 2686 0337 01       		.uleb128 0x1
 2687 0338 9C       		.byte	0x9c
 2688 0339 14       		.uleb128 0x14
 2689 033a 9E000000 		.4byte	.LASF46
 2690 033e 01       		.byte	0x1
 2691 033f A501     		.2byte	0x1a5
 2692 0341 00000000 		.4byte	.LFB71
 2693 0345 0C000000 		.4byte	.LFE71-.LFB71
 2694 0349 01       		.uleb128 0x1
 2695 034a 9C       		.byte	0x9c
 2696 034b 5C030000 		.4byte	0x35c
 2697 034f 17       		.uleb128 0x17
 2698 0350 7000     		.ascii	"p\000"
 2699 0352 01       		.byte	0x1
 2700 0353 A501     		.2byte	0x1a5
 2701 0355 97000000 		.4byte	0x97
 2702 0359 01       		.uleb128 0x1
 2703 035a 50       		.byte	0x50
 2704 035b 00       		.byte	0
 2705 035c 16       		.uleb128 0x16
 2706 035d C8030000 		.4byte	.LASF48
 2707 0361 01       		.byte	0x1
 2708 0362 AA01     		.2byte	0x1aa
 2709 0364 36020000 		.4byte	0x236
 2710 0368 00000000 		.4byte	.LFB72
 2711 036c 14000000 		.4byte	.LFE72-.LFB72
 2712 0370 01       		.uleb128 0x1
 2713 0371 9C       		.byte	0x9c
 2714 0372 0D       		.uleb128 0xd
 2715 0373 E2040000 		.4byte	.LASF50
 2716 0377 01       		.byte	0x1
 2717 0378 B101     		.2byte	0x1b1
 2718 037a 97000000 		.4byte	0x97
 2719 037e 00000000 		.4byte	.LFB73
 2720 0382 28000000 		.4byte	.LFE73-.LFB73
 2721 0386 01       		.uleb128 0x1
 2722 0387 9C       		.byte	0x9c
 2723 0388 9B030000 		.4byte	0x39b
 2724 038c 15       		.uleb128 0x15
 2725 038d 6300     		.ascii	"c\000"
 2726 038f 01       		.byte	0x1
 2727 0390 B101     		.2byte	0x1b1
 2728 0392 0F020000 		.4byte	0x20f
 2729 0396 4C000000 		.4byte	.LLST2
 2730 039a 00       		.byte	0
 2731 039b 18       		.uleb128 0x18
 2732 039c BE030000 		.4byte	.LASF51
 2733 03a0 01       		.byte	0x1
 2734 03a1 52       		.byte	0x52
 2735 03a2 97000000 		.4byte	0x97
ARM GAS  C:\Users\A85590\AppData\Local\Temp\ccILqQZe.s 			page 65


 2736 03a6 00000000 		.4byte	.LFB65
 2737 03aa 54070000 		.4byte	.LFE65-.LFB65
 2738 03ae 01       		.uleb128 0x1
 2739 03af 9C       		.byte	0x9c
 2740 03b0 DB090000 		.4byte	0x9db
 2741 03b4 19       		.uleb128 0x19
 2742 03b5 C5000000 		.4byte	.LASF52
 2743 03b9 01       		.byte	0x1
 2744 03ba 52       		.byte	0x52
 2745 03bb 36020000 		.4byte	0x236
 2746 03bf D1000000 		.4byte	.LLST3
 2747 03c3 1A       		.uleb128 0x1a
 2748 03c4 0F040000 		.4byte	.LASF53
 2749 03c8 01       		.byte	0x1
 2750 03c9 68       		.byte	0x68
 2751 03ca AD000000 		.4byte	0xad
 2752 03ce 48010000 		.4byte	.LLST4
 2753 03d2 1A       		.uleb128 0x1a
 2754 03d3 93010000 		.4byte	.LASF54
 2755 03d7 01       		.byte	0x1
 2756 03d8 69       		.byte	0x69
 2757 03d9 62000000 		.4byte	0x62
 2758 03dd 71010000 		.4byte	.LLST5
 2759 03e1 1B       		.uleb128 0x1b
 2760 03e2 79050000 		.4byte	.LASF55
 2761 03e6 01       		.byte	0x1
 2762 03e7 6A       		.byte	0x6a
 2763 03e8 DB090000 		.4byte	0x9db
 2764 03ec 02       		.uleb128 0x2
 2765 03ed 91       		.byte	0x91
 2766 03ee 5C       		.sleb128 -36
 2767 03ef 1C       		.uleb128 0x1c
 2768 03f0 00000000 		.4byte	.Ldebug_ranges0+0
 2769 03f4 27040000 		.4byte	0x427
 2770 03f8 1D       		.uleb128 0x1d
 2771 03f9 73756D00 		.ascii	"sum\000"
 2772 03fd 01       		.byte	0x1
 2773 03fe 59       		.byte	0x59
 2774 03ff A2000000 		.4byte	0xa2
 2775 0403 D0010000 		.4byte	.LLST6
 2776 0407 1D       		.uleb128 0x1d
 2777 0408 6900     		.ascii	"i\000"
 2778 040a 01       		.byte	0x1
 2779 040b 5D       		.byte	0x5d
 2780 040c 97000000 		.4byte	0x97
 2781 0410 F9010000 		.4byte	.LLST7
 2782 0414 0F       		.uleb128 0xf
 2783 0415 1E000000 		.4byte	.LVL23
 2784 0419 72030000 		.4byte	0x372
 2785 041d 0F       		.uleb128 0xf
 2786 041e 2A000000 		.4byte	.LVL25
 2787 0422 72030000 		.4byte	0x372
 2788 0426 00       		.byte	0
 2789 0427 1C       		.uleb128 0x1c
 2790 0428 18000000 		.4byte	.Ldebug_ranges0+0x18
 2791 042c E8060000 		.4byte	0x6e8
 2792 0430 1D       		.uleb128 0x1d
ARM GAS  C:\Users\A85590\AppData\Local\Temp\ccILqQZe.s 			page 66


 2793 0431 7000     		.ascii	"p\000"
 2794 0433 01       		.byte	0x1
 2795 0434 6F       		.byte	0x6f
 2796 0435 36020000 		.4byte	0x236
 2797 0439 2E020000 		.4byte	.LLST8
 2798 043d 1A       		.uleb128 0x1a
 2799 043e 55050000 		.4byte	.LASF56
 2800 0442 01       		.byte	0x1
 2801 0443 72       		.byte	0x72
 2802 0444 08020000 		.4byte	0x208
 2803 0448 B1020000 		.4byte	.LLST9
 2804 044c 1A       		.uleb128 0x1a
 2805 044d EC020000 		.4byte	.LASF57
 2806 0451 01       		.byte	0x1
 2807 0452 73       		.byte	0x73
 2808 0453 B8000000 		.4byte	0xb8
 2809 0457 CF020000 		.4byte	.LLST10
 2810 045b 1E       		.uleb128 0x1e
 2811 045c 5A000000 		.4byte	.LVL34
 2812 0460 3D100000 		.4byte	0x103d
 2813 0464 75040000 		.4byte	0x475
 2814 0468 13       		.uleb128 0x13
 2815 0469 01       		.uleb128 0x1
 2816 046a 50       		.byte	0x50
 2817 046b 02       		.uleb128 0x2
 2818 046c 75       		.byte	0x75
 2819 046d 00       		.sleb128 0
 2820 046e 13       		.uleb128 0x13
 2821 046f 01       		.uleb128 0x1
 2822 0470 51       		.byte	0x51
 2823 0471 02       		.uleb128 0x2
 2824 0472 08       		.byte	0x8
 2825 0473 2C       		.byte	0x2c
 2826 0474 00       		.byte	0
 2827 0475 1E       		.uleb128 0x1e
 2828 0476 62000000 		.4byte	.LVL36
 2829 047a 48100000 		.4byte	0x1048
 2830 047e 89040000 		.4byte	0x489
 2831 0482 13       		.uleb128 0x13
 2832 0483 01       		.uleb128 0x1
 2833 0484 50       		.byte	0x50
 2834 0485 02       		.uleb128 0x2
 2835 0486 74       		.byte	0x74
 2836 0487 00       		.sleb128 0
 2837 0488 00       		.byte	0
 2838 0489 0F       		.uleb128 0xf
 2839 048a AC000000 		.4byte	.LVL42
 2840 048e 53100000 		.4byte	0x1053
 2841 0492 1E       		.uleb128 0x1e
 2842 0493 C4000000 		.4byte	.LVL45
 2843 0497 3D100000 		.4byte	0x103d
 2844 049b AC040000 		.4byte	0x4ac
 2845 049f 13       		.uleb128 0x13
 2846 04a0 01       		.uleb128 0x1
 2847 04a1 50       		.byte	0x50
 2848 04a2 02       		.uleb128 0x2
 2849 04a3 74       		.byte	0x74
ARM GAS  C:\Users\A85590\AppData\Local\Temp\ccILqQZe.s 			page 67


 2850 04a4 00       		.sleb128 0
 2851 04a5 13       		.uleb128 0x13
 2852 04a6 01       		.uleb128 0x1
 2853 04a7 51       		.byte	0x51
 2854 04a8 02       		.uleb128 0x2
 2855 04a9 08       		.byte	0x8
 2856 04aa 2C       		.byte	0x2c
 2857 04ab 00       		.byte	0
 2858 04ac 1E       		.uleb128 0x1e
 2859 04ad D8000000 		.4byte	.LVL48
 2860 04b1 5E100000 		.4byte	0x105e
 2861 04b5 CB040000 		.4byte	0x4cb
 2862 04b9 13       		.uleb128 0x13
 2863 04ba 01       		.uleb128 0x1
 2864 04bb 50       		.byte	0x50
 2865 04bc 02       		.uleb128 0x2
 2866 04bd 91       		.byte	0x91
 2867 04be 5C       		.sleb128 -36
 2868 04bf 13       		.uleb128 0x13
 2869 04c0 01       		.uleb128 0x1
 2870 04c1 51       		.byte	0x51
 2871 04c2 02       		.uleb128 0x2
 2872 04c3 76       		.byte	0x76
 2873 04c4 00       		.sleb128 0
 2874 04c5 13       		.uleb128 0x13
 2875 04c6 01       		.uleb128 0x1
 2876 04c7 52       		.byte	0x52
 2877 04c8 01       		.uleb128 0x1
 2878 04c9 32       		.byte	0x32
 2879 04ca 00       		.byte	0
 2880 04cb 1E       		.uleb128 0x1e
 2881 04cc EA000000 		.4byte	.LVL50
 2882 04d0 69100000 		.4byte	0x1069
 2883 04d4 DF040000 		.4byte	0x4df
 2884 04d8 13       		.uleb128 0x13
 2885 04d9 01       		.uleb128 0x1
 2886 04da 50       		.byte	0x50
 2887 04db 02       		.uleb128 0x2
 2888 04dc 91       		.byte	0x91
 2889 04dd 5C       		.sleb128 -36
 2890 04de 00       		.byte	0
 2891 04df 1E       		.uleb128 0x1e
 2892 04e0 FA000000 		.4byte	.LVL52
 2893 04e4 5E100000 		.4byte	0x105e
 2894 04e8 FE040000 		.4byte	0x4fe
 2895 04ec 13       		.uleb128 0x13
 2896 04ed 01       		.uleb128 0x1
 2897 04ee 50       		.byte	0x50
 2898 04ef 02       		.uleb128 0x2
 2899 04f0 91       		.byte	0x91
 2900 04f1 5C       		.sleb128 -36
 2901 04f2 13       		.uleb128 0x13
 2902 04f3 01       		.uleb128 0x1
 2903 04f4 51       		.byte	0x51
 2904 04f5 02       		.uleb128 0x2
 2905 04f6 76       		.byte	0x76
 2906 04f7 00       		.sleb128 0
ARM GAS  C:\Users\A85590\AppData\Local\Temp\ccILqQZe.s 			page 68


 2907 04f8 13       		.uleb128 0x13
 2908 04f9 01       		.uleb128 0x1
 2909 04fa 52       		.byte	0x52
 2910 04fb 01       		.uleb128 0x1
 2911 04fc 32       		.byte	0x32
 2912 04fd 00       		.byte	0
 2913 04fe 1E       		.uleb128 0x1e
 2914 04ff 06010000 		.4byte	.LVL54
 2915 0503 5E100000 		.4byte	0x105e
 2916 0507 1D050000 		.4byte	0x51d
 2917 050b 13       		.uleb128 0x13
 2918 050c 01       		.uleb128 0x1
 2919 050d 50       		.byte	0x50
 2920 050e 02       		.uleb128 0x2
 2921 050f 77       		.byte	0x77
 2922 0510 00       		.sleb128 0
 2923 0511 13       		.uleb128 0x13
 2924 0512 01       		.uleb128 0x1
 2925 0513 51       		.byte	0x51
 2926 0514 02       		.uleb128 0x2
 2927 0515 76       		.byte	0x76
 2928 0516 00       		.sleb128 0
 2929 0517 13       		.uleb128 0x13
 2930 0518 01       		.uleb128 0x1
 2931 0519 52       		.byte	0x52
 2932 051a 01       		.uleb128 0x1
 2933 051b 34       		.byte	0x34
 2934 051c 00       		.byte	0
 2935 051d 1E       		.uleb128 0x1e
 2936 051e 10010000 		.4byte	.LVL55
 2937 0522 69100000 		.4byte	0x1069
 2938 0526 31050000 		.4byte	0x531
 2939 052a 13       		.uleb128 0x13
 2940 052b 01       		.uleb128 0x1
 2941 052c 50       		.byte	0x50
 2942 052d 02       		.uleb128 0x2
 2943 052e 91       		.byte	0x91
 2944 052f 5C       		.sleb128 -36
 2945 0530 00       		.byte	0
 2946 0531 1E       		.uleb128 0x1e
 2947 0532 8A010000 		.4byte	.LVL70
 2948 0536 3D100000 		.4byte	0x103d
 2949 053a 4B050000 		.4byte	0x54b
 2950 053e 13       		.uleb128 0x13
 2951 053f 01       		.uleb128 0x1
 2952 0540 50       		.byte	0x50
 2953 0541 02       		.uleb128 0x2
 2954 0542 76       		.byte	0x76
 2955 0543 00       		.sleb128 0
 2956 0544 13       		.uleb128 0x13
 2957 0545 01       		.uleb128 0x1
 2958 0546 51       		.byte	0x51
 2959 0547 02       		.uleb128 0x2
 2960 0548 08       		.byte	0x8
 2961 0549 2C       		.byte	0x2c
 2962 054a 00       		.byte	0
 2963 054b 1E       		.uleb128 0x1e
ARM GAS  C:\Users\A85590\AppData\Local\Temp\ccILqQZe.s 			page 69


 2964 054c D6010000 		.4byte	.LVL72
 2965 0550 3D100000 		.4byte	0x103d
 2966 0554 5F050000 		.4byte	0x55f
 2967 0558 13       		.uleb128 0x13
 2968 0559 01       		.uleb128 0x1
 2969 055a 51       		.byte	0x51
 2970 055b 02       		.uleb128 0x2
 2971 055c 08       		.byte	0x8
 2972 055d 2C       		.byte	0x2c
 2973 055e 00       		.byte	0
 2974 055f 1E       		.uleb128 0x1e
 2975 0560 EA010000 		.4byte	.LVL74
 2976 0564 5E100000 		.4byte	0x105e
 2977 0568 7E050000 		.4byte	0x57e
 2978 056c 13       		.uleb128 0x13
 2979 056d 01       		.uleb128 0x1
 2980 056e 50       		.byte	0x50
 2981 056f 02       		.uleb128 0x2
 2982 0570 91       		.byte	0x91
 2983 0571 5C       		.sleb128 -36
 2984 0572 13       		.uleb128 0x13
 2985 0573 01       		.uleb128 0x1
 2986 0574 51       		.byte	0x51
 2987 0575 02       		.uleb128 0x2
 2988 0576 76       		.byte	0x76
 2989 0577 00       		.sleb128 0
 2990 0578 13       		.uleb128 0x13
 2991 0579 01       		.uleb128 0x1
 2992 057a 52       		.byte	0x52
 2993 057b 01       		.uleb128 0x1
 2994 057c 33       		.byte	0x33
 2995 057d 00       		.byte	0
 2996 057e 1E       		.uleb128 0x1e
 2997 057f F8010000 		.4byte	.LVL76
 2998 0583 69100000 		.4byte	0x1069
 2999 0587 92050000 		.4byte	0x592
 3000 058b 13       		.uleb128 0x13
 3001 058c 01       		.uleb128 0x1
 3002 058d 50       		.byte	0x50
 3003 058e 02       		.uleb128 0x2
 3004 058f 91       		.byte	0x91
 3005 0590 5C       		.sleb128 -36
 3006 0591 00       		.byte	0
 3007 0592 1E       		.uleb128 0x1e
 3008 0593 08020000 		.4byte	.LVL78
 3009 0597 5E100000 		.4byte	0x105e
 3010 059b B1050000 		.4byte	0x5b1
 3011 059f 13       		.uleb128 0x13
 3012 05a0 01       		.uleb128 0x1
 3013 05a1 50       		.byte	0x50
 3014 05a2 02       		.uleb128 0x2
 3015 05a3 91       		.byte	0x91
 3016 05a4 5C       		.sleb128 -36
 3017 05a5 13       		.uleb128 0x13
 3018 05a6 01       		.uleb128 0x1
 3019 05a7 51       		.byte	0x51
 3020 05a8 02       		.uleb128 0x2
ARM GAS  C:\Users\A85590\AppData\Local\Temp\ccILqQZe.s 			page 70


 3021 05a9 76       		.byte	0x76
 3022 05aa 00       		.sleb128 0
 3023 05ab 13       		.uleb128 0x13
 3024 05ac 01       		.uleb128 0x1
 3025 05ad 52       		.byte	0x52
 3026 05ae 01       		.uleb128 0x1
 3027 05af 32       		.byte	0x32
 3028 05b0 00       		.byte	0
 3029 05b1 1E       		.uleb128 0x1e
 3030 05b2 16020000 		.4byte	.LVL80
 3031 05b6 5E100000 		.4byte	0x105e
 3032 05ba D0050000 		.4byte	0x5d0
 3033 05be 13       		.uleb128 0x13
 3034 05bf 01       		.uleb128 0x1
 3035 05c0 50       		.byte	0x50
 3036 05c1 02       		.uleb128 0x2
 3037 05c2 91       		.byte	0x91
 3038 05c3 5E       		.sleb128 -34
 3039 05c4 13       		.uleb128 0x13
 3040 05c5 01       		.uleb128 0x1
 3041 05c6 51       		.byte	0x51
 3042 05c7 02       		.uleb128 0x2
 3043 05c8 76       		.byte	0x76
 3044 05c9 00       		.sleb128 0
 3045 05ca 13       		.uleb128 0x13
 3046 05cb 01       		.uleb128 0x1
 3047 05cc 52       		.byte	0x52
 3048 05cd 01       		.uleb128 0x1
 3049 05ce 34       		.byte	0x34
 3050 05cf 00       		.byte	0
 3051 05d0 1E       		.uleb128 0x1e
 3052 05d1 20020000 		.4byte	.LVL81
 3053 05d5 69100000 		.4byte	0x1069
 3054 05d9 E4050000 		.4byte	0x5e4
 3055 05dd 13       		.uleb128 0x13
 3056 05de 01       		.uleb128 0x1
 3057 05df 50       		.byte	0x50
 3058 05e0 02       		.uleb128 0x2
 3059 05e1 91       		.byte	0x91
 3060 05e2 5C       		.sleb128 -36
 3061 05e3 00       		.byte	0
 3062 05e4 1E       		.uleb128 0x1e
 3063 05e5 9A020000 		.4byte	.LVL96
 3064 05e9 3D100000 		.4byte	0x103d
 3065 05ed FE050000 		.4byte	0x5fe
 3066 05f1 13       		.uleb128 0x13
 3067 05f2 01       		.uleb128 0x1
 3068 05f3 50       		.byte	0x50
 3069 05f4 02       		.uleb128 0x2
 3070 05f5 76       		.byte	0x76
 3071 05f6 00       		.sleb128 0
 3072 05f7 13       		.uleb128 0x13
 3073 05f8 01       		.uleb128 0x1
 3074 05f9 51       		.byte	0x51
 3075 05fa 02       		.uleb128 0x2
 3076 05fb 08       		.byte	0x8
 3077 05fc 2C       		.byte	0x2c
ARM GAS  C:\Users\A85590\AppData\Local\Temp\ccILqQZe.s 			page 71


 3078 05fd 00       		.byte	0
 3079 05fe 1E       		.uleb128 0x1e
 3080 05ff E6020000 		.4byte	.LVL98
 3081 0603 3D100000 		.4byte	0x103d
 3082 0607 12060000 		.4byte	0x612
 3083 060b 13       		.uleb128 0x13
 3084 060c 01       		.uleb128 0x1
 3085 060d 51       		.byte	0x51
 3086 060e 02       		.uleb128 0x2
 3087 060f 08       		.byte	0x8
 3088 0610 2C       		.byte	0x2c
 3089 0611 00       		.byte	0
 3090 0612 1E       		.uleb128 0x1e
 3091 0613 F4020000 		.4byte	.LVL100
 3092 0617 74100000 		.4byte	0x1074
 3093 061b 26060000 		.4byte	0x626
 3094 061f 13       		.uleb128 0x13
 3095 0620 01       		.uleb128 0x1
 3096 0621 50       		.byte	0x50
 3097 0622 02       		.uleb128 0x2
 3098 0623 74       		.byte	0x74
 3099 0624 00       		.sleb128 0
 3100 0625 00       		.byte	0
 3101 0626 1E       		.uleb128 0x1e
 3102 0627 02030000 		.4byte	.LVL101
 3103 062b 3D100000 		.4byte	0x103d
 3104 062f 40060000 		.4byte	0x640
 3105 0633 13       		.uleb128 0x13
 3106 0634 01       		.uleb128 0x1
 3107 0635 50       		.byte	0x50
 3108 0636 02       		.uleb128 0x2
 3109 0637 74       		.byte	0x74
 3110 0638 00       		.sleb128 0
 3111 0639 13       		.uleb128 0x13
 3112 063a 01       		.uleb128 0x1
 3113 063b 51       		.byte	0x51
 3114 063c 02       		.uleb128 0x2
 3115 063d 08       		.byte	0x8
 3116 063e 2C       		.byte	0x2c
 3117 063f 00       		.byte	0
 3118 0640 1E       		.uleb128 0x1e
 3119 0641 10030000 		.4byte	.LVL103
 3120 0645 74100000 		.4byte	0x1074
 3121 0649 54060000 		.4byte	0x654
 3122 064d 13       		.uleb128 0x13
 3123 064e 01       		.uleb128 0x1
 3124 064f 50       		.byte	0x50
 3125 0650 02       		.uleb128 0x2
 3126 0651 74       		.byte	0x74
 3127 0652 00       		.sleb128 0
 3128 0653 00       		.byte	0
 3129 0654 1E       		.uleb128 0x1e
 3130 0655 1E030000 		.4byte	.LVL104
 3131 0659 3D100000 		.4byte	0x103d
 3132 065d 6E060000 		.4byte	0x66e
 3133 0661 13       		.uleb128 0x13
 3134 0662 01       		.uleb128 0x1
ARM GAS  C:\Users\A85590\AppData\Local\Temp\ccILqQZe.s 			page 72


 3135 0663 50       		.byte	0x50
 3136 0664 02       		.uleb128 0x2
 3137 0665 74       		.byte	0x74
 3138 0666 00       		.sleb128 0
 3139 0667 13       		.uleb128 0x13
 3140 0668 01       		.uleb128 0x1
 3141 0669 51       		.byte	0x51
 3142 066a 02       		.uleb128 0x2
 3143 066b 08       		.byte	0x8
 3144 066c 2C       		.byte	0x2c
 3145 066d 00       		.byte	0
 3146 066e 1E       		.uleb128 0x1e
 3147 066f 2C030000 		.4byte	.LVL106
 3148 0673 48100000 		.4byte	0x1048
 3149 0677 82060000 		.4byte	0x682
 3150 067b 13       		.uleb128 0x13
 3151 067c 01       		.uleb128 0x1
 3152 067d 50       		.byte	0x50
 3153 067e 02       		.uleb128 0x2
 3154 067f 74       		.byte	0x74
 3155 0680 00       		.sleb128 0
 3156 0681 00       		.byte	0
 3157 0682 1E       		.uleb128 0x1e
 3158 0683 34030000 		.4byte	.LVL107
 3159 0687 3D100000 		.4byte	0x103d
 3160 068b 9C060000 		.4byte	0x69c
 3161 068f 13       		.uleb128 0x13
 3162 0690 01       		.uleb128 0x1
 3163 0691 50       		.byte	0x50
 3164 0692 02       		.uleb128 0x2
 3165 0693 74       		.byte	0x74
 3166 0694 00       		.sleb128 0
 3167 0695 13       		.uleb128 0x13
 3168 0696 01       		.uleb128 0x1
 3169 0697 51       		.byte	0x51
 3170 0698 02       		.uleb128 0x2
 3171 0699 08       		.byte	0x8
 3172 069a 2C       		.byte	0x2c
 3173 069b 00       		.byte	0
 3174 069c 1E       		.uleb128 0x1e
 3175 069d 42030000 		.4byte	.LVL109
 3176 06a1 48100000 		.4byte	0x1048
 3177 06a5 B0060000 		.4byte	0x6b0
 3178 06a9 13       		.uleb128 0x13
 3179 06aa 01       		.uleb128 0x1
 3180 06ab 50       		.byte	0x50
 3181 06ac 02       		.uleb128 0x2
 3182 06ad 74       		.byte	0x74
 3183 06ae 00       		.sleb128 0
 3184 06af 00       		.byte	0
 3185 06b0 1E       		.uleb128 0x1e
 3186 06b1 54030000 		.4byte	.LVL111
 3187 06b5 3D100000 		.4byte	0x103d
 3188 06b9 CA060000 		.4byte	0x6ca
 3189 06bd 13       		.uleb128 0x13
 3190 06be 01       		.uleb128 0x1
 3191 06bf 50       		.byte	0x50
ARM GAS  C:\Users\A85590\AppData\Local\Temp\ccILqQZe.s 			page 73


 3192 06c0 02       		.uleb128 0x2
 3193 06c1 74       		.byte	0x74
 3194 06c2 00       		.sleb128 0
 3195 06c3 13       		.uleb128 0x13
 3196 06c4 01       		.uleb128 0x1
 3197 06c5 51       		.byte	0x51
 3198 06c6 02       		.uleb128 0x2
 3199 06c7 08       		.byte	0x8
 3200 06c8 2C       		.byte	0x2c
 3201 06c9 00       		.byte	0
 3202 06ca 1E       		.uleb128 0x1e
 3203 06cb 5C030000 		.4byte	.LVL113
 3204 06cf 3D100000 		.4byte	0x103d
 3205 06d3 DE060000 		.4byte	0x6de
 3206 06d7 13       		.uleb128 0x13
 3207 06d8 01       		.uleb128 0x1
 3208 06d9 51       		.byte	0x51
 3209 06da 02       		.uleb128 0x2
 3210 06db 08       		.byte	0x8
 3211 06dc 2C       		.byte	0x2c
 3212 06dd 00       		.byte	0
 3213 06de 0F       		.uleb128 0xf
 3214 06df 6C030000 		.4byte	.LVL115
 3215 06e3 48100000 		.4byte	0x1048
 3216 06e7 00       		.byte	0
 3217 06e8 1C       		.uleb128 0x1c
 3218 06e9 30000000 		.4byte	.Ldebug_ranges0+0x30
 3219 06ed 90090000 		.4byte	0x990
 3220 06f1 1D       		.uleb128 0x1d
 3221 06f2 7000     		.ascii	"p\000"
 3222 06f4 01       		.byte	0x1
 3223 06f5 E3       		.byte	0xe3
 3224 06f6 36020000 		.4byte	0x236
 3225 06fa E2020000 		.4byte	.LLST11
 3226 06fe 1A       		.uleb128 0x1a
 3227 06ff 55050000 		.4byte	.LASF56
 3228 0703 01       		.byte	0x1
 3229 0704 E7       		.byte	0xe7
 3230 0705 08020000 		.4byte	0x208
 3231 0709 58030000 		.4byte	.LLST12
 3232 070d 1A       		.uleb128 0x1a
 3233 070e EC020000 		.4byte	.LASF57
 3234 0712 01       		.byte	0x1
 3235 0713 E8       		.byte	0xe8
 3236 0714 B8000000 		.4byte	0xb8
 3237 0718 81030000 		.4byte	.LLST13
 3238 071c 1F       		.uleb128 0x1f
 3239 071d 50040000 		.4byte	.LBB5
 3240 0721 B4000000 		.4byte	.LBE5-.LBB5
 3241 0725 CA070000 		.4byte	0x7ca
 3242 0729 1A       		.uleb128 0x1a
 3243 072a 0F040000 		.4byte	.LASF53
 3244 072e 01       		.byte	0x1
 3245 072f FF       		.byte	0xff
 3246 0730 62000000 		.4byte	0x62
 3247 0734 94030000 		.4byte	.LLST14
 3248 0738 20       		.uleb128 0x20
ARM GAS  C:\Users\A85590\AppData\Local\Temp\ccILqQZe.s 			page 74


 3249 0739 93010000 		.4byte	.LASF54
 3250 073d 01       		.byte	0x1
 3251 073e 0401     		.2byte	0x104
 3252 0740 62000000 		.4byte	0x62
 3253 0744 A7030000 		.4byte	.LLST15
 3254 0748 1E       		.uleb128 0x1e
 3255 0749 5A040000 		.4byte	.LVL135
 3256 074d 5E100000 		.4byte	0x105e
 3257 0751 67070000 		.4byte	0x767
 3258 0755 13       		.uleb128 0x13
 3259 0756 01       		.uleb128 0x1
 3260 0757 50       		.byte	0x50
 3261 0758 02       		.uleb128 0x2
 3262 0759 91       		.byte	0x91
 3263 075a 5C       		.sleb128 -36
 3264 075b 13       		.uleb128 0x13
 3265 075c 01       		.uleb128 0x1
 3266 075d 51       		.byte	0x51
 3267 075e 02       		.uleb128 0x2
 3268 075f 76       		.byte	0x76
 3269 0760 00       		.sleb128 0
 3270 0761 13       		.uleb128 0x13
 3271 0762 01       		.uleb128 0x1
 3272 0763 52       		.byte	0x52
 3273 0764 01       		.uleb128 0x1
 3274 0765 32       		.byte	0x32
 3275 0766 00       		.byte	0
 3276 0767 1E       		.uleb128 0x1e
 3277 0768 6C040000 		.4byte	.LVL137
 3278 076c 69100000 		.4byte	0x1069
 3279 0770 7B070000 		.4byte	0x77b
 3280 0774 13       		.uleb128 0x13
 3281 0775 01       		.uleb128 0x1
 3282 0776 50       		.byte	0x50
 3283 0777 02       		.uleb128 0x2
 3284 0778 91       		.byte	0x91
 3285 0779 5C       		.sleb128 -36
 3286 077a 00       		.byte	0
 3287 077b 1E       		.uleb128 0x1e
 3288 077c 7C040000 		.4byte	.LVL139
 3289 0780 5E100000 		.4byte	0x105e
 3290 0784 9A070000 		.4byte	0x79a
 3291 0788 13       		.uleb128 0x13
 3292 0789 01       		.uleb128 0x1
 3293 078a 50       		.byte	0x50
 3294 078b 02       		.uleb128 0x2
 3295 078c 91       		.byte	0x91
 3296 078d 5C       		.sleb128 -36
 3297 078e 13       		.uleb128 0x13
 3298 078f 01       		.uleb128 0x1
 3299 0790 51       		.byte	0x51
 3300 0791 02       		.uleb128 0x2
 3301 0792 76       		.byte	0x76
 3302 0793 00       		.sleb128 0
 3303 0794 13       		.uleb128 0x13
 3304 0795 01       		.uleb128 0x1
 3305 0796 52       		.byte	0x52
ARM GAS  C:\Users\A85590\AppData\Local\Temp\ccILqQZe.s 			page 75


 3306 0797 01       		.uleb128 0x1
 3307 0798 32       		.byte	0x32
 3308 0799 00       		.byte	0
 3309 079a 1E       		.uleb128 0x1e
 3310 079b 88040000 		.4byte	.LVL141
 3311 079f 5E100000 		.4byte	0x105e
 3312 07a3 B9070000 		.4byte	0x7b9
 3313 07a7 13       		.uleb128 0x13
 3314 07a8 01       		.uleb128 0x1
 3315 07a9 50       		.byte	0x50
 3316 07aa 02       		.uleb128 0x2
 3317 07ab 77       		.byte	0x77
 3318 07ac 00       		.sleb128 0
 3319 07ad 13       		.uleb128 0x13
 3320 07ae 01       		.uleb128 0x1
 3321 07af 51       		.byte	0x51
 3322 07b0 02       		.uleb128 0x2
 3323 07b1 76       		.byte	0x76
 3324 07b2 00       		.sleb128 0
 3325 07b3 13       		.uleb128 0x13
 3326 07b4 01       		.uleb128 0x1
 3327 07b5 52       		.byte	0x52
 3328 07b6 01       		.uleb128 0x1
 3329 07b7 34       		.byte	0x34
 3330 07b8 00       		.byte	0
 3331 07b9 12       		.uleb128 0x12
 3332 07ba 92040000 		.4byte	.LVL142
 3333 07be 69100000 		.4byte	0x1069
 3334 07c2 13       		.uleb128 0x13
 3335 07c3 01       		.uleb128 0x1
 3336 07c4 50       		.byte	0x50
 3337 07c5 02       		.uleb128 0x2
 3338 07c6 91       		.byte	0x91
 3339 07c7 5C       		.sleb128 -36
 3340 07c8 00       		.byte	0
 3341 07c9 00       		.byte	0
 3342 07ca 1F       		.uleb128 0x1f
 3343 07cb E0060000 		.4byte	.LBB6
 3344 07cf 3C000000 		.4byte	.LBE6-.LBB6
 3345 07d3 F1070000 		.4byte	0x7f1
 3346 07d7 20       		.uleb128 0x20
 3347 07d8 50020000 		.4byte	.LASF58
 3348 07dc 01       		.byte	0x1
 3349 07dd 5001     		.2byte	0x150
 3350 07df B8000000 		.4byte	0xb8
 3351 07e3 CC030000 		.4byte	.LLST16
 3352 07e7 0F       		.uleb128 0xf
 3353 07e8 E6060000 		.4byte	.LVL195
 3354 07ec 48100000 		.4byte	0x1048
 3355 07f0 00       		.byte	0
 3356 07f1 1E       		.uleb128 0x1e
 3357 07f2 B6030000 		.4byte	.LVL119
 3358 07f6 3D100000 		.4byte	0x103d
 3359 07fa 0B080000 		.4byte	0x80b
 3360 07fe 13       		.uleb128 0x13
 3361 07ff 01       		.uleb128 0x1
 3362 0800 50       		.byte	0x50
ARM GAS  C:\Users\A85590\AppData\Local\Temp\ccILqQZe.s 			page 76


 3363 0801 02       		.uleb128 0x2
 3364 0802 75       		.byte	0x75
 3365 0803 00       		.sleb128 0
 3366 0804 13       		.uleb128 0x13
 3367 0805 01       		.uleb128 0x1
 3368 0806 51       		.byte	0x51
 3369 0807 02       		.uleb128 0x2
 3370 0808 08       		.byte	0x8
 3371 0809 2C       		.byte	0x2c
 3372 080a 00       		.byte	0
 3373 080b 1E       		.uleb128 0x1e
 3374 080c BE030000 		.4byte	.LVL121
 3375 0810 48100000 		.4byte	0x1048
 3376 0814 1F080000 		.4byte	0x81f
 3377 0818 13       		.uleb128 0x13
 3378 0819 01       		.uleb128 0x1
 3379 081a 50       		.byte	0x50
 3380 081b 02       		.uleb128 0x2
 3381 081c 74       		.byte	0x74
 3382 081d 00       		.sleb128 0
 3383 081e 00       		.byte	0
 3384 081f 0F       		.uleb128 0xf
 3385 0820 08040000 		.4byte	.LVL127
 3386 0824 53100000 		.4byte	0x1053
 3387 0828 1E       		.uleb128 0x1e
 3388 0829 20040000 		.4byte	.LVL130
 3389 082d 3D100000 		.4byte	0x103d
 3390 0831 42080000 		.4byte	0x842
 3391 0835 13       		.uleb128 0x13
 3392 0836 01       		.uleb128 0x1
 3393 0837 50       		.byte	0x50
 3394 0838 02       		.uleb128 0x2
 3395 0839 74       		.byte	0x74
 3396 083a 00       		.sleb128 0
 3397 083b 13       		.uleb128 0x13
 3398 083c 01       		.uleb128 0x1
 3399 083d 51       		.byte	0x51
 3400 083e 02       		.uleb128 0x2
 3401 083f 08       		.byte	0x8
 3402 0840 2C       		.byte	0x2c
 3403 0841 00       		.byte	0
 3404 0842 1E       		.uleb128 0x1e
 3405 0843 46040000 		.4byte	.LVL132
 3406 0847 3D100000 		.4byte	0x103d
 3407 084b 56080000 		.4byte	0x856
 3408 084f 13       		.uleb128 0x13
 3409 0850 01       		.uleb128 0x1
 3410 0851 51       		.byte	0x51
 3411 0852 02       		.uleb128 0x2
 3412 0853 08       		.byte	0x8
 3413 0854 2C       		.byte	0x2c
 3414 0855 00       		.byte	0
 3415 0856 1E       		.uleb128 0x1e
 3416 0857 0C050000 		.4byte	.LVL157
 3417 085b 3D100000 		.4byte	0x103d
 3418 085f 70080000 		.4byte	0x870
 3419 0863 13       		.uleb128 0x13
ARM GAS  C:\Users\A85590\AppData\Local\Temp\ccILqQZe.s 			page 77


 3420 0864 01       		.uleb128 0x1
 3421 0865 50       		.byte	0x50
 3422 0866 02       		.uleb128 0x2
 3423 0867 76       		.byte	0x76
 3424 0868 00       		.sleb128 0
 3425 0869 13       		.uleb128 0x13
 3426 086a 01       		.uleb128 0x1
 3427 086b 51       		.byte	0x51
 3428 086c 02       		.uleb128 0x2
 3429 086d 08       		.byte	0x8
 3430 086e 2C       		.byte	0x2c
 3431 086f 00       		.byte	0
 3432 0870 1E       		.uleb128 0x1e
 3433 0871 58050000 		.4byte	.LVL159
 3434 0875 3D100000 		.4byte	0x103d
 3435 0879 84080000 		.4byte	0x884
 3436 087d 13       		.uleb128 0x13
 3437 087e 01       		.uleb128 0x1
 3438 087f 51       		.byte	0x51
 3439 0880 02       		.uleb128 0x2
 3440 0881 08       		.byte	0x8
 3441 0882 2C       		.byte	0x2c
 3442 0883 00       		.byte	0
 3443 0884 1E       		.uleb128 0x1e
 3444 0885 6C050000 		.4byte	.LVL161
 3445 0889 5E100000 		.4byte	0x105e
 3446 088d A3080000 		.4byte	0x8a3
 3447 0891 13       		.uleb128 0x13
 3448 0892 01       		.uleb128 0x1
 3449 0893 50       		.byte	0x50
 3450 0894 02       		.uleb128 0x2
 3451 0895 91       		.byte	0x91
 3452 0896 5C       		.sleb128 -36
 3453 0897 13       		.uleb128 0x13
 3454 0898 01       		.uleb128 0x1
 3455 0899 51       		.byte	0x51
 3456 089a 02       		.uleb128 0x2
 3457 089b 76       		.byte	0x76
 3458 089c 00       		.sleb128 0
 3459 089d 13       		.uleb128 0x13
 3460 089e 01       		.uleb128 0x1
 3461 089f 52       		.byte	0x52
 3462 08a0 01       		.uleb128 0x1
 3463 08a1 33       		.byte	0x33
 3464 08a2 00       		.byte	0
 3465 08a3 1E       		.uleb128 0x1e
 3466 08a4 7A050000 		.4byte	.LVL163
 3467 08a8 69100000 		.4byte	0x1069
 3468 08ac B7080000 		.4byte	0x8b7
 3469 08b0 13       		.uleb128 0x13
 3470 08b1 01       		.uleb128 0x1
 3471 08b2 50       		.byte	0x50
 3472 08b3 02       		.uleb128 0x2
 3473 08b4 91       		.byte	0x91
 3474 08b5 5C       		.sleb128 -36
 3475 08b6 00       		.byte	0
 3476 08b7 1E       		.uleb128 0x1e
ARM GAS  C:\Users\A85590\AppData\Local\Temp\ccILqQZe.s 			page 78


 3477 08b8 8A050000 		.4byte	.LVL165
 3478 08bc 5E100000 		.4byte	0x105e
 3479 08c0 D6080000 		.4byte	0x8d6
 3480 08c4 13       		.uleb128 0x13
 3481 08c5 01       		.uleb128 0x1
 3482 08c6 50       		.byte	0x50
 3483 08c7 02       		.uleb128 0x2
 3484 08c8 91       		.byte	0x91
 3485 08c9 5C       		.sleb128 -36
 3486 08ca 13       		.uleb128 0x13
 3487 08cb 01       		.uleb128 0x1
 3488 08cc 51       		.byte	0x51
 3489 08cd 02       		.uleb128 0x2
 3490 08ce 76       		.byte	0x76
 3491 08cf 00       		.sleb128 0
 3492 08d0 13       		.uleb128 0x13
 3493 08d1 01       		.uleb128 0x1
 3494 08d2 52       		.byte	0x52
 3495 08d3 01       		.uleb128 0x1
 3496 08d4 32       		.byte	0x32
 3497 08d5 00       		.byte	0
 3498 08d6 1E       		.uleb128 0x1e
 3499 08d7 98050000 		.4byte	.LVL167
 3500 08db 5E100000 		.4byte	0x105e
 3501 08df F5080000 		.4byte	0x8f5
 3502 08e3 13       		.uleb128 0x13
 3503 08e4 01       		.uleb128 0x1
 3504 08e5 50       		.byte	0x50
 3505 08e6 02       		.uleb128 0x2
 3506 08e7 91       		.byte	0x91
 3507 08e8 5E       		.sleb128 -34
 3508 08e9 13       		.uleb128 0x13
 3509 08ea 01       		.uleb128 0x1
 3510 08eb 51       		.byte	0x51
 3511 08ec 02       		.uleb128 0x2
 3512 08ed 76       		.byte	0x76
 3513 08ee 00       		.sleb128 0
 3514 08ef 13       		.uleb128 0x13
 3515 08f0 01       		.uleb128 0x1
 3516 08f1 52       		.byte	0x52
 3517 08f2 01       		.uleb128 0x1
 3518 08f3 34       		.byte	0x34
 3519 08f4 00       		.byte	0
 3520 08f5 1E       		.uleb128 0x1e
 3521 08f6 A2050000 		.4byte	.LVL168
 3522 08fa 69100000 		.4byte	0x1069
 3523 08fe 09090000 		.4byte	0x909
 3524 0902 13       		.uleb128 0x13
 3525 0903 01       		.uleb128 0x1
 3526 0904 50       		.byte	0x50
 3527 0905 02       		.uleb128 0x2
 3528 0906 91       		.byte	0x91
 3529 0907 5C       		.sleb128 -36
 3530 0908 00       		.byte	0
 3531 0909 1E       		.uleb128 0x1e
 3532 090a 1C060000 		.4byte	.LVL183
 3533 090e 3D100000 		.4byte	0x103d
ARM GAS  C:\Users\A85590\AppData\Local\Temp\ccILqQZe.s 			page 79


 3534 0912 23090000 		.4byte	0x923
 3535 0916 13       		.uleb128 0x13
 3536 0917 01       		.uleb128 0x1
 3537 0918 50       		.byte	0x50
 3538 0919 02       		.uleb128 0x2
 3539 091a 76       		.byte	0x76
 3540 091b 00       		.sleb128 0
 3541 091c 13       		.uleb128 0x13
 3542 091d 01       		.uleb128 0x1
 3543 091e 51       		.byte	0x51
 3544 091f 02       		.uleb128 0x2
 3545 0920 08       		.byte	0x8
 3546 0921 2C       		.byte	0x2c
 3547 0922 00       		.byte	0
 3548 0923 1E       		.uleb128 0x1e
 3549 0924 98060000 		.4byte	.LVL185
 3550 0928 3D100000 		.4byte	0x103d
 3551 092c 37090000 		.4byte	0x937
 3552 0930 13       		.uleb128 0x13
 3553 0931 01       		.uleb128 0x1
 3554 0932 51       		.byte	0x51
 3555 0933 02       		.uleb128 0x2
 3556 0934 08       		.byte	0x8
 3557 0935 2C       		.byte	0x2c
 3558 0936 00       		.byte	0
 3559 0937 1E       		.uleb128 0x1e
 3560 0938 A6060000 		.4byte	.LVL187
 3561 093c 48100000 		.4byte	0x1048
 3562 0940 4B090000 		.4byte	0x94b
 3563 0944 13       		.uleb128 0x13
 3564 0945 01       		.uleb128 0x1
 3565 0946 50       		.byte	0x50
 3566 0947 02       		.uleb128 0x2
 3567 0948 74       		.byte	0x74
 3568 0949 00       		.sleb128 0
 3569 094a 00       		.byte	0
 3570 094b 1E       		.uleb128 0x1e
 3571 094c B8060000 		.4byte	.LVL189
 3572 0950 3D100000 		.4byte	0x103d
 3573 0954 65090000 		.4byte	0x965
 3574 0958 13       		.uleb128 0x13
 3575 0959 01       		.uleb128 0x1
 3576 095a 50       		.byte	0x50
 3577 095b 02       		.uleb128 0x2
 3578 095c 74       		.byte	0x74
 3579 095d 00       		.sleb128 0
 3580 095e 13       		.uleb128 0x13
 3581 095f 01       		.uleb128 0x1
 3582 0960 51       		.byte	0x51
 3583 0961 02       		.uleb128 0x2
 3584 0962 08       		.byte	0x8
 3585 0963 2C       		.byte	0x2c
 3586 0964 00       		.byte	0
 3587 0965 1E       		.uleb128 0x1e
 3588 0966 C6060000 		.4byte	.LVL191
 3589 096a 48100000 		.4byte	0x1048
 3590 096e 79090000 		.4byte	0x979
ARM GAS  C:\Users\A85590\AppData\Local\Temp\ccILqQZe.s 			page 80


 3591 0972 13       		.uleb128 0x13
 3592 0973 01       		.uleb128 0x1
 3593 0974 50       		.byte	0x50
 3594 0975 02       		.uleb128 0x2
 3595 0976 74       		.byte	0x74
 3596 0977 00       		.sleb128 0
 3597 0978 00       		.byte	0
 3598 0979 12       		.uleb128 0x12
 3599 097a D8060000 		.4byte	.LVL193
 3600 097e 3D100000 		.4byte	0x103d
 3601 0982 13       		.uleb128 0x13
 3602 0983 01       		.uleb128 0x1
 3603 0984 50       		.byte	0x50
 3604 0985 02       		.uleb128 0x2
 3605 0986 74       		.byte	0x74
 3606 0987 00       		.sleb128 0
 3607 0988 13       		.uleb128 0x13
 3608 0989 01       		.uleb128 0x1
 3609 098a 51       		.byte	0x51
 3610 098b 02       		.uleb128 0x2
 3611 098c 08       		.byte	0x8
 3612 098d 2C       		.byte	0x2c
 3613 098e 00       		.byte	0
 3614 098f 00       		.byte	0
 3615 0990 1E       		.uleb128 0x1e
 3616 0991 0C000000 		.4byte	.LVL22
 3617 0995 7F100000 		.4byte	0x107f
 3618 0999 A4090000 		.4byte	0x9a4
 3619 099d 13       		.uleb128 0x13
 3620 099e 01       		.uleb128 0x1
 3621 099f 50       		.byte	0x50
 3622 09a0 02       		.uleb128 0x2
 3623 09a1 75       		.byte	0x75
 3624 09a2 00       		.sleb128 0
 3625 09a3 00       		.byte	0
 3626 09a4 1E       		.uleb128 0x1e
 3627 09a5 4C000000 		.4byte	.LVL32
 3628 09a9 8A100000 		.4byte	0x108a
 3629 09ad C1090000 		.4byte	0x9c1
 3630 09b1 13       		.uleb128 0x13
 3631 09b2 01       		.uleb128 0x1
 3632 09b3 50       		.byte	0x50
 3633 09b4 02       		.uleb128 0x2
 3634 09b5 75       		.byte	0x75
 3635 09b6 00       		.sleb128 0
 3636 09b7 13       		.uleb128 0x13
 3637 09b8 01       		.uleb128 0x1
 3638 09b9 51       		.byte	0x51
 3639 09ba 05       		.uleb128 0x5
 3640 09bb 03       		.byte	0x3
 3641 09bc 00000000 		.4byte	.LC0
 3642 09c0 00       		.byte	0
 3643 09c1 12       		.uleb128 0x12
 3644 09c2 A8030000 		.4byte	.LVL117
 3645 09c6 8A100000 		.4byte	0x108a
 3646 09ca 13       		.uleb128 0x13
 3647 09cb 01       		.uleb128 0x1
ARM GAS  C:\Users\A85590\AppData\Local\Temp\ccILqQZe.s 			page 81


 3648 09cc 50       		.byte	0x50
 3649 09cd 02       		.uleb128 0x2
 3650 09ce 75       		.byte	0x75
 3651 09cf 00       		.sleb128 0
 3652 09d0 13       		.uleb128 0x13
 3653 09d1 01       		.uleb128 0x1
 3654 09d2 51       		.byte	0x51
 3655 09d3 05       		.uleb128 0x5
 3656 09d4 03       		.byte	0x3
 3657 09d5 08000000 		.4byte	.LC1
 3658 09d9 00       		.byte	0
 3659 09da 00       		.byte	0
 3660 09db 21       		.uleb128 0x21
 3661 09dc 0F020000 		.4byte	0x20f
 3662 09e0 EB090000 		.4byte	0x9eb
 3663 09e4 22       		.uleb128 0x22
 3664 09e5 2F020000 		.4byte	0x22f
 3665 09e9 09       		.byte	0x9
 3666 09ea 00       		.byte	0
 3667 09eb 0D       		.uleb128 0xd
 3668 09ec AB020000 		.4byte	.LASF59
 3669 09f0 01       		.byte	0x1
 3670 09f1 BF01     		.2byte	0x1bf
 3671 09f3 97000000 		.4byte	0x97
 3672 09f7 00000000 		.4byte	.LFB74
 3673 09fb 42000000 		.4byte	.LFE74-.LFB74
 3674 09ff 01       		.uleb128 0x1
 3675 0a00 9C       		.byte	0x9c
 3676 0a01 9E0A0000 		.4byte	0xa9e
 3677 0a05 23       		.uleb128 0x23
 3678 0a06 C3040000 		.4byte	.LASF60
 3679 0a0a 01       		.byte	0x1
 3680 0a0b BF01     		.2byte	0x1bf
 3681 0a0d 3C020000 		.4byte	0x23c
 3682 0a11 DF030000 		.4byte	.LLST17
 3683 0a15 15       		.uleb128 0x15
 3684 0a16 6D617800 		.ascii	"max\000"
 3685 0a1a 01       		.byte	0x1
 3686 0a1b BF01     		.2byte	0x1bf
 3687 0a1d 97000000 		.4byte	0x97
 3688 0a21 FD030000 		.4byte	.LLST18
 3689 0a25 24       		.uleb128 0x24
 3690 0a26 73747200 		.ascii	"str\000"
 3691 0a2a 01       		.byte	0x1
 3692 0a2b C101     		.2byte	0x1c1
 3693 0a2d 9E0A0000 		.4byte	0xa9e
 3694 0a31 02       		.uleb128 0x2
 3695 0a32 91       		.byte	0x91
 3696 0a33 5C       		.sleb128 -36
 3697 0a34 0E       		.uleb128 0xe
 3698 0a35 6900     		.ascii	"i\000"
 3699 0a37 01       		.byte	0x1
 3700 0a38 C301     		.2byte	0x1c3
 3701 0a3a 97000000 		.4byte	0x97
 3702 0a3e 1E040000 		.4byte	.LLST19
 3703 0a42 1C       		.uleb128 0x1c
 3704 0a43 48000000 		.4byte	.Ldebug_ranges0+0x48
ARM GAS  C:\Users\A85590\AppData\Local\Temp\ccILqQZe.s 			page 82


 3705 0a47 940A0000 		.4byte	0xa94
 3706 0a4b 20       		.uleb128 0x20
 3707 0a4c C5000000 		.4byte	.LASF52
 3708 0a50 01       		.byte	0x1
 3709 0a51 C801     		.2byte	0x1c8
 3710 0a53 36020000 		.4byte	0x236
 3711 0a57 48040000 		.4byte	.LLST20
 3712 0a5b 0F       		.uleb128 0xf
 3713 0a5c 16000000 		.4byte	.LVL209
 3714 0a60 5C030000 		.4byte	0x35c
 3715 0a64 1E       		.uleb128 0x1e
 3716 0a65 20000000 		.4byte	.LVL211
 3717 0a69 5E100000 		.4byte	0x105e
 3718 0a6d 7D0A0000 		.4byte	0xa7d
 3719 0a71 13       		.uleb128 0x13
 3720 0a72 01       		.uleb128 0x1
 3721 0a73 50       		.byte	0x50
 3722 0a74 02       		.uleb128 0x2
 3723 0a75 91       		.byte	0x91
 3724 0a76 5C       		.sleb128 -36
 3725 0a77 13       		.uleb128 0x13
 3726 0a78 01       		.uleb128 0x1
 3727 0a79 52       		.byte	0x52
 3728 0a7a 01       		.uleb128 0x1
 3729 0a7b 44       		.byte	0x44
 3730 0a7c 00       		.byte	0
 3731 0a7d 12       		.uleb128 0x12
 3732 0a7e 32000000 		.4byte	.LVL214
 3733 0a82 8A100000 		.4byte	0x108a
 3734 0a86 13       		.uleb128 0x13
 3735 0a87 01       		.uleb128 0x1
 3736 0a88 50       		.byte	0x50
 3737 0a89 02       		.uleb128 0x2
 3738 0a8a 91       		.byte	0x91
 3739 0a8b 5C       		.sleb128 -36
 3740 0a8c 13       		.uleb128 0x13
 3741 0a8d 01       		.uleb128 0x1
 3742 0a8e 51       		.byte	0x51
 3743 0a8f 02       		.uleb128 0x2
 3744 0a90 76       		.byte	0x76
 3745 0a91 00       		.sleb128 0
 3746 0a92 00       		.byte	0
 3747 0a93 00       		.byte	0
 3748 0a94 0F       		.uleb128 0xf
 3749 0a95 10000000 		.4byte	.LVL208
 3750 0a99 23030000 		.4byte	0x323
 3751 0a9d 00       		.byte	0
 3752 0a9e 21       		.uleb128 0x21
 3753 0a9f 0F020000 		.4byte	0x20f
 3754 0aa3 AE0A0000 		.4byte	0xaae
 3755 0aa7 22       		.uleb128 0x22
 3756 0aa8 2F020000 		.4byte	0x22f
 3757 0aac 13       		.byte	0x13
 3758 0aad 00       		.byte	0
 3759 0aae 0D       		.uleb128 0xd
 3760 0aaf F1020000 		.4byte	.LASF61
 3761 0ab3 01       		.byte	0x1
ARM GAS  C:\Users\A85590\AppData\Local\Temp\ccILqQZe.s 			page 83


 3762 0ab4 D501     		.2byte	0x1d5
 3763 0ab6 97000000 		.4byte	0x97
 3764 0aba 00000000 		.4byte	.LFB75
 3765 0abe 28000000 		.4byte	.LFE75-.LFB75
 3766 0ac2 01       		.uleb128 0x1
 3767 0ac3 9C       		.byte	0x9c
 3768 0ac4 F80A0000 		.4byte	0xaf8
 3769 0ac8 1E       		.uleb128 0x1e
 3770 0ac9 08000000 		.4byte	.LVL216
 3771 0acd EB020000 		.4byte	0x2eb
 3772 0ad1 DF0A0000 		.4byte	0xadf
 3773 0ad5 13       		.uleb128 0x13
 3774 0ad6 01       		.uleb128 0x1
 3775 0ad7 50       		.byte	0x50
 3776 0ad8 05       		.uleb128 0x5
 3777 0ad9 03       		.byte	0x3
 3778 0ada 10000000 		.4byte	.LC2
 3779 0ade 00       		.byte	0
 3780 0adf 12       		.uleb128 0x12
 3781 0ae0 18000000 		.4byte	.LVL217
 3782 0ae4 EB090000 		.4byte	0x9eb
 3783 0ae8 13       		.uleb128 0x13
 3784 0ae9 01       		.uleb128 0x1
 3785 0aea 50       		.byte	0x50
 3786 0aeb 05       		.uleb128 0x5
 3787 0aec 03       		.byte	0x3
 3788 0aed 20000000 		.4byte	.LC3
 3789 0af1 13       		.uleb128 0x13
 3790 0af2 01       		.uleb128 0x1
 3791 0af3 51       		.byte	0x51
 3792 0af4 01       		.uleb128 0x1
 3793 0af5 35       		.byte	0x35
 3794 0af6 00       		.byte	0
 3795 0af7 00       		.byte	0
 3796 0af8 0D       		.uleb128 0xd
 3797 0af9 65010000 		.4byte	.LASF62
 3798 0afd 01       		.byte	0x1
 3799 0afe DC01     		.2byte	0x1dc
 3800 0b00 97000000 		.4byte	0x97
 3801 0b04 00000000 		.4byte	.LFB76
 3802 0b08 28000000 		.4byte	.LFE76-.LFB76
 3803 0b0c 01       		.uleb128 0x1
 3804 0b0d 9C       		.byte	0x9c
 3805 0b0e 420B0000 		.4byte	0xb42
 3806 0b12 1E       		.uleb128 0x1e
 3807 0b13 08000000 		.4byte	.LVL218
 3808 0b17 EB020000 		.4byte	0x2eb
 3809 0b1b 290B0000 		.4byte	0xb29
 3810 0b1f 13       		.uleb128 0x13
 3811 0b20 01       		.uleb128 0x1
 3812 0b21 50       		.byte	0x50
 3813 0b22 05       		.uleb128 0x5
 3814 0b23 03       		.byte	0x3
 3815 0b24 34000000 		.4byte	.LC4
 3816 0b28 00       		.byte	0
 3817 0b29 12       		.uleb128 0x12
 3818 0b2a 18000000 		.4byte	.LVL219
ARM GAS  C:\Users\A85590\AppData\Local\Temp\ccILqQZe.s 			page 84


 3819 0b2e EB090000 		.4byte	0x9eb
 3820 0b32 13       		.uleb128 0x13
 3821 0b33 01       		.uleb128 0x1
 3822 0b34 50       		.byte	0x50
 3823 0b35 05       		.uleb128 0x5
 3824 0b36 03       		.byte	0x3
 3825 0b37 20000000 		.4byte	.LC3
 3826 0b3b 13       		.uleb128 0x13
 3827 0b3c 01       		.uleb128 0x1
 3828 0b3d 51       		.byte	0x51
 3829 0b3e 01       		.uleb128 0x1
 3830 0b3f 35       		.byte	0x35
 3831 0b40 00       		.byte	0
 3832 0b41 00       		.byte	0
 3833 0b42 0D       		.uleb128 0xd
 3834 0b43 96020000 		.4byte	.LASF63
 3835 0b47 01       		.byte	0x1
 3836 0b48 E301     		.2byte	0x1e3
 3837 0b4a 97000000 		.4byte	0x97
 3838 0b4e 00000000 		.4byte	.LFB77
 3839 0b52 C4000000 		.4byte	.LFE77-.LFB77
 3840 0b56 01       		.uleb128 0x1
 3841 0b57 9C       		.byte	0x9c
 3842 0b58 F20B0000 		.4byte	0xbf2
 3843 0b5c 20       		.uleb128 0x20
 3844 0b5d BC000000 		.4byte	.LASF64
 3845 0b61 01       		.byte	0x1
 3846 0b62 EA01     		.2byte	0x1ea
 3847 0b64 36020000 		.4byte	0x236
 3848 0b68 66040000 		.4byte	.LLST21
 3849 0b6c 25       		.uleb128 0x25
 3850 0b6d 59020000 		.4byte	.LASF65
 3851 0b71 01       		.byte	0x1
 3852 0b72 EB01     		.2byte	0x1eb
 3853 0b74 F20B0000 		.4byte	0xbf2
 3854 0b78 02       		.uleb128 0x2
 3855 0b79 91       		.byte	0x91
 3856 0b7a 5C       		.sleb128 -36
 3857 0b7b 0E       		.uleb128 0xe
 3858 0b7c 6900     		.ascii	"i\000"
 3859 0b7e 01       		.byte	0x1
 3860 0b7f EC01     		.2byte	0x1ec
 3861 0b81 97000000 		.4byte	0x97
 3862 0b85 84040000 		.4byte	.LLST22
 3863 0b89 1F       		.uleb128 0x1f
 3864 0b8a 5E000000 		.4byte	.LBB12
 3865 0b8e 3A000000 		.4byte	.LBE12-.LBB12
 3866 0b92 A50B0000 		.4byte	0xba5
 3867 0b96 0E       		.uleb128 0xe
 3868 0b97 6300     		.ascii	"c\000"
 3869 0b99 01       		.byte	0x1
 3870 0b9a FC01     		.2byte	0x1fc
 3871 0b9c 0F020000 		.4byte	0x20f
 3872 0ba0 D0040000 		.4byte	.LLST23
 3873 0ba4 00       		.byte	0
 3874 0ba5 1E       		.uleb128 0x1e
 3875 0ba6 0A000000 		.4byte	.LVL220
ARM GAS  C:\Users\A85590\AppData\Local\Temp\ccILqQZe.s 			page 85


 3876 0baa EB020000 		.4byte	0x2eb
 3877 0bae BC0B0000 		.4byte	0xbbc
 3878 0bb2 13       		.uleb128 0x13
 3879 0bb3 01       		.uleb128 0x1
 3880 0bb4 50       		.byte	0x50
 3881 0bb5 05       		.uleb128 0x5
 3882 0bb6 03       		.byte	0x3
 3883 0bb7 44000000 		.4byte	.LC5
 3884 0bbb 00       		.byte	0
 3885 0bbc 1E       		.uleb128 0x1e
 3886 0bbd 12000000 		.4byte	.LVL221
 3887 0bc1 EB090000 		.4byte	0x9eb
 3888 0bc5 D80B0000 		.4byte	0xbd8
 3889 0bc9 13       		.uleb128 0x13
 3890 0bca 01       		.uleb128 0x1
 3891 0bcb 50       		.byte	0x50
 3892 0bcc 05       		.uleb128 0x5
 3893 0bcd 03       		.byte	0x3
 3894 0bce 50000000 		.4byte	.LC6
 3895 0bd2 13       		.uleb128 0x13
 3896 0bd3 01       		.uleb128 0x1
 3897 0bd4 51       		.byte	0x51
 3898 0bd5 01       		.uleb128 0x1
 3899 0bd6 35       		.byte	0x35
 3900 0bd7 00       		.byte	0
 3901 0bd8 0F       		.uleb128 0xf
 3902 0bd9 1C000000 		.4byte	.LVL222
 3903 0bdd 5C030000 		.4byte	0x35c
 3904 0be1 12       		.uleb128 0x12
 3905 0be2 3C000000 		.4byte	.LVL226
 3906 0be6 3D100000 		.4byte	0x103d
 3907 0bea 13       		.uleb128 0x13
 3908 0beb 01       		.uleb128 0x1
 3909 0bec 51       		.byte	0x51
 3910 0bed 02       		.uleb128 0x2
 3911 0bee 08       		.byte	0x8
 3912 0bef 2C       		.byte	0x2c
 3913 0bf0 00       		.byte	0
 3914 0bf1 00       		.byte	0
 3915 0bf2 21       		.uleb128 0x21
 3916 0bf3 A2000000 		.4byte	0xa2
 3917 0bf7 020C0000 		.4byte	0xc02
 3918 0bfb 22       		.uleb128 0x22
 3919 0bfc 2F020000 		.4byte	0x22f
 3920 0c00 09       		.byte	0x9
 3921 0c01 00       		.byte	0
 3922 0c02 0D       		.uleb128 0xd
 3923 0c03 6F020000 		.4byte	.LASF66
 3924 0c07 01       		.byte	0x1
 3925 0c08 1702     		.2byte	0x217
 3926 0c0a 97000000 		.4byte	0x97
 3927 0c0e 00000000 		.4byte	.LFB78
 3928 0c12 2C000000 		.4byte	.LFE78-.LFB78
 3929 0c16 01       		.uleb128 0x1
 3930 0c17 9C       		.byte	0x9c
 3931 0c18 300C0000 		.4byte	0xc30
 3932 0c1c 12       		.uleb128 0x12
ARM GAS  C:\Users\A85590\AppData\Local\Temp\ccILqQZe.s 			page 86


 3933 0c1d 1C000000 		.4byte	.LVL237
 3934 0c21 EB020000 		.4byte	0x2eb
 3935 0c25 13       		.uleb128 0x13
 3936 0c26 01       		.uleb128 0x1
 3937 0c27 50       		.byte	0x50
 3938 0c28 05       		.uleb128 0x5
 3939 0c29 03       		.byte	0x3
 3940 0c2a 5C000000 		.4byte	.LC7
 3941 0c2e 00       		.byte	0
 3942 0c2f 00       		.byte	0
 3943 0c30 0D       		.uleb128 0xd
 3944 0c31 CB040000 		.4byte	.LASF67
 3945 0c35 01       		.byte	0x1
 3946 0c36 2602     		.2byte	0x226
 3947 0c38 97000000 		.4byte	0x97
 3948 0c3c 00000000 		.4byte	.LFB79
 3949 0c40 34000000 		.4byte	.LFE79-.LFB79
 3950 0c44 01       		.uleb128 0x1
 3951 0c45 9C       		.byte	0x9c
 3952 0c46 7A0C0000 		.4byte	0xc7a
 3953 0c4a 1E       		.uleb128 0x1e
 3954 0c4b 1C000000 		.4byte	.LVL238
 3955 0c4f EB020000 		.4byte	0x2eb
 3956 0c53 610C0000 		.4byte	0xc61
 3957 0c57 13       		.uleb128 0x13
 3958 0c58 01       		.uleb128 0x1
 3959 0c59 50       		.byte	0x50
 3960 0c5a 05       		.uleb128 0x5
 3961 0c5b 03       		.byte	0x3
 3962 0c5c 6C000000 		.4byte	.LC8
 3963 0c60 00       		.byte	0
 3964 0c61 12       		.uleb128 0x12
 3965 0c62 24000000 		.4byte	.LVL239
 3966 0c66 EB090000 		.4byte	0x9eb
 3967 0c6a 13       		.uleb128 0x13
 3968 0c6b 01       		.uleb128 0x1
 3969 0c6c 50       		.byte	0x50
 3970 0c6d 05       		.uleb128 0x5
 3971 0c6e 03       		.byte	0x3
 3972 0c6f 70000000 		.4byte	.LC9
 3973 0c73 13       		.uleb128 0x13
 3974 0c74 01       		.uleb128 0x1
 3975 0c75 51       		.byte	0x51
 3976 0c76 01       		.uleb128 0x1
 3977 0c77 35       		.byte	0x35
 3978 0c78 00       		.byte	0
 3979 0c79 00       		.byte	0
 3980 0c7a 26       		.uleb128 0x26
 3981 0c7b 28020000 		.4byte	.LASF68
 3982 0c7f 01       		.byte	0x1
 3983 0c80 3402     		.2byte	0x234
 3984 0c82 97000000 		.4byte	0x97
 3985 0c86 00000000 		.4byte	.LFB80
 3986 0c8a 24000000 		.4byte	.LFE80-.LFB80
 3987 0c8e 01       		.uleb128 0x1
 3988 0c8f 9C       		.byte	0x9c
 3989 0c90 D40C0000 		.4byte	0xcd4
ARM GAS  C:\Users\A85590\AppData\Local\Temp\ccILqQZe.s 			page 87


 3990 0c94 1E       		.uleb128 0x1e
 3991 0c95 08000000 		.4byte	.LVL240
 3992 0c99 EB020000 		.4byte	0x2eb
 3993 0c9d AB0C0000 		.4byte	0xcab
 3994 0ca1 13       		.uleb128 0x13
 3995 0ca2 01       		.uleb128 0x1
 3996 0ca3 50       		.byte	0x50
 3997 0ca4 05       		.uleb128 0x5
 3998 0ca5 03       		.byte	0x3
 3999 0ca6 80000000 		.4byte	.LC10
 4000 0caa 00       		.byte	0
 4001 0cab 1E       		.uleb128 0x1e
 4002 0cac 0E000000 		.4byte	.LVL241
 4003 0cb0 EB020000 		.4byte	0x2eb
 4004 0cb4 C20C0000 		.4byte	0xcc2
 4005 0cb8 13       		.uleb128 0x13
 4006 0cb9 01       		.uleb128 0x1
 4007 0cba 50       		.byte	0x50
 4008 0cbb 05       		.uleb128 0x5
 4009 0cbc 03       		.byte	0x3
 4010 0cbd B4000000 		.4byte	.LC11
 4011 0cc1 00       		.byte	0
 4012 0cc2 12       		.uleb128 0x12
 4013 0cc3 16000000 		.4byte	.LVL242
 4014 0cc7 27100000 		.4byte	0x1027
 4015 0ccb 13       		.uleb128 0x13
 4016 0ccc 01       		.uleb128 0x1
 4017 0ccd 50       		.byte	0x50
 4018 0cce 03       		.uleb128 0x3
 4019 0ccf 0A       		.byte	0xa
 4020 0cd0 E803     		.2byte	0x3e8
 4021 0cd2 00       		.byte	0
 4022 0cd3 00       		.byte	0
 4023 0cd4 26       		.uleb128 0x26
 4024 0cd5 AA050000 		.4byte	.LASF69
 4025 0cd9 01       		.byte	0x1
 4026 0cda 4D02     		.2byte	0x24d
 4027 0cdc 97000000 		.4byte	0x97
 4028 0ce0 00000000 		.4byte	.LFB81
 4029 0ce4 C0000000 		.4byte	.LFE81-.LFB81
 4030 0ce8 01       		.uleb128 0x1
 4031 0ce9 9C       		.byte	0x9c
 4032 0cea 330D0000 		.4byte	0xd33
 4033 0cee 0E       		.uleb128 0xe
 4034 0cef 6300     		.ascii	"c\000"
 4035 0cf1 01       		.byte	0x1
 4036 0cf2 5102     		.2byte	0x251
 4037 0cf4 0F020000 		.4byte	0x20f
 4038 0cf8 EE040000 		.4byte	.LLST24
 4039 0cfc 0F       		.uleb128 0xf
 4040 0cfd 06000000 		.4byte	.LVL243
 4041 0d01 6F020000 		.4byte	0x26f
 4042 0d05 0F       		.uleb128 0xf
 4043 0d06 12000000 		.4byte	.LVL244
 4044 0d0a 95100000 		.4byte	0x1095
 4045 0d0e 0F       		.uleb128 0xf
 4046 0d0f 16000000 		.4byte	.LVL245
ARM GAS  C:\Users\A85590\AppData\Local\Temp\ccILqQZe.s 			page 88


 4047 0d13 23030000 		.4byte	0x323
 4048 0d17 0F       		.uleb128 0xf
 4049 0d18 1E000000 		.4byte	.LVL246
 4050 0d1c 5C030000 		.4byte	0x35c
 4051 0d20 0F       		.uleb128 0xf
 4052 0d21 22000000 		.4byte	.LVL247
 4053 0d25 9B030000 		.4byte	0x39b
 4054 0d29 0F       		.uleb128 0xf
 4055 0d2a 2C000000 		.4byte	.LVL248
 4056 0d2e A0100000 		.4byte	0x10a0
 4057 0d32 00       		.byte	0
 4058 0d33 1B       		.uleb128 0x1b
 4059 0d34 16030000 		.4byte	.LASF17
 4060 0d38 01       		.byte	0x1
 4061 0d39 2A       		.byte	0x2a
 4062 0d3a 97000000 		.4byte	0x97
 4063 0d3e 05       		.uleb128 0x5
 4064 0d3f 03       		.byte	0x3
 4065 0d40 08010000 		.4byte	hour
 4066 0d44 1B       		.uleb128 0x1b
 4067 0d45 3A050000 		.4byte	.LASF18
 4068 0d49 01       		.byte	0x1
 4069 0d4a 2A       		.byte	0x2a
 4070 0d4b 97000000 		.4byte	0x97
 4071 0d4f 05       		.uleb128 0x5
 4072 0d50 03       		.byte	0x3
 4073 0d51 07010000 		.4byte	minute
 4074 0d55 1B       		.uleb128 0x1b
 4075 0d56 7F030000 		.4byte	.LASF19
 4076 0d5a 01       		.byte	0x1
 4077 0d5b 2A       		.byte	0x2a
 4078 0d5c 97000000 		.4byte	0x97
 4079 0d60 05       		.uleb128 0x5
 4080 0d61 03       		.byte	0x3
 4081 0d62 06010000 		.4byte	seconds
 4082 0d66 1B       		.uleb128 0x1b
 4083 0d67 F3000000 		.4byte	.LASF20
 4084 0d6b 01       		.byte	0x1
 4085 0d6c 2A       		.byte	0x2a
 4086 0d6d 97000000 		.4byte	0x97
 4087 0d71 05       		.uleb128 0x5
 4088 0d72 03       		.byte	0x3
 4089 0d73 05010000 		.4byte	year
 4090 0d77 1B       		.uleb128 0x1b
 4091 0d78 B2010000 		.4byte	.LASF21
 4092 0d7c 01       		.byte	0x1
 4093 0d7d 2A       		.byte	0x2a
 4094 0d7e 97000000 		.4byte	0x97
 4095 0d82 05       		.uleb128 0x5
 4096 0d83 03       		.byte	0x3
 4097 0d84 04010000 		.4byte	month
 4098 0d88 27       		.uleb128 0x27
 4099 0d89 64617900 		.ascii	"day\000"
 4100 0d8d 01       		.byte	0x1
 4101 0d8e 2A       		.byte	0x2a
 4102 0d8f 97000000 		.4byte	0x97
 4103 0d93 05       		.uleb128 0x5
ARM GAS  C:\Users\A85590\AppData\Local\Temp\ccILqQZe.s 			page 89


 4104 0d94 03       		.byte	0x3
 4105 0d95 03010000 		.4byte	day
 4106 0d99 1B       		.uleb128 0x1b
 4107 0d9a 87030000 		.4byte	.LASF22
 4108 0d9e 01       		.byte	0x1
 4109 0d9f 2B       		.byte	0x2b
 4110 0da0 A2000000 		.4byte	0xa2
 4111 0da4 05       		.uleb128 0x5
 4112 0da5 03       		.byte	0x3
 4113 0da6 0C010000 		.4byte	milliseconds
 4114 0daa 1B       		.uleb128 0x1b
 4115 0dab DA020000 		.4byte	.LASF23
 4116 0daf 01       		.byte	0x1
 4117 0db0 2E       		.byte	0x2e
 4118 0db1 08020000 		.4byte	0x208
 4119 0db5 05       		.uleb128 0x5
 4120 0db6 03       		.byte	0x3
 4121 0db7 20010000 		.4byte	latitude
 4122 0dbb 1B       		.uleb128 0x1b
 4123 0dbc 45000000 		.4byte	.LASF24
 4124 0dc0 01       		.byte	0x1
 4125 0dc1 2E       		.byte	0x2e
 4126 0dc2 08020000 		.4byte	0x208
 4127 0dc6 05       		.uleb128 0x5
 4128 0dc7 03       		.byte	0x3
 4129 0dc8 1C010000 		.4byte	longitude
 4130 0dcc 28       		.uleb128 0x28
 4131 0dcd 60020000 		.4byte	.LASF25
 4132 0dd1 01       		.byte	0x1
 4133 0dd2 33       		.byte	0x33
 4134 0dd3 AD000000 		.4byte	0xad
 4135 0dd7 28       		.uleb128 0x28
 4136 0dd8 86020000 		.4byte	.LASF26
 4137 0ddc 01       		.byte	0x1
 4138 0ddd 33       		.byte	0x33
 4139 0dde AD000000 		.4byte	0xad
 4140 0de2 1B       		.uleb128 0x1b
 4141 0de3 01010000 		.4byte	.LASF27
 4142 0de7 01       		.byte	0x1
 4143 0de8 34       		.byte	0x34
 4144 0de9 08020000 		.4byte	0x208
 4145 0ded 05       		.uleb128 0x5
 4146 0dee 03       		.byte	0x3
 4147 0def 24010000 		.4byte	latitudeDegrees
 4148 0df3 1B       		.uleb128 0x1b
 4149 0df4 C5010000 		.4byte	.LASF28
 4150 0df8 01       		.byte	0x1
 4151 0df9 34       		.byte	0x34
 4152 0dfa 08020000 		.4byte	0x208
 4153 0dfe 05       		.uleb128 0x5
 4154 0dff 03       		.byte	0x3
 4155 0e00 28010000 		.4byte	longitudeDegrees
 4156 0e04 28       		.uleb128 0x28
 4157 0e05 EB030000 		.4byte	.LASF29
 4158 0e09 01       		.byte	0x1
 4159 0e0a 35       		.byte	0x35
 4160 0e0b 08020000 		.4byte	0x208
ARM GAS  C:\Users\A85590\AppData\Local\Temp\ccILqQZe.s 			page 90


 4161 0e0f 1B       		.uleb128 0x1b
 4162 0e10 11010000 		.4byte	.LASF30
 4163 0e14 01       		.byte	0x1
 4164 0e15 35       		.byte	0x35
 4165 0e16 08020000 		.4byte	0x208
 4166 0e1a 05       		.uleb128 0x5
 4167 0e1b 03       		.byte	0x3
 4168 0e1c 18010000 		.4byte	altitude
 4169 0e20 1B       		.uleb128 0x1b
 4170 0e21 73050000 		.4byte	.LASF31
 4171 0e25 01       		.byte	0x1
 4172 0e26 36       		.byte	0x36
 4173 0e27 08020000 		.4byte	0x208
 4174 0e2b 05       		.uleb128 0x5
 4175 0e2c 03       		.byte	0x3
 4176 0e2d 14010000 		.4byte	speed
 4177 0e31 1B       		.uleb128 0x1b
 4178 0e32 98000000 		.4byte	.LASF32
 4179 0e36 01       		.byte	0x1
 4180 0e37 36       		.byte	0x36
 4181 0e38 08020000 		.4byte	0x208
 4182 0e3c 05       		.uleb128 0x5
 4183 0e3d 03       		.byte	0x3
 4184 0e3e 10010000 		.4byte	angle
 4185 0e42 28       		.uleb128 0x28
 4186 0e43 19050000 		.4byte	.LASF33
 4187 0e47 01       		.byte	0x1
 4188 0e48 36       		.byte	0x36
 4189 0e49 08020000 		.4byte	0x208
 4190 0e4d 28       		.uleb128 0x28
 4191 0e4e 14050000 		.4byte	.LASF34
 4192 0e52 01       		.byte	0x1
 4193 0e53 36       		.byte	0x36
 4194 0e54 08020000 		.4byte	0x208
 4195 0e58 27       		.uleb128 0x27
 4196 0e59 6C617400 		.ascii	"lat\000"
 4197 0e5d 01       		.byte	0x1
 4198 0e5e 37       		.byte	0x37
 4199 0e5f 0F020000 		.4byte	0x20f
 4200 0e63 05       		.uleb128 0x5
 4201 0e64 03       		.byte	0x3
 4202 0e65 0A010000 		.4byte	lat
 4203 0e69 27       		.uleb128 0x27
 4204 0e6a 6C6F6E00 		.ascii	"lon\000"
 4205 0e6e 01       		.byte	0x1
 4206 0e6f 37       		.byte	0x37
 4207 0e70 0F020000 		.4byte	0x20f
 4208 0e74 05       		.uleb128 0x5
 4209 0e75 03       		.byte	0x3
 4210 0e76 09010000 		.4byte	lon
 4211 0e7a 27       		.uleb128 0x27
 4212 0e7b 66697800 		.ascii	"fix\000"
 4213 0e7f 01       		.byte	0x1
 4214 0e80 38       		.byte	0x38
 4215 0e81 97000000 		.4byte	0x97
 4216 0e85 05       		.uleb128 0x5
 4217 0e86 03       		.byte	0x3
ARM GAS  C:\Users\A85590\AppData\Local\Temp\ccILqQZe.s 			page 91


 4218 0e87 0B010000 		.4byte	fix
 4219 0e8b 1B       		.uleb128 0x1b
 4220 0e8c 65000000 		.4byte	.LASF35
 4221 0e90 01       		.byte	0x1
 4222 0e91 39       		.byte	0x39
 4223 0e92 97000000 		.4byte	0x97
 4224 0e96 05       		.uleb128 0x5
 4225 0e97 03       		.byte	0x3
 4226 0e98 02010000 		.4byte	fixquality
 4227 0e9c 1B       		.uleb128 0x1b
 4228 0e9d 7B020000 		.4byte	.LASF36
 4229 0ea1 01       		.byte	0x1
 4230 0ea2 39       		.byte	0x39
 4231 0ea3 97000000 		.4byte	0x97
 4232 0ea7 05       		.uleb128 0x5
 4233 0ea8 03       		.byte	0x3
 4234 0ea9 01010000 		.4byte	satellites
 4235 0ead 1B       		.uleb128 0x1b
 4236 0eae A8000000 		.4byte	.LASF70
 4237 0eb2 01       		.byte	0x1
 4238 0eb3 3B       		.byte	0x3b
 4239 0eb4 97000000 		.4byte	0x97
 4240 0eb8 05       		.uleb128 0x5
 4241 0eb9 03       		.byte	0x3
 4242 0eba 00000000 		.4byte	paused
 4243 0ebe 28       		.uleb128 0x28
 4244 0ebf 43020000 		.4byte	.LASF71
 4245 0ec3 01       		.byte	0x1
 4246 0ec4 3D       		.byte	0x3d
 4247 0ec5 A2000000 		.4byte	0xa2
 4248 0ec9 28       		.uleb128 0x28
 4249 0eca 16040000 		.4byte	.LASF72
 4250 0ece 01       		.byte	0x1
 4251 0ecf 3D       		.byte	0x3d
 4252 0ed0 A2000000 		.4byte	0xa2
 4253 0ed4 28       		.uleb128 0x28
 4254 0ed5 E1000000 		.4byte	.LASF73
 4255 0ed9 01       		.byte	0x1
 4256 0eda 3E       		.byte	0x3e
 4257 0edb 97000000 		.4byte	0x97
 4258 0edf 28       		.uleb128 0x28
 4259 0ee0 D6000000 		.4byte	.LASF74
 4260 0ee4 01       		.byte	0x1
 4261 0ee5 3E       		.byte	0x3e
 4262 0ee6 97000000 		.4byte	0x97
 4263 0eea 28       		.uleb128 0x28
 4264 0eeb 7A010000 		.4byte	.LASF75
 4265 0eef 01       		.byte	0x1
 4266 0ef0 3E       		.byte	0x3e
 4267 0ef1 97000000 		.4byte	0x97
 4268 0ef5 28       		.uleb128 0x28
 4269 0ef6 36000000 		.4byte	.LASF76
 4270 0efa 01       		.byte	0x1
 4271 0efb 3E       		.byte	0x3e
 4272 0efc 97000000 		.4byte	0x97
 4273 0f00 28       		.uleb128 0x28
 4274 0f01 07030000 		.4byte	.LASF77
ARM GAS  C:\Users\A85590\AppData\Local\Temp\ccILqQZe.s 			page 92


 4275 0f05 01       		.byte	0x1
 4276 0f06 3E       		.byte	0x3e
 4277 0f07 97000000 		.4byte	0x97
 4278 0f0b 28       		.uleb128 0x28
 4279 0f0c CA000000 		.4byte	.LASF78
 4280 0f10 01       		.byte	0x1
 4281 0f11 3E       		.byte	0x3e
 4282 0f12 97000000 		.4byte	0x97
 4283 0f16 28       		.uleb128 0x28
 4284 0f17 F4010000 		.4byte	.LASF79
 4285 0f1b 01       		.byte	0x1
 4286 0f1c 3E       		.byte	0x3e
 4287 0f1d 97000000 		.4byte	0x97
 4288 0f21 28       		.uleb128 0x28
 4289 0f22 57000000 		.4byte	.LASF80
 4290 0f26 01       		.byte	0x1
 4291 0f27 3E       		.byte	0x3e
 4292 0f28 97000000 		.4byte	0x97
 4293 0f2c 21       		.uleb128 0x21
 4294 0f2d 3C0F0000 		.4byte	0xf3c
 4295 0f31 3C0F0000 		.4byte	0xf3c
 4296 0f35 22       		.uleb128 0x22
 4297 0f36 2F020000 		.4byte	0x22f
 4298 0f3a 77       		.byte	0x77
 4299 0f3b 00       		.byte	0
 4300 0f3c 0A       		.uleb128 0xa
 4301 0f3d 0F020000 		.4byte	0x20f
 4302 0f41 1B       		.uleb128 0x1b
 4303 0f42 87010000 		.4byte	.LASF81
 4304 0f46 01       		.byte	0x1
 4305 0f47 41       		.byte	0x41
 4306 0f48 520F0000 		.4byte	0xf52
 4307 0f4c 05       		.uleb128 0x5
 4308 0f4d 03       		.byte	0x3
 4309 0f4e 0C000000 		.4byte	line1
 4310 0f52 0A       		.uleb128 0xa
 4311 0f53 2C0F0000 		.4byte	0xf2c
 4312 0f57 1B       		.uleb128 0x1b
 4313 0f58 8D010000 		.4byte	.LASF82
 4314 0f5c 01       		.byte	0x1
 4315 0f5d 42       		.byte	0x42
 4316 0f5e 680F0000 		.4byte	0xf68
 4317 0f62 05       		.uleb128 0x5
 4318 0f63 03       		.byte	0x3
 4319 0f64 84000000 		.4byte	line2
 4320 0f68 0A       		.uleb128 0xa
 4321 0f69 2C0F0000 		.4byte	0xf2c
 4322 0f6d 1B       		.uleb128 0x1b
 4323 0f6e B2040000 		.4byte	.LASF83
 4324 0f72 01       		.byte	0x1
 4325 0f73 44       		.byte	0x44
 4326 0f74 47020000 		.4byte	0x247
 4327 0f78 05       		.uleb128 0x5
 4328 0f79 03       		.byte	0x3
 4329 0f7a 08000000 		.4byte	lineidx
 4330 0f7e 1B       		.uleb128 0x1b
 4331 0f7f 1C020000 		.4byte	.LASF84
ARM GAS  C:\Users\A85590\AppData\Local\Temp\ccILqQZe.s 			page 93


 4332 0f83 01       		.byte	0x1
 4333 0f84 46       		.byte	0x46
 4334 0f85 8F0F0000 		.4byte	0xf8f
 4335 0f89 05       		.uleb128 0x5
 4336 0f8a 03       		.byte	0x3
 4337 0f8b 04000000 		.4byte	currentline
 4338 0f8f 08       		.uleb128 0x8
 4339 0f90 04       		.byte	0x4
 4340 0f91 3C0F0000 		.4byte	0xf3c
 4341 0f95 1B       		.uleb128 0x1b
 4342 0f96 5C010000 		.4byte	.LASF85
 4343 0f9a 01       		.byte	0x1
 4344 0f9b 47       		.byte	0x47
 4345 0f9c 8F0F0000 		.4byte	0xf8f
 4346 0fa0 05       		.uleb128 0x5
 4347 0fa1 03       		.byte	0x3
 4348 0fa2 FC000000 		.4byte	lastline
 4349 0fa6 1B       		.uleb128 0x1b
 4350 0fa7 52010000 		.4byte	.LASF86
 4351 0fab 01       		.byte	0x1
 4352 0fac 48       		.byte	0x48
 4353 0fad 47020000 		.4byte	0x247
 4354 0fb1 05       		.uleb128 0x5
 4355 0fb2 03       		.byte	0x3
 4356 0fb3 00010000 		.4byte	recvdflag
 4357 0fb7 1B       		.uleb128 0x1b
 4358 0fb8 01040000 		.4byte	.LASF87
 4359 0fbc 01       		.byte	0x1
 4360 0fbd 49       		.byte	0x49
 4361 0fbe 47020000 		.4byte	0x247
 4362 0fc2 05       		.uleb128 0x5
 4363 0fc3 03       		.byte	0x3
 4364 0fc4 2C010000 		.4byte	inStandbyMode
 4365 0fc8 29       		.uleb128 0x29
 4366 0fc9 28000000 		.4byte	.LASF88
 4367 0fcd 05       		.byte	0x5
 4368 0fce 2E       		.byte	0x2e
 4369 0fcf 3C020000 		.4byte	0x23c
 4370 0fd3 2A       		.uleb128 0x2a
 4371 0fd4 AF000000 		.4byte	.LASF89
 4372 0fd8 06       		.byte	0x6
 4373 0fd9 9606     		.2byte	0x696
 4374 0fdb DF0F0000 		.4byte	0xfdf
 4375 0fdf 0A       		.uleb128 0xa
 4376 0fe0 AD000000 		.4byte	0xad
 4377 0fe4 2B       		.uleb128 0x2b
 4378 0fe5 47505300 		.ascii	"GPS\000"
 4379 0fe9 0E       		.byte	0xe
 4380 0fea 2B       		.byte	0x2b
 4381 0feb 16020000 		.4byte	0x216
 4382 0fef 2C       		.uleb128 0x2c
 4383 0ff0 98050000 		.4byte	.LASF90
 4384 0ff4 01       		.byte	0x1
 4385 0ff5 1A       		.byte	0x1a
 4386 0ff6 97000000 		.4byte	0x97
 4387 0ffa 05       		.uleb128 0x5
 4388 0ffb 03       		.byte	0x3
ARM GAS  C:\Users\A85590\AppData\Local\Temp\ccILqQZe.s 			page 94


 4389 0ffc 00000000 		.4byte	GPSECHO
 4390 1000 2C       		.uleb128 0x2c
 4391 1001 C8020000 		.4byte	.LASF91
 4392 1005 01       		.byte	0x1
 4393 1006 24       		.byte	0x24
 4394 1007 B8000000 		.4byte	0xb8
 4395 100b 05       		.uleb128 0x5
 4396 100c 03       		.byte	0x3
 4397 100d 00000000 		.4byte	last_time_printed
 4398 1011 2D       		.uleb128 0x2d
 4399 1012 38010000 		.4byte	.LASF92
 4400 1016 38010000 		.4byte	.LASF92
 4401 101a 07       		.byte	0x7
 4402 101b 73       		.byte	0x73
 4403 101c 2D       		.uleb128 0x2d
 4404 101d 00000000 		.4byte	.LASF93
 4405 1021 00000000 		.4byte	.LASF93
 4406 1025 07       		.byte	0x7
 4407 1026 71       		.byte	0x71
 4408 1027 2D       		.uleb128 0x2d
 4409 1028 32050000 		.4byte	.LASF94
 4410 102c 32050000 		.4byte	.LASF94
 4411 1030 08       		.byte	0x8
 4412 1031 76       		.byte	0x76
 4413 1032 2D       		.uleb128 0x2d
 4414 1033 84050000 		.4byte	.LASF95
 4415 1037 84050000 		.4byte	.LASF95
 4416 103b 07       		.byte	0x7
 4417 103c 8B       		.byte	0x8b
 4418 103d 2D       		.uleb128 0x2d
 4419 103e EC000000 		.4byte	.LASF96
 4420 1042 EC000000 		.4byte	.LASF96
 4421 1046 09       		.byte	0x9
 4422 1047 1B       		.byte	0x1b
 4423 1048 2D       		.uleb128 0x2d
 4424 1049 A4030000 		.4byte	.LASF97
 4425 104d A4030000 		.4byte	.LASF97
 4426 1051 0A       		.byte	0xa
 4427 1052 49       		.byte	0x49
 4428 1053 2D       		.uleb128 0x2d
 4429 1054 DD010000 		.4byte	.LASF98
 4430 1058 DD010000 		.4byte	.LASF98
 4431 105c 0B       		.byte	0xb
 4432 105d 88       		.byte	0x88
 4433 105e 2D       		.uleb128 0x2d
 4434 105f 4F000000 		.4byte	.LASF99
 4435 1063 4F000000 		.4byte	.LASF99
 4436 1067 09       		.byte	0x9
 4437 1068 24       		.byte	0x24
 4438 1069 2D       		.uleb128 0x2d
 4439 106a AD010000 		.4byte	.LASF100
 4440 106e AD010000 		.4byte	.LASF100
 4441 1072 0A       		.byte	0xa
 4442 1073 4F       		.byte	0x4f
 4443 1074 2D       		.uleb128 0x2d
 4444 1075 B9030000 		.4byte	.LASF101
 4445 1079 B9030000 		.4byte	.LASF101
ARM GAS  C:\Users\A85590\AppData\Local\Temp\ccILqQZe.s 			page 95


 4446 107d 0A       		.byte	0xa
 4447 107e 4D       		.byte	0x4d
 4448 107f 2D       		.uleb128 0x2d
 4449 1080 D6010000 		.4byte	.LASF102
 4450 1084 D6010000 		.4byte	.LASF102
 4451 1088 09       		.byte	0x9
 4452 1089 21       		.byte	0x21
 4453 108a 2D       		.uleb128 0x2d
 4454 108b 91000000 		.4byte	.LASF103
 4455 108f 91000000 		.4byte	.LASF103
 4456 1093 09       		.byte	0x9
 4457 1094 28       		.byte	0x28
 4458 1095 2D       		.uleb128 0x2d
 4459 1096 32020000 		.4byte	.LASF104
 4460 109a 32020000 		.4byte	.LASF104
 4461 109e 0C       		.byte	0xc
 4462 109f 07       		.byte	0x7
 4463 10a0 2D       		.uleb128 0x2d
 4464 10a1 A6010000 		.4byte	.LASF105
 4465 10a5 A6010000 		.4byte	.LASF105
 4466 10a9 0D       		.byte	0xd
 4467 10aa 0A       		.byte	0xa
 4468 10ab 00       		.byte	0
 4469              		.section	.debug_abbrev,"",%progbits
 4470              	.Ldebug_abbrev0:
 4471 0000 01       		.uleb128 0x1
 4472 0001 11       		.uleb128 0x11
 4473 0002 01       		.byte	0x1
 4474 0003 25       		.uleb128 0x25
 4475 0004 0E       		.uleb128 0xe
 4476 0005 13       		.uleb128 0x13
 4477 0006 0B       		.uleb128 0xb
 4478 0007 03       		.uleb128 0x3
 4479 0008 0E       		.uleb128 0xe
 4480 0009 1B       		.uleb128 0x1b
 4481 000a 0E       		.uleb128 0xe
 4482 000b 55       		.uleb128 0x55
 4483 000c 17       		.uleb128 0x17
 4484 000d 11       		.uleb128 0x11
 4485 000e 01       		.uleb128 0x1
 4486 000f 10       		.uleb128 0x10
 4487 0010 17       		.uleb128 0x17
 4488 0011 00       		.byte	0
 4489 0012 00       		.byte	0
 4490 0013 02       		.uleb128 0x2
 4491 0014 24       		.uleb128 0x24
 4492 0015 00       		.byte	0
 4493 0016 0B       		.uleb128 0xb
 4494 0017 0B       		.uleb128 0xb
 4495 0018 3E       		.uleb128 0x3e
 4496 0019 0B       		.uleb128 0xb
 4497 001a 03       		.uleb128 0x3
 4498 001b 0E       		.uleb128 0xe
 4499 001c 00       		.byte	0
 4500 001d 00       		.byte	0
 4501 001e 03       		.uleb128 0x3
 4502 001f 16       		.uleb128 0x16
ARM GAS  C:\Users\A85590\AppData\Local\Temp\ccILqQZe.s 			page 96


 4503 0020 00       		.byte	0
 4504 0021 03       		.uleb128 0x3
 4505 0022 0E       		.uleb128 0xe
 4506 0023 3A       		.uleb128 0x3a
 4507 0024 0B       		.uleb128 0xb
 4508 0025 3B       		.uleb128 0x3b
 4509 0026 0B       		.uleb128 0xb
 4510 0027 49       		.uleb128 0x49
 4511 0028 13       		.uleb128 0x13
 4512 0029 00       		.byte	0
 4513 002a 00       		.byte	0
 4514 002b 04       		.uleb128 0x4
 4515 002c 24       		.uleb128 0x24
 4516 002d 00       		.byte	0
 4517 002e 0B       		.uleb128 0xb
 4518 002f 0B       		.uleb128 0xb
 4519 0030 3E       		.uleb128 0x3e
 4520 0031 0B       		.uleb128 0xb
 4521 0032 03       		.uleb128 0x3
 4522 0033 08       		.uleb128 0x8
 4523 0034 00       		.byte	0
 4524 0035 00       		.byte	0
 4525 0036 05       		.uleb128 0x5
 4526 0037 13       		.uleb128 0x13
 4527 0038 01       		.byte	0x1
 4528 0039 03       		.uleb128 0x3
 4529 003a 0E       		.uleb128 0xe
 4530 003b 0B       		.uleb128 0xb
 4531 003c 0B       		.uleb128 0xb
 4532 003d 3A       		.uleb128 0x3a
 4533 003e 0B       		.uleb128 0xb
 4534 003f 3B       		.uleb128 0x3b
 4535 0040 0B       		.uleb128 0xb
 4536 0041 01       		.uleb128 0x1
 4537 0042 13       		.uleb128 0x13
 4538 0043 00       		.byte	0
 4539 0044 00       		.byte	0
 4540 0045 06       		.uleb128 0x6
 4541 0046 0D       		.uleb128 0xd
 4542 0047 00       		.byte	0
 4543 0048 03       		.uleb128 0x3
 4544 0049 0E       		.uleb128 0xe
 4545 004a 3A       		.uleb128 0x3a
 4546 004b 0B       		.uleb128 0xb
 4547 004c 3B       		.uleb128 0x3b
 4548 004d 0B       		.uleb128 0xb
 4549 004e 49       		.uleb128 0x49
 4550 004f 13       		.uleb128 0x13
 4551 0050 38       		.uleb128 0x38
 4552 0051 0B       		.uleb128 0xb
 4553 0052 00       		.byte	0
 4554 0053 00       		.byte	0
 4555 0054 07       		.uleb128 0x7
 4556 0055 0D       		.uleb128 0xd
 4557 0056 00       		.byte	0
 4558 0057 03       		.uleb128 0x3
 4559 0058 08       		.uleb128 0x8
ARM GAS  C:\Users\A85590\AppData\Local\Temp\ccILqQZe.s 			page 97


 4560 0059 3A       		.uleb128 0x3a
 4561 005a 0B       		.uleb128 0xb
 4562 005b 3B       		.uleb128 0x3b
 4563 005c 0B       		.uleb128 0xb
 4564 005d 49       		.uleb128 0x49
 4565 005e 13       		.uleb128 0x13
 4566 005f 38       		.uleb128 0x38
 4567 0060 0B       		.uleb128 0xb
 4568 0061 00       		.byte	0
 4569 0062 00       		.byte	0
 4570 0063 08       		.uleb128 0x8
 4571 0064 0F       		.uleb128 0xf
 4572 0065 00       		.byte	0
 4573 0066 0B       		.uleb128 0xb
 4574 0067 0B       		.uleb128 0xb
 4575 0068 49       		.uleb128 0x49
 4576 0069 13       		.uleb128 0x13
 4577 006a 00       		.byte	0
 4578 006b 00       		.byte	0
 4579 006c 09       		.uleb128 0x9
 4580 006d 26       		.uleb128 0x26
 4581 006e 00       		.byte	0
 4582 006f 49       		.uleb128 0x49
 4583 0070 13       		.uleb128 0x13
 4584 0071 00       		.byte	0
 4585 0072 00       		.byte	0
 4586 0073 0A       		.uleb128 0xa
 4587 0074 35       		.uleb128 0x35
 4588 0075 00       		.byte	0
 4589 0076 49       		.uleb128 0x49
 4590 0077 13       		.uleb128 0x13
 4591 0078 00       		.byte	0
 4592 0079 00       		.byte	0
 4593 007a 0B       		.uleb128 0xb
 4594 007b 2E       		.uleb128 0x2e
 4595 007c 01       		.byte	0x1
 4596 007d 3F       		.uleb128 0x3f
 4597 007e 19       		.uleb128 0x19
 4598 007f 03       		.uleb128 0x3
 4599 0080 0E       		.uleb128 0xe
 4600 0081 3A       		.uleb128 0x3a
 4601 0082 0B       		.uleb128 0xb
 4602 0083 3B       		.uleb128 0x3b
 4603 0084 0B       		.uleb128 0xb
 4604 0085 27       		.uleb128 0x27
 4605 0086 19       		.uleb128 0x19
 4606 0087 11       		.uleb128 0x11
 4607 0088 01       		.uleb128 0x1
 4608 0089 12       		.uleb128 0x12
 4609 008a 06       		.uleb128 0x6
 4610 008b 40       		.uleb128 0x40
 4611 008c 18       		.uleb128 0x18
 4612 008d 9742     		.uleb128 0x2117
 4613 008f 19       		.uleb128 0x19
 4614 0090 01       		.uleb128 0x1
 4615 0091 13       		.uleb128 0x13
 4616 0092 00       		.byte	0
ARM GAS  C:\Users\A85590\AppData\Local\Temp\ccILqQZe.s 			page 98


 4617 0093 00       		.byte	0
 4618 0094 0C       		.uleb128 0xc
 4619 0095 05       		.uleb128 0x5
 4620 0096 00       		.byte	0
 4621 0097 03       		.uleb128 0x3
 4622 0098 08       		.uleb128 0x8
 4623 0099 3A       		.uleb128 0x3a
 4624 009a 0B       		.uleb128 0xb
 4625 009b 3B       		.uleb128 0x3b
 4626 009c 0B       		.uleb128 0xb
 4627 009d 49       		.uleb128 0x49
 4628 009e 13       		.uleb128 0x13
 4629 009f 02       		.uleb128 0x2
 4630 00a0 18       		.uleb128 0x18
 4631 00a1 00       		.byte	0
 4632 00a2 00       		.byte	0
 4633 00a3 0D       		.uleb128 0xd
 4634 00a4 2E       		.uleb128 0x2e
 4635 00a5 01       		.byte	0x1
 4636 00a6 3F       		.uleb128 0x3f
 4637 00a7 19       		.uleb128 0x19
 4638 00a8 03       		.uleb128 0x3
 4639 00a9 0E       		.uleb128 0xe
 4640 00aa 3A       		.uleb128 0x3a
 4641 00ab 0B       		.uleb128 0xb
 4642 00ac 3B       		.uleb128 0x3b
 4643 00ad 05       		.uleb128 0x5
 4644 00ae 27       		.uleb128 0x27
 4645 00af 19       		.uleb128 0x19
 4646 00b0 49       		.uleb128 0x49
 4647 00b1 13       		.uleb128 0x13
 4648 00b2 11       		.uleb128 0x11
 4649 00b3 01       		.uleb128 0x1
 4650 00b4 12       		.uleb128 0x12
 4651 00b5 06       		.uleb128 0x6
 4652 00b6 40       		.uleb128 0x40
 4653 00b7 18       		.uleb128 0x18
 4654 00b8 9742     		.uleb128 0x2117
 4655 00ba 19       		.uleb128 0x19
 4656 00bb 01       		.uleb128 0x1
 4657 00bc 13       		.uleb128 0x13
 4658 00bd 00       		.byte	0
 4659 00be 00       		.byte	0
 4660 00bf 0E       		.uleb128 0xe
 4661 00c0 34       		.uleb128 0x34
 4662 00c1 00       		.byte	0
 4663 00c2 03       		.uleb128 0x3
 4664 00c3 08       		.uleb128 0x8
 4665 00c4 3A       		.uleb128 0x3a
 4666 00c5 0B       		.uleb128 0xb
 4667 00c6 3B       		.uleb128 0x3b
 4668 00c7 05       		.uleb128 0x5
 4669 00c8 49       		.uleb128 0x49
 4670 00c9 13       		.uleb128 0x13
 4671 00ca 02       		.uleb128 0x2
 4672 00cb 17       		.uleb128 0x17
 4673 00cc 00       		.byte	0
ARM GAS  C:\Users\A85590\AppData\Local\Temp\ccILqQZe.s 			page 99


 4674 00cd 00       		.byte	0
 4675 00ce 0F       		.uleb128 0xf
 4676 00cf 898201   		.uleb128 0x4109
 4677 00d2 00       		.byte	0
 4678 00d3 11       		.uleb128 0x11
 4679 00d4 01       		.uleb128 0x1
 4680 00d5 31       		.uleb128 0x31
 4681 00d6 13       		.uleb128 0x13
 4682 00d7 00       		.byte	0
 4683 00d8 00       		.byte	0
 4684 00d9 10       		.uleb128 0x10
 4685 00da 2E       		.uleb128 0x2e
 4686 00db 00       		.byte	0
 4687 00dc 3F       		.uleb128 0x3f
 4688 00dd 19       		.uleb128 0x19
 4689 00de 03       		.uleb128 0x3
 4690 00df 0E       		.uleb128 0xe
 4691 00e0 3A       		.uleb128 0x3a
 4692 00e1 0B       		.uleb128 0xb
 4693 00e2 3B       		.uleb128 0x3b
 4694 00e3 05       		.uleb128 0x5
 4695 00e4 27       		.uleb128 0x27
 4696 00e5 19       		.uleb128 0x19
 4697 00e6 11       		.uleb128 0x11
 4698 00e7 01       		.uleb128 0x1
 4699 00e8 12       		.uleb128 0x12
 4700 00e9 06       		.uleb128 0x6
 4701 00ea 40       		.uleb128 0x40
 4702 00eb 18       		.uleb128 0x18
 4703 00ec 9742     		.uleb128 0x2117
 4704 00ee 19       		.uleb128 0x19
 4705 00ef 00       		.byte	0
 4706 00f0 00       		.byte	0
 4707 00f1 11       		.uleb128 0x11
 4708 00f2 2E       		.uleb128 0x2e
 4709 00f3 01       		.byte	0x1
 4710 00f4 3F       		.uleb128 0x3f
 4711 00f5 19       		.uleb128 0x19
 4712 00f6 03       		.uleb128 0x3
 4713 00f7 0E       		.uleb128 0xe
 4714 00f8 3A       		.uleb128 0x3a
 4715 00f9 0B       		.uleb128 0xb
 4716 00fa 3B       		.uleb128 0x3b
 4717 00fb 05       		.uleb128 0x5
 4718 00fc 11       		.uleb128 0x11
 4719 00fd 01       		.uleb128 0x1
 4720 00fe 12       		.uleb128 0x12
 4721 00ff 06       		.uleb128 0x6
 4722 0100 40       		.uleb128 0x40
 4723 0101 18       		.uleb128 0x18
 4724 0102 9742     		.uleb128 0x2117
 4725 0104 19       		.uleb128 0x19
 4726 0105 01       		.uleb128 0x1
 4727 0106 13       		.uleb128 0x13
 4728 0107 00       		.byte	0
 4729 0108 00       		.byte	0
 4730 0109 12       		.uleb128 0x12
ARM GAS  C:\Users\A85590\AppData\Local\Temp\ccILqQZe.s 			page 100


 4731 010a 898201   		.uleb128 0x4109
 4732 010d 01       		.byte	0x1
 4733 010e 11       		.uleb128 0x11
 4734 010f 01       		.uleb128 0x1
 4735 0110 31       		.uleb128 0x31
 4736 0111 13       		.uleb128 0x13
 4737 0112 00       		.byte	0
 4738 0113 00       		.byte	0
 4739 0114 13       		.uleb128 0x13
 4740 0115 8A8201   		.uleb128 0x410a
 4741 0118 00       		.byte	0
 4742 0119 02       		.uleb128 0x2
 4743 011a 18       		.uleb128 0x18
 4744 011b 9142     		.uleb128 0x2111
 4745 011d 18       		.uleb128 0x18
 4746 011e 00       		.byte	0
 4747 011f 00       		.byte	0
 4748 0120 14       		.uleb128 0x14
 4749 0121 2E       		.uleb128 0x2e
 4750 0122 01       		.byte	0x1
 4751 0123 3F       		.uleb128 0x3f
 4752 0124 19       		.uleb128 0x19
 4753 0125 03       		.uleb128 0x3
 4754 0126 0E       		.uleb128 0xe
 4755 0127 3A       		.uleb128 0x3a
 4756 0128 0B       		.uleb128 0xb
 4757 0129 3B       		.uleb128 0x3b
 4758 012a 05       		.uleb128 0x5
 4759 012b 27       		.uleb128 0x27
 4760 012c 19       		.uleb128 0x19
 4761 012d 11       		.uleb128 0x11
 4762 012e 01       		.uleb128 0x1
 4763 012f 12       		.uleb128 0x12
 4764 0130 06       		.uleb128 0x6
 4765 0131 40       		.uleb128 0x40
 4766 0132 18       		.uleb128 0x18
 4767 0133 9742     		.uleb128 0x2117
 4768 0135 19       		.uleb128 0x19
 4769 0136 01       		.uleb128 0x1
 4770 0137 13       		.uleb128 0x13
 4771 0138 00       		.byte	0
 4772 0139 00       		.byte	0
 4773 013a 15       		.uleb128 0x15
 4774 013b 05       		.uleb128 0x5
 4775 013c 00       		.byte	0
 4776 013d 03       		.uleb128 0x3
 4777 013e 08       		.uleb128 0x8
 4778 013f 3A       		.uleb128 0x3a
 4779 0140 0B       		.uleb128 0xb
 4780 0141 3B       		.uleb128 0x3b
 4781 0142 05       		.uleb128 0x5
 4782 0143 49       		.uleb128 0x49
 4783 0144 13       		.uleb128 0x13
 4784 0145 02       		.uleb128 0x2
 4785 0146 17       		.uleb128 0x17
 4786 0147 00       		.byte	0
 4787 0148 00       		.byte	0
ARM GAS  C:\Users\A85590\AppData\Local\Temp\ccILqQZe.s 			page 101


 4788 0149 16       		.uleb128 0x16
 4789 014a 2E       		.uleb128 0x2e
 4790 014b 00       		.byte	0
 4791 014c 3F       		.uleb128 0x3f
 4792 014d 19       		.uleb128 0x19
 4793 014e 03       		.uleb128 0x3
 4794 014f 0E       		.uleb128 0xe
 4795 0150 3A       		.uleb128 0x3a
 4796 0151 0B       		.uleb128 0xb
 4797 0152 3B       		.uleb128 0x3b
 4798 0153 05       		.uleb128 0x5
 4799 0154 27       		.uleb128 0x27
 4800 0155 19       		.uleb128 0x19
 4801 0156 49       		.uleb128 0x49
 4802 0157 13       		.uleb128 0x13
 4803 0158 11       		.uleb128 0x11
 4804 0159 01       		.uleb128 0x1
 4805 015a 12       		.uleb128 0x12
 4806 015b 06       		.uleb128 0x6
 4807 015c 40       		.uleb128 0x40
 4808 015d 18       		.uleb128 0x18
 4809 015e 9742     		.uleb128 0x2117
 4810 0160 19       		.uleb128 0x19
 4811 0161 00       		.byte	0
 4812 0162 00       		.byte	0
 4813 0163 17       		.uleb128 0x17
 4814 0164 05       		.uleb128 0x5
 4815 0165 00       		.byte	0
 4816 0166 03       		.uleb128 0x3
 4817 0167 08       		.uleb128 0x8
 4818 0168 3A       		.uleb128 0x3a
 4819 0169 0B       		.uleb128 0xb
 4820 016a 3B       		.uleb128 0x3b
 4821 016b 05       		.uleb128 0x5
 4822 016c 49       		.uleb128 0x49
 4823 016d 13       		.uleb128 0x13
 4824 016e 02       		.uleb128 0x2
 4825 016f 18       		.uleb128 0x18
 4826 0170 00       		.byte	0
 4827 0171 00       		.byte	0
 4828 0172 18       		.uleb128 0x18
 4829 0173 2E       		.uleb128 0x2e
 4830 0174 01       		.byte	0x1
 4831 0175 3F       		.uleb128 0x3f
 4832 0176 19       		.uleb128 0x19
 4833 0177 03       		.uleb128 0x3
 4834 0178 0E       		.uleb128 0xe
 4835 0179 3A       		.uleb128 0x3a
 4836 017a 0B       		.uleb128 0xb
 4837 017b 3B       		.uleb128 0x3b
 4838 017c 0B       		.uleb128 0xb
 4839 017d 27       		.uleb128 0x27
 4840 017e 19       		.uleb128 0x19
 4841 017f 49       		.uleb128 0x49
 4842 0180 13       		.uleb128 0x13
 4843 0181 11       		.uleb128 0x11
 4844 0182 01       		.uleb128 0x1
ARM GAS  C:\Users\A85590\AppData\Local\Temp\ccILqQZe.s 			page 102


 4845 0183 12       		.uleb128 0x12
 4846 0184 06       		.uleb128 0x6
 4847 0185 40       		.uleb128 0x40
 4848 0186 18       		.uleb128 0x18
 4849 0187 9642     		.uleb128 0x2116
 4850 0189 19       		.uleb128 0x19
 4851 018a 01       		.uleb128 0x1
 4852 018b 13       		.uleb128 0x13
 4853 018c 00       		.byte	0
 4854 018d 00       		.byte	0
 4855 018e 19       		.uleb128 0x19
 4856 018f 05       		.uleb128 0x5
 4857 0190 00       		.byte	0
 4858 0191 03       		.uleb128 0x3
 4859 0192 0E       		.uleb128 0xe
 4860 0193 3A       		.uleb128 0x3a
 4861 0194 0B       		.uleb128 0xb
 4862 0195 3B       		.uleb128 0x3b
 4863 0196 0B       		.uleb128 0xb
 4864 0197 49       		.uleb128 0x49
 4865 0198 13       		.uleb128 0x13
 4866 0199 02       		.uleb128 0x2
 4867 019a 17       		.uleb128 0x17
 4868 019b 00       		.byte	0
 4869 019c 00       		.byte	0
 4870 019d 1A       		.uleb128 0x1a
 4871 019e 34       		.uleb128 0x34
 4872 019f 00       		.byte	0
 4873 01a0 03       		.uleb128 0x3
 4874 01a1 0E       		.uleb128 0xe
 4875 01a2 3A       		.uleb128 0x3a
 4876 01a3 0B       		.uleb128 0xb
 4877 01a4 3B       		.uleb128 0x3b
 4878 01a5 0B       		.uleb128 0xb
 4879 01a6 49       		.uleb128 0x49
 4880 01a7 13       		.uleb128 0x13
 4881 01a8 02       		.uleb128 0x2
 4882 01a9 17       		.uleb128 0x17
 4883 01aa 00       		.byte	0
 4884 01ab 00       		.byte	0
 4885 01ac 1B       		.uleb128 0x1b
 4886 01ad 34       		.uleb128 0x34
 4887 01ae 00       		.byte	0
 4888 01af 03       		.uleb128 0x3
 4889 01b0 0E       		.uleb128 0xe
 4890 01b1 3A       		.uleb128 0x3a
 4891 01b2 0B       		.uleb128 0xb
 4892 01b3 3B       		.uleb128 0x3b
 4893 01b4 0B       		.uleb128 0xb
 4894 01b5 49       		.uleb128 0x49
 4895 01b6 13       		.uleb128 0x13
 4896 01b7 02       		.uleb128 0x2
 4897 01b8 18       		.uleb128 0x18
 4898 01b9 00       		.byte	0
 4899 01ba 00       		.byte	0
 4900 01bb 1C       		.uleb128 0x1c
 4901 01bc 0B       		.uleb128 0xb
ARM GAS  C:\Users\A85590\AppData\Local\Temp\ccILqQZe.s 			page 103


 4902 01bd 01       		.byte	0x1
 4903 01be 55       		.uleb128 0x55
 4904 01bf 17       		.uleb128 0x17
 4905 01c0 01       		.uleb128 0x1
 4906 01c1 13       		.uleb128 0x13
 4907 01c2 00       		.byte	0
 4908 01c3 00       		.byte	0
 4909 01c4 1D       		.uleb128 0x1d
 4910 01c5 34       		.uleb128 0x34
 4911 01c6 00       		.byte	0
 4912 01c7 03       		.uleb128 0x3
 4913 01c8 08       		.uleb128 0x8
 4914 01c9 3A       		.uleb128 0x3a
 4915 01ca 0B       		.uleb128 0xb
 4916 01cb 3B       		.uleb128 0x3b
 4917 01cc 0B       		.uleb128 0xb
 4918 01cd 49       		.uleb128 0x49
 4919 01ce 13       		.uleb128 0x13
 4920 01cf 02       		.uleb128 0x2
 4921 01d0 17       		.uleb128 0x17
 4922 01d1 00       		.byte	0
 4923 01d2 00       		.byte	0
 4924 01d3 1E       		.uleb128 0x1e
 4925 01d4 898201   		.uleb128 0x4109
 4926 01d7 01       		.byte	0x1
 4927 01d8 11       		.uleb128 0x11
 4928 01d9 01       		.uleb128 0x1
 4929 01da 31       		.uleb128 0x31
 4930 01db 13       		.uleb128 0x13
 4931 01dc 01       		.uleb128 0x1
 4932 01dd 13       		.uleb128 0x13
 4933 01de 00       		.byte	0
 4934 01df 00       		.byte	0
 4935 01e0 1F       		.uleb128 0x1f
 4936 01e1 0B       		.uleb128 0xb
 4937 01e2 01       		.byte	0x1
 4938 01e3 11       		.uleb128 0x11
 4939 01e4 01       		.uleb128 0x1
 4940 01e5 12       		.uleb128 0x12
 4941 01e6 06       		.uleb128 0x6
 4942 01e7 01       		.uleb128 0x1
 4943 01e8 13       		.uleb128 0x13
 4944 01e9 00       		.byte	0
 4945 01ea 00       		.byte	0
 4946 01eb 20       		.uleb128 0x20
 4947 01ec 34       		.uleb128 0x34
 4948 01ed 00       		.byte	0
 4949 01ee 03       		.uleb128 0x3
 4950 01ef 0E       		.uleb128 0xe
 4951 01f0 3A       		.uleb128 0x3a
 4952 01f1 0B       		.uleb128 0xb
 4953 01f2 3B       		.uleb128 0x3b
 4954 01f3 05       		.uleb128 0x5
 4955 01f4 49       		.uleb128 0x49
 4956 01f5 13       		.uleb128 0x13
 4957 01f6 02       		.uleb128 0x2
 4958 01f7 17       		.uleb128 0x17
ARM GAS  C:\Users\A85590\AppData\Local\Temp\ccILqQZe.s 			page 104


 4959 01f8 00       		.byte	0
 4960 01f9 00       		.byte	0
 4961 01fa 21       		.uleb128 0x21
 4962 01fb 01       		.uleb128 0x1
 4963 01fc 01       		.byte	0x1
 4964 01fd 49       		.uleb128 0x49
 4965 01fe 13       		.uleb128 0x13
 4966 01ff 01       		.uleb128 0x1
 4967 0200 13       		.uleb128 0x13
 4968 0201 00       		.byte	0
 4969 0202 00       		.byte	0
 4970 0203 22       		.uleb128 0x22
 4971 0204 21       		.uleb128 0x21
 4972 0205 00       		.byte	0
 4973 0206 49       		.uleb128 0x49
 4974 0207 13       		.uleb128 0x13
 4975 0208 2F       		.uleb128 0x2f
 4976 0209 0B       		.uleb128 0xb
 4977 020a 00       		.byte	0
 4978 020b 00       		.byte	0
 4979 020c 23       		.uleb128 0x23
 4980 020d 05       		.uleb128 0x5
 4981 020e 00       		.byte	0
 4982 020f 03       		.uleb128 0x3
 4983 0210 0E       		.uleb128 0xe
 4984 0211 3A       		.uleb128 0x3a
 4985 0212 0B       		.uleb128 0xb
 4986 0213 3B       		.uleb128 0x3b
 4987 0214 05       		.uleb128 0x5
 4988 0215 49       		.uleb128 0x49
 4989 0216 13       		.uleb128 0x13
 4990 0217 02       		.uleb128 0x2
 4991 0218 17       		.uleb128 0x17
 4992 0219 00       		.byte	0
 4993 021a 00       		.byte	0
 4994 021b 24       		.uleb128 0x24
 4995 021c 34       		.uleb128 0x34
 4996 021d 00       		.byte	0
 4997 021e 03       		.uleb128 0x3
 4998 021f 08       		.uleb128 0x8
 4999 0220 3A       		.uleb128 0x3a
 5000 0221 0B       		.uleb128 0xb
 5001 0222 3B       		.uleb128 0x3b
 5002 0223 05       		.uleb128 0x5
 5003 0224 49       		.uleb128 0x49
 5004 0225 13       		.uleb128 0x13
 5005 0226 02       		.uleb128 0x2
 5006 0227 18       		.uleb128 0x18
 5007 0228 00       		.byte	0
 5008 0229 00       		.byte	0
 5009 022a 25       		.uleb128 0x25
 5010 022b 34       		.uleb128 0x34
 5011 022c 00       		.byte	0
 5012 022d 03       		.uleb128 0x3
 5013 022e 0E       		.uleb128 0xe
 5014 022f 3A       		.uleb128 0x3a
 5015 0230 0B       		.uleb128 0xb
ARM GAS  C:\Users\A85590\AppData\Local\Temp\ccILqQZe.s 			page 105


 5016 0231 3B       		.uleb128 0x3b
 5017 0232 05       		.uleb128 0x5
 5018 0233 49       		.uleb128 0x49
 5019 0234 13       		.uleb128 0x13
 5020 0235 02       		.uleb128 0x2
 5021 0236 18       		.uleb128 0x18
 5022 0237 00       		.byte	0
 5023 0238 00       		.byte	0
 5024 0239 26       		.uleb128 0x26
 5025 023a 2E       		.uleb128 0x2e
 5026 023b 01       		.byte	0x1
 5027 023c 3F       		.uleb128 0x3f
 5028 023d 19       		.uleb128 0x19
 5029 023e 03       		.uleb128 0x3
 5030 023f 0E       		.uleb128 0xe
 5031 0240 3A       		.uleb128 0x3a
 5032 0241 0B       		.uleb128 0xb
 5033 0242 3B       		.uleb128 0x3b
 5034 0243 05       		.uleb128 0x5
 5035 0244 49       		.uleb128 0x49
 5036 0245 13       		.uleb128 0x13
 5037 0246 11       		.uleb128 0x11
 5038 0247 01       		.uleb128 0x1
 5039 0248 12       		.uleb128 0x12
 5040 0249 06       		.uleb128 0x6
 5041 024a 40       		.uleb128 0x40
 5042 024b 18       		.uleb128 0x18
 5043 024c 9742     		.uleb128 0x2117
 5044 024e 19       		.uleb128 0x19
 5045 024f 01       		.uleb128 0x1
 5046 0250 13       		.uleb128 0x13
 5047 0251 00       		.byte	0
 5048 0252 00       		.byte	0
 5049 0253 27       		.uleb128 0x27
 5050 0254 34       		.uleb128 0x34
 5051 0255 00       		.byte	0
 5052 0256 03       		.uleb128 0x3
 5053 0257 08       		.uleb128 0x8
 5054 0258 3A       		.uleb128 0x3a
 5055 0259 0B       		.uleb128 0xb
 5056 025a 3B       		.uleb128 0x3b
 5057 025b 0B       		.uleb128 0xb
 5058 025c 49       		.uleb128 0x49
 5059 025d 13       		.uleb128 0x13
 5060 025e 02       		.uleb128 0x2
 5061 025f 18       		.uleb128 0x18
 5062 0260 00       		.byte	0
 5063 0261 00       		.byte	0
 5064 0262 28       		.uleb128 0x28
 5065 0263 34       		.uleb128 0x34
 5066 0264 00       		.byte	0
 5067 0265 03       		.uleb128 0x3
 5068 0266 0E       		.uleb128 0xe
 5069 0267 3A       		.uleb128 0x3a
 5070 0268 0B       		.uleb128 0xb
 5071 0269 3B       		.uleb128 0x3b
 5072 026a 0B       		.uleb128 0xb
ARM GAS  C:\Users\A85590\AppData\Local\Temp\ccILqQZe.s 			page 106


 5073 026b 49       		.uleb128 0x49
 5074 026c 13       		.uleb128 0x13
 5075 026d 00       		.byte	0
 5076 026e 00       		.byte	0
 5077 026f 29       		.uleb128 0x29
 5078 0270 34       		.uleb128 0x34
 5079 0271 00       		.byte	0
 5080 0272 03       		.uleb128 0x3
 5081 0273 0E       		.uleb128 0xe
 5082 0274 3A       		.uleb128 0x3a
 5083 0275 0B       		.uleb128 0xb
 5084 0276 3B       		.uleb128 0x3b
 5085 0277 0B       		.uleb128 0xb
 5086 0278 49       		.uleb128 0x49
 5087 0279 13       		.uleb128 0x13
 5088 027a 3F       		.uleb128 0x3f
 5089 027b 19       		.uleb128 0x19
 5090 027c 3C       		.uleb128 0x3c
 5091 027d 19       		.uleb128 0x19
 5092 027e 00       		.byte	0
 5093 027f 00       		.byte	0
 5094 0280 2A       		.uleb128 0x2a
 5095 0281 34       		.uleb128 0x34
 5096 0282 00       		.byte	0
 5097 0283 03       		.uleb128 0x3
 5098 0284 0E       		.uleb128 0xe
 5099 0285 3A       		.uleb128 0x3a
 5100 0286 0B       		.uleb128 0xb
 5101 0287 3B       		.uleb128 0x3b
 5102 0288 05       		.uleb128 0x5
 5103 0289 49       		.uleb128 0x49
 5104 028a 13       		.uleb128 0x13
 5105 028b 3F       		.uleb128 0x3f
 5106 028c 19       		.uleb128 0x19
 5107 028d 3C       		.uleb128 0x3c
 5108 028e 19       		.uleb128 0x19
 5109 028f 00       		.byte	0
 5110 0290 00       		.byte	0
 5111 0291 2B       		.uleb128 0x2b
 5112 0292 34       		.uleb128 0x34
 5113 0293 00       		.byte	0
 5114 0294 03       		.uleb128 0x3
 5115 0295 08       		.uleb128 0x8
 5116 0296 3A       		.uleb128 0x3a
 5117 0297 0B       		.uleb128 0xb
 5118 0298 3B       		.uleb128 0x3b
 5119 0299 0B       		.uleb128 0xb
 5120 029a 49       		.uleb128 0x49
 5121 029b 13       		.uleb128 0x13
 5122 029c 3F       		.uleb128 0x3f
 5123 029d 19       		.uleb128 0x19
 5124 029e 3C       		.uleb128 0x3c
 5125 029f 19       		.uleb128 0x19
 5126 02a0 00       		.byte	0
 5127 02a1 00       		.byte	0
 5128 02a2 2C       		.uleb128 0x2c
 5129 02a3 34       		.uleb128 0x34
ARM GAS  C:\Users\A85590\AppData\Local\Temp\ccILqQZe.s 			page 107


 5130 02a4 00       		.byte	0
 5131 02a5 03       		.uleb128 0x3
 5132 02a6 0E       		.uleb128 0xe
 5133 02a7 3A       		.uleb128 0x3a
 5134 02a8 0B       		.uleb128 0xb
 5135 02a9 3B       		.uleb128 0x3b
 5136 02aa 0B       		.uleb128 0xb
 5137 02ab 49       		.uleb128 0x49
 5138 02ac 13       		.uleb128 0x13
 5139 02ad 3F       		.uleb128 0x3f
 5140 02ae 19       		.uleb128 0x19
 5141 02af 02       		.uleb128 0x2
 5142 02b0 18       		.uleb128 0x18
 5143 02b1 00       		.byte	0
 5144 02b2 00       		.byte	0
 5145 02b3 2D       		.uleb128 0x2d
 5146 02b4 2E       		.uleb128 0x2e
 5147 02b5 00       		.byte	0
 5148 02b6 3F       		.uleb128 0x3f
 5149 02b7 19       		.uleb128 0x19
 5150 02b8 3C       		.uleb128 0x3c
 5151 02b9 19       		.uleb128 0x19
 5152 02ba 6E       		.uleb128 0x6e
 5153 02bb 0E       		.uleb128 0xe
 5154 02bc 03       		.uleb128 0x3
 5155 02bd 0E       		.uleb128 0xe
 5156 02be 3A       		.uleb128 0x3a
 5157 02bf 0B       		.uleb128 0xb
 5158 02c0 3B       		.uleb128 0x3b
 5159 02c1 0B       		.uleb128 0xb
 5160 02c2 00       		.byte	0
 5161 02c3 00       		.byte	0
 5162 02c4 00       		.byte	0
 5163              		.section	.debug_loc,"",%progbits
 5164              	.Ldebug_loc0:
 5165              	.LLST0:
 5166 0000 00000000 		.4byte	.LVL1
 5167 0004 16000000 		.4byte	.LVL3
 5168 0008 0200     		.2byte	0x2
 5169 000a 30       		.byte	0x30
 5170 000b 9F       		.byte	0x9f
 5171 000c 16000000 		.4byte	.LVL3
 5172 0010 7A000000 		.4byte	.LVL4
 5173 0014 0100     		.2byte	0x1
 5174 0016 50       		.byte	0x50
 5175 0017 7A000000 		.4byte	.LVL4
 5176 001b 80000000 		.4byte	.LVL5
 5177 001f 0200     		.2byte	0x2
 5178 0021 30       		.byte	0x30
 5179 0022 9F       		.byte	0x9f
 5180 0023 00000000 		.4byte	0
 5181 0027 00000000 		.4byte	0
 5182              	.LLST1:
 5183 002b 00000000 		.4byte	.LVL8
 5184 002f 05000000 		.4byte	.LVL9-1
 5185 0033 0100     		.2byte	0x1
 5186 0035 50       		.byte	0x50
ARM GAS  C:\Users\A85590\AppData\Local\Temp\ccILqQZe.s 			page 108


 5187 0036 05000000 		.4byte	.LVL9-1
 5188 003a 08000000 		.4byte	.LFE69
 5189 003e 0400     		.2byte	0x4
 5190 0040 F3       		.byte	0xf3
 5191 0041 01       		.uleb128 0x1
 5192 0042 50       		.byte	0x50
 5193 0043 9F       		.byte	0x9f
 5194 0044 00000000 		.4byte	0
 5195 0048 00000000 		.4byte	0
 5196              	.LLST2:
 5197 004c 00000000 		.4byte	.LVL11
 5198 0050 0A000000 		.4byte	.LVL12
 5199 0054 0100     		.2byte	0x1
 5200 0056 50       		.byte	0x50
 5201 0057 0A000000 		.4byte	.LVL12
 5202 005b 0E000000 		.4byte	.LVL13
 5203 005f 0400     		.2byte	0x4
 5204 0061 F3       		.byte	0xf3
 5205 0062 01       		.uleb128 0x1
 5206 0063 50       		.byte	0x50
 5207 0064 9F       		.byte	0x9f
 5208 0065 0E000000 		.4byte	.LVL13
 5209 0069 18000000 		.4byte	.LVL14
 5210 006d 0100     		.2byte	0x1
 5211 006f 50       		.byte	0x50
 5212 0070 18000000 		.4byte	.LVL14
 5213 0074 1C000000 		.4byte	.LVL15
 5214 0078 0400     		.2byte	0x4
 5215 007a F3       		.byte	0xf3
 5216 007b 01       		.uleb128 0x1
 5217 007c 50       		.byte	0x50
 5218 007d 9F       		.byte	0x9f
 5219 007e 1C000000 		.4byte	.LVL15
 5220 0082 1E000000 		.4byte	.LVL16
 5221 0086 0100     		.2byte	0x1
 5222 0088 50       		.byte	0x50
 5223 0089 1E000000 		.4byte	.LVL16
 5224 008d 20000000 		.4byte	.LVL17
 5225 0091 0400     		.2byte	0x4
 5226 0093 F3       		.byte	0xf3
 5227 0094 01       		.uleb128 0x1
 5228 0095 50       		.byte	0x50
 5229 0096 9F       		.byte	0x9f
 5230 0097 20000000 		.4byte	.LVL17
 5231 009b 22000000 		.4byte	.LVL18
 5232 009f 0100     		.2byte	0x1
 5233 00a1 50       		.byte	0x50
 5234 00a2 22000000 		.4byte	.LVL18
 5235 00a6 24000000 		.4byte	.LVL19
 5236 00aa 0400     		.2byte	0x4
 5237 00ac F3       		.byte	0xf3
 5238 00ad 01       		.uleb128 0x1
 5239 00ae 50       		.byte	0x50
 5240 00af 9F       		.byte	0x9f
 5241 00b0 24000000 		.4byte	.LVL19
 5242 00b4 26000000 		.4byte	.LVL20
 5243 00b8 0100     		.2byte	0x1
ARM GAS  C:\Users\A85590\AppData\Local\Temp\ccILqQZe.s 			page 109


 5244 00ba 50       		.byte	0x50
 5245 00bb 26000000 		.4byte	.LVL20
 5246 00bf 28000000 		.4byte	.LFE73
 5247 00c3 0400     		.2byte	0x4
 5248 00c5 F3       		.byte	0xf3
 5249 00c6 01       		.uleb128 0x1
 5250 00c7 50       		.byte	0x50
 5251 00c8 9F       		.byte	0x9f
 5252 00c9 00000000 		.4byte	0
 5253 00cd 00000000 		.4byte	0
 5254              	.LLST3:
 5255 00d1 00000000 		.4byte	.LVL21
 5256 00d5 0B000000 		.4byte	.LVL22-1
 5257 00d9 0100     		.2byte	0x1
 5258 00db 50       		.byte	0x50
 5259 00dc 0B000000 		.4byte	.LVL22-1
 5260 00e0 68000000 		.4byte	.LVL38
 5261 00e4 0100     		.2byte	0x1
 5262 00e6 55       		.byte	0x55
 5263 00e7 68000000 		.4byte	.LVL38
 5264 00eb A0030000 		.4byte	.LVL116
 5265 00ef 0400     		.2byte	0x4
 5266 00f1 F3       		.byte	0xf3
 5267 00f2 01       		.uleb128 0x1
 5268 00f3 50       		.byte	0x50
 5269 00f4 9F       		.byte	0x9f
 5270 00f5 A0030000 		.4byte	.LVL116
 5271 00f9 C4030000 		.4byte	.LVL123
 5272 00fd 0100     		.2byte	0x1
 5273 00ff 55       		.byte	0x55
 5274 0100 C4030000 		.4byte	.LVL123
 5275 0104 20070000 		.4byte	.LVL198
 5276 0108 0400     		.2byte	0x4
 5277 010a F3       		.byte	0xf3
 5278 010b 01       		.uleb128 0x1
 5279 010c 50       		.byte	0x50
 5280 010d 9F       		.byte	0x9f
 5281 010e 20070000 		.4byte	.LVL198
 5282 0112 24070000 		.4byte	.LVL200
 5283 0116 0100     		.2byte	0x1
 5284 0118 55       		.byte	0x55
 5285 0119 24070000 		.4byte	.LVL200
 5286 011d 30070000 		.4byte	.LVL201
 5287 0121 0400     		.2byte	0x4
 5288 0123 F3       		.byte	0xf3
 5289 0124 01       		.uleb128 0x1
 5290 0125 50       		.byte	0x50
 5291 0126 9F       		.byte	0x9f
 5292 0127 30070000 		.4byte	.LVL201
 5293 012b 34070000 		.4byte	.LVL202
 5294 012f 0100     		.2byte	0x1
 5295 0131 55       		.byte	0x55
 5296 0132 34070000 		.4byte	.LVL202
 5297 0136 54070000 		.4byte	.LFE65
 5298 013a 0400     		.2byte	0x4
 5299 013c F3       		.byte	0xf3
 5300 013d 01       		.uleb128 0x1
ARM GAS  C:\Users\A85590\AppData\Local\Temp\ccILqQZe.s 			page 110


 5301 013e 50       		.byte	0x50
 5302 013f 9F       		.byte	0x9f
 5303 0140 00000000 		.4byte	0
 5304 0144 00000000 		.4byte	0
 5305              	.LLST4:
 5306 0148 F0000000 		.4byte	.LVL51
 5307 014c 24010000 		.4byte	.LVL57
 5308 0150 0100     		.2byte	0x1
 5309 0152 54       		.byte	0x54
 5310 0153 FE010000 		.4byte	.LVL77
 5311 0157 34020000 		.4byte	.LVL83
 5312 015b 0100     		.2byte	0x1
 5313 015d 54       		.byte	0x54
 5314 015e 80050000 		.4byte	.LVL164
 5315 0162 B6050000 		.4byte	.LVL170
 5316 0166 0100     		.2byte	0x1
 5317 0168 54       		.byte	0x54
 5318 0169 00000000 		.4byte	0
 5319 016d 00000000 		.4byte	0
 5320              	.LLST5:
 5321 0171 1C010000 		.4byte	.LVL56
 5322 0175 2C010000 		.4byte	.LVL58
 5323 0179 0800     		.2byte	0x8
 5324 017b 73       		.byte	0x73
 5325 017c 00       		.sleb128 0
 5326 017d 70       		.byte	0x70
 5327 017e 00       		.sleb128 0
 5328 017f 4F       		.byte	0x4f
 5329 0180 26       		.byte	0x26
 5330 0181 1C       		.byte	0x1c
 5331 0182 9F       		.byte	0x9f
 5332 0183 2C010000 		.4byte	.LVL58
 5333 0187 2F010000 		.4byte	.LVL59-1
 5334 018b 0100     		.2byte	0x1
 5335 018d 50       		.byte	0x50
 5336 018e 2C020000 		.4byte	.LVL82
 5337 0192 3C020000 		.4byte	.LVL84
 5338 0196 0800     		.2byte	0x8
 5339 0198 73       		.byte	0x73
 5340 0199 00       		.sleb128 0
 5341 019a 70       		.byte	0x70
 5342 019b 00       		.sleb128 0
 5343 019c 4F       		.byte	0x4f
 5344 019d 26       		.byte	0x26
 5345 019e 1C       		.byte	0x1c
 5346 019f 9F       		.byte	0x9f
 5347 01a0 3C020000 		.4byte	.LVL84
 5348 01a4 3F020000 		.4byte	.LVL85-1
 5349 01a8 0100     		.2byte	0x1
 5350 01aa 50       		.byte	0x50
 5351 01ab AE050000 		.4byte	.LVL169
 5352 01af BE050000 		.4byte	.LVL171
 5353 01b3 0800     		.2byte	0x8
 5354 01b5 73       		.byte	0x73
 5355 01b6 00       		.sleb128 0
 5356 01b7 70       		.byte	0x70
 5357 01b8 00       		.sleb128 0
ARM GAS  C:\Users\A85590\AppData\Local\Temp\ccILqQZe.s 			page 111


 5358 01b9 4F       		.byte	0x4f
 5359 01ba 26       		.byte	0x26
 5360 01bb 1C       		.byte	0x1c
 5361 01bc 9F       		.byte	0x9f
 5362 01bd BE050000 		.4byte	.LVL171
 5363 01c1 C1050000 		.4byte	.LVL172-1
 5364 01c5 0100     		.2byte	0x1
 5365 01c7 50       		.byte	0x50
 5366 01c8 00000000 		.4byte	0
 5367 01cc 00000000 		.4byte	0
 5368              	.LLST6:
 5369 01d0 22000000 		.4byte	.LVL24
 5370 01d4 2E000000 		.4byte	.LVL26
 5371 01d8 0100     		.2byte	0x1
 5372 01da 54       		.byte	0x54
 5373 01db 2E000000 		.4byte	.LVL26
 5374 01df 44000000 		.4byte	.LVL31
 5375 01e3 0100     		.2byte	0x1
 5376 01e5 50       		.byte	0x50
 5377 01e6 20070000 		.4byte	.LVL198
 5378 01ea 22070000 		.4byte	.LVL199
 5379 01ee 0100     		.2byte	0x1
 5380 01f0 50       		.byte	0x50
 5381 01f1 00000000 		.4byte	0
 5382 01f5 00000000 		.4byte	0
 5383              	.LLST7:
 5384 01f9 2E000000 		.4byte	.LVL26
 5385 01fd 32000000 		.4byte	.LVL27
 5386 0201 0200     		.2byte	0x2
 5387 0203 32       		.byte	0x32
 5388 0204 9F       		.byte	0x9f
 5389 0205 32000000 		.4byte	.LVL27
 5390 0209 38000000 		.4byte	.LVL29
 5391 020d 0100     		.2byte	0x1
 5392 020f 53       		.byte	0x53
 5393 0210 3A000000 		.4byte	.LVL30
 5394 0214 44000000 		.4byte	.LVL31
 5395 0218 0100     		.2byte	0x1
 5396 021a 53       		.byte	0x53
 5397 021b 20070000 		.4byte	.LVL198
 5398 021f 24070000 		.4byte	.LVL200
 5399 0223 0100     		.2byte	0x1
 5400 0225 53       		.byte	0x53
 5401 0226 00000000 		.4byte	0
 5402 022a 00000000 		.4byte	0
 5403              	.LLST8:
 5404 022e 52000000 		.4byte	.LVL33
 5405 0232 5C000000 		.4byte	.LVL35
 5406 0236 0100     		.2byte	0x1
 5407 0238 55       		.byte	0x55
 5408 0239 5C000000 		.4byte	.LVL35
 5409 023d C8000000 		.4byte	.LVL47
 5410 0241 0100     		.2byte	0x1
 5411 0243 54       		.byte	0x54
 5412 0244 C8000000 		.4byte	.LVL47
 5413 0248 8C010000 		.4byte	.LVL71
 5414 024c 0100     		.2byte	0x1
ARM GAS  C:\Users\A85590\AppData\Local\Temp\ccILqQZe.s 			page 112


 5415 024e 56       		.byte	0x56
 5416 024f 8C010000 		.4byte	.LVL71
 5417 0253 D5010000 		.4byte	.LVL72-1
 5418 0257 0100     		.2byte	0x1
 5419 0259 52       		.byte	0x52
 5420 025a DA010000 		.4byte	.LVL73
 5421 025e 9C020000 		.4byte	.LVL97
 5422 0262 0100     		.2byte	0x1
 5423 0264 56       		.byte	0x56
 5424 0265 9C020000 		.4byte	.LVL97
 5425 0269 E5020000 		.4byte	.LVL98-1
 5426 026d 0100     		.2byte	0x1
 5427 026f 52       		.byte	0x52
 5428 0270 E8020000 		.4byte	.LVL99
 5429 0274 54030000 		.4byte	.LVL111
 5430 0278 0100     		.2byte	0x1
 5431 027a 54       		.byte	0x54
 5432 027b 54030000 		.4byte	.LVL111
 5433 027f 58030000 		.4byte	.LVL112
 5434 0283 0300     		.2byte	0x3
 5435 0285 70       		.byte	0x70
 5436 0286 01       		.sleb128 1
 5437 0287 9F       		.byte	0x9f
 5438 0288 58030000 		.4byte	.LVL112
 5439 028c 5B030000 		.4byte	.LVL113-1
 5440 0290 0100     		.2byte	0x1
 5441 0292 50       		.byte	0x50
 5442 0293 5E030000 		.4byte	.LVL114
 5443 0297 6B030000 		.4byte	.LVL115-1
 5444 029b 0100     		.2byte	0x1
 5445 029d 52       		.byte	0x52
 5446 029e 24070000 		.4byte	.LVL200
 5447 02a2 30070000 		.4byte	.LVL201
 5448 02a6 0100     		.2byte	0x1
 5449 02a8 52       		.byte	0x52
 5450 02a9 00000000 		.4byte	0
 5451 02ad 00000000 		.4byte	0
 5452              	.LLST9:
 5453 02b1 68000000 		.4byte	.LVL38
 5454 02b5 6B000000 		.4byte	.LVL39-1
 5455 02b9 0100     		.2byte	0x1
 5456 02bb 50       		.byte	0x50
 5457 02bc 6B000000 		.4byte	.LVL39-1
 5458 02c0 C6000000 		.4byte	.LVL46
 5459 02c4 0100     		.2byte	0x1
 5460 02c6 55       		.byte	0x55
 5461 02c7 00000000 		.4byte	0
 5462 02cb 00000000 		.4byte	0
 5463              	.LLST10:
 5464 02cf 6C000000 		.4byte	.LVL39
 5465 02d3 A0000000 		.4byte	.LVL40
 5466 02d7 0100     		.2byte	0x1
 5467 02d9 50       		.byte	0x50
 5468 02da 00000000 		.4byte	0
 5469 02de 00000000 		.4byte	0
 5470              	.LLST11:
 5471 02e2 AE030000 		.4byte	.LVL118
ARM GAS  C:\Users\A85590\AppData\Local\Temp\ccILqQZe.s 			page 113


 5472 02e6 B8030000 		.4byte	.LVL120
 5473 02ea 0100     		.2byte	0x1
 5474 02ec 55       		.byte	0x55
 5475 02ed B8030000 		.4byte	.LVL120
 5476 02f1 22040000 		.4byte	.LVL131
 5477 02f5 0100     		.2byte	0x1
 5478 02f7 54       		.byte	0x54
 5479 02f8 22040000 		.4byte	.LVL131
 5480 02fc 45040000 		.4byte	.LVL132-1
 5481 0300 0100     		.2byte	0x1
 5482 0302 52       		.byte	0x52
 5483 0303 4A040000 		.4byte	.LVL134
 5484 0307 0E050000 		.4byte	.LVL158
 5485 030b 0100     		.2byte	0x1
 5486 030d 56       		.byte	0x56
 5487 030e 0E050000 		.4byte	.LVL158
 5488 0312 57050000 		.4byte	.LVL159-1
 5489 0316 0100     		.2byte	0x1
 5490 0318 52       		.byte	0x52
 5491 0319 5C050000 		.4byte	.LVL160
 5492 031d 1E060000 		.4byte	.LVL184
 5493 0321 0100     		.2byte	0x1
 5494 0323 56       		.byte	0x56
 5495 0324 1E060000 		.4byte	.LVL184
 5496 0328 97060000 		.4byte	.LVL185-1
 5497 032c 0100     		.2byte	0x1
 5498 032e 52       		.byte	0x52
 5499 032f 9A060000 		.4byte	.LVL186
 5500 0333 DA060000 		.4byte	.LVL194
 5501 0337 0100     		.2byte	0x1
 5502 0339 54       		.byte	0x54
 5503 033a DA060000 		.4byte	.LVL194
 5504 033e E5060000 		.4byte	.LVL195-1
 5505 0342 0100     		.2byte	0x1
 5506 0344 52       		.byte	0x52
 5507 0345 34070000 		.4byte	.LVL202
 5508 0349 42070000 		.4byte	.LVL204
 5509 034d 0100     		.2byte	0x1
 5510 034f 52       		.byte	0x52
 5511 0350 00000000 		.4byte	0
 5512 0354 00000000 		.4byte	0
 5513              	.LLST12:
 5514 0358 C4030000 		.4byte	.LVL123
 5515 035c C7030000 		.4byte	.LVL124-1
 5516 0360 0100     		.2byte	0x1
 5517 0362 50       		.byte	0x50
 5518 0363 C7030000 		.4byte	.LVL124-1
 5519 0367 48040000 		.4byte	.LVL133
 5520 036b 0100     		.2byte	0x1
 5521 036d 55       		.byte	0x55
 5522 036e 34070000 		.4byte	.LVL202
 5523 0372 38070000 		.4byte	.LVL203
 5524 0376 0100     		.2byte	0x1
 5525 0378 55       		.byte	0x55
 5526 0379 00000000 		.4byte	0
 5527 037d 00000000 		.4byte	0
 5528              	.LLST13:
ARM GAS  C:\Users\A85590\AppData\Local\Temp\ccILqQZe.s 			page 114


 5529 0381 C8030000 		.4byte	.LVL124
 5530 0385 FC030000 		.4byte	.LVL125
 5531 0389 0100     		.2byte	0x1
 5532 038b 50       		.byte	0x50
 5533 038c 00000000 		.4byte	0
 5534 0390 00000000 		.4byte	0
 5535              	.LLST14:
 5536 0394 72040000 		.4byte	.LVL138
 5537 0398 A6040000 		.4byte	.LVL144
 5538 039c 0100     		.2byte	0x1
 5539 039e 54       		.byte	0x54
 5540 039f 00000000 		.4byte	0
 5541 03a3 00000000 		.4byte	0
 5542              	.LLST15:
 5543 03a7 9E040000 		.4byte	.LVL143
 5544 03ab AE040000 		.4byte	.LVL145
 5545 03af 0800     		.2byte	0x8
 5546 03b1 73       		.byte	0x73
 5547 03b2 00       		.sleb128 0
 5548 03b3 70       		.byte	0x70
 5549 03b4 00       		.sleb128 0
 5550 03b5 4F       		.byte	0x4f
 5551 03b6 26       		.byte	0x26
 5552 03b7 1C       		.byte	0x1c
 5553 03b8 9F       		.byte	0x9f
 5554 03b9 AE040000 		.4byte	.LVL145
 5555 03bd B1040000 		.4byte	.LVL146-1
 5556 03c1 0100     		.2byte	0x1
 5557 03c3 50       		.byte	0x50
 5558 03c4 00000000 		.4byte	0
 5559 03c8 00000000 		.4byte	0
 5560              	.LLST16:
 5561 03cc EA060000 		.4byte	.LVL196
 5562 03d0 1E070000 		.4byte	.LVL197
 5563 03d4 0100     		.2byte	0x1
 5564 03d6 50       		.byte	0x50
 5565 03d7 00000000 		.4byte	0
 5566 03db 00000000 		.4byte	0
 5567              	.LLST17:
 5568 03df 00000000 		.4byte	.LVL205
 5569 03e3 0C000000 		.4byte	.LVL207
 5570 03e7 0100     		.2byte	0x1
 5571 03e9 50       		.byte	0x50
 5572 03ea 0C000000 		.4byte	.LVL207
 5573 03ee 42000000 		.4byte	.LFE74
 5574 03f2 0100     		.2byte	0x1
 5575 03f4 56       		.byte	0x56
 5576 03f5 00000000 		.4byte	0
 5577 03f9 00000000 		.4byte	0
 5578              	.LLST18:
 5579 03fd 00000000 		.4byte	.LVL205
 5580 0401 0C000000 		.4byte	.LVL207
 5581 0405 0100     		.2byte	0x1
 5582 0407 51       		.byte	0x51
 5583 0408 0C000000 		.4byte	.LVL207
 5584 040c 42000000 		.4byte	.LFE74
 5585 0410 0400     		.2byte	0x4
ARM GAS  C:\Users\A85590\AppData\Local\Temp\ccILqQZe.s 			page 115


 5586 0412 F3       		.byte	0xf3
 5587 0413 01       		.uleb128 0x1
 5588 0414 51       		.byte	0x51
 5589 0415 9F       		.byte	0x9f
 5590 0416 00000000 		.4byte	0
 5591 041a 00000000 		.4byte	0
 5592              	.LLST19:
 5593 041e 08000000 		.4byte	.LVL206
 5594 0422 0C000000 		.4byte	.LVL207
 5595 0426 0200     		.2byte	0x2
 5596 0428 30       		.byte	0x30
 5597 0429 9F       		.byte	0x9f
 5598 042a 0C000000 		.4byte	.LVL207
 5599 042e 28000000 		.4byte	.LVL212
 5600 0432 0100     		.2byte	0x1
 5601 0434 54       		.byte	0x54
 5602 0435 2A000000 		.4byte	.LVL213
 5603 0439 42000000 		.4byte	.LFE74
 5604 043d 0100     		.2byte	0x1
 5605 043f 54       		.byte	0x54
 5606 0440 00000000 		.4byte	0
 5607 0444 00000000 		.4byte	0
 5608              	.LLST20:
 5609 0448 16000000 		.4byte	.LVL209
 5610 044c 1C000000 		.4byte	.LVL210
 5611 0450 0100     		.2byte	0x1
 5612 0452 50       		.byte	0x50
 5613 0453 1C000000 		.4byte	.LVL210
 5614 0457 1F000000 		.4byte	.LVL211-1
 5615 045b 0100     		.2byte	0x1
 5616 045d 51       		.byte	0x51
 5617 045e 00000000 		.4byte	0
 5618 0462 00000000 		.4byte	0
 5619              	.LLST21:
 5620 0466 1C000000 		.4byte	.LVL222
 5621 046a 3B000000 		.4byte	.LVL226-1
 5622 046e 0100     		.2byte	0x1
 5623 0470 50       		.byte	0x50
 5624 0471 3C000000 		.4byte	.LVL226
 5625 0475 B0000000 		.4byte	.LVL236
 5626 0479 0100     		.2byte	0x1
 5627 047b 50       		.byte	0x50
 5628 047c 00000000 		.4byte	0
 5629 0480 00000000 		.4byte	0
 5630              	.LLST22:
 5631 0484 1C000000 		.4byte	.LVL222
 5632 0488 20000000 		.4byte	.LVL223
 5633 048c 0200     		.2byte	0x2
 5634 048e 30       		.byte	0x30
 5635 048f 9F       		.byte	0x9f
 5636 0490 20000000 		.4byte	.LVL223
 5637 0494 30000000 		.4byte	.LVL224
 5638 0498 0100     		.2byte	0x1
 5639 049a 53       		.byte	0x53
 5640 049b 32000000 		.4byte	.LVL225
 5641 049f 3B000000 		.4byte	.LVL226-1
 5642 04a3 0100     		.2byte	0x1
ARM GAS  C:\Users\A85590\AppData\Local\Temp\ccILqQZe.s 			page 116


 5643 04a5 53       		.byte	0x53
 5644 04a6 3C000000 		.4byte	.LVL226
 5645 04aa 40000000 		.4byte	.LVL227
 5646 04ae 0200     		.2byte	0x2
 5647 04b0 30       		.byte	0x30
 5648 04b1 9F       		.byte	0x9f
 5649 04b2 40000000 		.4byte	.LVL227
 5650 04b6 A8000000 		.4byte	.LVL234
 5651 04ba 0100     		.2byte	0x1
 5652 04bc 56       		.byte	0x56
 5653 04bd AA000000 		.4byte	.LVL235
 5654 04c1 B0000000 		.4byte	.LVL236
 5655 04c5 0100     		.2byte	0x1
 5656 04c7 56       		.byte	0x56
 5657 04c8 00000000 		.4byte	0
 5658 04cc 00000000 		.4byte	0
 5659              	.LLST23:
 5660 04d0 74000000 		.4byte	.LVL229
 5661 04d4 84000000 		.4byte	.LVL230
 5662 04d8 0100     		.2byte	0x1
 5663 04da 53       		.byte	0x53
 5664 04db 8C000000 		.4byte	.LVL231
 5665 04df 96000000 		.4byte	.LVL232
 5666 04e3 0100     		.2byte	0x1
 5667 04e5 53       		.byte	0x53
 5668 04e6 00000000 		.4byte	0
 5669 04ea 00000000 		.4byte	0
 5670              	.LLST24:
 5671 04ee 06000000 		.4byte	.LVL243
 5672 04f2 11000000 		.4byte	.LVL244-1
 5673 04f6 0100     		.2byte	0x1
 5674 04f8 50       		.byte	0x50
 5675 04f9 00000000 		.4byte	0
 5676 04fd 00000000 		.4byte	0
 5677              		.section	.debug_aranges,"",%progbits
 5678 0000 A4000000 		.4byte	0xa4
 5679 0004 0200     		.2byte	0x2
 5680 0006 00000000 		.4byte	.Ldebug_info0
 5681 000a 04       		.byte	0x4
 5682 000b 00       		.byte	0
 5683 000c 0000     		.2byte	0
 5684 000e 0000     		.2byte	0
 5685 0010 00000000 		.4byte	.LFB64
 5686 0014 0C000000 		.4byte	.LFE64-.LFB64
 5687 0018 00000000 		.4byte	.LFB66
 5688 001c 88000000 		.4byte	.LFE66-.LFB66
 5689 0020 00000000 		.4byte	.LFB67
 5690 0024 68000000 		.4byte	.LFE67-.LFB67
 5691 0028 00000000 		.4byte	.LFB68
 5692 002c 0E000000 		.4byte	.LFE68-.LFB68
 5693 0030 00000000 		.4byte	.LFB69
 5694 0034 08000000 		.4byte	.LFE69-.LFB69
 5695 0038 00000000 		.4byte	.LFB70
 5696 003c 0C000000 		.4byte	.LFE70-.LFB70
 5697 0040 00000000 		.4byte	.LFB71
 5698 0044 0C000000 		.4byte	.LFE71-.LFB71
 5699 0048 00000000 		.4byte	.LFB72
ARM GAS  C:\Users\A85590\AppData\Local\Temp\ccILqQZe.s 			page 117


 5700 004c 14000000 		.4byte	.LFE72-.LFB72
 5701 0050 00000000 		.4byte	.LFB73
 5702 0054 28000000 		.4byte	.LFE73-.LFB73
 5703 0058 00000000 		.4byte	.LFB65
 5704 005c 54070000 		.4byte	.LFE65-.LFB65
 5705 0060 00000000 		.4byte	.LFB74
 5706 0064 42000000 		.4byte	.LFE74-.LFB74
 5707 0068 00000000 		.4byte	.LFB75
 5708 006c 28000000 		.4byte	.LFE75-.LFB75
 5709 0070 00000000 		.4byte	.LFB76
 5710 0074 28000000 		.4byte	.LFE76-.LFB76
 5711 0078 00000000 		.4byte	.LFB77
 5712 007c C4000000 		.4byte	.LFE77-.LFB77
 5713 0080 00000000 		.4byte	.LFB78
 5714 0084 2C000000 		.4byte	.LFE78-.LFB78
 5715 0088 00000000 		.4byte	.LFB79
 5716 008c 34000000 		.4byte	.LFE79-.LFB79
 5717 0090 00000000 		.4byte	.LFB80
 5718 0094 24000000 		.4byte	.LFE80-.LFB80
 5719 0098 00000000 		.4byte	.LFB81
 5720 009c C0000000 		.4byte	.LFE81-.LFB81
 5721 00a0 00000000 		.4byte	0
 5722 00a4 00000000 		.4byte	0
 5723              		.section	.debug_ranges,"",%progbits
 5724              	.Ldebug_ranges0:
 5725 0000 16000000 		.4byte	.LBB2
 5726 0004 44000000 		.4byte	.LBE2
 5727 0008 20070000 		.4byte	.LBB7
 5728 000c 24070000 		.4byte	.LBE7
 5729 0010 00000000 		.4byte	0
 5730 0014 00000000 		.4byte	0
 5731 0018 52000000 		.4byte	.LBB3
 5732 001c A0030000 		.4byte	.LBE3
 5733 0020 24070000 		.4byte	.LBB8
 5734 0024 30070000 		.4byte	.LBE8
 5735 0028 00000000 		.4byte	0
 5736 002c 00000000 		.4byte	0
 5737 0030 AE030000 		.4byte	.LBB4
 5738 0034 20070000 		.4byte	.LBE4
 5739 0038 34070000 		.4byte	.LBB9
 5740 003c 42070000 		.4byte	.LBE9
 5741 0040 00000000 		.4byte	0
 5742 0044 00000000 		.4byte	0
 5743 0048 12000000 		.4byte	.LBB10
 5744 004c 34000000 		.4byte	.LBE10
 5745 0050 3C000000 		.4byte	.LBB11
 5746 0054 3E000000 		.4byte	.LBE11
 5747 0058 00000000 		.4byte	0
 5748 005c 00000000 		.4byte	0
 5749 0060 00000000 		.4byte	.LFB64
 5750 0064 0C000000 		.4byte	.LFE64
 5751 0068 00000000 		.4byte	.LFB66
 5752 006c 88000000 		.4byte	.LFE66
 5753 0070 00000000 		.4byte	.LFB67
 5754 0074 68000000 		.4byte	.LFE67
 5755 0078 00000000 		.4byte	.LFB68
 5756 007c 0E000000 		.4byte	.LFE68
ARM GAS  C:\Users\A85590\AppData\Local\Temp\ccILqQZe.s 			page 118


 5757 0080 00000000 		.4byte	.LFB69
 5758 0084 08000000 		.4byte	.LFE69
 5759 0088 00000000 		.4byte	.LFB70
 5760 008c 0C000000 		.4byte	.LFE70
 5761 0090 00000000 		.4byte	.LFB71
 5762 0094 0C000000 		.4byte	.LFE71
 5763 0098 00000000 		.4byte	.LFB72
 5764 009c 14000000 		.4byte	.LFE72
 5765 00a0 00000000 		.4byte	.LFB73
 5766 00a4 28000000 		.4byte	.LFE73
 5767 00a8 00000000 		.4byte	.LFB65
 5768 00ac 54070000 		.4byte	.LFE65
 5769 00b0 00000000 		.4byte	.LFB74
 5770 00b4 42000000 		.4byte	.LFE74
 5771 00b8 00000000 		.4byte	.LFB75
 5772 00bc 28000000 		.4byte	.LFE75
 5773 00c0 00000000 		.4byte	.LFB76
 5774 00c4 28000000 		.4byte	.LFE76
 5775 00c8 00000000 		.4byte	.LFB77
 5776 00cc C4000000 		.4byte	.LFE77
 5777 00d0 00000000 		.4byte	.LFB78
 5778 00d4 2C000000 		.4byte	.LFE78
 5779 00d8 00000000 		.4byte	.LFB79
 5780 00dc 34000000 		.4byte	.LFE79
 5781 00e0 00000000 		.4byte	.LFB80
 5782 00e4 24000000 		.4byte	.LFE80
 5783 00e8 00000000 		.4byte	.LFB81
 5784 00ec C0000000 		.4byte	.LFE81
 5785 00f0 00000000 		.4byte	0
 5786 00f4 00000000 		.4byte	0
 5787              		.section	.debug_line,"",%progbits
 5788              	.Ldebug_line0:
 5789 0000 F0040000 		.section	.debug_str,"MS",%progbits,1
 5789      02002602 
 5789      00000201 
 5789      FB0E0D00 
 5789      01010101 
 5790              	.LASF93:
 5791 0000 67707353 		.ascii	"gpsSerial_GetChar\000"
 5791      65726961 
 5791      6C5F4765 
 5791      74436861 
 5791      7200
 5792              	.LASF0:
 5793 0012 7369676E 		.ascii	"signed char\000"
 5793      65642063 
 5793      68617200 
 5794              	.LASF3:
 5795 001e 5F5F7569 		.ascii	"__uint8_t\000"
 5795      6E74385F 
 5795      7400
 5796              	.LASF88:
 5797 0028 5F5F6374 		.ascii	"__ctype_ptr__\000"
 5797      7970655F 
 5797      7074725F 
 5797      5F00
 5798              	.LASF76:
ARM GAS  C:\Users\A85590\AppData\Local\Temp\ccILqQZe.s 			page 119


 5799 0036 4C4F4355 		.ascii	"LOCUS_interval\000"
 5799      535F696E 
 5799      74657276 
 5799      616C00
 5800              	.LASF24:
 5801 0045 6C6F6E67 		.ascii	"longitude\000"
 5801      69747564 
 5801      6500
 5802              	.LASF99:
 5803 004f 7374726E 		.ascii	"strncpy\000"
 5803      63707900 
 5804              	.LASF80:
 5805 0057 4C4F4355 		.ascii	"LOCUS_percent\000"
 5805      535F7065 
 5805      7263656E 
 5805      7400
 5806              	.LASF35:
 5807 0065 66697871 		.ascii	"fixquality\000"
 5807      75616C69 
 5807      747900
 5808              	.LASF111:
 5809 0070 4750535F 		.ascii	"GPS_begin\000"
 5809      62656769 
 5809      6E00
 5810              	.LASF11:
 5811 007a 6C6F6E67 		.ascii	"long long unsigned int\000"
 5811      206C6F6E 
 5811      6720756E 
 5811      7369676E 
 5811      65642069 
 5812              	.LASF103:
 5813 0091 73747273 		.ascii	"strstr\000"
 5813      747200
 5814              	.LASF32:
 5815 0098 616E676C 		.ascii	"angle\000"
 5815      6500
 5816              	.LASF46:
 5817 009e 4750535F 		.ascii	"GPS_pause\000"
 5817      70617573 
 5817      6500
 5818              	.LASF70:
 5819 00a8 70617573 		.ascii	"paused\000"
 5819      656400
 5820              	.LASF89:
 5821 00af 49544D5F 		.ascii	"ITM_RxBuffer\000"
 5821      52784275 
 5821      66666572 
 5821      00
 5822              	.LASF64:
 5823 00bc 72657370 		.ascii	"response\000"
 5823      6F6E7365 
 5823      00
 5824              	.LASF52:
 5825 00c5 6E6D6561 		.ascii	"nmea\000"
 5825      00
 5826              	.LASF78:
 5827 00ca 4C4F4355 		.ascii	"LOCUS_speed\000"
ARM GAS  C:\Users\A85590\AppData\Local\Temp\ccILqQZe.s 			page 120


 5827      535F7370 
 5827      65656400 
 5828              	.LASF74:
 5829 00d6 4C4F4355 		.ascii	"LOCUS_mode\000"
 5829      535F6D6F 
 5829      646500
 5830              	.LASF73:
 5831 00e1 4C4F4355 		.ascii	"LOCUS_type\000"
 5831      535F7479 
 5831      706500
 5832              	.LASF96:
 5833 00ec 73747263 		.ascii	"strchr\000"
 5833      687200
 5834              	.LASF20:
 5835 00f3 79656172 		.ascii	"year\000"
 5835      00
 5836              	.LASF7:
 5837 00f8 6C6F6E67 		.ascii	"long int\000"
 5837      20696E74 
 5837      00
 5838              	.LASF27:
 5839 0101 6C617469 		.ascii	"latitudeDegrees\000"
 5839      74756465 
 5839      44656772 
 5839      65657300 
 5840              	.LASF30:
 5841 0111 616C7469 		.ascii	"altitude\000"
 5841      74756465 
 5841      00
 5842              	.LASF10:
 5843 011a 6C6F6E67 		.ascii	"long long int\000"
 5843      206C6F6E 
 5843      6720696E 
 5843      7400
 5844              	.LASF14:
 5845 0128 75696E74 		.ascii	"uint16_t\000"
 5845      31365F74 
 5845      00
 5846              	.LASF41:
 5847 0131 646F7562 		.ascii	"double\000"
 5847      6C6500
 5848              	.LASF92:
 5849 0138 67707353 		.ascii	"gpsSerial_GetRxBufferSize\000"
 5849      65726961 
 5849      6C5F4765 
 5849      74527842 
 5849      75666665 
 5850              	.LASF86:
 5851 0152 72656376 		.ascii	"recvdflag\000"
 5851      64666C61 
 5851      6700
 5852              	.LASF85:
 5853 015c 6C617374 		.ascii	"lastline\000"
 5853      6C696E65 
 5853      00
 5854              	.LASF62:
 5855 0165 4750535F 		.ascii	"GPS_LOCUS_StopLogger\000"
ARM GAS  C:\Users\A85590\AppData\Local\Temp\ccILqQZe.s 			page 121


 5855      4C4F4355 
 5855      535F5374 
 5855      6F704C6F 
 5855      67676572 
 5856              	.LASF75:
 5857 017a 4C4F4355 		.ascii	"LOCUS_config\000"
 5857      535F636F 
 5857      6E666967 
 5857      00
 5858              	.LASF81:
 5859 0187 6C696E65 		.ascii	"line1\000"
 5859      3100
 5860              	.LASF82:
 5861 018d 6C696E65 		.ascii	"line2\000"
 5861      3200
 5862              	.LASF54:
 5863 0193 6D696E75 		.ascii	"minutes\000"
 5863      74657300 
 5864              	.LASF8:
 5865 019b 5F5F7569 		.ascii	"__uint32_t\000"
 5865      6E743332 
 5865      5F7400
 5866              	.LASF105:
 5867 01a6 6D696C6C 		.ascii	"millis\000"
 5867      697300
 5868              	.LASF100:
 5869 01ad 61746F6C 		.ascii	"atol\000"
 5869      00
 5870              	.LASF21:
 5871 01b2 6D6F6E74 		.ascii	"month\000"
 5871      6800
 5872              	.LASF12:
 5873 01b8 756E7369 		.ascii	"unsigned int\000"
 5873      676E6564 
 5873      20696E74 
 5873      00
 5874              	.LASF28:
 5875 01c5 6C6F6E67 		.ascii	"longitudeDegrees\000"
 5875      69747564 
 5875      65446567 
 5875      72656573 
 5875      00
 5876              	.LASF102:
 5877 01d6 7374726C 		.ascii	"strlen\000"
 5877      656E00
 5878              	.LASF98:
 5879 01dd 666D6F64 		.ascii	"fmod\000"
 5879      00
 5880              	.LASF9:
 5881 01e2 6C6F6E67 		.ascii	"long unsigned int\000"
 5881      20756E73 
 5881      69676E65 
 5881      6420696E 
 5881      7400
 5882              	.LASF79:
 5883 01f4 4C4F4355 		.ascii	"LOCUS_status\000"
 5883      535F7374 
ARM GAS  C:\Users\A85590\AppData\Local\Temp\ccILqQZe.s 			page 122


 5883      61747573 
 5883      00
 5884              	.LASF109:
 5885 0201 67707364 		.ascii	"gpsdata\000"
 5885      61746100 
 5886              	.LASF5:
 5887 0209 73686F72 		.ascii	"short unsigned int\000"
 5887      7420756E 
 5887      7369676E 
 5887      65642069 
 5887      6E7400
 5888              	.LASF84:
 5889 021c 63757272 		.ascii	"currentline\000"
 5889      656E746C 
 5889      696E6500 
 5890              	.LASF68:
 5891 0228 4750535F 		.ascii	"GPS_start\000"
 5891      73746172 
 5891      7400
 5892              	.LASF104:
 5893 0232 73657269 		.ascii	"serial_printChar\000"
 5893      616C5F70 
 5893      72696E74 
 5893      43686172 
 5893      00
 5894              	.LASF71:
 5895 0243 4C4F4355 		.ascii	"LOCUS_serial\000"
 5895      535F7365 
 5895      7269616C 
 5895      00
 5896              	.LASF58:
 5897 0250 66756C6C 		.ascii	"fulldate\000"
 5897      64617465 
 5897      00
 5898              	.LASF65:
 5899 0259 70617273 		.ascii	"parsed\000"
 5899      656400
 5900              	.LASF25:
 5901 0260 6C617469 		.ascii	"latitude_fixed\000"
 5901      74756465 
 5901      5F666978 
 5901      656400
 5902              	.LASF66:
 5903 026f 4750535F 		.ascii	"GPS_standby\000"
 5903      7374616E 
 5903      64627900 
 5904              	.LASF36:
 5905 027b 73617465 		.ascii	"satellites\000"
 5905      6C6C6974 
 5905      657300
 5906              	.LASF26:
 5907 0286 6C6F6E67 		.ascii	"longitude_fixed\000"
 5907      69747564 
 5907      655F6669 
 5907      78656400 
 5908              	.LASF63:
 5909 0296 4750535F 		.ascii	"GPS_LOCUS_ReadStatus\000"
ARM GAS  C:\Users\A85590\AppData\Local\Temp\ccILqQZe.s 			page 123


 5909      4C4F4355 
 5909      535F5265 
 5909      61645374 
 5909      61747573 
 5910              	.LASF59:
 5911 02ab 4750535F 		.ascii	"GPS_waitForSentence\000"
 5911      77616974 
 5911      466F7253 
 5911      656E7465 
 5911      6E636500 
 5912              	.LASF43:
 5913 02bf 73697A65 		.ascii	"sizetype\000"
 5913      74797065 
 5913      00
 5914              	.LASF91:
 5915 02c8 6C617374 		.ascii	"last_time_printed\000"
 5915      5F74696D 
 5915      655F7072 
 5915      696E7465 
 5915      6400
 5916              	.LASF23:
 5917 02da 6C617469 		.ascii	"latitude\000"
 5917      74756465 
 5917      00
 5918              	.LASF49:
 5919 02e3 4750535F 		.ascii	"GPS_read\000"
 5919      72656164 
 5919      00
 5920              	.LASF57:
 5921 02ec 74696D65 		.ascii	"time\000"
 5921      00
 5922              	.LASF61:
 5923 02f1 4750535F 		.ascii	"GPS_LOCUS_StartLogger\000"
 5923      4C4F4355 
 5923      535F5374 
 5923      6172744C 
 5923      6F676765 
 5924              	.LASF77:
 5925 0307 4C4F4355 		.ascii	"LOCUS_distance\000"
 5925      535F6469 
 5925      7374616E 
 5925      636500
 5926              	.LASF17:
 5927 0316 686F7572 		.ascii	"hour\000"
 5927      00
 5928              	.LASF108:
 5929 031b 433A5C55 		.ascii	"C:\\Users\\A85590\\Documents\\MyCodes\\PSoC-Quadcop"
 5929      73657273 
 5929      5C413835 
 5929      3539305C 
 5929      446F6375 
 5930 0349 7465725C 		.ascii	"ter\\Sensors\\Sensor Test\\All_sensor_testv2.cydsn\000"
 5930      53656E73 
 5930      6F72735C 
 5930      53656E73 
 5930      6F722054 
 5931              	.LASF38:
ARM GAS  C:\Users\A85590\AppData\Local\Temp\ccILqQZe.s 			page 124


 5932 0379 666C6F61 		.ascii	"float\000"
 5932      7400
 5933              	.LASF19:
 5934 037f 7365636F 		.ascii	"seconds\000"
 5934      6E647300 
 5935              	.LASF22:
 5936 0387 6D696C6C 		.ascii	"milliseconds\000"
 5936      69736563 
 5936      6F6E6473 
 5936      00
 5937              	.LASF37:
 5938 0394 6D696C6C 		.ascii	"millisTimeStamp\000"
 5938      69735469 
 5938      6D655374 
 5938      616D7000 
 5939              	.LASF97:
 5940 03a4 61746F66 		.ascii	"atof\000"
 5940      00
 5941              	.LASF45:
 5942 03a9 4750535F 		.ascii	"GPS_sendCommand\000"
 5942      73656E64 
 5942      436F6D6D 
 5942      616E6400 
 5943              	.LASF101:
 5944 03b9 61746F69 		.ascii	"atoi\000"
 5944      00
 5945              	.LASF51:
 5946 03be 4750535F 		.ascii	"GPS_parse\000"
 5946      70617273 
 5946      6500
 5947              	.LASF48:
 5948 03c8 4750535F 		.ascii	"GPS_lastNMEA\000"
 5948      6C617374 
 5948      4E4D4541 
 5948      00
 5949              	.LASF15:
 5950 03d5 696E7433 		.ascii	"int32_t\000"
 5950      325F7400 
 5951              	.LASF1:
 5952 03dd 756E7369 		.ascii	"unsigned char\000"
 5952      676E6564 
 5952      20636861 
 5952      7200
 5953              	.LASF29:
 5954 03eb 67656F69 		.ascii	"geoidheight\000"
 5954      64686569 
 5954      67687400 
 5955              	.LASF2:
 5956 03f7 73686F72 		.ascii	"short int\000"
 5956      7420696E 
 5956      7400
 5957              	.LASF87:
 5958 0401 696E5374 		.ascii	"inStandbyMode\000"
 5958      616E6462 
 5958      794D6F64 
 5958      6500
 5959              	.LASF53:
ARM GAS  C:\Users\A85590\AppData\Local\Temp\ccILqQZe.s 			page 125


 5960 040f 64656772 		.ascii	"degree\000"
 5960      656500
 5961              	.LASF72:
 5962 0416 4C4F4355 		.ascii	"LOCUS_records\000"
 5962      535F7265 
 5962      636F7264 
 5962      7300
 5963              	.LASF106:
 5964 0424 474E5520 		.ascii	"GNU C11 5.4.1 20160609 (release) [ARM/embedded-5-br"
 5964      43313120 
 5964      352E342E 
 5964      31203230 
 5964      31363036 
 5965 0457 616E6368 		.ascii	"anch revision 237715] -mcpu=cortex-m3 -mthumb -g -O"
 5965      20726576 
 5965      6973696F 
 5965      6E203233 
 5965      37373135 
 5966 048a 67202D66 		.ascii	"g -ffunction-sections -ffat-lto-objects\000"
 5966      66756E63 
 5966      74696F6E 
 5966      2D736563 
 5966      74696F6E 
 5967              	.LASF83:
 5968 04b2 6C696E65 		.ascii	"lineidx\000"
 5968      69647800 
 5969              	.LASF16:
 5970 04ba 75696E74 		.ascii	"uint32_t\000"
 5970      33325F74 
 5970      00
 5971              	.LASF60:
 5972 04c3 77616974 		.ascii	"wait4me\000"
 5972      346D6500 
 5973              	.LASF67:
 5974 04cb 4750535F 		.ascii	"GPS_wakeup\000"
 5974      77616B65 
 5974      757000
 5975              	.LASF42:
 5976 04d6 6C6F6E67 		.ascii	"long double\000"
 5976      20646F75 
 5976      626C6500 
 5977              	.LASF50:
 5978 04e2 4750535F 		.ascii	"GPS_parseHex\000"
 5978      70617273 
 5978      65486578 
 5978      00
 5979              	.LASF39:
 5980 04ef 63686172 		.ascii	"char\000"
 5980      00
 5981              	.LASF4:
 5982 04f4 5F5F7569 		.ascii	"__uint16_t\000"
 5982      6E743136 
 5982      5F7400
 5983              	.LASF44:
 5984 04ff 73657447 		.ascii	"setGPSEcho\000"
 5984      50534563 
 5984      686F00
ARM GAS  C:\Users\A85590\AppData\Local\Temp\ccILqQZe.s 			page 126


 5985              	.LASF6:
 5986 050a 5F5F696E 		.ascii	"__int32_t\000"
 5986      7433325F 
 5986      7400
 5987              	.LASF34:
 5988 0514 48444F50 		.ascii	"HDOP\000"
 5988      00
 5989              	.LASF33:
 5990 0519 6D616776 		.ascii	"magvariation\000"
 5990      61726961 
 5990      74696F6E 
 5990      00
 5991              	.LASF107:
 5992 0526 2E2E5C2E 		.ascii	"..\\..\\gps.c\000"
 5992      2E5C6770 
 5992      732E6300 
 5993              	.LASF94:
 5994 0532 43794465 		.ascii	"CyDelay\000"
 5994      6C617900 
 5995              	.LASF18:
 5996 053a 6D696E75 		.ascii	"minute\000"
 5996      746500
 5997              	.LASF47:
 5998 0541 4750535F 		.ascii	"GPS_newNMEAreceived\000"
 5998      6E65774E 
 5998      4D454172 
 5998      65636569 
 5998      76656400 
 5999              	.LASF56:
 6000 0555 74696D65 		.ascii	"timef\000"
 6000      6600
 6001              	.LASF13:
 6002 055b 75696E74 		.ascii	"uint8_t\000"
 6002      385F7400 
 6003              	.LASF110:
 6004 0563 4750535F 		.ascii	"GPS_common_init\000"
 6004      636F6D6D 
 6004      6F6E5F69 
 6004      6E697400 
 6005              	.LASF31:
 6006 0573 73706565 		.ascii	"speed\000"
 6006      6400
 6007              	.LASF55:
 6008 0579 64656772 		.ascii	"degreebuff\000"
 6008      65656275 
 6008      666600
 6009              	.LASF95:
 6010 0584 67707353 		.ascii	"gpsSerial_PutString\000"
 6010      65726961 
 6010      6C5F5075 
 6010      74537472 
 6010      696E6700 
 6011              	.LASF90:
 6012 0598 47505345 		.ascii	"GPSECHO\000"
 6012      43484F00 
 6013              	.LASF40:
 6014 05a0 67707344 		.ascii	"gpsData_t\000"
ARM GAS  C:\Users\A85590\AppData\Local\Temp\ccILqQZe.s 			page 127


 6014      6174615F 
 6014      7400
 6015              	.LASF69:
 6016 05aa 4750535F 		.ascii	"GPS_update\000"
 6016      75706461 
 6016      746500
 6017              		.ident	"GCC: (GNU Tools for ARM Embedded Processors) 5.4.1 20160609 (release) [ARM/embedded-5-bran
