ARM GAS  C:\Users\a85495\AppData\Local\Temp\ccgj3VN3.s 			page 1


   1              		.syntax unified
   2              		.cpu cortex-m3
   3              		.fpu softvfp
   4              		.eabi_attribute 20, 1
   5              		.eabi_attribute 21, 1
   6              		.eabi_attribute 23, 3
   7              		.eabi_attribute 24, 1
   8              		.eabi_attribute 25, 1
   9              		.eabi_attribute 26, 1
  10              		.eabi_attribute 30, 1
  11              		.eabi_attribute 34, 1
  12              		.eabi_attribute 18, 4
  13              		.thumb
  14              		.syntax unified
  15              		.file	"gyroscope.c"
  16              		.text
  17              	.Ltext0:
  18              		.cfi_sections	.debug_frame
  19              		.section	.text.gyro_write8,"ax",%progbits
  20              		.align	2
  21              		.global	gyro_write8
  22              		.thumb
  23              		.thumb_func
  24              		.type	gyro_write8, %function
  25              	gyro_write8:
  26              	.LFB63:
  27              		.file 1 "..\\..\\gyroscope.c"
   1:..\../gyroscope.c **** /*
   2:..\../gyroscope.c ****  * This is going to be the remade version of the FXAS21002C library from adafruit
   3:..\../gyroscope.c ****  * to support the PSoC Version of our project
   4:..\../gyroscope.c **** */
   5:..\../gyroscope.c **** 
   6:..\../gyroscope.c **** #include "gyroscope.h"
   7:..\../gyroscope.c **** #include "twi.h"
   8:..\../gyroscope.c **** #include "project.h"
   9:..\../gyroscope.c **** #include "SensorVal.h"
  10:..\../gyroscope.c **** #include "stdlib.h"
  11:..\../gyroscope.c **** #include <stdint.h>
  12:..\../gyroscope.c **** #include "debSerial.h"
  13:..\../gyroscope.c **** 
  14:..\../gyroscope.c **** static gyroRange_t _range;
  15:..\../gyroscope.c **** 
  16:..\../gyroscope.c **** void gyro_write8(uint8_t reg, uint8_t value)
  17:..\../gyroscope.c **** {
  28              		.loc 1 17 0
  29              		.cfi_startproc
  30              		@ args = 0, pretend = 0, frame = 8
  31              		@ frame_needed = 0, uses_anonymous_args = 0
  32              	.LVL0:
  33 0000 00B5     		push	{lr}
  34              		.cfi_def_cfa_offset 4
  35              		.cfi_offset 14, -4
  36 0002 83B0     		sub	sp, sp, #12
  37              		.cfi_def_cfa_offset 16
  18:..\../gyroscope.c **** 
  19:..\../gyroscope.c ****     //to write, you want to write 2 values: (1) The registeraddress you want to write to
  20:..\../gyroscope.c ****     //                                      (2) The value you wish to write to the register
ARM GAS  C:\Users\a85495\AppData\Local\Temp\ccgj3VN3.s 			page 2


  21:..\../gyroscope.c **** 
  22:..\../gyroscope.c ****     uint8_t Write_Buf[2] = {0};  //create an array where we will store the things to be written
  23:..\../gyroscope.c ****     Write_Buf[0] = (uint8_t)reg; //save the things to be sent in order in the array
  38              		.loc 1 23 0
  39 0004 8DF80400 		strb	r0, [sp, #4]
  24:..\../gyroscope.c ****     Write_Buf[1] = (uint8_t)value;
  40              		.loc 1 24 0
  41 0008 8DF80510 		strb	r1, [sp, #5]
  25:..\../gyroscope.c **** 
  26:..\../gyroscope.c ****     //Make a complete transfer (I2C_MODE_COMPLETE_XFER) to the gyroscope
  27:..\../gyroscope.c ****     //Before the array is sent, it first sends the address and that it's about to write to it
  28:..\../gyroscope.c ****     //Then, it sends the first array value which is the register value it's trying to write to
  29:..\../gyroscope.c ****     //And, finally once it receives an ACK it sends the second thing which is the value it is tryin
  30:..\../gyroscope.c ****     I2C_MasterWriteBuf(FXAS21002C_ADDRESS, (uint8 *)Write_Buf, 2, I2C_MODE_COMPLETE_XFER);
  42              		.loc 1 30 0
  43 000c 0023     		movs	r3, #0
  44 000e 0222     		movs	r2, #2
  45 0010 01A9     		add	r1, sp, #4
  46              	.LVL1:
  47 0012 2120     		movs	r0, #33
  48              	.LVL2:
  49 0014 FFF7FEFF 		bl	I2C_MasterWriteBuf
  50              	.LVL3:
  51              	.L2:
  31:..\../gyroscope.c ****     while ((I2C_MasterStatus() & I2C_MSTAT_WR_CMPLT) == 0) //Wait till the whole transfer is comple
  52              		.loc 1 31 0 discriminator 1
  53 0018 FFF7FEFF 		bl	I2C_MasterStatus
  54              	.LVL4:
  55 001c 10F0020F 		tst	r0, #2
  56 0020 FAD0     		beq	.L2
  32:..\../gyroscope.c ****     {
  33:..\../gyroscope.c ****     }
  34:..\../gyroscope.c **** 
  35:..\../gyroscope.c ****     return; //return 1 if everything was successful
  36:..\../gyroscope.c **** }
  57              		.loc 1 36 0
  58 0022 03B0     		add	sp, sp, #12
  59              		.cfi_def_cfa_offset 4
  60              		@ sp needed
  61 0024 5DF804FB 		ldr	pc, [sp], #4
  62              		.cfi_endproc
  63              	.LFE63:
  64              		.size	gyro_write8, .-gyro_write8
  65              		.section	.text.gyro_read8,"ax",%progbits
  66              		.align	2
  67              		.global	gyro_read8
  68              		.thumb
  69              		.thumb_func
  70              		.type	gyro_read8, %function
  71              	gyro_read8:
  72              	.LFB64:
  37:..\../gyroscope.c **** 
  38:..\../gyroscope.c **** uint8_t gyro_read8(uint8_t reg)
  39:..\../gyroscope.c **** {
  73              		.loc 1 39 0
  74              		.cfi_startproc
  75              		@ args = 0, pretend = 0, frame = 8
ARM GAS  C:\Users\a85495\AppData\Local\Temp\ccgj3VN3.s 			page 3


  76              		@ frame_needed = 0, uses_anonymous_args = 0
  77              	.LVL5:
  78 0000 00B5     		push	{lr}
  79              		.cfi_def_cfa_offset 4
  80              		.cfi_offset 14, -4
  81 0002 83B0     		sub	sp, sp, #12
  82              		.cfi_def_cfa_offset 16
  40:..\../gyroscope.c **** 
  41:..\../gyroscope.c ****     //to read:  (1)Write the register address you want to read from to the slave device
  42:..\../gyroscope.c ****     //          (2)Use MasterReadBuf to store what is contained in the refister into the read buffe
  43:..\../gyroscope.c **** 
  44:..\../gyroscope.c ****     uint8_t Write_Buf[1];
  45:..\../gyroscope.c ****     Write_Buf[0] = (uint8_t)reg;
  83              		.loc 1 45 0
  84 0004 8DF80400 		strb	r0, [sp, #4]
  46:..\../gyroscope.c **** 
  47:..\../gyroscope.c ****     uint8 Read_Buf[1] = {0};
  85              		.loc 1 47 0
  86 0008 0023     		movs	r3, #0
  87 000a 8DF80030 		strb	r3, [sp]
  48:..\../gyroscope.c **** 
  49:..\../gyroscope.c ****     //Make a transfer with no stop bit (I2C_MODE_NO_STOP) to the gyroscope
  50:..\../gyroscope.c ****     //Before the array is sent, it first sends the address and that it's about to write to it
  51:..\../gyroscope.c ****     //Then, it sends the first array value which is the register value it's trying to point to
  52:..\../gyroscope.c ****     //And, finally once it receives an ACK it sends the second thing which is the value it is tryin
  53:..\../gyroscope.c ****     I2C_MasterWriteBuf(FXAS21002C_ADDRESS, (uint8 *)Write_Buf, 1, I2C_MODE_NO_STOP);
  88              		.loc 1 53 0
  89 000e 0223     		movs	r3, #2
  90 0010 0122     		movs	r2, #1
  91 0012 01A9     		add	r1, sp, #4
  92 0014 2120     		movs	r0, #33
  93              	.LVL6:
  94 0016 FFF7FEFF 		bl	I2C_MasterWriteBuf
  95              	.LVL7:
  96              	.L5:
  54:..\../gyroscope.c ****     while ((I2C_MasterStatus() & I2C_MSTAT_WR_CMPLT) == 0)
  97              		.loc 1 54 0 discriminator 1
  98 001a FFF7FEFF 		bl	I2C_MasterStatus
  99              	.LVL8:
 100 001e 10F0020F 		tst	r0, #2
 101 0022 FAD0     		beq	.L5
  55:..\../gyroscope.c ****     {
  56:..\../gyroscope.c ****     } //wait till Master status indicates that write is complete
  57:..\../gyroscope.c **** 
  58:..\../gyroscope.c ****     //Once the first tranfer was done with a NO STOP BIT it then tells the gyroscope that it is
  59:..\../gyroscope.c ****     //trying to read from it, after sending a repeated start. The Master will no extract as much
  60:..\../gyroscope.c ****     //bytes as we told it to, starting from the value in the register we told it to point to
  61:..\../gyroscope.c ****     I2C_MasterReadBuf(FXAS21002C_ADDRESS, (uint8 *)Read_Buf, 1, I2C_MODE_REPEAT_START);
 102              		.loc 1 61 0
 103 0024 0123     		movs	r3, #1
 104 0026 1A46     		mov	r2, r3
 105 0028 6946     		mov	r1, sp
 106 002a 2120     		movs	r0, #33
 107 002c FFF7FEFF 		bl	I2C_MasterReadBuf
 108              	.LVL9:
 109              	.L6:
  62:..\../gyroscope.c ****     while ((I2C_MasterStatus() & I2C_MSTAT_RD_CMPLT) == 0)
ARM GAS  C:\Users\a85495\AppData\Local\Temp\ccgj3VN3.s 			page 4


 110              		.loc 1 62 0 discriminator 1
 111 0030 FFF7FEFF 		bl	I2C_MasterStatus
 112              	.LVL10:
 113 0034 10F0010F 		tst	r0, #1
 114 0038 FAD0     		beq	.L6
  63:..\../gyroscope.c ****     {
  64:..\../gyroscope.c ****     } //wait till Master status indicates read is complete
  65:..\../gyroscope.c **** 
  66:..\../gyroscope.c ****     return Read_Buf[0]; //return the value we just read
  67:..\../gyroscope.c **** }
 115              		.loc 1 67 0
 116 003a 9DF80000 		ldrb	r0, [sp]	@ zero_extendqisi2
 117 003e 03B0     		add	sp, sp, #12
 118              		.cfi_def_cfa_offset 4
 119              		@ sp needed
 120 0040 5DF804FB 		ldr	pc, [sp], #4
 121              		.cfi_endproc
 122              	.LFE64:
 123              		.size	gyro_read8, .-gyro_read8
 124              		.section	.text.gyro_begin,"ax",%progbits
 125              		.align	2
 126              		.global	gyro_begin
 127              		.thumb
 128              		.thumb_func
 129              		.type	gyro_begin, %function
 130              	gyro_begin:
 131              	.LFB65:
  68:..\../gyroscope.c **** 
  69:..\../gyroscope.c **** uint8_t gyro_begin(gyroRange_t rng)
  70:..\../gyroscope.c **** {
 132              		.loc 1 70 0
 133              		.cfi_startproc
 134              		@ args = 0, pretend = 0, frame = 0
 135              		@ frame_needed = 0, uses_anonymous_args = 0
 136              	.LVL11:
 137 0000 10B5     		push	{r4, lr}
 138              		.cfi_def_cfa_offset 8
 139              		.cfi_offset 4, -8
 140              		.cfi_offset 14, -4
 141 0002 0446     		mov	r4, r0
  71:..\../gyroscope.c ****   /* Enable I2C */
  72:..\../gyroscope.c ****   Wire_begin();
 142              		.loc 1 72 0
 143 0004 FFF7FEFF 		bl	Wire_begin
 144              	.LVL12:
  73:..\../gyroscope.c **** 
  74:..\../gyroscope.c ****   /* Set the range to an appropriate value */
  75:..\../gyroscope.c ****   _range = rng;
 145              		.loc 1 75 0
 146 0008 124B     		ldr	r3, .L12
 147 000a 1C80     		strh	r4, [r3]	@ movhi
  76:..\../gyroscope.c **** 
  77:..\../gyroscope.c ****   /* Clear the raw sensor data */
  78:..\../gyroscope.c ****   gyro_raw.x = 0;
 148              		.loc 1 78 0
 149 000c 124B     		ldr	r3, .L12+4
 150 000e 0022     		movs	r2, #0
ARM GAS  C:\Users\a85495\AppData\Local\Temp\ccgj3VN3.s 			page 5


 151 0010 1A80     		strh	r2, [r3]	@ movhi
  79:..\../gyroscope.c ****   gyro_raw.y = 0;
 152              		.loc 1 79 0
 153 0012 5A80     		strh	r2, [r3, #2]	@ movhi
  80:..\../gyroscope.c ****   gyro_raw.z = 0;
 154              		.loc 1 80 0
 155 0014 9A80     		strh	r2, [r3, #4]	@ movhi
  81:..\../gyroscope.c **** 
  82:..\../gyroscope.c ****   /* Make sure we have the correct chip ID since this checks
  83:..\../gyroscope.c ****      for correct address and that the IC is properly connected */
  84:..\../gyroscope.c ****   uint8_t id = gyro_read8(GYRO_REGISTER_WHO_AM_I);
 156              		.loc 1 84 0
 157 0016 0C20     		movs	r0, #12
 158 0018 FFF7FEFF 		bl	gyro_read8
 159              	.LVL13:
  85:..\../gyroscope.c ****   // Serial.print("WHO AM I? 0x"); Serial.println(id, HEX);
  86:..\../gyroscope.c ****   if (id != FXAS21002C_ID)
 160              		.loc 1 86 0
 161 001c D728     		cmp	r0, #215
 162 001e 04D0     		beq	.L9
  87:..\../gyroscope.c ****   {
  88:..\../gyroscope.c ****     serial_println("Incorrect ID, check wiring or code");
 163              		.loc 1 88 0
 164 0020 0E48     		ldr	r0, .L12+8
 165              	.LVL14:
 166 0022 FFF7FEFF 		bl	serial_println
 167              	.LVL15:
  89:..\../gyroscope.c ****     return false;
 168              		.loc 1 89 0
 169 0026 0020     		movs	r0, #0
 170 0028 10BD     		pop	{r4, pc}
 171              	.LVL16:
 172              	.L9:
  90:..\../gyroscope.c ****   }
  91:..\../gyroscope.c ****   serial_println("Correct ID");
 173              		.loc 1 91 0
 174 002a 0D48     		ldr	r0, .L12+12
 175              	.LVL17:
 176 002c FFF7FEFF 		bl	serial_println
 177              	.LVL18:
  92:..\../gyroscope.c **** 
  93:..\../gyroscope.c ****   /* Set CTRL_REG1 (0x13)
  94:..\../gyroscope.c ****    ====================================================================
  95:..\../gyroscope.c ****    BIT  Symbol    Description                                   Default
  96:..\../gyroscope.c ****    ---  ------    --------------------------------------------- -------
  97:..\../gyroscope.c ****      6  RESET     Reset device on 1                                   0
  98:..\../gyroscope.c ****      5  ST        Self test enabled on 1                              0
  99:..\../gyroscope.c ****    4:2  DR        Output data rate                                  000
 100:..\../gyroscope.c ****                   000 = 800 Hz
 101:..\../gyroscope.c ****                   001 = 400 Hz
 102:..\../gyroscope.c ****                   010 = 200 Hz
 103:..\../gyroscope.c ****                   011 = 100 Hz
 104:..\../gyroscope.c ****                   100 = 50 Hz
 105:..\../gyroscope.c ****                   101 = 25 Hz
 106:..\../gyroscope.c ****                   110 = 12.5 Hz
 107:..\../gyroscope.c ****                   111 = 12.5 Hz
 108:..\../gyroscope.c ****      1  ACTIVE    Standby(0)/Active(1)                                0
ARM GAS  C:\Users\a85495\AppData\Local\Temp\ccgj3VN3.s 			page 6


 109:..\../gyroscope.c ****      0  READY     Standby(0)/Ready(1)                                 0*/
 110:..\../gyroscope.c **** 
 111:..\../gyroscope.c ****   /* Reset then switch to active mode with 100Hz output */
 112:..\../gyroscope.c ****   gyro_write8(GYRO_REGISTER_CTRL_REG1, 0x00);  //clear all bit
 178              		.loc 1 112 0
 179 0030 0021     		movs	r1, #0
 180 0032 1320     		movs	r0, #19
 181 0034 FFF7FEFF 		bl	gyro_write8
 182              	.LVL19:
 113:..\../gyroscope.c ****   gyro_write8(GYRO_REGISTER_CTRL_REG1, (1<<6));  //set the reset bit
 183              		.loc 1 113 0
 184 0038 4021     		movs	r1, #64
 185 003a 1320     		movs	r0, #19
 186 003c FFF7FEFF 		bl	gyro_write8
 187              	.LVL20:
 114:..\../gyroscope.c ****   gyro_write8(GYRO_REGISTER_CTRL_REG1, 0x0E);    //
 188              		.loc 1 114 0
 189 0040 0E21     		movs	r1, #14
 190 0042 1320     		movs	r0, #19
 191 0044 FFF7FEFF 		bl	gyro_write8
 192              	.LVL21:
 115:..\../gyroscope.c ****   CyDelay(100); // 60 ms + 1/ODR
 193              		.loc 1 115 0
 194 0048 6420     		movs	r0, #100
 195 004a FFF7FEFF 		bl	CyDelay
 196              	.LVL22:
 116:..\../gyroscope.c ****   /* ------------------------------------------------------------------ */
 117:..\../gyroscope.c **** 
 118:..\../gyroscope.c ****   return true;
 197              		.loc 1 118 0
 198 004e 0120     		movs	r0, #1
 119:..\../gyroscope.c **** }
 199              		.loc 1 119 0
 200 0050 10BD     		pop	{r4, pc}
 201              	.L13:
 202 0052 00BF     		.align	2
 203              	.L12:
 204 0054 00000000 		.word	.LANCHOR0
 205 0058 00000000 		.word	gyro_raw
 206 005c 00000000 		.word	.LC0
 207 0060 24000000 		.word	.LC1
 208              		.cfi_endproc
 209              	.LFE65:
 210              		.size	gyro_begin, .-gyro_begin
 211              		.global	__aeabi_i2f
 212              		.global	__aeabi_fmul
 213              		.section	.text.gyro_update,"ax",%progbits
 214              		.align	2
 215              		.global	gyro_update
 216              		.thumb
 217              		.thumb_func
 218              		.type	gyro_update, %function
 219              	gyro_update:
 220              	.LFB66:
 120:..\../gyroscope.c **** 
 121:..\../gyroscope.c **** uint8_t gyro_update()
 122:..\../gyroscope.c **** {
ARM GAS  C:\Users\a85495\AppData\Local\Temp\ccgj3VN3.s 			page 7


 221              		.loc 1 122 0
 222              		.cfi_startproc
 223              		@ args = 0, pretend = 0, frame = 16
 224              		@ frame_needed = 0, uses_anonymous_args = 0
 225 0000 2DE9F047 		push	{r4, r5, r6, r7, r8, r9, r10, lr}
 226              		.cfi_def_cfa_offset 32
 227              		.cfi_offset 4, -32
 228              		.cfi_offset 5, -28
 229              		.cfi_offset 6, -24
 230              		.cfi_offset 7, -20
 231              		.cfi_offset 8, -16
 232              		.cfi_offset 9, -12
 233              		.cfi_offset 10, -8
 234              		.cfi_offset 14, -4
 235 0004 84B0     		sub	sp, sp, #16
 236              		.cfi_def_cfa_offset 48
 237              	.LVL23:
 123:..\../gyroscope.c ****   uint8_t readingValid = false;
 124:..\../gyroscope.c **** 
 125:..\../gyroscope.c **** 
 126:..\../gyroscope.c ****   /* Clear the raw data placeholder */
 127:..\../gyroscope.c ****   gyro_raw.x = 0;
 238              		.loc 1 127 0
 239 0006 604A     		ldr	r2, .L24
 240 0008 0023     		movs	r3, #0
 241 000a 1380     		strh	r3, [r2]	@ movhi
 128:..\../gyroscope.c ****   gyro_raw.y = 0;
 242              		.loc 1 128 0
 243 000c 5380     		strh	r3, [r2, #2]	@ movhi
 129:..\../gyroscope.c ****   gyro_raw.z = 0;
 244              		.loc 1 129 0
 245 000e 9380     		strh	r3, [r2, #4]	@ movhi
 130:..\../gyroscope.c **** 
 131:..\../gyroscope.c ****   /* Read 7 bytes from the sensor */
 132:..\../gyroscope.c ****   /*Wire.beginTransmission((byte)FXAS21002C_ADDRESS);
 133:..\../gyroscope.c ****   #if ARDUINO >= 100
 134:..\../gyroscope.c ****     Wire.write(GYRO_REGISTER_STATUS | 0x80);
 135:..\../gyroscope.c ****   #else
 136:..\../gyroscope.c ****     Wire.send(GYRO_REGISTER_STATUS | 0x80);
 137:..\../gyroscope.c ****   #endif
 138:..\../gyroscope.c ****   Wire.endTransmission();
 139:..\../gyroscope.c ****   Wire.requestFrom((byte)FXAS21002C_ADDRESS, (byte)7);
 140:..\../gyroscope.c ****   */
 141:..\../gyroscope.c **** 
 142:..\../gyroscope.c ****     uint8_t Write_Buf[1];  //create a buffer that will store the register that we want to start rea
 143:..\../gyroscope.c ****     Write_Buf[0] = (uint8_t)GYRO_REGISTER_STATUS;   
 246              		.loc 1 143 0
 247 0010 8DF80C30 		strb	r3, [sp, #12]
 144:..\../gyroscope.c ****     
 145:..\../gyroscope.c ****     uint8_t Read_Buf[7] = {0}; //create an array that will store the data read
 248              		.loc 1 145 0
 249 0014 0193     		str	r3, [sp, #4]
 250 0016 CDF80730 		str	r3, [sp, #7]	@ unaligned
 146:..\../gyroscope.c ****     
 147:..\../gyroscope.c ****     I2C_MasterWriteBuf(FXAS21002C_ADDRESS, (uint8 *)Write_Buf, 1, I2C_MODE_NO_STOP);
 251              		.loc 1 147 0
 252 001a 0223     		movs	r3, #2
ARM GAS  C:\Users\a85495\AppData\Local\Temp\ccgj3VN3.s 			page 8


 253 001c 0122     		movs	r2, #1
 254 001e 03A9     		add	r1, sp, #12
 255 0020 2120     		movs	r0, #33
 256 0022 FFF7FEFF 		bl	I2C_MasterWriteBuf
 257              	.LVL24:
 258              	.L15:
 148:..\../gyroscope.c ****     while((I2C_MasterStatus() & I2C_MSTAT_WR_CMPLT) == 0){} //wait till Master status indicates tha
 259              		.loc 1 148 0 discriminator 1
 260 0026 FFF7FEFF 		bl	I2C_MasterStatus
 261              	.LVL25:
 262 002a 10F0020F 		tst	r0, #2
 263 002e FAD0     		beq	.L15
 149:..\../gyroscope.c ****     
 150:..\../gyroscope.c ****     I2C_MasterReadBuf(FXAS21002C_ADDRESS, (uint8 *) Read_Buf, sizeof(Read_Buf), I2C_MODE_REPEAT_STA
 264              		.loc 1 150 0
 265 0030 0123     		movs	r3, #1
 266 0032 0722     		movs	r2, #7
 267 0034 01A9     		add	r1, sp, #4
 268 0036 2120     		movs	r0, #33
 269 0038 FFF7FEFF 		bl	I2C_MasterReadBuf
 270              	.LVL26:
 271              	.L16:
 151:..\../gyroscope.c ****     while((I2C_MasterStatus() & I2C_MSTAT_RD_CMPLT)==0){}   //wait till Master status indicates rea
 272              		.loc 1 151 0 discriminator 1
 273 003c FFF7FEFF 		bl	I2C_MasterStatus
 274              	.LVL27:
 275 0040 10F0010F 		tst	r0, #1
 276 0044 FAD0     		beq	.L16
 277              	.LVL28:
 152:..\../gyroscope.c ****     
 153:..\../gyroscope.c **** 
 154:..\../gyroscope.c ****     uint8_t status = Read_Buf[0];
 155:..\../gyroscope.c ****     uint8_t xhi = Read_Buf[1];
 278              		.loc 1 155 0
 279 0046 9DF80560 		ldrb	r6, [sp, #5]	@ zero_extendqisi2
 280              	.LVL29:
 156:..\../gyroscope.c ****     uint8_t xlo = Read_Buf[2];
 281              		.loc 1 156 0
 282 004a 9DF80630 		ldrb	r3, [sp, #6]	@ zero_extendqisi2
 283              	.LVL30:
 157:..\../gyroscope.c ****     uint8_t yhi = Read_Buf[3];
 284              		.loc 1 157 0
 285 004e 9DF80770 		ldrb	r7, [sp, #7]	@ zero_extendqisi2
 286              	.LVL31:
 158:..\../gyroscope.c ****     uint8_t ylo = Read_Buf[4];
 287              		.loc 1 158 0
 288 0052 9DF80850 		ldrb	r5, [sp, #8]	@ zero_extendqisi2
 289              	.LVL32:
 159:..\../gyroscope.c ****     uint8_t zhi = Read_Buf[5];
 290              		.loc 1 159 0
 291 0056 9DF809A0 		ldrb	r10, [sp, #9]	@ zero_extendqisi2
 292              	.LVL33:
 160:..\../gyroscope.c ****     uint8_t zlo = Read_Buf[6];
 293              		.loc 1 160 0
 294 005a 9DF80A40 		ldrb	r4, [sp, #10]	@ zero_extendqisi2
 295              	.LVL34:
 161:..\../gyroscope.c **** 
ARM GAS  C:\Users\a85495\AppData\Local\Temp\ccgj3VN3.s 			page 9


 162:..\../gyroscope.c ****   /* Shift values to create properly formed integer */
 163:..\../gyroscope.c ****   gyro.x = (int16_t)((xhi << 8) | xlo);
 296              		.loc 1 163 0
 297 005e 43EA0626 		orr	r6, r3, r6, lsl #8
 298              	.LVL35:
 299 0062 36B2     		sxth	r6, r6
 300 0064 3046     		mov	r0, r6
 301 0066 FFF7FEFF 		bl	__aeabi_i2f
 302              	.LVL36:
 303 006a 8046     		mov	r8, r0
 304 006c DFF82091 		ldr	r9, .L24+8
 305 0070 C9F80000 		str	r0, [r9]	@ float
 164:..\../gyroscope.c ****   gyro.y = (int16_t)((yhi << 8) | ylo);
 306              		.loc 1 164 0
 307 0074 45EA0725 		orr	r5, r5, r7, lsl #8
 308              	.LVL37:
 309 0078 2DB2     		sxth	r5, r5
 310 007a 2846     		mov	r0, r5
 311 007c FFF7FEFF 		bl	__aeabi_i2f
 312              	.LVL38:
 313 0080 0746     		mov	r7, r0
 314              	.LVL39:
 315 0082 C9F80400 		str	r0, [r9, #4]	@ float
 165:..\../gyroscope.c ****   gyro.z = (int16_t)((zhi << 8) | zlo);
 316              		.loc 1 165 0
 317 0086 44EA0A24 		orr	r4, r4, r10, lsl #8
 318              	.LVL40:
 319 008a 24B2     		sxth	r4, r4
 320 008c 2046     		mov	r0, r4
 321 008e FFF7FEFF 		bl	__aeabi_i2f
 322              	.LVL41:
 323 0092 8246     		mov	r10, r0
 324              	.LVL42:
 325 0094 C9F80800 		str	r0, [r9, #8]	@ float
 166:..\../gyroscope.c **** 
 167:..\../gyroscope.c ****   /* Assign raw values in case someone needs them */
 168:..\../gyroscope.c ****   gyro_raw.x = gyro.x;
 326              		.loc 1 168 0
 327 0098 3B4B     		ldr	r3, .L24
 328 009a 1E80     		strh	r6, [r3]	@ movhi
 169:..\../gyroscope.c ****   gyro_raw.y = gyro.y;
 329              		.loc 1 169 0
 330 009c 5D80     		strh	r5, [r3, #2]	@ movhi
 170:..\../gyroscope.c ****   gyro_raw.z = gyro.z;
 331              		.loc 1 170 0
 332 009e 9C80     		strh	r4, [r3, #4]	@ movhi
 171:..\../gyroscope.c **** 
 172:..\../gyroscope.c ****   #if GYROSCOPE_RAW_DEBUG
 173:..\../gyroscope.c ****         serial_print("gyro_raw.x = ");
 174:..\../gyroscope.c ****         serial_printInt(gyro_raw.x);
 175:..\../gyroscope.c ****         serial_print(" || gyro_raw.y = ");
 176:..\../gyroscope.c ****         serial_printInt(gyro_raw.y);
 177:..\../gyroscope.c ****         serial_print("|| gyro_raw.z = ");
 178:..\../gyroscope.c ****         serial_printInt(gyro_raw.z);
 179:..\../gyroscope.c ****         serial_println(" rad/s");
 180:..\../gyroscope.c **** 
 181:..\../gyroscope.c ****   #endif
ARM GAS  C:\Users\a85495\AppData\Local\Temp\ccgj3VN3.s 			page 10


 182:..\../gyroscope.c **** 
 183:..\../gyroscope.c ****   /* Compensate values depending on the resolution */
 184:..\../gyroscope.c ****   switch(_range)
 333              		.loc 1 184 0
 334 00a0 3A4B     		ldr	r3, .L24+4
 335 00a2 1B88     		ldrh	r3, [r3]
 336 00a4 B3F5FA7F 		cmp	r3, #500
 337 00a8 1ED0     		beq	.L18
 338 00aa 02D8     		bhi	.L19
 339 00ac FA2B     		cmp	r3, #250
 340 00ae 07D0     		beq	.L20
 341 00b0 55E0     		b	.L17
 342              	.L19:
 343 00b2 B3F57A7F 		cmp	r3, #1000
 344 00b6 2BD0     		beq	.L21
 345 00b8 B3F5FA6F 		cmp	r3, #2000
 346 00bc 3CD0     		beq	.L22
 347 00be 4EE0     		b	.L17
 348              	.L20:
 185:..\../gyroscope.c ****   {
 186:..\../gyroscope.c ****     case GYRO_RANGE_250DPS:
 187:..\../gyroscope.c ****       gyro.x *= GYRO_SENSITIVITY_250DPS;
 349              		.loc 1 187 0
 350 00c0 334C     		ldr	r4, .L24+8
 351 00c2 4FF07051 		mov	r1, #1006632960
 352 00c6 4046     		mov	r0, r8
 353 00c8 FFF7FEFF 		bl	__aeabi_fmul
 354              	.LVL43:
 355 00cc 2060     		str	r0, [r4]	@ float
 188:..\../gyroscope.c ****       gyro.y *= GYRO_SENSITIVITY_250DPS;
 356              		.loc 1 188 0
 357 00ce 4FF07051 		mov	r1, #1006632960
 358 00d2 3846     		mov	r0, r7
 359 00d4 FFF7FEFF 		bl	__aeabi_fmul
 360              	.LVL44:
 361 00d8 6060     		str	r0, [r4, #4]	@ float
 189:..\../gyroscope.c ****       gyro.z *= GYRO_SENSITIVITY_250DPS;
 362              		.loc 1 189 0
 363 00da 4FF07051 		mov	r1, #1006632960
 364 00de 5046     		mov	r0, r10
 365 00e0 FFF7FEFF 		bl	__aeabi_fmul
 366              	.LVL45:
 367 00e4 A060     		str	r0, [r4, #8]	@ float
 190:..\../gyroscope.c ****       break;
 368              		.loc 1 190 0
 369 00e6 3AE0     		b	.L17
 370              	.L18:
 191:..\../gyroscope.c ****     case GYRO_RANGE_500DPS:
 192:..\../gyroscope.c ****       gyro.x *= GYRO_SENSITIVITY_500DPS;
 371              		.loc 1 192 0
 372 00e8 294C     		ldr	r4, .L24+8
 373 00ea 4FF07251 		mov	r1, #1015021568
 374 00ee 4046     		mov	r0, r8
 375 00f0 FFF7FEFF 		bl	__aeabi_fmul
 376              	.LVL46:
 377 00f4 2060     		str	r0, [r4]	@ float
 193:..\../gyroscope.c ****       gyro.y *= GYRO_SENSITIVITY_500DPS;
ARM GAS  C:\Users\a85495\AppData\Local\Temp\ccgj3VN3.s 			page 11


 378              		.loc 1 193 0
 379 00f6 4FF07251 		mov	r1, #1015021568
 380 00fa 3846     		mov	r0, r7
 381 00fc FFF7FEFF 		bl	__aeabi_fmul
 382              	.LVL47:
 383 0100 6060     		str	r0, [r4, #4]	@ float
 194:..\../gyroscope.c ****       gyro.z *= GYRO_SENSITIVITY_500DPS;
 384              		.loc 1 194 0
 385 0102 4FF07251 		mov	r1, #1015021568
 386 0106 5046     		mov	r0, r10
 387 0108 FFF7FEFF 		bl	__aeabi_fmul
 388              	.LVL48:
 389 010c A060     		str	r0, [r4, #8]	@ float
 195:..\../gyroscope.c ****       break;
 390              		.loc 1 195 0
 391 010e 26E0     		b	.L17
 392              	.L21:
 196:..\../gyroscope.c ****     case GYRO_RANGE_1000DPS:
 197:..\../gyroscope.c ****       gyro.x *= GYRO_SENSITIVITY_1000DPS;
 393              		.loc 1 197 0
 394 0110 1F4C     		ldr	r4, .L24+8
 395 0112 4FF07451 		mov	r1, #1023410176
 396 0116 4046     		mov	r0, r8
 397 0118 FFF7FEFF 		bl	__aeabi_fmul
 398              	.LVL49:
 399 011c 2060     		str	r0, [r4]	@ float
 198:..\../gyroscope.c ****       gyro.y *= GYRO_SENSITIVITY_1000DPS;
 400              		.loc 1 198 0
 401 011e 4FF07451 		mov	r1, #1023410176
 402 0122 3846     		mov	r0, r7
 403 0124 FFF7FEFF 		bl	__aeabi_fmul
 404              	.LVL50:
 405 0128 6060     		str	r0, [r4, #4]	@ float
 199:..\../gyroscope.c ****       gyro.z *= GYRO_SENSITIVITY_1000DPS;
 406              		.loc 1 199 0
 407 012a 4FF07451 		mov	r1, #1023410176
 408 012e 5046     		mov	r0, r10
 409 0130 FFF7FEFF 		bl	__aeabi_fmul
 410              	.LVL51:
 411 0134 A060     		str	r0, [r4, #8]	@ float
 200:..\../gyroscope.c ****       break;
 412              		.loc 1 200 0
 413 0136 12E0     		b	.L17
 414              	.L22:
 201:..\../gyroscope.c ****     case GYRO_RANGE_2000DPS:
 202:..\../gyroscope.c ****       gyro.x *= GYRO_SENSITIVITY_2000DPS;
 415              		.loc 1 202 0
 416 0138 154C     		ldr	r4, .L24+8
 417 013a 4FF07651 		mov	r1, #1031798784
 418 013e 4046     		mov	r0, r8
 419 0140 FFF7FEFF 		bl	__aeabi_fmul
 420              	.LVL52:
 421 0144 2060     		str	r0, [r4]	@ float
 203:..\../gyroscope.c ****       gyro.y *= GYRO_SENSITIVITY_2000DPS;
 422              		.loc 1 203 0
 423 0146 4FF07651 		mov	r1, #1031798784
 424 014a 3846     		mov	r0, r7
ARM GAS  C:\Users\a85495\AppData\Local\Temp\ccgj3VN3.s 			page 12


 425 014c FFF7FEFF 		bl	__aeabi_fmul
 426              	.LVL53:
 427 0150 6060     		str	r0, [r4, #4]	@ float
 204:..\../gyroscope.c ****       gyro.z *= GYRO_SENSITIVITY_2000DPS;
 428              		.loc 1 204 0
 429 0152 4FF07651 		mov	r1, #1031798784
 430 0156 5046     		mov	r0, r10
 431 0158 FFF7FEFF 		bl	__aeabi_fmul
 432              	.LVL54:
 433 015c A060     		str	r0, [r4, #8]	@ float
 434              	.L17:
 205:..\../gyroscope.c ****       break;
 206:..\../gyroscope.c ****   }
 207:..\../gyroscope.c **** 
 208:..\../gyroscope.c ****   /* Convert values to rad/s */
 209:..\../gyroscope.c ****   gyro.x *= SENSORS_DPS_TO_RADS;
 435              		.loc 1 209 0
 436 015e 0C4C     		ldr	r4, .L24+8
 437 0160 0C49     		ldr	r1, .L24+12
 438 0162 2068     		ldr	r0, [r4]	@ float
 439 0164 FFF7FEFF 		bl	__aeabi_fmul
 440              	.LVL55:
 441 0168 2060     		str	r0, [r4]	@ float
 210:..\../gyroscope.c ****   gyro.y *= SENSORS_DPS_TO_RADS;
 442              		.loc 1 210 0
 443 016a 0A49     		ldr	r1, .L24+12
 444 016c 6068     		ldr	r0, [r4, #4]	@ float
 445 016e FFF7FEFF 		bl	__aeabi_fmul
 446              	.LVL56:
 447 0172 6060     		str	r0, [r4, #4]	@ float
 211:..\../gyroscope.c ****   gyro.z *= SENSORS_DPS_TO_RADS;
 448              		.loc 1 211 0
 449 0174 0749     		ldr	r1, .L24+12
 450 0176 A068     		ldr	r0, [r4, #8]	@ float
 451 0178 FFF7FEFF 		bl	__aeabi_fmul
 452              	.LVL57:
 453 017c A060     		str	r0, [r4, #8]	@ float
 454              	.LVL58:
 212:..\../gyroscope.c **** 
 213:..\../gyroscope.c ****   #if GYROSCOPE_DEBUG
 214:..\../gyroscope.c ****         serial_print("gyro.x = ");
 215:..\../gyroscope.c ****         serial_printFloat(gyro.x);
 216:..\../gyroscope.c ****         serial_print(" || gyro.y = ");
 217:..\../gyroscope.c ****         serial_printFloat(gyro.y);
 218:..\../gyroscope.c ****         serial_print("  || gyro.z = ");
 219:..\../gyroscope.c ****         serial_printFloatln(gyro.z);
 220:..\../gyroscope.c ****   #endif
 221:..\../gyroscope.c ****   readingValid = true;
 222:..\../gyroscope.c ****   return readingValid;
 223:..\../gyroscope.c **** }
 455              		.loc 1 223 0
 456 017e 0120     		movs	r0, #1
 457 0180 04B0     		add	sp, sp, #16
 458              		.cfi_def_cfa_offset 32
 459              		@ sp needed
 460 0182 BDE8F087 		pop	{r4, r5, r6, r7, r8, r9, r10, pc}
 461              	.L25:
ARM GAS  C:\Users\a85495\AppData\Local\Temp\ccgj3VN3.s 			page 13


 462 0186 00BF     		.align	2
 463              	.L24:
 464 0188 00000000 		.word	gyro_raw
 465 018c 00000000 		.word	.LANCHOR0
 466 0190 00000000 		.word	gyro
 467 0194 35FA8E3C 		.word	1016003125
 468              		.cfi_endproc
 469              	.LFE66:
 470              		.size	gyro_update, .-gyro_update
 471              		.section	.text.gyro_readData,"ax",%progbits
 472              		.align	2
 473              		.global	gyro_readData
 474              		.thumb
 475              		.thumb_func
 476              		.type	gyro_readData, %function
 477              	gyro_readData:
 478              	.LFB67:
 224:..\../gyroscope.c **** 
 225:..\../gyroscope.c **** void gyro_readData(gyroData_t *gyroscope)
 226:..\../gyroscope.c **** {
 479              		.loc 1 226 0
 480              		.cfi_startproc
 481              		@ args = 0, pretend = 0, frame = 0
 482              		@ frame_needed = 0, uses_anonymous_args = 0
 483              	.LVL59:
 484 0000 10B5     		push	{r4, lr}
 485              		.cfi_def_cfa_offset 8
 486              		.cfi_offset 4, -8
 487              		.cfi_offset 14, -4
 488 0002 0446     		mov	r4, r0
 227:..\../gyroscope.c ****     //gets the gyroscope data
 228:..\../gyroscope.c ****     gyro_update();
 489              		.loc 1 228 0
 490 0004 FFF7FEFF 		bl	gyro_update
 491              	.LVL60:
 229:..\../gyroscope.c ****     gyroscope->x = gyro.x;
 492              		.loc 1 229 0
 493 0008 034B     		ldr	r3, .L28
 494 000a 1A68     		ldr	r2, [r3]	@ float
 495 000c 2260     		str	r2, [r4]	@ float
 230:..\../gyroscope.c ****     gyroscope->y = gyro.y;
 496              		.loc 1 230 0
 497 000e 5A68     		ldr	r2, [r3, #4]	@ float
 498 0010 6260     		str	r2, [r4, #4]	@ float
 231:..\../gyroscope.c ****     gyroscope->z = gyro.z;
 499              		.loc 1 231 0
 500 0012 9B68     		ldr	r3, [r3, #8]	@ float
 501 0014 A360     		str	r3, [r4, #8]	@ float
 502 0016 10BD     		pop	{r4, pc}
 503              	.LVL61:
 504              	.L29:
 505              		.align	2
 506              	.L28:
 507 0018 00000000 		.word	gyro
 508              		.cfi_endproc
 509              	.LFE67:
 510              		.size	gyro_readData, .-gyro_readData
ARM GAS  C:\Users\a85495\AppData\Local\Temp\ccgj3VN3.s 			page 14


 511              		.section	.text.gyro_initialize,"ax",%progbits
 512              		.align	2
 513              		.global	gyro_initialize
 514              		.thumb
 515              		.thumb_func
 516              		.type	gyro_initialize, %function
 517              	gyro_initialize:
 518              	.LFB68:
 232:..\../gyroscope.c **** 
 233:..\../gyroscope.c **** }
 234:..\../gyroscope.c **** 
 235:..\../gyroscope.c **** uint8_t gyro_initialize(gyroRange_t rng){
 519              		.loc 1 235 0
 520              		.cfi_startproc
 521              		@ args = 0, pretend = 0, frame = 0
 522              		@ frame_needed = 0, uses_anonymous_args = 0
 523              	.LVL62:
 524 0000 08B5     		push	{r3, lr}
 525              		.cfi_def_cfa_offset 8
 526              		.cfi_offset 3, -8
 527              		.cfi_offset 14, -4
 528              	.LVL63:
 236:..\../gyroscope.c ****     uint8_t ret = 1;
 237:..\../gyroscope.c ****     ret = gyro_begin(rng);
 529              		.loc 1 237 0
 530 0002 FFF7FEFF 		bl	gyro_begin
 531              	.LVL64:
 238:..\../gyroscope.c ****     return ret;
 239:..\../gyroscope.c **** }
 532              		.loc 1 239 0
 533 0006 08BD     		pop	{r3, pc}
 534              		.cfi_endproc
 535              	.LFE68:
 536              		.size	gyro_initialize, .-gyro_initialize
 537              		.section	.text.gyro_getX,"ax",%progbits
 538              		.align	2
 539              		.global	gyro_getX
 540              		.thumb
 541              		.thumb_func
 542              		.type	gyro_getX, %function
 543              	gyro_getX:
 544              	.LFB69:
 240:..\../gyroscope.c **** 
 241:..\../gyroscope.c **** /*  These functions are provided to allow the user to extract
 242:..\../gyroscope.c ****  *  single pieces of data from the sensor readings safely
 243:..\../gyroscope.c ****  *  instead of just calling the sensor variables directly
 244:..\../gyroscope.c **** */
 245:..\../gyroscope.c **** float gyro_getX(void){
 545              		.loc 1 245 0
 546              		.cfi_startproc
 547              		@ args = 0, pretend = 0, frame = 0
 548              		@ frame_needed = 0, uses_anonymous_args = 0
 549              		@ link register save eliminated.
 246:..\../gyroscope.c ****   return (gyro.x);
 247:..\../gyroscope.c **** }
 550              		.loc 1 247 0
 551 0000 014B     		ldr	r3, .L33
ARM GAS  C:\Users\a85495\AppData\Local\Temp\ccgj3VN3.s 			page 15


 552 0002 1868     		ldr	r0, [r3]	@ float
 553 0004 7047     		bx	lr
 554              	.L34:
 555 0006 00BF     		.align	2
 556              	.L33:
 557 0008 00000000 		.word	gyro
 558              		.cfi_endproc
 559              	.LFE69:
 560              		.size	gyro_getX, .-gyro_getX
 561              		.section	.text.gyro_getY,"ax",%progbits
 562              		.align	2
 563              		.global	gyro_getY
 564              		.thumb
 565              		.thumb_func
 566              		.type	gyro_getY, %function
 567              	gyro_getY:
 568              	.LFB70:
 248:..\../gyroscope.c **** 
 249:..\../gyroscope.c **** float gyro_getY(void){
 569              		.loc 1 249 0
 570              		.cfi_startproc
 571              		@ args = 0, pretend = 0, frame = 0
 572              		@ frame_needed = 0, uses_anonymous_args = 0
 573              		@ link register save eliminated.
 250:..\../gyroscope.c ****   return (gyro.y);
 251:..\../gyroscope.c **** }
 574              		.loc 1 251 0
 575 0000 014B     		ldr	r3, .L36
 576 0002 5868     		ldr	r0, [r3, #4]	@ float
 577 0004 7047     		bx	lr
 578              	.L37:
 579 0006 00BF     		.align	2
 580              	.L36:
 581 0008 00000000 		.word	gyro
 582              		.cfi_endproc
 583              	.LFE70:
 584              		.size	gyro_getY, .-gyro_getY
 585              		.section	.text.gyro_getZ,"ax",%progbits
 586              		.align	2
 587              		.global	gyro_getZ
 588              		.thumb
 589              		.thumb_func
 590              		.type	gyro_getZ, %function
 591              	gyro_getZ:
 592              	.LFB71:
 252:..\../gyroscope.c **** 
 253:..\../gyroscope.c **** float gyro_getZ(void){
 593              		.loc 1 253 0
 594              		.cfi_startproc
 595              		@ args = 0, pretend = 0, frame = 0
 596              		@ frame_needed = 0, uses_anonymous_args = 0
 597              		@ link register save eliminated.
 254:..\../gyroscope.c ****   return (gyro.z);
 255:..\../gyroscope.c **** }...
 598              		.loc 1 255 0
 599 0000 014B     		ldr	r3, .L39
 600 0002 9868     		ldr	r0, [r3, #8]	@ float
ARM GAS  C:\Users\a85495\AppData\Local\Temp\ccgj3VN3.s 			page 16


 601 0004 7047     		bx	lr
 602              	.L40:
 603 0006 00BF     		.align	2
 604              	.L39:
 605 0008 00000000 		.word	gyro
 606              		.cfi_endproc
 607              	.LFE71:
 608              		.size	gyro_getZ, .-gyro_getZ
 609              		.section	.rodata.str1.4,"aMS",%progbits,1
 610              		.align	2
 611              	.LC0:
 612 0000 496E636F 		.ascii	"Incorrect ID, check wiring or code\000"
 612      72726563 
 612      74204944 
 612      2C206368 
 612      65636B20 
 613 0023 00       		.space	1
 614              	.LC1:
 615 0024 436F7272 		.ascii	"Correct ID\000"
 615      65637420 
 615      494400
 616              		.bss
 617              		.align	1
 618              		.set	.LANCHOR0,. + 0
 619              		.type	_range, %object
 620              		.size	_range, 2
 621              	_range:
 622 0000 0000     		.space	2
 623              		.text
 624              	.Letext0:
 625              		.file 2 "c:\\program files (x86)\\cypress\\psoc creator\\4.1\\psoc creator\\import\\gnu\\arm\\5.4.
 626              		.file 3 "c:\\program files (x86)\\cypress\\psoc creator\\4.1\\psoc creator\\import\\gnu\\arm\\5.4.
 627              		.file 4 "..\\..\\gyroscope.h"
 628              		.file 5 "Generated_Source\\PSoC5/cytypes.h"
 629              		.file 6 "Generated_Source\\PSoC5/core_cm3.h"
 630              		.file 7 "..\\..\\SensorVal.h"
 631              		.file 8 "Generated_Source\\PSoC5/I2C.h"
 632              		.file 9 "..\\..\\twi.h"
 633              		.file 10 "..\\../debSerial.h"
 634              		.file 11 "Generated_Source\\PSoC5/CyLib.h"