ARM GAS  C:\Users\A85590\AppData\Local\Temp\ccViUPnS.s 			page 1


   1              		.syntax unified
   2              		.cpu cortex-m3
   3              		.fpu softvfp
   4              		.eabi_attribute 20, 1
   5              		.eabi_attribute 21, 1
   6              		.eabi_attribute 23, 3
   7              		.eabi_attribute 24, 1
   8              		.eabi_attribute 25, 1
   9              		.eabi_attribute 26, 1
  10              		.eabi_attribute 30, 1
  11              		.eabi_attribute 34, 1
  12              		.eabi_attribute 18, 4
  13              		.thumb
  14              		.syntax unified
  15              		.file	"main.c"
  16              		.text
  17              	.Ltext0:
  18              		.cfi_sections	.debug_frame
  19              		.section	.text.quad_sensor_init,"ax",%progbits
  20              		.align	2
  21              		.global	quad_sensor_init
  22              		.thumb
  23              		.thumb_func
  24              		.type	quad_sensor_init, %function
  25              	quad_sensor_init:
  26              	.LFB66:
  27              		.file 1 "main.c"
   1:main.c        **** /* ========================================
   2:main.c        ****  *
   3:main.c        ****  * Copyright ARROW ELECTRONICS, 2017
   4:main.c        ****  * All Rights Reserved
   5:main.c        ****  * UNPUBLISHED, LICENSED SOFTWARE.
   6:main.c        ****  *
   7:main.c        ****  * CONFIDENTIAL AND PROPRIETARY INFORMATION
   8:main.c        ****  * WHICH IS THE PROPERTY OF your company.
   9:main.c        ****  *
  10:main.c        ****  * ========================================
  11:main.c        **** */
  12:main.c        **** #include "project.h"     //includes the project.h which allows us to use the generated API's
  13:main.c        **** #include "accel_mag.h"   //includes the accel_mag.h file which allows us to simply connect to the N
  14:main.c        **** #include "gyroscope.h"   //includes the gyroscope.h file which allows us to simply connect to the N
  15:main.c        **** #include "barometer.h"   //includes the barometer.h file which allows us to simply connect to the G
  16:main.c        **** #include "gps.h"
  17:main.c        **** #include "debSerial.h"//includes the debuf_Serial.h file which allows us to use similar serial prin
  18:main.c        **** #include "millis.h"
  19:main.c        **** 
  20:main.c        **** //Includes the standard libraries to use certain functions inside it
  21:main.c        **** #include <stdlib.h>
  22:main.c        **** #include <stdio.h>
  23:main.c        **** #include <stdint.h>
  24:main.c        **** #include <math.h>
  25:main.c        **** 
  26:main.c        **** //=============================================================//
  27:main.c        **** //======Initialization and Update Functions Prototype==========//
  28:main.c        **** //=============================================================//
  29:main.c        **** 
  30:main.c        **** void quad_init(void);        //initializes all quadcopter 
ARM GAS  C:\Users\A85590\AppData\Local\Temp\ccViUPnS.s 			page 2


  31:main.c        **** void quad_sensor_init(void); //initializes all of the quadcopter sensors //called in function quad_
  32:main.c        **** void sensors_update(void);   //Updates all of the sensor data (values can be extracted when needed)
  33:main.c        **** 
  34:main.c        **** //=============================================================//
  35:main.c        **** //======================Main Function==========================//
  36:main.c        **** //=============================================================//
  37:main.c        **** 
  38:main.c        **** int main(void)
  39:main.c        **** {
  40:main.c        ****     quad_init();
  41:main.c        ****     serial_println("Quadcopter Sensors Initialized");
  42:main.c        ****     
  43:main.c        ****     for(;;)
  44:main.c        ****     {
  45:main.c        ****         sensors_update();
  46:main.c        ****         CyDelay(100);
  47:main.c        ****     }
  48:main.c        ****     return 0;
  49:main.c        **** }
  50:main.c        **** 
  51:main.c        **** void quad_init(void){
  52:main.c        ****     CyGlobalIntEnable; /* Enable global interrupts. */
  53:main.c        ****     I2C_Start();       //initializes the I2C block
  54:main.c        ****     serial_begin();    //initializes the debug Serial block
  55:main.c        ****     gpsSerial_Start(); //initializes the gps Serial block
  56:main.c        ****     xbeeSerial_Start();//initializes the xbee Serial block
  57:main.c        ****     
  58:main.c        ****     millis_init();
  59:main.c        ****     quad_sensor_init();//initializes all of the quadcopter sensors
  60:main.c        ****     
  61:main.c        **** }
  62:main.c        **** 
  63:main.c        **** void quad_sensor_init(void){
  28              		.loc 1 63 0
  29              		.cfi_startproc
  30              		@ args = 0, pretend = 0, frame = 0
  31              		@ frame_needed = 0, uses_anonymous_args = 0
  32 0000 08B5     		push	{r3, lr}
  33              		.cfi_def_cfa_offset 8
  34              		.cfi_offset 3, -8
  35              		.cfi_offset 14, -4
  64:main.c        ****     accel_mag_initialize(ACCEL_RANGE_2G); //initializes the accelerometer with a range (sensitivity
  36              		.loc 1 64 0
  37 0002 0020     		movs	r0, #0
  38 0004 FFF7FEFF 		bl	accel_mag_initialize
  39              	.LVL0:
  65:main.c        ****     gyro_initialize(GYRO_RANGE_250DPS);   //initializes the gyroscope with a range (sensitivity) of
  40              		.loc 1 65 0
  41 0008 FA20     		movs	r0, #250
  42 000a FFF7FEFF 		bl	gyro_initialize
  43              	.LVL1:
  66:main.c        ****     baro_begin();                         //initializes the barometer
  44              		.loc 1 66 0
  45 000e FFF7FEFF 		bl	baro_begin
  46              	.LVL2:
  67:main.c        ****     GPS_start();
  47              		.loc 1 67 0
ARM GAS  C:\Users\A85590\AppData\Local\Temp\ccViUPnS.s 			page 3


  48 0012 FFF7FEFF 		bl	GPS_start
  49              	.LVL3:
  50 0016 08BD     		pop	{r3, pc}
  51              		.cfi_endproc
  52              	.LFE66:
  53              		.size	quad_sensor_init, .-quad_sensor_init
  54              		.section	.text.quad_init,"ax",%progbits
  55              		.align	2
  56              		.global	quad_init
  57              		.thumb
  58              		.thumb_func
  59              		.type	quad_init, %function
  60              	quad_init:
  61              	.LFB65:
  51:main.c        ****     CyGlobalIntEnable; /* Enable global interrupts. */
  62              		.loc 1 51 0
  63              		.cfi_startproc
  64              		@ args = 0, pretend = 0, frame = 0
  65              		@ frame_needed = 0, uses_anonymous_args = 0
  66 0000 08B5     		push	{r3, lr}
  67              		.cfi_def_cfa_offset 8
  68              		.cfi_offset 3, -8
  69              		.cfi_offset 14, -4
  52:main.c        ****     I2C_Start();       //initializes the I2C block
  70              		.loc 1 52 0
  71              		.syntax unified
  72              	@ 52 "main.c" 1
  73 0002 62B6     		CPSIE   i
  74              	@ 0 "" 2
  53:main.c        ****     serial_begin();    //initializes the debug Serial block
  75              		.loc 1 53 0
  76              		.thumb
  77              		.syntax unified
  78 0004 FFF7FEFF 		bl	I2C_Start
  79              	.LVL4:
  54:main.c        ****     gpsSerial_Start(); //initializes the gps Serial block
  80              		.loc 1 54 0
  81 0008 FFF7FEFF 		bl	serial_begin
  82              	.LVL5:
  55:main.c        ****     xbeeSerial_Start();//initializes the xbee Serial block
  83              		.loc 1 55 0
  84 000c FFF7FEFF 		bl	gpsSerial_Start
  85              	.LVL6:
  56:main.c        ****     
  86              		.loc 1 56 0
  87 0010 FFF7FEFF 		bl	xbeeSerial_Start
  88              	.LVL7:
  58:main.c        ****     quad_sensor_init();//initializes all of the quadcopter sensors
  89              		.loc 1 58 0
  90 0014 FFF7FEFF 		bl	millis_init
  91              	.LVL8:
  59:main.c        ****     
  92              		.loc 1 59 0
  93 0018 FFF7FEFF 		bl	quad_sensor_init
  94              	.LVL9:
  95 001c 08BD     		pop	{r3, pc}
  96              		.cfi_endproc
ARM GAS  C:\Users\A85590\AppData\Local\Temp\ccViUPnS.s 			page 4


  97              	.LFE65:
  98              		.size	quad_init, .-quad_init
  99 001e 00BF     		.section	.text.sensors_update,"ax",%progbits
 100              		.align	2
 101              		.global	sensors_update
 102              		.thumb
 103              		.thumb_func
 104              		.type	sensors_update, %function
 105              	sensors_update:
 106              	.LFB67:
  68:main.c        **** }
  69:main.c        **** 
  70:main.c        **** void sensors_update(void){
 107              		.loc 1 70 0
 108              		.cfi_startproc
 109              		@ args = 0, pretend = 0, frame = 0
 110              		@ frame_needed = 0, uses_anonymous_args = 0
 111 0000 08B5     		push	{r3, lr}
 112              		.cfi_def_cfa_offset 8
 113              		.cfi_offset 3, -8
 114              		.cfi_offset 14, -4
  71:main.c        ****     accel_mag_update(); //Update the accelerometer and magnotometer data
 115              		.loc 1 71 0
 116 0002 FFF7FEFF 		bl	accel_mag_update
 117              	.LVL10:
  72:main.c        ****     gyro_update();      //Update the gyroscope data
 118              		.loc 1 72 0
 119 0006 FFF7FEFF 		bl	gyro_update
 120              	.LVL11:
  73:main.c        ****     baro_update();      //Update the barometer data
 121              		.loc 1 73 0
 122 000a FFF7FEFF 		bl	baro_update
 123              	.LVL12:
  74:main.c        ****     GPS_update();       //Update the GPS data
 124              		.loc 1 74 0
 125 000e FFF7FEFF 		bl	GPS_update
 126              	.LVL13:
 127 0012 08BD     		pop	{r3, pc}
 128              		.cfi_endproc
 129              	.LFE67:
 130              		.size	sensors_update, .-sensors_update
 131              		.section	.text.main,"ax",%progbits
 132              		.align	2
 133              		.global	main
 134              		.thumb
 135              		.thumb_func
 136              		.type	main, %function
 137              	main:
 138              	.LFB64:
  39:main.c        ****     quad_init();
 139              		.loc 1 39 0
 140              		.cfi_startproc
 141              		@ Volatile: function does not return.
 142              		@ args = 0, pretend = 0, frame = 0
 143              		@ frame_needed = 0, uses_anonymous_args = 0
 144 0000 08B5     		push	{r3, lr}
 145              		.cfi_def_cfa_offset 8
ARM GAS  C:\Users\A85590\AppData\Local\Temp\ccViUPnS.s 			page 5


 146              		.cfi_offset 3, -8
 147              		.cfi_offset 14, -4
  40:main.c        ****     serial_println("Quadcopter Sensors Initialized");
 148              		.loc 1 40 0
 149 0002 FFF7FEFF 		bl	quad_init
 150              	.LVL14:
  41:main.c        ****     
 151              		.loc 1 41 0
 152 0006 0448     		ldr	r0, .L10
 153 0008 FFF7FEFF 		bl	serial_println
 154              	.LVL15:
 155              	.L8:
  45:main.c        ****         CyDelay(100);
 156              		.loc 1 45 0 discriminator 1
 157 000c FFF7FEFF 		bl	sensors_update
 158              	.LVL16:
  46:main.c        ****     }
 159              		.loc 1 46 0 discriminator 1
 160 0010 6420     		movs	r0, #100
 161 0012 FFF7FEFF 		bl	CyDelay
 162              	.LVL17:
 163 0016 F9E7     		b	.L8
 164              	.L11:
 165              		.align	2
 166              	.L10:
 167 0018 00000000 		.word	.LC0
 168              		.cfi_endproc
 169              	.LFE64:
 170              		.size	main, .-main
 171              		.section	.rodata.str1.4,"aMS",%progbits,1
 172              		.align	2
 173              	.LC0:
 174 0000 51756164 		.ascii	"Quadcopter Sensors Initialized\000"
 174      636F7074 
 174      65722053 
 174      656E736F 
 174      72732049 
 175              		.text
 176              	.Letext0:
 177              		.file 2 "c:\\program files (x86)\\cypress\\psoc creator\\4.1\\psoc creator\\import\\gnu\\arm\\5.4.
 178              		.file 3 "c:\\program files (x86)\\cypress\\psoc creator\\4.1\\psoc creator\\import\\gnu\\arm\\5.4.
 179              		.file 4 "..\\../accel_mag.h"
 180              		.file 5 "..\\../gyroscope.h"
 181              		.file 6 "..\\../barometer.h"
 182              		.file 7 "..\\../gps.h"
 183              		.file 8 "Generated_Source\\PSoC5/I2C.h"
 184              		.file 9 "..\\../debSerial.h"
 185              		.file 10 "Generated_Source\\PSoC5/gpsSerial.h"
 186              		.file 11 "Generated_Source\\PSoC5/xbeeSerial.h"
 187              		.file 12 "..\\../millis.h"
 188              		.file 13 "Generated_Source\\PSoC5/CyLib.h"
 189              		.file 14 "Generated_Source\\PSoC5/core_cm3.h"