ARM GAS  C:\Users\a85495\AppData\Local\Temp\ccsgo5Om.s 			page 1


   1              		.syntax unified
   2              		.cpu cortex-m3
   3              		.fpu softvfp
   4              		.eabi_attribute 20, 1
   5              		.eabi_attribute 21, 1
   6              		.eabi_attribute 23, 3
   7              		.eabi_attribute 24, 1
   8              		.eabi_attribute 25, 1
   9              		.eabi_attribute 26, 1
  10              		.eabi_attribute 30, 1
  11              		.eabi_attribute 34, 1
  12              		.eabi_attribute 18, 4
  13              		.thumb
  14              		.file	"debug_Serial.c"
  15              		.text
  16              	.Ltext0:
  17              		.cfi_sections	.debug_frame
  18              		.section	.text.serial_begin,"ax",%progbits
  19              		.align	2
  20              		.global	serial_begin
  21              		.thumb
  22              		.thumb_func
  23              		.type	serial_begin, %function
  24              	serial_begin:
  25              	.LFB63:
  26              		.file 1 "..\\..\\debug_Serial.c"
   1:..\../debug_Serial.c **** /*
   2:..\../debug_Serial.c **** 
   3:..\../debug_Serial.c **** */
   4:..\../debug_Serial.c **** #include "project.h"
   5:..\../debug_Serial.c **** #include <stdint.h>
   6:..\../debug_Serial.c **** #include <stdlib.h>
   7:..\../debug_Serial.c **** #include <stdio.h>
   8:..\../debug_Serial.c **** #include <debug_Serial.h>
   9:..\../debug_Serial.c **** #include <math.h>
  10:..\../debug_Serial.c **** 
  11:..\../debug_Serial.c **** char str[100];
  12:..\../debug_Serial.c **** 
  13:..\../debug_Serial.c **** void serial_begin(){
  27              		.loc 1 13 0
  28              		.cfi_startproc
  29              		@ args = 0, pretend = 0, frame = 0
  30              		@ frame_needed = 0, uses_anonymous_args = 0
  31 0000 08B5     		push	{r3, lr}
  32              		.cfi_def_cfa_offset 8
  33              		.cfi_offset 3, -8
  34              		.cfi_offset 14, -4
  14:..\../debug_Serial.c ****     debugSerial_Start();    //initialize the UART
  35              		.loc 1 14 0
  36 0002 FFF7FEFF 		bl	debugSerial_Start
  37              	.LVL0:
  38 0006 08BD     		pop	{r3, pc}
  39              		.cfi_endproc
  40              	.LFE63:
  41              		.size	serial_begin, .-serial_begin
  42              		.section	.text.serial_print,"ax",%progbits
  43              		.align	2
ARM GAS  C:\Users\a85495\AppData\Local\Temp\ccsgo5Om.s 			page 2


  44              		.global	serial_print
  45              		.thumb
  46              		.thumb_func
  47              		.type	serial_print, %function
  48              	serial_print:
  49              	.LFB64:
  15:..\../debug_Serial.c ****     /*
  16:..\../debug_Serial.c ****     Description for PSoC datasheet:
  17:..\../debug_Serial.c ****         This is the preferred method to begin component operation.
  18:..\../debug_Serial.c ****         UART_Start() sets the initVar variable, calls the UART_Init()
  19:..\../debug_Serial.c ****         function, and then calls the UART_Enable() function.
  20:..\../debug_Serial.c ****     */
  21:..\../debug_Serial.c **** }
  22:..\../debug_Serial.c **** 
  23:..\../debug_Serial.c **** void serial_print(char *string)
  24:..\../debug_Serial.c **** {
  50              		.loc 1 24 0
  51              		.cfi_startproc
  52              		@ args = 0, pretend = 0, frame = 0
  53              		@ frame_needed = 0, uses_anonymous_args = 0
  54              	.LVL1:
  55 0000 08B5     		push	{r3, lr}
  56              		.cfi_def_cfa_offset 8
  57              		.cfi_offset 3, -8
  58              		.cfi_offset 14, -4
  25:..\../debug_Serial.c ****     debugSerial_PutString(string);
  59              		.loc 1 25 0
  60 0002 FFF7FEFF 		bl	debugSerial_PutString
  61              	.LVL2:
  62 0006 08BD     		pop	{r3, pc}
  63              		.cfi_endproc
  64              	.LFE64:
  65              		.size	serial_print, .-serial_print
  66              		.section	.text.serial_println,"ax",%progbits
  67              		.align	2
  68              		.global	serial_println
  69              		.thumb
  70              		.thumb_func
  71              		.type	serial_println, %function
  72              	serial_println:
  73              	.LFB65:
  26:..\../debug_Serial.c **** }
  27:..\../debug_Serial.c **** 
  28:..\../debug_Serial.c **** void serial_println(char *string)
  29:..\../debug_Serial.c **** {
  74              		.loc 1 29 0
  75              		.cfi_startproc
  76              		@ args = 0, pretend = 0, frame = 0
  77              		@ frame_needed = 0, uses_anonymous_args = 0
  78              	.LVL3:
  79 0000 08B5     		push	{r3, lr}
  80              		.cfi_def_cfa_offset 8
  81              		.cfi_offset 3, -8
  82              		.cfi_offset 14, -4
  30:..\../debug_Serial.c ****     debugSerial_PutString(string);
  83              		.loc 1 30 0
  84 0002 FFF7FEFF 		bl	debugSerial_PutString
ARM GAS  C:\Users\a85495\AppData\Local\Temp\ccsgo5Om.s 			page 3


  85              	.LVL4:
  31:..\../debug_Serial.c ****     debugSerial_PutCRLF(' ');
  86              		.loc 1 31 0
  87 0006 2020     		movs	r0, #32
  88 0008 FFF7FEFF 		bl	debugSerial_PutCRLF
  89              	.LVL5:
  90 000c 08BD     		pop	{r3, pc}
  91              		.cfi_endproc
  92              	.LFE65:
  93              		.size	serial_println, .-serial_println
  94 000e 00BF     		.section	.text.serial_printDouble,"ax",%progbits
  95              		.align	2
  96              		.global	serial_printDouble
  97              		.thumb
  98              		.thumb_func
  99              		.type	serial_printDouble, %function
 100              	serial_printDouble:
 101              	.LFB66:
  32:..\../debug_Serial.c **** }
  33:..\../debug_Serial.c **** 
  34:..\../debug_Serial.c **** void serial_printDouble(double num){
 102              		.loc 1 34 0
 103              		.cfi_startproc
 104              		@ args = 0, pretend = 0, frame = 24
 105              		@ frame_needed = 0, uses_anonymous_args = 0
 106              	.LVL6:
 107 0000 00B5     		push	{lr}
 108              		.cfi_def_cfa_offset 4
 109              		.cfi_offset 14, -4
 110 0002 87B0     		sub	sp, sp, #28
 111              		.cfi_def_cfa_offset 32
 112 0004 0246     		mov	r2, r0
 113 0006 0B46     		mov	r3, r1
  35:..\../debug_Serial.c ****     char str[20];
  36:..\../debug_Serial.c **** 
  37:..\../debug_Serial.c ****     sprintf(str,"%f", num); 
 114              		.loc 1 37 0
 115 0008 01A8     		add	r0, sp, #4
 116              	.LVL7:
 117 000a 0449     		ldr	r1, .L9
 118 000c FFF7FEFF 		bl	sprintf
 119              	.LVL8:
  38:..\../debug_Serial.c ****     serial_print(str);
 120              		.loc 1 38 0
 121 0010 01A8     		add	r0, sp, #4
 122 0012 FFF7FEFF 		bl	serial_print
 123              	.LVL9:
  39:..\../debug_Serial.c **** }
 124              		.loc 1 39 0
 125 0016 07B0     		add	sp, sp, #28
 126              		.cfi_def_cfa_offset 4
 127              		@ sp needed
 128 0018 5DF804FB 		ldr	pc, [sp], #4
 129              	.L10:
 130              		.align	2
 131              	.L9:
 132 001c 00000000 		.word	.LC0
ARM GAS  C:\Users\a85495\AppData\Local\Temp\ccsgo5Om.s 			page 4


 133              		.cfi_endproc
 134              	.LFE66:
 135              		.size	serial_printDouble, .-serial_printDouble
 136              		.section	.text.serial_printDoubleln,"ax",%progbits
 137              		.align	2
 138              		.global	serial_printDoubleln
 139              		.thumb
 140              		.thumb_func
 141              		.type	serial_printDoubleln, %function
 142              	serial_printDoubleln:
 143              	.LFB67:
  40:..\../debug_Serial.c **** 
  41:..\../debug_Serial.c **** void serial_printDoubleln(double num){
 144              		.loc 1 41 0
 145              		.cfi_startproc
 146              		@ args = 0, pretend = 0, frame = 24
 147              		@ frame_needed = 0, uses_anonymous_args = 0
 148              	.LVL10:
 149 0000 00B5     		push	{lr}
 150              		.cfi_def_cfa_offset 4
 151              		.cfi_offset 14, -4
 152 0002 87B0     		sub	sp, sp, #28
 153              		.cfi_def_cfa_offset 32
 154 0004 0246     		mov	r2, r0
 155 0006 0B46     		mov	r3, r1
  42:..\../debug_Serial.c ****     char str[20];
  43:..\../debug_Serial.c **** 
  44:..\../debug_Serial.c ****     sprintf(str,"%f", num); 
 156              		.loc 1 44 0
 157 0008 01A8     		add	r0, sp, #4
 158              	.LVL11:
 159 000a 0449     		ldr	r1, .L13
 160 000c FFF7FEFF 		bl	sprintf
 161              	.LVL12:
  45:..\../debug_Serial.c ****     serial_println(str);
 162              		.loc 1 45 0
 163 0010 01A8     		add	r0, sp, #4
 164 0012 FFF7FEFF 		bl	serial_println
 165              	.LVL13:
  46:..\../debug_Serial.c **** }
 166              		.loc 1 46 0
 167 0016 07B0     		add	sp, sp, #28
 168              		.cfi_def_cfa_offset 4
 169              		@ sp needed
 170 0018 5DF804FB 		ldr	pc, [sp], #4
 171              	.L14:
 172              		.align	2
 173              	.L13:
 174 001c 00000000 		.word	.LC0
 175              		.cfi_endproc
 176              	.LFE67:
 177              		.size	serial_printDoubleln, .-serial_printDoubleln
 178              		.global	__aeabi_f2d
 179              		.section	.text.serial_printFloat,"ax",%progbits
 180              		.align	2
 181              		.global	serial_printFloat
 182              		.thumb
ARM GAS  C:\Users\a85495\AppData\Local\Temp\ccsgo5Om.s 			page 5


 183              		.thumb_func
 184              		.type	serial_printFloat, %function
 185              	serial_printFloat:
 186              	.LFB68:
  47:..\../debug_Serial.c **** 
  48:..\../debug_Serial.c **** void serial_printFloat(float num){
 187              		.loc 1 48 0
 188              		.cfi_startproc
 189              		@ args = 0, pretend = 0, frame = 24
 190              		@ frame_needed = 0, uses_anonymous_args = 0
 191              	.LVL14:
 192 0000 00B5     		push	{lr}
 193              		.cfi_def_cfa_offset 4
 194              		.cfi_offset 14, -4
 195 0002 87B0     		sub	sp, sp, #28
 196              		.cfi_def_cfa_offset 32
  49:..\../debug_Serial.c ****     char str[20];
  50:..\../debug_Serial.c **** 
  51:..\../debug_Serial.c ****     sprintf(str,"%f", num); 
 197              		.loc 1 51 0
 198 0004 FFF7FEFF 		bl	__aeabi_f2d
 199              	.LVL15:
 200 0008 0246     		mov	r2, r0
 201 000a 0B46     		mov	r3, r1
 202 000c 01A8     		add	r0, sp, #4
 203 000e 0449     		ldr	r1, .L17
 204 0010 FFF7FEFF 		bl	sprintf
 205              	.LVL16:
  52:..\../debug_Serial.c ****     serial_print(str);
 206              		.loc 1 52 0
 207 0014 01A8     		add	r0, sp, #4
 208 0016 FFF7FEFF 		bl	serial_print
 209              	.LVL17:
  53:..\../debug_Serial.c **** }
 210              		.loc 1 53 0
 211 001a 07B0     		add	sp, sp, #28
 212              		.cfi_def_cfa_offset 4
 213              		@ sp needed
 214 001c 5DF804FB 		ldr	pc, [sp], #4
 215              	.L18:
 216              		.align	2
 217              	.L17:
 218 0020 00000000 		.word	.LC0
 219              		.cfi_endproc
 220              	.LFE68:
 221              		.size	serial_printFloat, .-serial_printFloat
 222              		.section	.text.serial_printFloatln,"ax",%progbits
 223              		.align	2
 224              		.global	serial_printFloatln
 225              		.thumb
 226              		.thumb_func
 227              		.type	serial_printFloatln, %function
 228              	serial_printFloatln:
 229              	.LFB69:
  54:..\../debug_Serial.c **** 
  55:..\../debug_Serial.c **** void serial_printFloatln(float num){
 230              		.loc 1 55 0
ARM GAS  C:\Users\a85495\AppData\Local\Temp\ccsgo5Om.s 			page 6


 231              		.cfi_startproc
 232              		@ args = 0, pretend = 0, frame = 24
 233              		@ frame_needed = 0, uses_anonymous_args = 0
 234              	.LVL18:
 235 0000 00B5     		push	{lr}
 236              		.cfi_def_cfa_offset 4
 237              		.cfi_offset 14, -4
 238 0002 87B0     		sub	sp, sp, #28
 239              		.cfi_def_cfa_offset 32
  56:..\../debug_Serial.c ****     char str[20];
  57:..\../debug_Serial.c **** 
  58:..\../debug_Serial.c ****     sprintf(str,"%f", num); 
 240              		.loc 1 58 0
 241 0004 FFF7FEFF 		bl	__aeabi_f2d
 242              	.LVL19:
 243 0008 0246     		mov	r2, r0
 244 000a 0B46     		mov	r3, r1
 245 000c 01A8     		add	r0, sp, #4
 246 000e 0449     		ldr	r1, .L21
 247 0010 FFF7FEFF 		bl	sprintf
 248              	.LVL20:
  59:..\../debug_Serial.c ****     serial_println(str);
 249              		.loc 1 59 0
 250 0014 01A8     		add	r0, sp, #4
 251 0016 FFF7FEFF 		bl	serial_println
 252              	.LVL21:
  60:..\../debug_Serial.c **** }
 253              		.loc 1 60 0
 254 001a 07B0     		add	sp, sp, #28
 255              		.cfi_def_cfa_offset 4
 256              		@ sp needed
 257 001c 5DF804FB 		ldr	pc, [sp], #4
 258              	.L22:
 259              		.align	2
 260              	.L21:
 261 0020 00000000 		.word	.LC0
 262              		.cfi_endproc
 263              	.LFE69:
 264              		.size	serial_printFloatln, .-serial_printFloatln
 265              		.section	.text.serial_printInt,"ax",%progbits
 266              		.align	2
 267              		.global	serial_printInt
 268              		.thumb
 269              		.thumb_func
 270              		.type	serial_printInt, %function
 271              	serial_printInt:
 272              	.LFB70:
  61:..\../debug_Serial.c **** 
  62:..\../debug_Serial.c **** void serial_printInt(int num){
 273              		.loc 1 62 0
 274              		.cfi_startproc
 275              		@ args = 0, pretend = 0, frame = 24
 276              		@ frame_needed = 0, uses_anonymous_args = 0
 277              	.LVL22:
 278 0000 00B5     		push	{lr}
 279              		.cfi_def_cfa_offset 4
 280              		.cfi_offset 14, -4
ARM GAS  C:\Users\a85495\AppData\Local\Temp\ccsgo5Om.s 			page 7


 281 0002 87B0     		sub	sp, sp, #28
 282              		.cfi_def_cfa_offset 32
  63:..\../debug_Serial.c ****     char buffer[20];
  64:..\../debug_Serial.c ****     serial_print(itoa((num),buffer,10));
 283              		.loc 1 64 0
 284 0004 01A9     		add	r1, sp, #4
 285 0006 0A22     		movs	r2, #10
 286 0008 FFF7FEFF 		bl	itoa
 287              	.LVL23:
 288 000c FFF7FEFF 		bl	serial_print
 289              	.LVL24:
  65:..\../debug_Serial.c **** }
 290              		.loc 1 65 0
 291 0010 07B0     		add	sp, sp, #28
 292              		.cfi_def_cfa_offset 4
 293              		@ sp needed
 294 0012 5DF804FB 		ldr	pc, [sp], #4
 295              		.cfi_endproc
 296              	.LFE70:
 297              		.size	serial_printInt, .-serial_printInt
 298 0016 00BF     		.section	.text.serial_printIntln,"ax",%progbits
 299              		.align	2
 300              		.global	serial_printIntln
 301              		.thumb
 302              		.thumb_func
 303              		.type	serial_printIntln, %function
 304              	serial_printIntln:
 305              	.LFB71:
  66:..\../debug_Serial.c **** 
  67:..\../debug_Serial.c **** void serial_printIntln(int num){
 306              		.loc 1 67 0
 307              		.cfi_startproc
 308              		@ args = 0, pretend = 0, frame = 24
 309              		@ frame_needed = 0, uses_anonymous_args = 0
 310              	.LVL25:
 311 0000 00B5     		push	{lr}
 312              		.cfi_def_cfa_offset 4
 313              		.cfi_offset 14, -4
 314 0002 87B0     		sub	sp, sp, #28
 315              		.cfi_def_cfa_offset 32
  68:..\../debug_Serial.c ****     char buffer[20];
  69:..\../debug_Serial.c ****     //The 10 means that the number will be represented in the decimal base
  70:..\../debug_Serial.c ****     //if we wanted it in binary we would've just specified it as 2
  71:..\../debug_Serial.c ****     //16 for hex and 8 for octal
  72:..\../debug_Serial.c ****     serial_println(itoa((num),buffer,10));
 316              		.loc 1 72 0
 317 0004 01A9     		add	r1, sp, #4
 318 0006 0A22     		movs	r2, #10
 319 0008 FFF7FEFF 		bl	itoa
 320              	.LVL26:
 321 000c FFF7FEFF 		bl	serial_println
 322              	.LVL27:
  73:..\../debug_Serial.c **** }
 323              		.loc 1 73 0
 324 0010 07B0     		add	sp, sp, #28
 325              		.cfi_def_cfa_offset 4
 326              		@ sp needed
ARM GAS  C:\Users\a85495\AppData\Local\Temp\ccsgo5Om.s 			page 8


 327 0012 5DF804FB 		ldr	pc, [sp], #4
 328              		.cfi_endproc
 329              	.LFE71:
 330              		.size	serial_printIntln, .-serial_printIntln
 331              		.comm	str,100,4
 332 0016 00BF     		.section	.rodata.str1.4,"aMS",%progbits,1
 333              		.align	2
 334              	.LC0:
 335 0000 256600   		.ascii	"%f\000"
 336 0003 00       		.text
 337              	.Letext0:
 338              		.file 2 "c:\\program files (x86)\\cypress\\psoc creator\\4.0\\psoc creator\\import\\gnu\\arm\\4.9.
 339              		.file 3 "c:\\program files (x86)\\cypress\\psoc creator\\4.0\\psoc creator\\import\\gnu\\arm\\4.9.
 340              		.file 4 "Generated_Source\\PSoC5/cytypes.h"
 341              		.file 5 "Generated_Source\\PSoC5/debugSerial.h"
 342              		.file 6 "c:\\program files (x86)\\cypress\\psoc creator\\4.0\\psoc creator\\import\\gnu\\arm\\4.9.
 343              		.file 7 "Generated_Source\\PSoC5/core_cm3.h"
 344              		.file 8 "c:\\program files (x86)\\cypress\\psoc creator\\4.0\\psoc creator\\import\\gnu\\arm\\4.9.