ARM GAS  C:\Users\a85495\AppData\Local\Temp\cchTlgfM.s 			page 1


   1              		.syntax unified
   2              		.cpu cortex-m3
   3              		.fpu softvfp
   4              		.eabi_attribute 20, 1
   5              		.eabi_attribute 21, 1
   6              		.eabi_attribute 23, 3
   7              		.eabi_attribute 24, 1
   8              		.eabi_attribute 25, 1
   9              		.eabi_attribute 26, 1
  10              		.eabi_attribute 30, 1
  11              		.eabi_attribute 34, 1
  12              		.eabi_attribute 18, 4
  13              		.thumb
  14              		.file	"gyroscope.c"
  15              		.text
  16              	.Ltext0:
  17              		.cfi_sections	.debug_frame
  18              		.section	.text.gyro_write8,"ax",%progbits
  19              		.align	2
  20              		.global	gyro_write8
  21              		.thumb
  22              		.thumb_func
  23              		.type	gyro_write8, %function
  24              	gyro_write8:
  25              	.LFB63:
  26              		.file 1 "..\\..\\gyroscope.c"
   1:..\../gyroscope.c **** /*
   2:..\../gyroscope.c ****  * This is going to be the remade version of the FXAS21002C library from adafruit
   3:..\../gyroscope.c ****  * to support the PSoC Version of our project
   4:..\../gyroscope.c **** */
   5:..\../gyroscope.c **** 
   6:..\../gyroscope.c **** #include "gyroscope.h"
   7:..\../gyroscope.c **** #include "twi.h"
   8:..\../gyroscope.c **** #include "project.h"
   9:..\../gyroscope.c **** #include "SensorVal.h"
  10:..\../gyroscope.c **** #include "stdlib.h"
  11:..\../gyroscope.c **** #include <stdint.h>
  12:..\../gyroscope.c **** #include "debug_Serial.h"
  13:..\../gyroscope.c **** 
  14:..\../gyroscope.c **** static gyroRange_t _range;
  15:..\../gyroscope.c **** 
  16:..\../gyroscope.c **** void gyro_write8(uint8_t reg, uint8_t value)
  17:..\../gyroscope.c **** {
  27              		.loc 1 17 0
  28              		.cfi_startproc
  29              		@ args = 0, pretend = 0, frame = 8
  30              		@ frame_needed = 0, uses_anonymous_args = 0
  31              	.LVL0:
  32 0000 00B5     		push	{lr}
  33              		.cfi_def_cfa_offset 4
  34              		.cfi_offset 14, -4
  35 0002 83B0     		sub	sp, sp, #12
  36              		.cfi_def_cfa_offset 16
  18:..\../gyroscope.c **** 
  19:..\../gyroscope.c ****     //to write, you want to write 2 values: (1) The registeraddress you want to write to
  20:..\../gyroscope.c ****     //                                      (2) The value you wish to write to the register
  21:..\../gyroscope.c **** 
ARM GAS  C:\Users\a85495\AppData\Local\Temp\cchTlgfM.s 			page 2


  22:..\../gyroscope.c ****     uint8_t Write_Buf[2] = {0};  //create an array where we will store the things to be written
  23:..\../gyroscope.c ****     Write_Buf[0] = (uint8_t)reg; //save the things to be sent in order in the array
  37              		.loc 1 23 0
  38 0004 8DF80400 		strb	r0, [sp, #4]
  24:..\../gyroscope.c ****     Write_Buf[1] = (uint8_t)value;
  39              		.loc 1 24 0
  40 0008 8DF80510 		strb	r1, [sp, #5]
  25:..\../gyroscope.c **** 
  26:..\../gyroscope.c ****     //Make a complete transfer (I2C_MODE_COMPLETE_XFER) to the gyroscope
  27:..\../gyroscope.c ****     //Before the array is sent, it first sends the address and that it's about to write to it
  28:..\../gyroscope.c ****     //Then, it sends the first array value which is the register value it's trying to write to
  29:..\../gyroscope.c ****     //And, finally once it receives an ACK it sends the second thing which is the value it is tryin
  30:..\../gyroscope.c ****     I2C_MasterWriteBuf(FXAS21002C_ADDRESS, (uint8 *)Write_Buf, 2, I2C_MODE_COMPLETE_XFER);
  41              		.loc 1 30 0
  42 000c 2120     		movs	r0, #33
  43              	.LVL1:
  44 000e 01A9     		add	r1, sp, #4
  45              	.LVL2:
  46 0010 0222     		movs	r2, #2
  47 0012 0023     		movs	r3, #0
  48 0014 FFF7FEFF 		bl	I2C_MasterWriteBuf
  49              	.LVL3:
  50              	.L2:
  31:..\../gyroscope.c ****     while ((I2C_MasterStatus() & I2C_MSTAT_WR_CMPLT) == 0) //Wait till the whole transfer is comple
  51              		.loc 1 31 0 discriminator 1
  52 0018 FFF7FEFF 		bl	I2C_MasterStatus
  53              	.LVL4:
  54 001c 10F0020F 		tst	r0, #2
  55 0020 FAD0     		beq	.L2
  32:..\../gyroscope.c ****     {
  33:..\../gyroscope.c ****     }
  34:..\../gyroscope.c **** 
  35:..\../gyroscope.c ****     return; //return 1 if everything was successful
  36:..\../gyroscope.c **** }
  56              		.loc 1 36 0
  57 0022 03B0     		add	sp, sp, #12
  58              		.cfi_def_cfa_offset 4
  59              		@ sp needed
  60 0024 5DF804FB 		ldr	pc, [sp], #4
  61              		.cfi_endproc
  62              	.LFE63:
  63              		.size	gyro_write8, .-gyro_write8
  64              		.section	.text.gyro_read8,"ax",%progbits
  65              		.align	2
  66              		.global	gyro_read8
  67              		.thumb
  68              		.thumb_func
  69              		.type	gyro_read8, %function
  70              	gyro_read8:
  71              	.LFB64:
  37:..\../gyroscope.c **** 
  38:..\../gyroscope.c **** uint8_t gyro_read8(uint8_t reg)
  39:..\../gyroscope.c **** {
  72              		.loc 1 39 0
  73              		.cfi_startproc
  74              		@ args = 0, pretend = 0, frame = 8
  75              		@ frame_needed = 0, uses_anonymous_args = 0
ARM GAS  C:\Users\a85495\AppData\Local\Temp\cchTlgfM.s 			page 3


  76              	.LVL5:
  77 0000 00B5     		push	{lr}
  78              		.cfi_def_cfa_offset 4
  79              		.cfi_offset 14, -4
  80 0002 83B0     		sub	sp, sp, #12
  81              		.cfi_def_cfa_offset 16
  40:..\../gyroscope.c **** 
  41:..\../gyroscope.c ****     //to read:  (1)Write the register address you want to read from to the slave device
  42:..\../gyroscope.c ****     //          (2)Use MasterReadBuf to store what is contained in the refister into the read buffe
  43:..\../gyroscope.c **** 
  44:..\../gyroscope.c ****     uint8_t Write_Buf[1];
  45:..\../gyroscope.c ****     Write_Buf[0] = (uint8_t)reg;
  82              		.loc 1 45 0
  83 0004 8DF80400 		strb	r0, [sp, #4]
  46:..\../gyroscope.c **** 
  47:..\../gyroscope.c ****     uint8 Read_Buf[1] = {0};
  84              		.loc 1 47 0
  85 0008 0023     		movs	r3, #0
  86 000a 8DF80030 		strb	r3, [sp]
  48:..\../gyroscope.c **** 
  49:..\../gyroscope.c ****     //Make a transfer with no stop bit (I2C_MODE_NO_STOP) to the gyroscope
  50:..\../gyroscope.c ****     //Before the array is sent, it first sends the address and that it's about to write to it
  51:..\../gyroscope.c ****     //Then, it sends the first array value which is the register value it's trying to point to
  52:..\../gyroscope.c ****     //And, finally once it receives an ACK it sends the second thing which is the value it is tryin
  53:..\../gyroscope.c ****     I2C_MasterWriteBuf(FXAS21002C_ADDRESS, (uint8 *)Write_Buf, 1, I2C_MODE_NO_STOP);
  87              		.loc 1 53 0
  88 000e 2120     		movs	r0, #33
  89              	.LVL6:
  90 0010 01A9     		add	r1, sp, #4
  91              	.LVL7:
  92 0012 0122     		movs	r2, #1
  93 0014 0223     		movs	r3, #2
  94 0016 FFF7FEFF 		bl	I2C_MasterWriteBuf
  95              	.LVL8:
  96              	.L5:
  54:..\../gyroscope.c ****     while ((I2C_MasterStatus() & I2C_MSTAT_WR_CMPLT) == 0)
  97              		.loc 1 54 0 discriminator 1
  98 001a FFF7FEFF 		bl	I2C_MasterStatus
  99              	.LVL9:
 100 001e 10F0020F 		tst	r0, #2
 101 0022 FAD0     		beq	.L5
  55:..\../gyroscope.c ****     {
  56:..\../gyroscope.c ****     } //wait till Master status indicates that write is complete
  57:..\../gyroscope.c **** 
  58:..\../gyroscope.c ****     //Once the first tranfer was done with a NO STOP BIT it then tells the gyroscope that it is
  59:..\../gyroscope.c ****     //trying to read from it, after sending a repeated start. The Master will no extract as much
  60:..\../gyroscope.c ****     //bytes as we told it to, starting from the value in the register we told it to point to
  61:..\../gyroscope.c ****     I2C_MasterReadBuf(FXAS21002C_ADDRESS, (uint8 *)Read_Buf, 1, I2C_MODE_REPEAT_START);
 102              		.loc 1 61 0
 103 0024 2120     		movs	r0, #33
 104 0026 6946     		mov	r1, sp
 105 0028 0122     		movs	r2, #1
 106 002a 1346     		mov	r3, r2
 107 002c FFF7FEFF 		bl	I2C_MasterReadBuf
 108              	.LVL10:
 109              	.L6:
  62:..\../gyroscope.c ****     while ((I2C_MasterStatus() & I2C_MSTAT_RD_CMPLT) == 0)
ARM GAS  C:\Users\a85495\AppData\Local\Temp\cchTlgfM.s 			page 4


 110              		.loc 1 62 0 discriminator 1
 111 0030 FFF7FEFF 		bl	I2C_MasterStatus
 112              	.LVL11:
 113 0034 10F0010F 		tst	r0, #1
 114 0038 FAD0     		beq	.L6
  63:..\../gyroscope.c ****     {
  64:..\../gyroscope.c ****     } //wait till Master status indicates read is complete
  65:..\../gyroscope.c **** 
  66:..\../gyroscope.c ****     return Read_Buf[0]; //return the value we just read
  67:..\../gyroscope.c **** }
 115              		.loc 1 67 0
 116 003a 9DF80000 		ldrb	r0, [sp]	@ zero_extendqisi2
 117 003e 03B0     		add	sp, sp, #12
 118              		.cfi_def_cfa_offset 4
 119              		@ sp needed
 120 0040 5DF804FB 		ldr	pc, [sp], #4
 121              		.cfi_endproc
 122              	.LFE64:
 123              		.size	gyro_read8, .-gyro_read8
 124              		.section	.text.gyro_begin,"ax",%progbits
 125              		.align	2
 126              		.global	gyro_begin
 127              		.thumb
 128              		.thumb_func
 129              		.type	gyro_begin, %function
 130              	gyro_begin:
 131              	.LFB65:
  68:..\../gyroscope.c **** 
  69:..\../gyroscope.c **** uint8_t gyro_begin(gyroRange_t rng)
  70:..\../gyroscope.c **** {
 132              		.loc 1 70 0
 133              		.cfi_startproc
 134              		@ args = 0, pretend = 0, frame = 0
 135              		@ frame_needed = 0, uses_anonymous_args = 0
 136              	.LVL12:
 137 0000 10B5     		push	{r4, lr}
 138              		.cfi_def_cfa_offset 8
 139              		.cfi_offset 4, -8
 140              		.cfi_offset 14, -4
 141 0002 0446     		mov	r4, r0
  71:..\../gyroscope.c ****   /* Enable I2C */
  72:..\../gyroscope.c ****   Wire_begin();
 142              		.loc 1 72 0
 143 0004 FFF7FEFF 		bl	Wire_begin
 144              	.LVL13:
  73:..\../gyroscope.c **** 
  74:..\../gyroscope.c ****   /* Set the range to an appropriate value */
  75:..\../gyroscope.c ****   _range = rng;
 145              		.loc 1 75 0
 146 0008 124B     		ldr	r3, .L12
 147 000a 1C80     		strh	r4, [r3]	@ movhi
  76:..\../gyroscope.c **** 
  77:..\../gyroscope.c ****   /* Clear the raw sensor data */
  78:..\../gyroscope.c ****   gyro_raw.x = 0;
 148              		.loc 1 78 0
 149 000c 124B     		ldr	r3, .L12+4
 150 000e 0022     		movs	r2, #0
ARM GAS  C:\Users\a85495\AppData\Local\Temp\cchTlgfM.s 			page 5


 151 0010 1A80     		strh	r2, [r3]	@ movhi
  79:..\../gyroscope.c ****   gyro_raw.y = 0;
 152              		.loc 1 79 0
 153 0012 5A80     		strh	r2, [r3, #2]	@ movhi
  80:..\../gyroscope.c ****   gyro_raw.z = 0;
 154              		.loc 1 80 0
 155 0014 9A80     		strh	r2, [r3, #4]	@ movhi
  81:..\../gyroscope.c **** 
  82:..\../gyroscope.c ****   /* Make sure we have the correct chip ID since this checks
  83:..\../gyroscope.c ****      for correct address and that the IC is properly connected */
  84:..\../gyroscope.c ****   uint8_t id = gyro_read8(GYRO_REGISTER_WHO_AM_I);
 156              		.loc 1 84 0
 157 0016 0C20     		movs	r0, #12
 158 0018 FFF7FEFF 		bl	gyro_read8
 159              	.LVL14:
  85:..\../gyroscope.c ****   // Serial.print("WHO AM I? 0x"); Serial.println(id, HEX);
  86:..\../gyroscope.c ****   if (id != FXAS21002C_ID)
 160              		.loc 1 86 0
 161 001c D728     		cmp	r0, #215
 162 001e 04D0     		beq	.L9
  87:..\../gyroscope.c ****   {
  88:..\../gyroscope.c ****     serial_println("Incorrect ID, check wiring or code");
 163              		.loc 1 88 0
 164 0020 0E48     		ldr	r0, .L12+8
 165              	.LVL15:
 166 0022 FFF7FEFF 		bl	serial_println
 167              	.LVL16:
  89:..\../gyroscope.c ****     return false;
 168              		.loc 1 89 0
 169 0026 0020     		movs	r0, #0
 170 0028 10BD     		pop	{r4, pc}
 171              	.LVL17:
 172              	.L9:
  90:..\../gyroscope.c ****   }
  91:..\../gyroscope.c ****   serial_println("Correct ID");
 173              		.loc 1 91 0
 174 002a 0D48     		ldr	r0, .L12+12
 175              	.LVL18:
 176 002c FFF7FEFF 		bl	serial_println
 177              	.LVL19:
  92:..\../gyroscope.c **** 
  93:..\../gyroscope.c ****   /* Set CTRL_REG1 (0x13)
  94:..\../gyroscope.c ****    ====================================================================
  95:..\../gyroscope.c ****    BIT  Symbol    Description                                   Default
  96:..\../gyroscope.c ****    ---  ------    --------------------------------------------- -------
  97:..\../gyroscope.c ****      6  RESET     Reset device on 1                                   0
  98:..\../gyroscope.c ****      5  ST        Self test enabled on 1                              0
  99:..\../gyroscope.c ****    4:2  DR        Output data rate                                  000
 100:..\../gyroscope.c ****                   000 = 800 Hz
 101:..\../gyroscope.c ****                   001 = 400 Hz
 102:..\../gyroscope.c ****                   010 = 200 Hz
 103:..\../gyroscope.c ****                   011 = 100 Hz
 104:..\../gyroscope.c ****                   100 = 50 Hz
 105:..\../gyroscope.c ****                   101 = 25 Hz
 106:..\../gyroscope.c ****                   110 = 12.5 Hz
 107:..\../gyroscope.c ****                   111 = 12.5 Hz
 108:..\../gyroscope.c ****      1  ACTIVE    Standby(0)/Active(1)                                0
ARM GAS  C:\Users\a85495\AppData\Local\Temp\cchTlgfM.s 			page 6


 109:..\../gyroscope.c ****      0  READY     Standby(0)/Ready(1)                                 0*/
 110:..\../gyroscope.c **** 
 111:..\../gyroscope.c ****   /* Reset then switch to active mode with 100Hz output */
 112:..\../gyroscope.c ****   gyro_write8(GYRO_REGISTER_CTRL_REG1, 0x00);  //clear all bit
 178              		.loc 1 112 0
 179 0030 1320     		movs	r0, #19
 180 0032 0021     		movs	r1, #0
 181 0034 FFF7FEFF 		bl	gyro_write8
 182              	.LVL20:
 113:..\../gyroscope.c ****   gyro_write8(GYRO_REGISTER_CTRL_REG1, (1<<6));  //set the reset bit
 183              		.loc 1 113 0
 184 0038 1320     		movs	r0, #19
 185 003a 4021     		movs	r1, #64
 186 003c FFF7FEFF 		bl	gyro_write8
 187              	.LVL21:
 114:..\../gyroscope.c ****   gyro_write8(GYRO_REGISTER_CTRL_REG1, 0x0E);    //
 188              		.loc 1 114 0
 189 0040 1320     		movs	r0, #19
 190 0042 0E21     		movs	r1, #14
 191 0044 FFF7FEFF 		bl	gyro_write8
 192              	.LVL22:
 115:..\../gyroscope.c ****   CyDelay(100); // 60 ms + 1/ODR
 193              		.loc 1 115 0
 194 0048 6420     		movs	r0, #100
 195 004a FFF7FEFF 		bl	CyDelay
 196              	.LVL23:
 116:..\../gyroscope.c ****   /* ------------------------------------------------------------------ */
 117:..\../gyroscope.c **** 
 118:..\../gyroscope.c ****   return true;
 197              		.loc 1 118 0
 198 004e 0120     		movs	r0, #1
 119:..\../gyroscope.c **** }
 199              		.loc 1 119 0
 200 0050 10BD     		pop	{r4, pc}
 201              	.L13:
 202 0052 00BF     		.align	2
 203              	.L12:
 204 0054 00000000 		.word	.LANCHOR0
 205 0058 00000000 		.word	gyro_raw
 206 005c 00000000 		.word	.LC0
 207 0060 24000000 		.word	.LC1
 208              		.cfi_endproc
 209              	.LFE65:
 210              		.size	gyro_begin, .-gyro_begin
 211              		.global	__aeabi_i2f
 212              		.global	__aeabi_f2iz
 213              		.global	__aeabi_fmul
 214              		.global	__aeabi_f2d
 215              		.global	__aeabi_dmul
 216              		.global	__aeabi_d2f
 217              		.section	.text.gyro_update,"ax",%progbits
 218              		.align	2
 219              		.global	gyro_update
 220              		.thumb
 221              		.thumb_func
 222              		.type	gyro_update, %function
 223              	gyro_update:
ARM GAS  C:\Users\a85495\AppData\Local\Temp\cchTlgfM.s 			page 7


 224              	.LFB66:
 120:..\../gyroscope.c **** 
 121:..\../gyroscope.c **** uint8_t gyro_update()
 122:..\../gyroscope.c **** {
 225              		.loc 1 122 0
 226              		.cfi_startproc
 227              		@ args = 0, pretend = 0, frame = 16
 228              		@ frame_needed = 0, uses_anonymous_args = 0
 229 0000 2DE9F043 		push	{r4, r5, r6, r7, r8, r9, lr}
 230              		.cfi_def_cfa_offset 28
 231              		.cfi_offset 4, -28
 232              		.cfi_offset 5, -24
 233              		.cfi_offset 6, -20
 234              		.cfi_offset 7, -16
 235              		.cfi_offset 8, -12
 236              		.cfi_offset 9, -8
 237              		.cfi_offset 14, -4
 238 0004 85B0     		sub	sp, sp, #20
 239              		.cfi_def_cfa_offset 48
 240              	.LVL24:
 123:..\../gyroscope.c ****   uint8_t readingValid = false;
 124:..\../gyroscope.c **** 
 125:..\../gyroscope.c **** 
 126:..\../gyroscope.c ****   /* Clear the raw data placeholder */
 127:..\../gyroscope.c ****   gyro_raw.x = 0;
 241              		.loc 1 127 0
 242 0006 764A     		ldr	r2, .L24+8
 243 0008 0023     		movs	r3, #0
 244 000a 1380     		strh	r3, [r2]	@ movhi
 128:..\../gyroscope.c ****   gyro_raw.y = 0;
 245              		.loc 1 128 0
 246 000c 5380     		strh	r3, [r2, #2]	@ movhi
 129:..\../gyroscope.c ****   gyro_raw.z = 0;
 247              		.loc 1 129 0
 248 000e 9380     		strh	r3, [r2, #4]	@ movhi
 130:..\../gyroscope.c **** 
 131:..\../gyroscope.c ****   /* Read 7 bytes from the sensor */
 132:..\../gyroscope.c ****   /*Wire.beginTransmission((byte)FXAS21002C_ADDRESS);
 133:..\../gyroscope.c ****   #if ARDUINO >= 100
 134:..\../gyroscope.c ****     Wire.write(GYRO_REGISTER_STATUS | 0x80);
 135:..\../gyroscope.c ****   #else
 136:..\../gyroscope.c ****     Wire.send(GYRO_REGISTER_STATUS | 0x80);
 137:..\../gyroscope.c ****   #endif
 138:..\../gyroscope.c ****   Wire.endTransmission();
 139:..\../gyroscope.c ****   Wire.requestFrom((byte)FXAS21002C_ADDRESS, (byte)7);
 140:..\../gyroscope.c ****   */
 141:..\../gyroscope.c **** 
 142:..\../gyroscope.c ****     uint8_t Write_Buf[1];  //create a buffer that will store the register that we want to start rea
 143:..\../gyroscope.c ****     Write_Buf[0] = (uint8_t)GYRO_REGISTER_STATUS;   
 249              		.loc 1 143 0
 250 0010 8DF80C30 		strb	r3, [sp, #12]
 144:..\../gyroscope.c ****     
 145:..\../gyroscope.c ****     uint8_t Read_Buf[7] = {0}; //create an array that will store the data read
 251              		.loc 1 145 0
 252 0014 0193     		str	r3, [sp, #4]
 253 0016 ADF80830 		strh	r3, [sp, #8]	@ movhi
 254 001a 8DF80A30 		strb	r3, [sp, #10]
ARM GAS  C:\Users\a85495\AppData\Local\Temp\cchTlgfM.s 			page 8


 146:..\../gyroscope.c ****     
 147:..\../gyroscope.c ****     I2C_MasterWriteBuf(FXAS21002C_ADDRESS, (uint8 *)Write_Buf, 1, I2C_MODE_NO_STOP);
 255              		.loc 1 147 0
 256 001e 2120     		movs	r0, #33
 257 0020 03A9     		add	r1, sp, #12
 258 0022 0122     		movs	r2, #1
 259 0024 0223     		movs	r3, #2
 260 0026 FFF7FEFF 		bl	I2C_MasterWriteBuf
 261              	.LVL25:
 262              	.L15:
 148:..\../gyroscope.c ****     while((I2C_MasterStatus() & I2C_MSTAT_WR_CMPLT) == 0){} //wait till Master status indicates tha
 263              		.loc 1 148 0 discriminator 1
 264 002a FFF7FEFF 		bl	I2C_MasterStatus
 265              	.LVL26:
 266 002e 10F0020F 		tst	r0, #2
 267 0032 FAD0     		beq	.L15
 149:..\../gyroscope.c ****     
 150:..\../gyroscope.c ****     I2C_MasterReadBuf(FXAS21002C_ADDRESS, (uint8 *) Read_Buf, sizeof(Read_Buf), I2C_MODE_REPEAT_STA
 268              		.loc 1 150 0
 269 0034 2120     		movs	r0, #33
 270 0036 01A9     		add	r1, sp, #4
 271 0038 0722     		movs	r2, #7
 272 003a 0123     		movs	r3, #1
 273 003c FFF7FEFF 		bl	I2C_MasterReadBuf
 274              	.LVL27:
 275              	.L16:
 151:..\../gyroscope.c ****     while((I2C_MasterStatus() & I2C_MSTAT_RD_CMPLT)==0){}   //wait till Master status indicates rea
 276              		.loc 1 151 0 discriminator 1
 277 0040 FFF7FEFF 		bl	I2C_MasterStatus
 278              	.LVL28:
 279 0044 10F0010F 		tst	r0, #1
 280 0048 FAD0     		beq	.L16
 281              	.LVL29:
 152:..\../gyroscope.c ****     
 153:..\../gyroscope.c **** 
 154:..\../gyroscope.c ****     uint8_t status = Read_Buf[0];
 155:..\../gyroscope.c ****     uint8_t xhi = Read_Buf[1];
 282              		.loc 1 155 0
 283 004a 9DF80500 		ldrb	r0, [sp, #5]	@ zero_extendqisi2
 284              	.LVL30:
 156:..\../gyroscope.c ****     uint8_t xlo = Read_Buf[2];
 285              		.loc 1 156 0
 286 004e 9DF80630 		ldrb	r3, [sp, #6]	@ zero_extendqisi2
 287              	.LVL31:
 157:..\../gyroscope.c ****     uint8_t yhi = Read_Buf[3];
 288              		.loc 1 157 0
 289 0052 9DF80790 		ldrb	r9, [sp, #7]	@ zero_extendqisi2
 290              	.LVL32:
 158:..\../gyroscope.c ****     uint8_t ylo = Read_Buf[4];
 291              		.loc 1 158 0
 292 0056 9DF80860 		ldrb	r6, [sp, #8]	@ zero_extendqisi2
 293              	.LVL33:
 159:..\../gyroscope.c ****     uint8_t zhi = Read_Buf[5];
 294              		.loc 1 159 0
 295 005a 9DF80980 		ldrb	r8, [sp, #9]	@ zero_extendqisi2
 296              	.LVL34:
 160:..\../gyroscope.c ****     uint8_t zlo = Read_Buf[6];
ARM GAS  C:\Users\a85495\AppData\Local\Temp\cchTlgfM.s 			page 9


 297              		.loc 1 160 0
 298 005e 9DF80A50 		ldrb	r5, [sp, #10]	@ zero_extendqisi2
 299              	.LVL35:
 161:..\../gyroscope.c **** 
 162:..\../gyroscope.c ****   /* Shift values to create properly formed integer */
 163:..\../gyroscope.c ****   gyro.x = (int16_t)((xhi << 8) | xlo);
 300              		.loc 1 163 0
 301 0062 43EA0020 		orr	r0, r3, r0, lsl #8
 302              	.LVL36:
 303 0066 00B2     		sxth	r0, r0
 304 0068 FFF7FEFF 		bl	__aeabi_i2f
 305              	.LVL37:
 306 006c 0746     		mov	r7, r0
 307 006e 5D4C     		ldr	r4, .L24+12
 308 0070 2060     		str	r0, [r4]	@ float
 164:..\../gyroscope.c ****   gyro.y = (int16_t)((yhi << 8) | ylo);
 309              		.loc 1 164 0
 310 0072 46EA0920 		orr	r0, r6, r9, lsl #8
 311 0076 00B2     		sxth	r0, r0
 312 0078 FFF7FEFF 		bl	__aeabi_i2f
 313              	.LVL38:
 314 007c 0646     		mov	r6, r0
 315              	.LVL39:
 316 007e 6060     		str	r0, [r4, #4]	@ float
 165:..\../gyroscope.c ****   gyro.z = (int16_t)((zhi << 8) | zlo);
 317              		.loc 1 165 0
 318 0080 45EA0820 		orr	r0, r5, r8, lsl #8
 319 0084 00B2     		sxth	r0, r0
 320 0086 FFF7FEFF 		bl	__aeabi_i2f
 321              	.LVL40:
 322 008a 0546     		mov	r5, r0
 323              	.LVL41:
 324 008c A060     		str	r0, [r4, #8]	@ float
 166:..\../gyroscope.c **** 
 167:..\../gyroscope.c ****   /* Assign raw values in case someone needs them */
 168:..\../gyroscope.c ****   gyro_raw.x = gyro.x;
 325              		.loc 1 168 0
 326 008e 544C     		ldr	r4, .L24+8
 327 0090 3846     		mov	r0, r7
 328 0092 FFF7FEFF 		bl	__aeabi_f2iz
 329              	.LVL42:
 330 0096 2080     		strh	r0, [r4]	@ movhi
 169:..\../gyroscope.c ****   gyro_raw.y = gyro.y;
 331              		.loc 1 169 0
 332 0098 3046     		mov	r0, r6
 333 009a FFF7FEFF 		bl	__aeabi_f2iz
 334              	.LVL43:
 335 009e 6080     		strh	r0, [r4, #2]	@ movhi
 170:..\../gyroscope.c ****   gyro_raw.z = gyro.z;
 336              		.loc 1 170 0
 337 00a0 2846     		mov	r0, r5
 338 00a2 FFF7FEFF 		bl	__aeabi_f2iz
 339              	.LVL44:
 340 00a6 A080     		strh	r0, [r4, #4]	@ movhi
 171:..\../gyroscope.c **** 
 172:..\../gyroscope.c ****   #if GYROSCOPE_RAW_DEBUG
 173:..\../gyroscope.c ****         serial_print("gyro_raw.x = ");
ARM GAS  C:\Users\a85495\AppData\Local\Temp\cchTlgfM.s 			page 10


 174:..\../gyroscope.c ****         serial_printInt(gyro_raw.x);
 175:..\../gyroscope.c ****         serial_print(" || gyro_raw.y = ");
 176:..\../gyroscope.c ****         serial_printInt(gyro_raw.y);
 177:..\../gyroscope.c ****         serial_print("|| gyro_raw.z = ");
 178:..\../gyroscope.c ****         serial_printInt(gyro_raw.z);
 179:..\../gyroscope.c ****         serial_println(" rad/s");
 180:..\../gyroscope.c **** 
 181:..\../gyroscope.c ****   #endif
 182:..\../gyroscope.c **** 
 183:..\../gyroscope.c ****   /* Compensate values depending on the resolution */
 184:..\../gyroscope.c ****   switch(_range)
 341              		.loc 1 184 0
 342 00a8 4F4B     		ldr	r3, .L24+16
 343 00aa 1B88     		ldrh	r3, [r3]
 344 00ac B3F5FA7F 		cmp	r3, #500
 345 00b0 1ED0     		beq	.L18
 346 00b2 02D8     		bhi	.L19
 347 00b4 FA2B     		cmp	r3, #250
 348 00b6 07D0     		beq	.L20
 349 00b8 55E0     		b	.L17
 350              	.L19:
 351 00ba B3F57A7F 		cmp	r3, #1000
 352 00be 2BD0     		beq	.L21
 353 00c0 B3F5FA6F 		cmp	r3, #2000
 354 00c4 3CD0     		beq	.L22
 355 00c6 4EE0     		b	.L17
 356              	.L20:
 185:..\../gyroscope.c ****   {
 186:..\../gyroscope.c ****     case GYRO_RANGE_250DPS:
 187:..\../gyroscope.c ****       gyro.x *= GYRO_SENSITIVITY_250DPS;
 357              		.loc 1 187 0
 358 00c8 464C     		ldr	r4, .L24+12
 359 00ca 3846     		mov	r0, r7
 360 00cc 4FF07051 		mov	r1, #1006632960
 361 00d0 FFF7FEFF 		bl	__aeabi_fmul
 362              	.LVL45:
 363 00d4 2060     		str	r0, [r4]	@ float
 188:..\../gyroscope.c ****       gyro.y *= GYRO_SENSITIVITY_250DPS;
 364              		.loc 1 188 0
 365 00d6 3046     		mov	r0, r6
 366 00d8 4FF07051 		mov	r1, #1006632960
 367 00dc FFF7FEFF 		bl	__aeabi_fmul
 368              	.LVL46:
 369 00e0 6060     		str	r0, [r4, #4]	@ float
 189:..\../gyroscope.c ****       gyro.z *= GYRO_SENSITIVITY_250DPS;
 370              		.loc 1 189 0
 371 00e2 2846     		mov	r0, r5
 372 00e4 4FF07051 		mov	r1, #1006632960
 373 00e8 FFF7FEFF 		bl	__aeabi_fmul
 374              	.LVL47:
 375 00ec A060     		str	r0, [r4, #8]	@ float
 190:..\../gyroscope.c ****       break;
 376              		.loc 1 190 0
 377 00ee 3AE0     		b	.L17
 378              	.L18:
 191:..\../gyroscope.c ****     case GYRO_RANGE_500DPS:
 192:..\../gyroscope.c ****       gyro.x *= GYRO_SENSITIVITY_500DPS;
ARM GAS  C:\Users\a85495\AppData\Local\Temp\cchTlgfM.s 			page 11


 379              		.loc 1 192 0
 380 00f0 3C4C     		ldr	r4, .L24+12
 381 00f2 3846     		mov	r0, r7
 382 00f4 4FF07251 		mov	r1, #1015021568
 383 00f8 FFF7FEFF 		bl	__aeabi_fmul
 384              	.LVL48:
 385 00fc 2060     		str	r0, [r4]	@ float
 193:..\../gyroscope.c ****       gyro.y *= GYRO_SENSITIVITY_500DPS;
 386              		.loc 1 193 0
 387 00fe 3046     		mov	r0, r6
 388 0100 4FF07251 		mov	r1, #1015021568
 389 0104 FFF7FEFF 		bl	__aeabi_fmul
 390              	.LVL49:
 391 0108 6060     		str	r0, [r4, #4]	@ float
 194:..\../gyroscope.c ****       gyro.z *= GYRO_SENSITIVITY_500DPS;
 392              		.loc 1 194 0
 393 010a 2846     		mov	r0, r5
 394 010c 4FF07251 		mov	r1, #1015021568
 395 0110 FFF7FEFF 		bl	__aeabi_fmul
 396              	.LVL50:
 397 0114 A060     		str	r0, [r4, #8]	@ float
 195:..\../gyroscope.c ****       break;
 398              		.loc 1 195 0
 399 0116 26E0     		b	.L17
 400              	.L21:
 196:..\../gyroscope.c ****     case GYRO_RANGE_1000DPS:
 197:..\../gyroscope.c ****       gyro.x *= GYRO_SENSITIVITY_1000DPS;
 401              		.loc 1 197 0
 402 0118 324C     		ldr	r4, .L24+12
 403 011a 3846     		mov	r0, r7
 404 011c 4FF07451 		mov	r1, #1023410176
 405 0120 FFF7FEFF 		bl	__aeabi_fmul
 406              	.LVL51:
 407 0124 2060     		str	r0, [r4]	@ float
 198:..\../gyroscope.c ****       gyro.y *= GYRO_SENSITIVITY_1000DPS;
 408              		.loc 1 198 0
 409 0126 3046     		mov	r0, r6
 410 0128 4FF07451 		mov	r1, #1023410176
 411 012c FFF7FEFF 		bl	__aeabi_fmul
 412              	.LVL52:
 413 0130 6060     		str	r0, [r4, #4]	@ float
 199:..\../gyroscope.c ****       gyro.z *= GYRO_SENSITIVITY_1000DPS;
 414              		.loc 1 199 0
 415 0132 2846     		mov	r0, r5
 416 0134 4FF07451 		mov	r1, #1023410176
 417 0138 FFF7FEFF 		bl	__aeabi_fmul
 418              	.LVL53:
 419 013c A060     		str	r0, [r4, #8]	@ float
 200:..\../gyroscope.c ****       break;
 420              		.loc 1 200 0
 421 013e 12E0     		b	.L17
 422              	.L22:
 201:..\../gyroscope.c ****     case GYRO_RANGE_2000DPS:
 202:..\../gyroscope.c ****       gyro.x *= GYRO_SENSITIVITY_2000DPS;
 423              		.loc 1 202 0
 424 0140 284C     		ldr	r4, .L24+12
 425 0142 3846     		mov	r0, r7
ARM GAS  C:\Users\a85495\AppData\Local\Temp\cchTlgfM.s 			page 12


 426 0144 4FF07651 		mov	r1, #1031798784
 427 0148 FFF7FEFF 		bl	__aeabi_fmul
 428              	.LVL54:
 429 014c 2060     		str	r0, [r4]	@ float
 203:..\../gyroscope.c ****       gyro.y *= GYRO_SENSITIVITY_2000DPS;
 430              		.loc 1 203 0
 431 014e 3046     		mov	r0, r6
 432 0150 4FF07651 		mov	r1, #1031798784
 433 0154 FFF7FEFF 		bl	__aeabi_fmul
 434              	.LVL55:
 435 0158 6060     		str	r0, [r4, #4]	@ float
 204:..\../gyroscope.c ****       gyro.z *= GYRO_SENSITIVITY_2000DPS;
 436              		.loc 1 204 0
 437 015a 2846     		mov	r0, r5
 438 015c 4FF07651 		mov	r1, #1031798784
 439 0160 FFF7FEFF 		bl	__aeabi_fmul
 440              	.LVL56:
 441 0164 A060     		str	r0, [r4, #8]	@ float
 442              	.L17:
 205:..\../gyroscope.c ****       break;
 206:..\../gyroscope.c ****   }
 207:..\../gyroscope.c **** 
 208:..\../gyroscope.c ****   /* Convert values to rad/s */
 209:..\../gyroscope.c ****   gyro.x *= SENSORS_DPS_TO_RADS;
 443              		.loc 1 209 0
 444 0166 1F4C     		ldr	r4, .L24+12
 445 0168 2068     		ldr	r0, [r4]	@ float
 446 016a FFF7FEFF 		bl	__aeabi_f2d
 447              	.LVL57:
 448 016e 1AA3     		adr	r3, .L24
 449 0170 D3E90023 		ldrd	r2, [r3]
 450 0174 FFF7FEFF 		bl	__aeabi_dmul
 451              	.LVL58:
 452 0178 FFF7FEFF 		bl	__aeabi_d2f
 453              	.LVL59:
 454 017c 2060     		str	r0, [r4]	@ float
 210:..\../gyroscope.c ****   gyro.y *= SENSORS_DPS_TO_RADS;
 455              		.loc 1 210 0
 456 017e 6068     		ldr	r0, [r4, #4]	@ float
 457 0180 FFF7FEFF 		bl	__aeabi_f2d
 458              	.LVL60:
 459 0184 14A3     		adr	r3, .L24
 460 0186 D3E90023 		ldrd	r2, [r3]
 461 018a FFF7FEFF 		bl	__aeabi_dmul
 462              	.LVL61:
 463 018e FFF7FEFF 		bl	__aeabi_d2f
 464              	.LVL62:
 465 0192 6060     		str	r0, [r4, #4]	@ float
 211:..\../gyroscope.c ****   gyro.z *= SENSORS_DPS_TO_RADS;
 466              		.loc 1 211 0
 467 0194 A068     		ldr	r0, [r4, #8]	@ float
 468 0196 FFF7FEFF 		bl	__aeabi_f2d
 469              	.LVL63:
 470 019a 0FA3     		adr	r3, .L24
 471 019c D3E90023 		ldrd	r2, [r3]
 472 01a0 FFF7FEFF 		bl	__aeabi_dmul
 473              	.LVL64:
ARM GAS  C:\Users\a85495\AppData\Local\Temp\cchTlgfM.s 			page 13


 474 01a4 FFF7FEFF 		bl	__aeabi_d2f
 475              	.LVL65:
 476 01a8 A060     		str	r0, [r4, #8]	@ float
 212:..\../gyroscope.c **** 
 213:..\../gyroscope.c ****   #if GYROSCOPE_DEBUG
 214:..\../gyroscope.c ****         serial_print("gyro.x = ");
 477              		.loc 1 214 0
 478 01aa 1048     		ldr	r0, .L24+20
 479 01ac FFF7FEFF 		bl	serial_print
 480              	.LVL66:
 215:..\../gyroscope.c ****         serial_printFloat(gyro.x);
 481              		.loc 1 215 0
 482 01b0 2068     		ldr	r0, [r4]	@ float
 483 01b2 FFF7FEFF 		bl	serial_printFloat
 484              	.LVL67:
 216:..\../gyroscope.c ****         serial_print(" || gyro.y = ");
 485              		.loc 1 216 0
 486 01b6 0E48     		ldr	r0, .L24+24
 487 01b8 FFF7FEFF 		bl	serial_print
 488              	.LVL68:
 217:..\../gyroscope.c ****         serial_printFloat(gyro.y);
 489              		.loc 1 217 0
 490 01bc 6068     		ldr	r0, [r4, #4]	@ float
 491 01be FFF7FEFF 		bl	serial_printFloat
 492              	.LVL69:
 218:..\../gyroscope.c ****         serial_print("  || gyro.z = ");
 493              		.loc 1 218 0
 494 01c2 0C48     		ldr	r0, .L24+28
 495 01c4 FFF7FEFF 		bl	serial_print
 496              	.LVL70:
 219:..\../gyroscope.c ****         serial_printFloatln(gyro.z);
 497              		.loc 1 219 0
 498 01c8 A068     		ldr	r0, [r4, #8]	@ float
 499 01ca FFF7FEFF 		bl	serial_printFloatln
 500              	.LVL71:
 220:..\../gyroscope.c ****   #endif
 221:..\../gyroscope.c ****   readingValid = true;
 222:..\../gyroscope.c ****   return readingValid;
 223:..\../gyroscope.c **** }
 501              		.loc 1 223 0
 502 01ce 0120     		movs	r0, #1
 503 01d0 05B0     		add	sp, sp, #20
 504              		.cfi_def_cfa_offset 28
 505              		@ sp needed
 506 01d2 BDE8F083 		pop	{r4, r5, r6, r7, r8, r9, pc}
 507              	.LVL72:
 508              	.L25:
 509 01d6 00BF     		.align	3
 510              	.L24:
 511 01d8 06ED91AA 		.word	-1433277178
 512 01dc 46DF913F 		.word	1066524486
 513 01e0 00000000 		.word	gyro_raw
 514 01e4 00000000 		.word	gyro
 515 01e8 00000000 		.word	.LANCHOR0
 516 01ec 30000000 		.word	.LC2
 517 01f0 3C000000 		.word	.LC3
 518 01f4 4C000000 		.word	.LC4
ARM GAS  C:\Users\a85495\AppData\Local\Temp\cchTlgfM.s 			page 14


 519              		.cfi_endproc
 520              	.LFE66:
 521              		.size	gyro_update, .-gyro_update
 522              		.section	.text.gyro_readData,"ax",%progbits
 523              		.align	2
 524              		.global	gyro_readData
 525              		.thumb
 526              		.thumb_func
 527              		.type	gyro_readData, %function
 528              	gyro_readData:
 529              	.LFB67:
 224:..\../gyroscope.c **** 
 225:..\../gyroscope.c **** void gyro_readData(gyroData_t *gyroscope)
 226:..\../gyroscope.c **** {
 530              		.loc 1 226 0
 531              		.cfi_startproc
 532              		@ args = 0, pretend = 0, frame = 0
 533              		@ frame_needed = 0, uses_anonymous_args = 0
 534              	.LVL73:
 535 0000 10B5     		push	{r4, lr}
 536              		.cfi_def_cfa_offset 8
 537              		.cfi_offset 4, -8
 538              		.cfi_offset 14, -4
 539 0002 0446     		mov	r4, r0
 227:..\../gyroscope.c ****     //gets the gyroscope data
 228:..\../gyroscope.c ****     gyro_update();
 540              		.loc 1 228 0
 541 0004 FFF7FEFF 		bl	gyro_update
 542              	.LVL74:
 229:..\../gyroscope.c ****     gyroscope->x = gyro.x;
 543              		.loc 1 229 0
 544 0008 034B     		ldr	r3, .L28
 545 000a 1A68     		ldr	r2, [r3]	@ float
 546 000c 2260     		str	r2, [r4]	@ float
 230:..\../gyroscope.c ****     gyroscope->y = gyro.y;
 547              		.loc 1 230 0
 548 000e 5A68     		ldr	r2, [r3, #4]	@ float
 549 0010 6260     		str	r2, [r4, #4]	@ float
 231:..\../gyroscope.c ****     gyroscope->z = gyro.z;
 550              		.loc 1 231 0
 551 0012 9B68     		ldr	r3, [r3, #8]	@ float
 552 0014 A360     		str	r3, [r4, #8]	@ float
 553 0016 10BD     		pop	{r4, pc}
 554              	.LVL75:
 555              	.L29:
 556              		.align	2
 557              	.L28:
 558 0018 00000000 		.word	gyro
 559              		.cfi_endproc
 560              	.LFE67:
 561              		.size	gyro_readData, .-gyro_readData
 562              		.section	.text.gyro_initialize,"ax",%progbits
 563              		.align	2
 564              		.global	gyro_initialize
 565              		.thumb
 566              		.thumb_func
 567              		.type	gyro_initialize, %function
ARM GAS  C:\Users\a85495\AppData\Local\Temp\cchTlgfM.s 			page 15


 568              	gyro_initialize:
 569              	.LFB68:
 232:..\../gyroscope.c **** 
 233:..\../gyroscope.c **** }
 234:..\../gyroscope.c **** 
 235:..\../gyroscope.c **** uint8_t gyro_initialize(gyroRange_t rng){
 570              		.loc 1 235 0
 571              		.cfi_startproc
 572              		@ args = 0, pretend = 0, frame = 0
 573              		@ frame_needed = 0, uses_anonymous_args = 0
 574              	.LVL76:
 575 0000 08B5     		push	{r3, lr}
 576              		.cfi_def_cfa_offset 8
 577              		.cfi_offset 3, -8
 578              		.cfi_offset 14, -4
 579              	.LVL77:
 236:..\../gyroscope.c ****     uint8_t ret = 1;
 237:..\../gyroscope.c ****     ret = gyro_begin(rng);
 580              		.loc 1 237 0
 581 0002 FFF7FEFF 		bl	gyro_begin
 582              	.LVL78:
 238:..\../gyroscope.c ****     return ret;
 239:..\../gyroscope.c **** }
 583              		.loc 1 239 0
 584 0006 08BD     		pop	{r3, pc}
 585              		.cfi_endproc
 586              	.LFE68:
 587              		.size	gyro_initialize, .-gyro_initialize
 588              		.section	.text.gyro_getX,"ax",%progbits
 589              		.align	2
 590              		.global	gyro_getX
 591              		.thumb
 592              		.thumb_func
 593              		.type	gyro_getX, %function
 594              	gyro_getX:
 595              	.LFB69:
 240:..\../gyroscope.c **** 
 241:..\../gyroscope.c **** /*  These functions are provided to allow the user to extract
 242:..\../gyroscope.c ****  *  single pieces of data from the sensor readings safely
 243:..\../gyroscope.c ****  *  instead of just calling the sensor variables directly
 244:..\../gyroscope.c **** */
 245:..\../gyroscope.c **** float gyro_getX(void){
 596              		.loc 1 245 0
 597              		.cfi_startproc
 598              		@ args = 0, pretend = 0, frame = 0
 599              		@ frame_needed = 0, uses_anonymous_args = 0
 600              		@ link register save eliminated.
 246:..\../gyroscope.c ****   return (gyro.x);
 247:..\../gyroscope.c **** }
 601              		.loc 1 247 0
 602 0000 014B     		ldr	r3, .L33
 603 0002 1868     		ldr	r0, [r3]	@ float
 604 0004 7047     		bx	lr
 605              	.L34:
 606 0006 00BF     		.align	2
 607              	.L33:
 608 0008 00000000 		.word	gyro
ARM GAS  C:\Users\a85495\AppData\Local\Temp\cchTlgfM.s 			page 16


 609              		.cfi_endproc
 610              	.LFE69:
 611              		.size	gyro_getX, .-gyro_getX
 612              		.section	.text.gyro_getY,"ax",%progbits
 613              		.align	2
 614              		.global	gyro_getY
 615              		.thumb
 616              		.thumb_func
 617              		.type	gyro_getY, %function
 618              	gyro_getY:
 619              	.LFB70:
 248:..\../gyroscope.c **** 
 249:..\../gyroscope.c **** float gyro_getY(void){
 620              		.loc 1 249 0
 621              		.cfi_startproc
 622              		@ args = 0, pretend = 0, frame = 0
 623              		@ frame_needed = 0, uses_anonymous_args = 0
 624              		@ link register save eliminated.
 250:..\../gyroscope.c ****   return (gyro.y);
 251:..\../gyroscope.c **** }
 625              		.loc 1 251 0
 626 0000 014B     		ldr	r3, .L36
 627 0002 5868     		ldr	r0, [r3, #4]	@ float
 628 0004 7047     		bx	lr
 629              	.L37:
 630 0006 00BF     		.align	2
 631              	.L36:
 632 0008 00000000 		.word	gyro
 633              		.cfi_endproc
 634              	.LFE70:
 635              		.size	gyro_getY, .-gyro_getY
 636              		.section	.text.gyro_getZ,"ax",%progbits
 637              		.align	2
 638              		.global	gyro_getZ
 639              		.thumb
 640              		.thumb_func
 641              		.type	gyro_getZ, %function
 642              	gyro_getZ:
 643              	.LFB71:
 252:..\../gyroscope.c **** 
 253:..\../gyroscope.c **** float gyro_getZ(void){
 644              		.loc 1 253 0
 645              		.cfi_startproc
 646              		@ args = 0, pretend = 0, frame = 0
 647              		@ frame_needed = 0, uses_anonymous_args = 0
 648              		@ link register save eliminated.
 254:..\../gyroscope.c ****   return (gyro.z);
 255:..\../gyroscope.c **** }...
 649              		.loc 1 255 0
 650 0000 014B     		ldr	r3, .L39
 651 0002 9868     		ldr	r0, [r3, #8]	@ float
 652 0004 7047     		bx	lr
 653              	.L40:
 654 0006 00BF     		.align	2
 655              	.L39:
 656 0008 00000000 		.word	gyro
 657              		.cfi_endproc
ARM GAS  C:\Users\a85495\AppData\Local\Temp\cchTlgfM.s 			page 17


 658              	.LFE71:
 659              		.size	gyro_getZ, .-gyro_getZ
 660              		.section	.rodata.str1.4,"aMS",%progbits,1
 661              		.align	2
 662              	.LC0:
 663 0000 496E636F 		.ascii	"Incorrect ID, check wiring or code\000"
 663      72726563 
 663      74204944 
 663      2C206368 
 663      65636B20 
 664 0023 00       		.space	1
 665              	.LC1:
 666 0024 436F7272 		.ascii	"Correct ID\000"
 666      65637420 
 666      494400
 667 002f 00       		.space	1
 668              	.LC2:
 669 0030 6779726F 		.ascii	"gyro.x = \000"
 669      2E78203D 
 669      2000
 670 003a 0000     		.space	2
 671              	.LC3:
 672 003c 207C7C20 		.ascii	" || gyro.y = \000"
 672      6779726F 
 672      2E79203D 
 672      2000
 673 004a 0000     		.space	2
 674              	.LC4:
 675 004c 20207C7C 		.ascii	"  || gyro.z = \000"
 675      20677972 
 675      6F2E7A20 
 675      3D2000
 676 005b 00       		.bss
 677              		.align	1
 678              		.set	.LANCHOR0,. + 0
 679              		.type	_range, %object
 680              		.size	_range, 2
 681              	_range:
 682 0000 0000     		.space	2
 683              		.text
 684              	.Letext0:
 685              		.file 2 "c:\\program files (x86)\\cypress\\psoc creator\\4.0\\psoc creator\\import\\gnu\\arm\\4.9.
 686              		.file 3 "c:\\program files (x86)\\cypress\\psoc creator\\4.0\\psoc creator\\import\\gnu\\arm\\4.9.
 687              		.file 4 "..\\..\\gyroscope.h"
 688              		.file 5 "Generated_Source\\PSoC5/cytypes.h"
 689              		.file 6 "Generated_Source\\PSoC5/core_cm3.h"
 690              		.file 7 "..\\..\\SensorVal.h"
 691              		.file 8 "Generated_Source\\PSoC5/I2C.h"
 692              		.file 9 "..\\../debug_Serial.h"
 693              		.file 10 "Generated_Source\\PSoC5/CyLib.h"
 694              		.file 11 "..\\..\\twi.h"