ARM GAS  C:\Users\a85495\AppData\Local\Temp\ccdeyOVC.s 			page 1


   1              		.syntax unified
   2              		.cpu cortex-m3
   3              		.fpu softvfp
   4              		.eabi_attribute 20, 1
   5              		.eabi_attribute 21, 1
   6              		.eabi_attribute 23, 3
   7              		.eabi_attribute 24, 1
   8              		.eabi_attribute 25, 1
   9              		.eabi_attribute 26, 1
  10              		.eabi_attribute 30, 1
  11              		.eabi_attribute 34, 1
  12              		.eabi_attribute 18, 4
  13              		.thumb
  14              		.file	"gyroscope.c"
  15              		.text
  16              	.Ltext0:
  17              		.cfi_sections	.debug_frame
  18              		.section	.text.gyro_write8,"ax",%progbits
  19              		.align	2
  20              		.global	gyro_write8
  21              		.thumb
  22              		.thumb_func
  23              		.type	gyro_write8, %function
  24              	gyro_write8:
  25              	.LFB63:
  26              		.file 1 "..\\gyroscope.c"
   1:..\gyroscope.c **** /*
   2:..\gyroscope.c ****  * This is going to be the remade version of the FXAS21002C library from adafruit
   3:..\gyroscope.c ****  * to support the PSoC Version of our project
   4:..\gyroscope.c **** */
   5:..\gyroscope.c **** 
   6:..\gyroscope.c **** #include "gyroscope.h"
   7:..\gyroscope.c **** #include "twi.h"
   8:..\gyroscope.c **** #include "project.h"
   9:..\gyroscope.c **** 
  10:..\gyroscope.c **** static gyroRange_t _range;
  11:..\gyroscope.c **** gyroRawData_t raw; /* Raw values from last sensor read */
  12:..\gyroscope.c **** gyroRawData_t gyro; 
  13:..\gyroscope.c **** 
  14:..\gyroscope.c **** void gyro_write8(uint8_t Reg, uint8_t value)
  15:..\gyroscope.c **** {
  27              		.loc 1 15 0
  28              		.cfi_startproc
  29              		@ args = 0, pretend = 0, frame = 8
  30              		@ frame_needed = 0, uses_anonymous_args = 0
  31              	.LVL0:
  32 0000 00B5     		push	{lr}
  33              		.cfi_def_cfa_offset 4
  34              		.cfi_offset 14, -4
  35 0002 83B0     		sub	sp, sp, #12
  36              		.cfi_def_cfa_offset 16
  16:..\gyroscope.c **** 
  17:..\gyroscope.c ****     //to write, you want to write 2 values: (1) The registeraddress you want to write to
  18:..\gyroscope.c ****     //                                      (2) The value you wish to write to the register
  19:..\gyroscope.c **** 
  20:..\gyroscope.c ****     uint8_t Write_Buf[2] = {0};  //create an array where we will store the things to be written
  21:..\gyroscope.c ****     Write_Buf[0] = (uint8_t)Reg; //save the things to be sent in order in the array
ARM GAS  C:\Users\a85495\AppData\Local\Temp\ccdeyOVC.s 			page 2


  37              		.loc 1 21 0
  38 0004 8DF80400 		strb	r0, [sp, #4]
  22:..\gyroscope.c ****     Write_Buf[1] = (uint8_t)value;
  39              		.loc 1 22 0
  40 0008 8DF80510 		strb	r1, [sp, #5]
  23:..\gyroscope.c **** 
  24:..\gyroscope.c ****     //Make a complete transfer (I2C_MODE_COMPLETE_XFER) to the gyroscope
  25:..\gyroscope.c ****     //Before the array is sent, it first sends the address and that it's about to write to it
  26:..\gyroscope.c ****     //Then, it sends the first array value which is the register value it's trying to write to
  27:..\gyroscope.c ****     //And, finally once it receives an ACK it sends the second thing which is the value it is tryin
  28:..\gyroscope.c ****     I2C_MasterWriteBuf(FXAS21002C_ADDRESS, (uint8 *)Write_Buf, 2, I2C_MODE_COMPLETE_XFER);
  41              		.loc 1 28 0
  42 000c 2120     		movs	r0, #33
  43              	.LVL1:
  44 000e 01A9     		add	r1, sp, #4
  45              	.LVL2:
  46 0010 0222     		movs	r2, #2
  47 0012 0023     		movs	r3, #0
  48 0014 FFF7FEFF 		bl	I2C_MasterWriteBuf
  49              	.LVL3:
  50              	.L2:
  29:..\gyroscope.c ****     while ((I2C_MasterStatus() & I2C_MSTAT_WR_CMPLT) == 0) //Wait till the whole transfer is comple
  51              		.loc 1 29 0 discriminator 1
  52 0018 FFF7FEFF 		bl	I2C_MasterStatus
  53              	.LVL4:
  54 001c 10F0020F 		tst	r0, #2
  55 0020 FAD0     		beq	.L2
  30:..\gyroscope.c ****     {
  31:..\gyroscope.c ****     }
  32:..\gyroscope.c **** 
  33:..\gyroscope.c ****     return; //return 1 if everything was successful
  34:..\gyroscope.c **** }
  56              		.loc 1 34 0
  57 0022 03B0     		add	sp, sp, #12
  58              		.cfi_def_cfa_offset 4
  59              		@ sp needed
  60 0024 5DF804FB 		ldr	pc, [sp], #4
  61              		.cfi_endproc
  62              	.LFE63:
  63              		.size	gyro_write8, .-gyro_write8
  64              		.section	.text.gyro_read8,"ax",%progbits
  65              		.align	2
  66              		.global	gyro_read8
  67              		.thumb
  68              		.thumb_func
  69              		.type	gyro_read8, %function
  70              	gyro_read8:
  71              	.LFB64:
  35:..\gyroscope.c **** 
  36:..\gyroscope.c **** uint8_t gyro_read8(uint8_t Reg)
  37:..\gyroscope.c **** {
  72              		.loc 1 37 0
  73              		.cfi_startproc
  74              		@ args = 0, pretend = 0, frame = 8
  75              		@ frame_needed = 0, uses_anonymous_args = 0
  76              	.LVL5:
  77 0000 00B5     		push	{lr}
ARM GAS  C:\Users\a85495\AppData\Local\Temp\ccdeyOVC.s 			page 3


  78              		.cfi_def_cfa_offset 4
  79              		.cfi_offset 14, -4
  80 0002 83B0     		sub	sp, sp, #12
  81              		.cfi_def_cfa_offset 16
  38:..\gyroscope.c **** 
  39:..\gyroscope.c ****     //to read:  (1)Write the register address you want to read from to the slave device
  40:..\gyroscope.c ****     //          (2)Use MasterReadBuf to store what is contained in the refister into the read buffe
  41:..\gyroscope.c **** 
  42:..\gyroscope.c ****     uint8_t Write_Buf[1];
  43:..\gyroscope.c ****     Write_Buf[0] = (uint8_t)Reg;
  82              		.loc 1 43 0
  83 0004 8DF80400 		strb	r0, [sp, #4]
  44:..\gyroscope.c **** 
  45:..\gyroscope.c ****     uint8 Read_Buf[1] = {0};
  84              		.loc 1 45 0
  85 0008 0023     		movs	r3, #0
  86 000a 8DF80030 		strb	r3, [sp]
  46:..\gyroscope.c **** 
  47:..\gyroscope.c ****     //Make a transfer with no stop bit (I2C_MODE_NO_STOP) to the gyroscope
  48:..\gyroscope.c ****     //Before the array is sent, it first sends the address and that it's about to write to it
  49:..\gyroscope.c ****     //Then, it sends the first array value which is the register value it's trying to point to
  50:..\gyroscope.c ****     //And, finally once it receives an ACK it sends the second thing which is the value it is tryin
  51:..\gyroscope.c ****     I2C_MasterWriteBuf(FXAS21002C_ADDRESS, (uint8 *)Write_Buf, 1, I2C_MODE_NO_STOP);
  87              		.loc 1 51 0
  88 000e 2120     		movs	r0, #33
  89              	.LVL6:
  90 0010 01A9     		add	r1, sp, #4
  91              	.LVL7:
  92 0012 0122     		movs	r2, #1
  93 0014 0223     		movs	r3, #2
  94 0016 FFF7FEFF 		bl	I2C_MasterWriteBuf
  95              	.LVL8:
  96              	.L5:
  52:..\gyroscope.c ****     while ((I2C_MasterStatus() & I2C_MSTAT_WR_CMPLT) == 0)
  97              		.loc 1 52 0 discriminator 1
  98 001a FFF7FEFF 		bl	I2C_MasterStatus
  99              	.LVL9:
 100 001e 10F0020F 		tst	r0, #2
 101 0022 FAD0     		beq	.L5
  53:..\gyroscope.c ****     {
  54:..\gyroscope.c ****     } //wait till Master status indicates that write is complete
  55:..\gyroscope.c **** 
  56:..\gyroscope.c ****     //Once the first tranfer was done with a NO STOP BIT it then tells the gyroscope that it is
  57:..\gyroscope.c ****     //trying to read from it, after sending a repeated start. The Master will no extract as much
  58:..\gyroscope.c ****     //bytes as we told it to, starting from the value in the register we told it to point to
  59:..\gyroscope.c ****     I2C_MasterReadBuf(FXAS21002C_ADDRESS, (uint8 *)Read_Buf, 1, I2C_MODE_REPEAT_START);
 102              		.loc 1 59 0
 103 0024 2120     		movs	r0, #33
 104 0026 6946     		mov	r1, sp
 105 0028 0122     		movs	r2, #1
 106 002a 1346     		mov	r3, r2
 107 002c FFF7FEFF 		bl	I2C_MasterReadBuf
 108              	.LVL10:
 109              	.L6:
  60:..\gyroscope.c ****     while ((I2C_MasterStatus() & I2C_MSTAT_RD_CMPLT) == 0)
 110              		.loc 1 60 0 discriminator 1
 111 0030 FFF7FEFF 		bl	I2C_MasterStatus
ARM GAS  C:\Users\a85495\AppData\Local\Temp\ccdeyOVC.s 			page 4


 112              	.LVL11:
 113 0034 10F0010F 		tst	r0, #1
 114 0038 FAD0     		beq	.L6
  61:..\gyroscope.c ****     {
  62:..\gyroscope.c ****     } //wait till Master status indicates read is complete
  63:..\gyroscope.c **** 
  64:..\gyroscope.c ****     return Read_Buf[0]; //return the value we just read
  65:..\gyroscope.c **** }
 115              		.loc 1 65 0
 116 003a 9DF80000 		ldrb	r0, [sp]	@ zero_extendqisi2
 117 003e 03B0     		add	sp, sp, #12
 118              		.cfi_def_cfa_offset 4
 119              		@ sp needed
 120 0040 5DF804FB 		ldr	pc, [sp], #4
 121              		.cfi_endproc
 122              	.LFE64:
 123              		.size	gyro_read8, .-gyro_read8
 124              		.section	.text.gyro_begin,"ax",%progbits
 125              		.align	2
 126              		.global	gyro_begin
 127              		.thumb
 128              		.thumb_func
 129              		.type	gyro_begin, %function
 130              	gyro_begin:
 131              	.LFB65:
  66:..\gyroscope.c **** 
  67:..\gyroscope.c **** uint8_t gyro_begin(gyroRange_t rng)
  68:..\gyroscope.c **** {
 132              		.loc 1 68 0
 133              		.cfi_startproc
 134              		@ args = 0, pretend = 0, frame = 0
 135              		@ frame_needed = 0, uses_anonymous_args = 0
 136              	.LVL12:
 137 0000 10B5     		push	{r4, lr}
 138              		.cfi_def_cfa_offset 8
 139              		.cfi_offset 4, -8
 140              		.cfi_offset 14, -4
 141 0002 0446     		mov	r4, r0
  69:..\gyroscope.c ****   /* Enable I2C */
  70:..\gyroscope.c ****   Wire_begin();
 142              		.loc 1 70 0
 143 0004 FFF7FEFF 		bl	Wire_begin
 144              	.LVL13:
  71:..\gyroscope.c **** 
  72:..\gyroscope.c ****   /* Set the range to an appropriate value */
  73:..\gyroscope.c ****   _range = rng;
 145              		.loc 1 73 0
 146 0008 0F4B     		ldr	r3, .L12
 147 000a 1C80     		strh	r4, [r3]	@ movhi
  74:..\gyroscope.c **** 
  75:..\gyroscope.c ****   /* Clear the raw sensor data */
  76:..\gyroscope.c ****   raw.x = 0;
 148              		.loc 1 76 0
 149 000c 0F4B     		ldr	r3, .L12+4
 150 000e 0022     		movs	r2, #0
 151 0010 1A80     		strh	r2, [r3]	@ movhi
  77:..\gyroscope.c ****   raw.y = 0;
ARM GAS  C:\Users\a85495\AppData\Local\Temp\ccdeyOVC.s 			page 5


 152              		.loc 1 77 0
 153 0012 5A80     		strh	r2, [r3, #2]	@ movhi
  78:..\gyroscope.c ****   raw.z = 0;
 154              		.loc 1 78 0
 155 0014 9A80     		strh	r2, [r3, #4]	@ movhi
  79:..\gyroscope.c **** 
  80:..\gyroscope.c ****   /* Make sure we have the correct chip ID since this checks
  81:..\gyroscope.c ****      for correct address and that the IC is properly connected */
  82:..\gyroscope.c ****   uint8_t id = gyro_read8(GYRO_REGISTER_WHO_AM_I);
 156              		.loc 1 82 0
 157 0016 0C20     		movs	r0, #12
 158 0018 FFF7FEFF 		bl	gyro_read8
 159              	.LVL14:
  83:..\gyroscope.c ****   // Serial.print("WHO AM I? 0x"); Serial.println(id, HEX);
  84:..\gyroscope.c ****   if (id != FXAS21002C_ID)
 160              		.loc 1 84 0
 161 001c D728     		cmp	r0, #215
 162 001e 10D1     		bne	.L10
  85:..\gyroscope.c ****   {
  86:..\gyroscope.c ****     return false;
  87:..\gyroscope.c ****   }
  88:..\gyroscope.c **** 
  89:..\gyroscope.c ****   /* Set CTRL_REG1 (0x13)
  90:..\gyroscope.c ****    ====================================================================
  91:..\gyroscope.c ****    BIT  Symbol    Description                                   Default
  92:..\gyroscope.c ****    ---  ------    --------------------------------------------- -------
  93:..\gyroscope.c ****      6  RESET     Reset device on 1                                   0
  94:..\gyroscope.c ****      5  ST        Self test enabled on 1                              0
  95:..\gyroscope.c ****    4:2  DR        Output data rate                                  000
  96:..\gyroscope.c ****                   000 = 800 Hz
  97:..\gyroscope.c ****                   001 = 400 Hz
  98:..\gyroscope.c ****                   010 = 200 Hz
  99:..\gyroscope.c ****                   011 = 100 Hz
 100:..\gyroscope.c ****                   100 = 50 Hz
 101:..\gyroscope.c ****                   101 = 25 Hz
 102:..\gyroscope.c ****                   110 = 12.5 Hz
 103:..\gyroscope.c ****                   111 = 12.5 Hz
 104:..\gyroscope.c ****      1  ACTIVE    Standby(0)/Active(1)                                0
 105:..\gyroscope.c ****      0  READY     Standby(0)/Ready(1)                                 0*/
 106:..\gyroscope.c **** 
 107:..\gyroscope.c ****   /* Reset then switch to active mode with 100Hz output */
 108:..\gyroscope.c ****   gyro_write8(GYRO_REGISTER_CTRL_REG1, 0x00);  //clear all bit
 163              		.loc 1 108 0
 164 0020 1320     		movs	r0, #19
 165              	.LVL15:
 166 0022 0021     		movs	r1, #0
 167 0024 FFF7FEFF 		bl	gyro_write8
 168              	.LVL16:
 109:..\gyroscope.c ****   gyro_write8(GYRO_REGISTER_CTRL_REG1, (1<<6));  //set the reset bit
 169              		.loc 1 109 0
 170 0028 1320     		movs	r0, #19
 171 002a 4021     		movs	r1, #64
 172 002c FFF7FEFF 		bl	gyro_write8
 173              	.LVL17:
 110:..\gyroscope.c ****   gyro_write8(GYRO_REGISTER_CTRL_REG1, 0x0E);    //
 174              		.loc 1 110 0
 175 0030 1320     		movs	r0, #19
ARM GAS  C:\Users\a85495\AppData\Local\Temp\ccdeyOVC.s 			page 6


 176 0032 0E21     		movs	r1, #14
 177 0034 FFF7FEFF 		bl	gyro_write8
 178              	.LVL18:
 111:..\gyroscope.c ****   CyDelay(100); // 60 ms + 1/ODR
 179              		.loc 1 111 0
 180 0038 6420     		movs	r0, #100
 181 003a FFF7FEFF 		bl	CyDelay
 182              	.LVL19:
 112:..\gyroscope.c ****   /* ------------------------------------------------------------------ */
 113:..\gyroscope.c **** 
 114:..\gyroscope.c ****   return true;
 183              		.loc 1 114 0
 184 003e 0120     		movs	r0, #1
 185 0040 10BD     		pop	{r4, pc}
 186              	.LVL20:
 187              	.L10:
  86:..\gyroscope.c ****   }
 188              		.loc 1 86 0
 189 0042 0020     		movs	r0, #0
 190              	.LVL21:
 115:..\gyroscope.c **** }
 191              		.loc 1 115 0
 192 0044 10BD     		pop	{r4, pc}
 193              	.L13:
 194 0046 00BF     		.align	2
 195              	.L12:
 196 0048 00000000 		.word	.LANCHOR0
 197 004c 00000000 		.word	raw
 198              		.cfi_endproc
 199              	.LFE65:
 200              		.size	gyro_begin, .-gyro_begin
 201              		.global	__aeabi_i2f
 202              		.global	__aeabi_fmul
 203              		.global	__aeabi_f2iz
 204              		.section	.text.gyro_getData,"ax",%progbits
 205              		.align	2
 206              		.global	gyro_getData
 207              		.thumb
 208              		.thumb_func
 209              		.type	gyro_getData, %function
 210              	gyro_getData:
 211              	.LFB66:
 116:..\gyroscope.c **** 
 117:..\gyroscope.c **** uint8_t gyro_getData()
 118:..\gyroscope.c **** {
 212              		.loc 1 118 0
 213              		.cfi_startproc
 214              		@ args = 0, pretend = 0, frame = 16
 215              		@ frame_needed = 0, uses_anonymous_args = 0
 216 0000 70B5     		push	{r4, r5, r6, lr}
 217              		.cfi_def_cfa_offset 16
 218              		.cfi_offset 4, -16
 219              		.cfi_offset 5, -12
 220              		.cfi_offset 6, -8
 221              		.cfi_offset 14, -4
 222 0002 84B0     		sub	sp, sp, #16
 223              		.cfi_def_cfa_offset 32
ARM GAS  C:\Users\a85495\AppData\Local\Temp\ccdeyOVC.s 			page 7


 224              	.LVL22:
 119:..\gyroscope.c ****   uint8_t readingValid = false;
 120:..\gyroscope.c **** 
 121:..\gyroscope.c **** 
 122:..\gyroscope.c ****   /* Clear the raw data placeholder */
 123:..\gyroscope.c ****   raw.x = 0;
 225              		.loc 1 123 0
 226 0004 764A     		ldr	r2, .L24
 227 0006 0023     		movs	r3, #0
 228 0008 1380     		strh	r3, [r2]	@ movhi
 124:..\gyroscope.c ****   raw.y = 0;
 229              		.loc 1 124 0
 230 000a 5380     		strh	r3, [r2, #2]	@ movhi
 125:..\gyroscope.c ****   raw.z = 0;
 231              		.loc 1 125 0
 232 000c 9380     		strh	r3, [r2, #4]	@ movhi
 126:..\gyroscope.c **** 
 127:..\gyroscope.c ****   /* Read 7 bytes from the sensor */
 128:..\gyroscope.c ****   /*Wire.beginTransmission((byte)FXAS21002C_ADDRESS);
 129:..\gyroscope.c ****   #if ARDUINO >= 100
 130:..\gyroscope.c ****     Wire.write(GYRO_REGISTER_STATUS | 0x80);
 131:..\gyroscope.c ****   #else
 132:..\gyroscope.c ****     Wire.send(GYRO_REGISTER_STATUS | 0x80);
 133:..\gyroscope.c ****   #endif
 134:..\gyroscope.c ****   Wire.endTransmission();
 135:..\gyroscope.c ****   Wire.requestFrom((byte)FXAS21002C_ADDRESS, (byte)7);
 136:..\gyroscope.c ****   */
 137:..\gyroscope.c **** 
 138:..\gyroscope.c ****     uint8_t Write_Buf[1];  //create a buffer that will store the register that we want to start rea
 139:..\gyroscope.c ****     Write_Buf[0] = (uint8_t)GYRO_REGISTER_STATUS;   
 233              		.loc 1 139 0
 234 000e 8DF80C30 		strb	r3, [sp, #12]
 140:..\gyroscope.c ****     
 141:..\gyroscope.c ****     uint8_t Read_Buf[7] = {0}; //create an array that will store the data read
 235              		.loc 1 141 0
 236 0012 0193     		str	r3, [sp, #4]
 237 0014 ADF80830 		strh	r3, [sp, #8]	@ movhi
 238 0018 8DF80A30 		strb	r3, [sp, #10]
 142:..\gyroscope.c ****     
 143:..\gyroscope.c ****     I2C_MasterWriteBuf(FXAS21002C_ADDRESS, (uint8 *)Write_Buf, 1, I2C_MODE_NO_STOP);
 239              		.loc 1 143 0
 240 001c 2120     		movs	r0, #33
 241 001e 03A9     		add	r1, sp, #12
 242 0020 0122     		movs	r2, #1
 243 0022 0223     		movs	r3, #2
 244 0024 FFF7FEFF 		bl	I2C_MasterWriteBuf
 245              	.LVL23:
 246              	.L15:
 144:..\gyroscope.c ****     while((I2C_MasterStatus() & I2C_MSTAT_WR_CMPLT) == 0){} //wait till Master status indicates tha
 247              		.loc 1 144 0 discriminator 1
 248 0028 FFF7FEFF 		bl	I2C_MasterStatus
 249              	.LVL24:
 250 002c 10F0020F 		tst	r0, #2
 251 0030 FAD0     		beq	.L15
 145:..\gyroscope.c ****     
 146:..\gyroscope.c ****     I2C_MasterReadBuf(FXAS21002C_ADDRESS, (uint8 *) Read_Buf, sizeof(Read_Buf), I2C_MODE_REPEAT_STA
 252              		.loc 1 146 0
ARM GAS  C:\Users\a85495\AppData\Local\Temp\ccdeyOVC.s 			page 8


 253 0032 2120     		movs	r0, #33
 254 0034 01A9     		add	r1, sp, #4
 255 0036 0722     		movs	r2, #7
 256 0038 0123     		movs	r3, #1
 257 003a FFF7FEFF 		bl	I2C_MasterReadBuf
 258              	.LVL25:
 259              	.L16:
 147:..\gyroscope.c ****     while((I2C_MasterStatus() & I2C_MSTAT_RD_CMPLT)==0){}   //wait till Master status indicates rea
 260              		.loc 1 147 0 discriminator 1
 261 003e FFF7FEFF 		bl	I2C_MasterStatus
 262              	.LVL26:
 263 0042 10F0010F 		tst	r0, #1
 264 0046 FAD0     		beq	.L16
 265              	.LVL27:
 148:..\gyroscope.c ****     
 149:..\gyroscope.c **** 
 150:..\gyroscope.c ****     uint8_t status = Read_Buf[0];
 151:..\gyroscope.c ****     uint8_t xhi = Read_Buf[1];
 266              		.loc 1 151 0
 267 0048 9DF80500 		ldrb	r0, [sp, #5]	@ zero_extendqisi2
 268              	.LVL28:
 152:..\gyroscope.c ****     uint8_t xlo = Read_Buf[2];
 269              		.loc 1 152 0
 270 004c 9DF80630 		ldrb	r3, [sp, #6]	@ zero_extendqisi2
 271              	.LVL29:
 153:..\gyroscope.c ****     uint8_t yhi = Read_Buf[3];
 272              		.loc 1 153 0
 273 0050 9DF80750 		ldrb	r5, [sp, #7]	@ zero_extendqisi2
 274              	.LVL30:
 154:..\gyroscope.c ****     uint8_t ylo = Read_Buf[4];
 275              		.loc 1 154 0
 276 0054 9DF80810 		ldrb	r1, [sp, #8]	@ zero_extendqisi2
 277              	.LVL31:
 155:..\gyroscope.c ****     uint8_t zhi = Read_Buf[5];
 278              		.loc 1 155 0
 279 0058 9DF80940 		ldrb	r4, [sp, #9]	@ zero_extendqisi2
 280              	.LVL32:
 156:..\gyroscope.c ****     uint8_t zlo = Read_Buf[6];
 281              		.loc 1 156 0
 282 005c 9DF80A20 		ldrb	r2, [sp, #10]	@ zero_extendqisi2
 283              	.LVL33:
 157:..\gyroscope.c **** 
 158:..\gyroscope.c ****   /* Shift values to create properly formed integer */
 159:..\gyroscope.c ****   gyro.x = (int16_t)((xhi << 8) | xlo);
 284              		.loc 1 159 0
 285 0060 43EA0020 		orr	r0, r3, r0, lsl #8
 286              	.LVL34:
 287 0064 5F4B     		ldr	r3, .L24+4
 288              	.LVL35:
 289 0066 1880     		strh	r0, [r3]	@ movhi
 160:..\gyroscope.c ****   gyro.y = (int16_t)((yhi << 8) | ylo);
 290              		.loc 1 160 0
 291 0068 41EA0525 		orr	r5, r1, r5, lsl #8
 292              	.LVL36:
 293 006c 5D80     		strh	r5, [r3, #2]	@ movhi
 161:..\gyroscope.c ****   gyro.z = (int16_t)((zhi << 8) | zlo);
 294              		.loc 1 161 0
ARM GAS  C:\Users\a85495\AppData\Local\Temp\ccdeyOVC.s 			page 9


 295 006e 42EA0424 		orr	r4, r2, r4, lsl #8
 296              	.LVL37:
 297 0072 9C80     		strh	r4, [r3, #4]	@ movhi
 162:..\gyroscope.c **** 
 163:..\gyroscope.c ****   /* Assign raw values in case someone needs them */
 164:..\gyroscope.c ****   raw.x = gyro.x;
 298              		.loc 1 164 0
 299 0074 5A4B     		ldr	r3, .L24
 300 0076 1880     		strh	r0, [r3]	@ movhi
 165:..\gyroscope.c ****   raw.y = gyro.y;
 301              		.loc 1 165 0
 302 0078 5D80     		strh	r5, [r3, #2]	@ movhi
 166:..\gyroscope.c ****   raw.z = gyro.z;
 303              		.loc 1 166 0
 304 007a 9C80     		strh	r4, [r3, #4]	@ movhi
 167:..\gyroscope.c **** 
 168:..\gyroscope.c ****   /* Compensate values depending on the resolution */
 169:..\gyroscope.c ****   switch(_range)
 305              		.loc 1 169 0
 306 007c 5A4B     		ldr	r3, .L24+8
 307 007e 1B88     		ldrh	r3, [r3]
 308 0080 B3F5FA7F 		cmp	r3, #500
 309 0084 2AD0     		beq	.L18
 310 0086 02D8     		bhi	.L19
 311 0088 FA2B     		cmp	r3, #250
 312 008a 07D0     		beq	.L20
 313 008c 85E0     		b	.L17
 314              	.L19:
 315 008e B3F57A7F 		cmp	r3, #1000
 316 0092 43D0     		beq	.L21
 317 0094 B3F5FA6F 		cmp	r3, #2000
 318 0098 60D0     		beq	.L22
 319 009a 7EE0     		b	.L17
 320              	.L20:
 170:..\gyroscope.c ****   {
 171:..\gyroscope.c ****     case GYRO_RANGE_250DPS:
 172:..\gyroscope.c ****       gyro.x *= GYRO_SENSITIVITY_250DPS;
 321              		.loc 1 172 0
 322 009c 514E     		ldr	r6, .L24+4
 323 009e 00B2     		sxth	r0, r0
 324 00a0 FFF7FEFF 		bl	__aeabi_i2f
 325              	.LVL38:
 326 00a4 4FF07051 		mov	r1, #1006632960
 327 00a8 FFF7FEFF 		bl	__aeabi_fmul
 328              	.LVL39:
 329 00ac FFF7FEFF 		bl	__aeabi_f2iz
 330              	.LVL40:
 331 00b0 3080     		strh	r0, [r6]	@ movhi
 173:..\gyroscope.c ****       gyro.y *= GYRO_SENSITIVITY_250DPS;
 332              		.loc 1 173 0
 333 00b2 28B2     		sxth	r0, r5
 334 00b4 FFF7FEFF 		bl	__aeabi_i2f
 335              	.LVL41:
 336 00b8 4FF07051 		mov	r1, #1006632960
 337 00bc FFF7FEFF 		bl	__aeabi_fmul
 338              	.LVL42:
 339 00c0 FFF7FEFF 		bl	__aeabi_f2iz
ARM GAS  C:\Users\a85495\AppData\Local\Temp\ccdeyOVC.s 			page 10


 340              	.LVL43:
 341 00c4 7080     		strh	r0, [r6, #2]	@ movhi
 174:..\gyroscope.c ****       gyro.z *= GYRO_SENSITIVITY_250DPS;
 342              		.loc 1 174 0
 343 00c6 20B2     		sxth	r0, r4
 344 00c8 FFF7FEFF 		bl	__aeabi_i2f
 345              	.LVL44:
 346 00cc 4FF07051 		mov	r1, #1006632960
 347 00d0 FFF7FEFF 		bl	__aeabi_fmul
 348              	.LVL45:
 349 00d4 FFF7FEFF 		bl	__aeabi_f2iz
 350              	.LVL46:
 351 00d8 B080     		strh	r0, [r6, #4]	@ movhi
 175:..\gyroscope.c ****       break;
 352              		.loc 1 175 0
 353 00da 5EE0     		b	.L17
 354              	.LVL47:
 355              	.L18:
 176:..\gyroscope.c ****     case GYRO_RANGE_500DPS:
 177:..\gyroscope.c ****       gyro.x *= GYRO_SENSITIVITY_500DPS;
 356              		.loc 1 177 0
 357 00dc 414E     		ldr	r6, .L24+4
 358 00de 00B2     		sxth	r0, r0
 359 00e0 FFF7FEFF 		bl	__aeabi_i2f
 360              	.LVL48:
 361 00e4 4FF07251 		mov	r1, #1015021568
 362 00e8 FFF7FEFF 		bl	__aeabi_fmul
 363              	.LVL49:
 364 00ec FFF7FEFF 		bl	__aeabi_f2iz
 365              	.LVL50:
 366 00f0 3080     		strh	r0, [r6]	@ movhi
 178:..\gyroscope.c ****       gyro.y *= GYRO_SENSITIVITY_500DPS;
 367              		.loc 1 178 0
 368 00f2 28B2     		sxth	r0, r5
 369 00f4 FFF7FEFF 		bl	__aeabi_i2f
 370              	.LVL51:
 371 00f8 4FF07251 		mov	r1, #1015021568
 372 00fc FFF7FEFF 		bl	__aeabi_fmul
 373              	.LVL52:
 374 0100 FFF7FEFF 		bl	__aeabi_f2iz
 375              	.LVL53:
 376 0104 7080     		strh	r0, [r6, #2]	@ movhi
 179:..\gyroscope.c ****       gyro.z *= GYRO_SENSITIVITY_500DPS;
 377              		.loc 1 179 0
 378 0106 20B2     		sxth	r0, r4
 379 0108 FFF7FEFF 		bl	__aeabi_i2f
 380              	.LVL54:
 381 010c 4FF07251 		mov	r1, #1015021568
 382 0110 FFF7FEFF 		bl	__aeabi_fmul
 383              	.LVL55:
 384 0114 FFF7FEFF 		bl	__aeabi_f2iz
 385              	.LVL56:
 386 0118 B080     		strh	r0, [r6, #4]	@ movhi
 180:..\gyroscope.c ****       break;
 387              		.loc 1 180 0
 388 011a 3EE0     		b	.L17
 389              	.LVL57:
ARM GAS  C:\Users\a85495\AppData\Local\Temp\ccdeyOVC.s 			page 11


 390              	.L21:
 181:..\gyroscope.c ****     case GYRO_RANGE_1000DPS:
 182:..\gyroscope.c ****       gyro.x *= GYRO_SENSITIVITY_1000DPS;
 391              		.loc 1 182 0
 392 011c 314E     		ldr	r6, .L24+4
 393 011e 00B2     		sxth	r0, r0
 394 0120 FFF7FEFF 		bl	__aeabi_i2f
 395              	.LVL58:
 396 0124 4FF07451 		mov	r1, #1023410176
 397 0128 FFF7FEFF 		bl	__aeabi_fmul
 398              	.LVL59:
 399 012c FFF7FEFF 		bl	__aeabi_f2iz
 400              	.LVL60:
 401 0130 3080     		strh	r0, [r6]	@ movhi
 183:..\gyroscope.c ****       gyro.y *= GYRO_SENSITIVITY_1000DPS;
 402              		.loc 1 183 0
 403 0132 28B2     		sxth	r0, r5
 404 0134 FFF7FEFF 		bl	__aeabi_i2f
 405              	.LVL61:
 406 0138 4FF07451 		mov	r1, #1023410176
 407 013c FFF7FEFF 		bl	__aeabi_fmul
 408              	.LVL62:
 409 0140 FFF7FEFF 		bl	__aeabi_f2iz
 410              	.LVL63:
 411 0144 7080     		strh	r0, [r6, #2]	@ movhi
 184:..\gyroscope.c ****       gyro.z *= GYRO_SENSITIVITY_1000DPS;
 412              		.loc 1 184 0
 413 0146 20B2     		sxth	r0, r4
 414 0148 FFF7FEFF 		bl	__aeabi_i2f
 415              	.LVL64:
 416 014c 4FF07451 		mov	r1, #1023410176
 417 0150 FFF7FEFF 		bl	__aeabi_fmul
 418              	.LVL65:
 419 0154 FFF7FEFF 		bl	__aeabi_f2iz
 420              	.LVL66:
 421 0158 B080     		strh	r0, [r6, #4]	@ movhi
 185:..\gyroscope.c ****       break;
 422              		.loc 1 185 0
 423 015a 1EE0     		b	.L17
 424              	.LVL67:
 425              	.L22:
 186:..\gyroscope.c ****     case GYRO_RANGE_2000DPS:
 187:..\gyroscope.c ****       gyro.x *= GYRO_SENSITIVITY_2000DPS;
 426              		.loc 1 187 0
 427 015c 214E     		ldr	r6, .L24+4
 428 015e 00B2     		sxth	r0, r0
 429 0160 FFF7FEFF 		bl	__aeabi_i2f
 430              	.LVL68:
 431 0164 4FF07651 		mov	r1, #1031798784
 432 0168 FFF7FEFF 		bl	__aeabi_fmul
 433              	.LVL69:
 434 016c FFF7FEFF 		bl	__aeabi_f2iz
 435              	.LVL70:
 436 0170 3080     		strh	r0, [r6]	@ movhi
 188:..\gyroscope.c ****       gyro.y *= GYRO_SENSITIVITY_2000DPS;
 437              		.loc 1 188 0
 438 0172 28B2     		sxth	r0, r5
ARM GAS  C:\Users\a85495\AppData\Local\Temp\ccdeyOVC.s 			page 12


 439 0174 FFF7FEFF 		bl	__aeabi_i2f
 440              	.LVL71:
 441 0178 4FF07651 		mov	r1, #1031798784
 442 017c FFF7FEFF 		bl	__aeabi_fmul
 443              	.LVL72:
 444 0180 FFF7FEFF 		bl	__aeabi_f2iz
 445              	.LVL73:
 446 0184 7080     		strh	r0, [r6, #2]	@ movhi
 189:..\gyroscope.c ****       gyro.z *= GYRO_SENSITIVITY_2000DPS;
 447              		.loc 1 189 0
 448 0186 20B2     		sxth	r0, r4
 449 0188 FFF7FEFF 		bl	__aeabi_i2f
 450              	.LVL74:
 451 018c 4FF07651 		mov	r1, #1031798784
 452 0190 FFF7FEFF 		bl	__aeabi_fmul
 453              	.LVL75:
 454 0194 FFF7FEFF 		bl	__aeabi_f2iz
 455              	.LVL76:
 456 0198 B080     		strh	r0, [r6, #4]	@ movhi
 457              	.L17:
 190:..\gyroscope.c ****       break;
 191:..\gyroscope.c ****   }
 192:..\gyroscope.c **** 
 193:..\gyroscope.c ****   /* Convert values to rad/s */
 194:..\gyroscope.c ****   gyro.x *= SENSORS_DPS_TO_RADS;
 458              		.loc 1 194 0
 459 019a 124C     		ldr	r4, .L24+4
 460 019c B4F90000 		ldrsh	r0, [r4]
 461 01a0 FFF7FEFF 		bl	__aeabi_i2f
 462              	.LVL77:
 463 01a4 1149     		ldr	r1, .L24+12
 464 01a6 FFF7FEFF 		bl	__aeabi_fmul
 465              	.LVL78:
 466 01aa FFF7FEFF 		bl	__aeabi_f2iz
 467              	.LVL79:
 468 01ae 2080     		strh	r0, [r4]	@ movhi
 195:..\gyroscope.c ****   gyro.y *= SENSORS_DPS_TO_RADS;
 469              		.loc 1 195 0
 470 01b0 B4F90200 		ldrsh	r0, [r4, #2]
 471 01b4 FFF7FEFF 		bl	__aeabi_i2f
 472              	.LVL80:
 473 01b8 0C49     		ldr	r1, .L24+12
 474 01ba FFF7FEFF 		bl	__aeabi_fmul
 475              	.LVL81:
 476 01be FFF7FEFF 		bl	__aeabi_f2iz
 477              	.LVL82:
 478 01c2 6080     		strh	r0, [r4, #2]	@ movhi
 196:..\gyroscope.c ****   gyro.z *= SENSORS_DPS_TO_RADS;
 479              		.loc 1 196 0
 480 01c4 B4F90400 		ldrsh	r0, [r4, #4]
 481 01c8 FFF7FEFF 		bl	__aeabi_i2f
 482              	.LVL83:
 483 01cc 0749     		ldr	r1, .L24+12
 484 01ce FFF7FEFF 		bl	__aeabi_fmul
 485              	.LVL84:
 486 01d2 FFF7FEFF 		bl	__aeabi_f2iz
 487              	.LVL85:
ARM GAS  C:\Users\a85495\AppData\Local\Temp\ccdeyOVC.s 			page 13


 488 01d6 A080     		strh	r0, [r4, #4]	@ movhi
 489              	.LVL86:
 197:..\gyroscope.c ****   readingValid = true;
 198:..\gyroscope.c **** 
 199:..\gyroscope.c ****   return readingValid;
 200:..\gyroscope.c **** }
 490              		.loc 1 200 0
 491 01d8 0120     		movs	r0, #1
 492 01da 04B0     		add	sp, sp, #16
 493              		.cfi_def_cfa_offset 16
 494              		@ sp needed
 495 01dc 70BD     		pop	{r4, r5, r6, pc}
 496              	.L25:
 497 01de 00BF     		.align	2
 498              	.L24:
 499 01e0 00000000 		.word	raw
 500 01e4 00000000 		.word	gyro
 501 01e8 00000000 		.word	.LANCHOR0
 502 01ec 35FA8E3C 		.word	1016003125
 503              		.cfi_endproc
 504              	.LFE66:
 505              		.size	gyro_getData, .-gyro_getData
 506              		.section	.text.gyro_readData,"ax",%progbits
 507              		.align	2
 508              		.global	gyro_readData
 509              		.thumb
 510              		.thumb_func
 511              		.type	gyro_readData, %function
 512              	gyro_readData:
 513              	.LFB67:
 201:..\gyroscope.c **** 
 202:..\gyroscope.c **** void gyro_readData(gyroRawData_t *gyroscope)
 203:..\gyroscope.c **** {
 514              		.loc 1 203 0
 515              		.cfi_startproc
 516              		@ args = 0, pretend = 0, frame = 0
 517              		@ frame_needed = 0, uses_anonymous_args = 0
 518              	.LVL87:
 519 0000 10B5     		push	{r4, lr}
 520              		.cfi_def_cfa_offset 8
 521              		.cfi_offset 4, -8
 522              		.cfi_offset 14, -4
 523 0002 0446     		mov	r4, r0
 204:..\gyroscope.c ****     //gets the gyroscope data
 205:..\gyroscope.c ****     gyro_getData();
 524              		.loc 1 205 0
 525 0004 FFF7FEFF 		bl	gyro_getData
 526              	.LVL88:
 206:..\gyroscope.c ****     gyroscope->x = gyro.x;
 527              		.loc 1 206 0
 528 0008 034B     		ldr	r3, .L28
 529 000a 1A88     		ldrh	r2, [r3]
 530 000c 2280     		strh	r2, [r4]	@ movhi
 207:..\gyroscope.c ****     gyroscope->y = gyro.y;
 531              		.loc 1 207 0
 532 000e 5A88     		ldrh	r2, [r3, #2]
 533 0010 6280     		strh	r2, [r4, #2]	@ movhi
ARM GAS  C:\Users\a85495\AppData\Local\Temp\ccdeyOVC.s 			page 14


 208:..\gyroscope.c ****     gyroscope->z = gyro.z;
 534              		.loc 1 208 0
 535 0012 9B88     		ldrh	r3, [r3, #4]
 536 0014 A380     		strh	r3, [r4, #4]	@ movhi
 537 0016 10BD     		pop	{r4, pc}
 538              	.LVL89:
 539              	.L29:
 540              		.align	2
 541              	.L28:
 542 0018 00000000 		.word	gyro
 543              		.cfi_endproc
 544              	.LFE67:
 545              		.size	gyro_readData, .-gyro_readData
 546              		.comm	gyro,6,4
 547              		.comm	raw,6,4
 548              		.bss
 549              		.align	1
 550              		.set	.LANCHOR0,. + 0
 551              		.type	_range, %object
 552              		.size	_range, 2
 553              	_range:
 554 0000 0000     		.space	2
 555              		.text
 556              	.Letext0:
 557              		.file 2 "c:\\program files (x86)\\cypress\\psoc creator\\4.0\\psoc creator\\import\\gnu\\arm\\4.9.
 558              		.file 3 "c:\\program files (x86)\\cypress\\psoc creator\\4.0\\psoc creator\\import\\gnu\\arm\\4.9.
 559              		.file 4 "..\\gyroscope.h"
 560              		.file 5 "Generated_Source\\PSoC5/cytypes.h"
 561              		.file 6 "Generated_Source\\PSoC5/core_cm3.h"
 562              		.file 7 "Generated_Source\\PSoC5/I2C.h"
 563              		.file 8 "..\\twi.h"
 564              		.file 9 "Generated_Source\\PSoC5/CyLib.h"