ARM GAS  C:\Users\a85495\AppData\Local\Temp\ccPjL0Yt.s 			page 1


   1              		.syntax unified
   2              		.cpu cortex-m3
   3              		.fpu softvfp
   4              		.eabi_attribute 20, 1
   5              		.eabi_attribute 21, 1
   6              		.eabi_attribute 23, 3
   7              		.eabi_attribute 24, 1
   8              		.eabi_attribute 25, 1
   9              		.eabi_attribute 26, 1
  10              		.eabi_attribute 30, 1
  11              		.eabi_attribute 34, 1
  12              		.eabi_attribute 18, 4
  13              		.thumb
  14              		.file	"main.c"
  15              		.text
  16              	.Ltext0:
  17              		.cfi_sections	.debug_frame
  18              		.section	.text.initialize,"ax",%progbits
  19              		.align	2
  20              		.global	initialize
  21              		.thumb
  22              		.thumb_func
  23              		.type	initialize, %function
  24              	initialize:
  25              	.LFB63:
  26              		.file 1 "main.c"
   1:main.c        **** /* ========================================
   2:main.c        ****  *
   3:main.c        ****  * Copyright YOUR COMPANY, THE YEAR
   4:main.c        ****  * All Rights Reserved
   5:main.c        ****  * UNPUBLISHED, LICENSED SOFTWARE.
   6:main.c        ****  *
   7:main.c        ****  * CONFIDENTIAL AND PROPRIETARY INFORMATION
   8:main.c        ****  * WHICH IS THE PROPERTY OF your company.
   9:main.c        ****  *
  10:main.c        ****  * ========================================
  11:main.c        **** */
  12:main.c        **** #include "project.h"
  13:main.c        **** #include <gyroscope.h>
  14:main.c        **** #include <twi.h>
  15:main.c        **** #include <stdlib.h>
  16:main.c        **** 
  17:main.c        **** gyroRawData_t gyroData;
  18:main.c        **** /*
  19:main.c        ****  * Key words:
  20:main.c        ****  *         -gyroData(.x,.y,.z) for accelerometer data in (m/s^2)
  21:main.c        ****  
  22:main.c        **** */
  23:main.c        **** 
  24:main.c        **** void initialize(){
  27              		.loc 1 24 0
  28              		.cfi_startproc
  29              		@ args = 0, pretend = 0, frame = 0
  30              		@ frame_needed = 0, uses_anonymous_args = 0
  31 0000 10B5     		push	{r4, lr}
  32              		.cfi_def_cfa_offset 8
  33              		.cfi_offset 4, -8
ARM GAS  C:\Users\a85495\AppData\Local\Temp\ccPjL0Yt.s 			page 2


  34              		.cfi_offset 14, -4
  25:main.c        ****    
  26:main.c        ****    serial_Start();    //initialize the UART
  35              		.loc 1 26 0
  36 0002 FFF7FEFF 		bl	serial_Start
  37              	.LVL0:
  27:main.c        ****    I2C_Start();       //initializes the I2C
  38              		.loc 1 27 0
  39 0006 FFF7FEFF 		bl	I2C_Start
  40              	.LVL1:
  28:main.c        **** 
  29:main.c        ****    CyGlobalIntEnable; /* Enable global interrupts. */
  41              		.loc 1 29 0
  42              	@ 29 "main.c" 1
  43 000a 62B6     		CPSIE   i
  44              	@ 0 "" 2
  30:main.c        **** 
  31:main.c        ****    serial_PutString("Starting GYRO initializing\r\n");
  45              		.loc 1 31 0
  46              		.thumb
  47 000c 0948     		ldr	r0, .L5
  48 000e FFF7FEFF 		bl	serial_PutString
  49              	.LVL2:
  32:main.c        ****    uint8_t err = gyro_begin(GYRO_RANGE_250DPS );
  50              		.loc 1 32 0
  51 0012 FA20     		movs	r0, #250
  52 0014 FFF7FEFF 		bl	gyro_begin
  53              	.LVL3:
  54 0018 0446     		mov	r4, r0
  55              	.LVL4:
  33:main.c        ****     serial_PutString("//======Done GYRO initializing======//\r\n"); //42
  56              		.loc 1 33 0
  57 001a 0748     		ldr	r0, .L5+4
  58 001c FFF7FEFF 		bl	serial_PutString
  59              	.LVL5:
  34:main.c        ****     if(!err){
  60              		.loc 1 34 0
  61 0020 1CB9     		cbnz	r4, .L2
  35:main.c        ****         serial_PutString("//===GYRO initializing failed===//\r\n");
  62              		.loc 1 35 0
  63 0022 0648     		ldr	r0, .L5+8
  64 0024 FFF7FEFF 		bl	serial_PutString
  65              	.LVL6:
  66 0028 10BD     		pop	{r4, pc}
  67              	.LVL7:
  68              	.L2:
  36:main.c        ****     }
  37:main.c        ****     else{
  38:main.c        ****         serial_PutString("//===GYRO initialization success===//\r\n");
  69              		.loc 1 38 0
  70 002a 0548     		ldr	r0, .L5+12
  71 002c FFF7FEFF 		bl	serial_PutString
  72              	.LVL8:
  73 0030 10BD     		pop	{r4, pc}
  74              	.LVL9:
  75              	.L6:
  76 0032 00BF     		.align	2
ARM GAS  C:\Users\a85495\AppData\Local\Temp\ccPjL0Yt.s 			page 3


  77              	.L5:
  78 0034 00000000 		.word	.LC0
  79 0038 20000000 		.word	.LC1
  80 003c 4C000000 		.word	.LC2
  81 0040 74000000 		.word	.LC3
  82              		.cfi_endproc
  83              	.LFE63:
  84              		.size	initialize, .-initialize
  85              		.section	.text.main,"ax",%progbits
  86              		.align	2
  87              		.global	main
  88              		.thumb
  89              		.thumb_func
  90              		.type	main, %function
  91              	main:
  92              	.LFB64:
  39:main.c        ****     }
  40:main.c        **** }
  41:main.c        **** 
  42:main.c        **** int main(void)
  43:main.c        **** {
  93              		.loc 1 43 0
  94              		.cfi_startproc
  95              		@ Volatile: function does not return.
  96              		@ args = 0, pretend = 0, frame = 0
  97              		@ frame_needed = 0, uses_anonymous_args = 0
  98 0000 08B5     		push	{r3, lr}
  99              		.cfi_def_cfa_offset 8
 100              		.cfi_offset 3, -8
 101              		.cfi_offset 14, -4
  44:main.c        ****     initialize();
 102              		.loc 1 44 0
 103 0002 FFF7FEFF 		bl	initialize
 104              	.LVL10:
 105              	.L8:
  45:main.c        **** 
  46:main.c        ****     /* Place your initialization/startup code here (e.g. MyInst_Start()) */
  47:main.c        **** 
  48:main.c        ****     for(;;)
  49:main.c        ****     {
  50:main.c        ****         /* Place your application code here. */
  51:main.c        ****     }
 106              		.loc 1 51 0 discriminator 1
 107 0006 FEE7     		b	.L8
 108              		.cfi_endproc
 109              	.LFE64:
 110              		.size	main, .-main
 111              		.comm	gyroData,6,4
 112              		.section	.rodata.str1.4,"aMS",%progbits,1
 113              		.align	2
 114              	.LC0:
 115 0000 53746172 		.ascii	"Starting GYRO initializing\015\012\000"
 115      74696E67 
 115      20475952 
 115      4F20696E 
 115      69746961 
 116 001d 000000   		.space	3
ARM GAS  C:\Users\a85495\AppData\Local\Temp\ccPjL0Yt.s 			page 4


 117              	.LC1:
 118 0020 2F2F3D3D 		.ascii	"//======Done GYRO initializing======//\015\012\000"
 118      3D3D3D3D 
 118      446F6E65 
 118      20475952 
 118      4F20696E 
 119 0049 000000   		.space	3
 120              	.LC2:
 121 004c 2F2F3D3D 		.ascii	"//===GYRO initializing failed===//\015\012\000"
 121      3D475952 
 121      4F20696E 
 121      69746961 
 121      6C697A69 
 122 0071 000000   		.space	3
 123              	.LC3:
 124 0074 2F2F3D3D 		.ascii	"//===GYRO initialization success===//\015\012\000"
 124      3D475952 
 124      4F20696E 
 124      69746961 
 124      6C697A61 
 125              		.text
 126              	.Letext0:
 127              		.file 2 "c:\\program files (x86)\\cypress\\psoc creator\\4.0\\psoc creator\\import\\gnu\\arm\\4.9.
 128              		.file 3 "c:\\program files (x86)\\cypress\\psoc creator\\4.0\\psoc creator\\import\\gnu\\arm\\4.9.
 129              		.file 4 "Generated_Source\\PSoC5/cytypes.h"
 130              		.file 5 "../gyroscope.h"
 131              		.file 6 "Generated_Source\\PSoC5/core_cm3.h"
 132              		.file 7 "Generated_Source\\PSoC5/serial.h"
 133              		.file 8 "Generated_Source\\PSoC5/I2C.h"